ARM GAS  /tmp/ccXIOwEr.s 			page 1


   1              		.cpu cortex-m3
   2              		.eabi_attribute 20, 1
   3              		.eabi_attribute 21, 1
   4              		.eabi_attribute 23, 3
   5              		.eabi_attribute 24, 1
   6              		.eabi_attribute 25, 1
   7              		.eabi_attribute 26, 1
   8              		.eabi_attribute 30, 4
   9              		.eabi_attribute 34, 1
  10              		.eabi_attribute 18, 4
  11              		.file	"stm32f1xx_hal_nor.c"
  12              		.text
  13              		.section	.text.HAL_NOR_MspInit,"ax",%progbits
  14              		.align	1
  15              		.weak	HAL_NOR_MspInit
  16              		.arch armv7-m
  17              		.syntax unified
  18              		.thumb
  19              		.thumb_func
  20              		.fpu softvfp
  22              	HAL_NOR_MspInit:
  23              		@ args = 0, pretend = 0, frame = 0
  24              		@ frame_needed = 0, uses_anonymous_args = 0
  25              		@ link register save eliminated.
  26 0000 7047     		bx	lr
  28              		.section	.text.HAL_NOR_Init,"ax",%progbits
  29              		.align	1
  30              		.global	HAL_NOR_Init
  31              		.syntax unified
  32              		.thumb
  33              		.thumb_func
  34              		.fpu softvfp
  36              	HAL_NOR_Init:
  37              		@ args = 0, pretend = 0, frame = 0
  38              		@ frame_needed = 0, uses_anonymous_args = 0
  39 0000 70B5     		push	{r4, r5, r6, lr}
  40 0002 0E46     		mov	r6, r1
  41 0004 1546     		mov	r5, r2
  42 0006 0446     		mov	r4, r0
  43 0008 58B3     		cbz	r0, .L5
  44 000a 90F84130 		ldrb	r3, [r0, #65]	@ zero_extendqisi2
  45 000e 03F0FF02 		and	r2, r3, #255
  46 0012 1BB9     		cbnz	r3, .L4
  47 0014 80F84020 		strb	r2, [r0, #64]
  48 0018 FFF7FEFF 		bl	HAL_NOR_MspInit
  49              	.L4:
  50 001c 04F10801 		add	r1, r4, #8
  51 0020 2068     		ldr	r0, [r4]
  52 0022 FFF7FEFF 		bl	FSMC_NORSRAM_Init
  53 0026 3146     		mov	r1, r6
  54 0028 A268     		ldr	r2, [r4, #8]
  55 002a 2068     		ldr	r0, [r4]
  56 002c FFF7FEFF 		bl	FSMC_NORSRAM_Timing_Init
  57 0030 2946     		mov	r1, r5
  58 0032 236B     		ldr	r3, [r4, #48]
  59 0034 A268     		ldr	r2, [r4, #8]
  60 0036 6068     		ldr	r0, [r4, #4]
ARM GAS  /tmp/ccXIOwEr.s 			page 2


  61 0038 FFF7FEFF 		bl	FSMC_NORSRAM_Extended_Timing_Init
  62 003c 2268     		ldr	r2, [r4]
  63 003e A168     		ldr	r1, [r4, #8]
  64 0040 0020     		movs	r0, #0
  65 0042 52F82130 		ldr	r3, [r2, r1, lsl #2]
  66 0046 43F00103 		orr	r3, r3, #1
  67 004a 42F82130 		str	r3, [r2, r1, lsl #2]
  68 004e 6369     		ldr	r3, [r4, #20]
  69 0050 054A     		ldr	r2, .L6
  70 0052 003B     		subs	r3, r3, #0
  71 0054 18BF     		it	ne
  72 0056 0123     		movne	r3, #1
  73 0058 1360     		str	r3, [r2]
  74 005a 0123     		movs	r3, #1
  75 005c 84F84130 		strb	r3, [r4, #65]
  76              	.L3:
  77 0060 70BD     		pop	{r4, r5, r6, pc}
  78              	.L5:
  79 0062 0120     		movs	r0, #1
  80 0064 FCE7     		b	.L3
  81              	.L7:
  82 0066 00BF     		.align	2
  83              	.L6:
  84 0068 00000000 		.word	.LANCHOR0
  86              		.section	.text.HAL_NOR_MspDeInit,"ax",%progbits
  87              		.align	1
  88              		.weak	HAL_NOR_MspDeInit
  89              		.syntax unified
  90              		.thumb
  91              		.thumb_func
  92              		.fpu softvfp
  94              	HAL_NOR_MspDeInit:
  95              		@ args = 0, pretend = 0, frame = 0
  96              		@ frame_needed = 0, uses_anonymous_args = 0
  97              		@ link register save eliminated.
  98 0000 7047     		bx	lr
 100              		.section	.text.HAL_NOR_DeInit,"ax",%progbits
 101              		.align	1
 102              		.global	HAL_NOR_DeInit
 103              		.syntax unified
 104              		.thumb
 105              		.thumb_func
 106              		.fpu softvfp
 108              	HAL_NOR_DeInit:
 109              		@ args = 0, pretend = 0, frame = 0
 110              		@ frame_needed = 0, uses_anonymous_args = 0
 111 0000 10B5     		push	{r4, lr}
 112 0002 0446     		mov	r4, r0
 113 0004 FFF7FEFF 		bl	HAL_NOR_MspDeInit
 114 0008 D4E90112 		ldrd	r1, r2, [r4, #4]
 115 000c 2068     		ldr	r0, [r4]
 116 000e FFF7FEFF 		bl	FSMC_NORSRAM_DeInit
 117 0012 0020     		movs	r0, #0
 118 0014 84F84100 		strb	r0, [r4, #65]
 119 0018 84F84000 		strb	r0, [r4, #64]
 120 001c 10BD     		pop	{r4, pc}
 122              		.section	.text.HAL_NOR_MspWait,"ax",%progbits
ARM GAS  /tmp/ccXIOwEr.s 			page 3


 123              		.align	1
 124              		.weak	HAL_NOR_MspWait
 125              		.syntax unified
 126              		.thumb
 127              		.thumb_func
 128              		.fpu softvfp
 130              	HAL_NOR_MspWait:
 131              		@ args = 0, pretend = 0, frame = 0
 132              		@ frame_needed = 0, uses_anonymous_args = 0
 133              		@ link register save eliminated.
 134 0000 7047     		bx	lr
 136              		.section	.text.HAL_NOR_Read_ID,"ax",%progbits
 137              		.align	1
 138              		.global	HAL_NOR_Read_ID
 139              		.syntax unified
 140              		.thumb
 141              		.thumb_func
 142              		.fpu softvfp
 144              	HAL_NOR_Read_ID:
 145              		@ args = 0, pretend = 0, frame = 0
 146              		@ frame_needed = 0, uses_anonymous_args = 0
 147 0000 70B5     		push	{r4, r5, r6, lr}
 148 0002 90F84130 		ldrb	r3, [r0, #65]	@ zero_extendqisi2
 149 0006 0446     		mov	r4, r0
 150 0008 022B     		cmp	r3, #2
 151 000a D8B2     		uxtb	r0, r3
 152 000c 57D0     		beq	.L12
 153 000e 0128     		cmp	r0, #1
 154 0010 01D0     		beq	.L13
 155 0012 0428     		cmp	r0, #4
 156 0014 5AD1     		bne	.L27
 157              	.L13:
 158 0016 94F84030 		ldrb	r3, [r4, #64]	@ zero_extendqisi2
 159 001a 012B     		cmp	r3, #1
 160 001c 4FF00203 		mov	r3, #2
 161 0020 56D0     		beq	.L28
 162 0022 0122     		movs	r2, #1
 163 0024 84F84130 		strb	r3, [r4, #65]
 164 0028 A368     		ldr	r3, [r4, #8]
 165 002a 84F84020 		strb	r2, [r4, #64]
 166 002e 002B     		cmp	r3, #0
 167 0030 46D0     		beq	.L29
 168 0032 022B     		cmp	r3, #2
 169 0034 47D0     		beq	.L30
 170 0036 042B     		cmp	r3, #4
 171 0038 0CBF     		ite	eq
 172 003a 4FF0D043 		moveq	r3, #1744830464
 173 003e 4FF0D843 		movne	r3, #1811939328
 174              	.L14:
 175 0042 AA26     		movs	r6, #170
 176 0044 234A     		ldr	r2, .L38
 177 0046 1568     		ldr	r5, [r2]
 178 0048 012D     		cmp	r5, #1
 179 004a 0CBF     		ite	eq
 180 004c 03F6AA25 		addweq	r5, r3, #2730
 181 0050 03F25555 		addwne	r5, r3, #1365
 182 0054 2E80     		strh	r6, [r5]	@ movhi
ARM GAS  /tmp/ccXIOwEr.s 			page 4


 183              		.syntax unified
 184              	@ 879 "./cmsis/inc/cmsis_gcc.h" 1
 185 0056 BFF34F8F 		dsb 0xF
 186              	@ 0 "" 2
 187              		.thumb
 188              		.syntax unified
 189 005a 5526     		movs	r6, #85
 190 005c 1568     		ldr	r5, [r2]
 191 005e 012D     		cmp	r5, #1
 192 0060 0CBF     		ite	eq
 193 0062 03F25455 		addweq	r5, r3, #1364
 194 0066 03F2AA25 		addwne	r5, r3, #682
 195 006a 2E80     		strh	r6, [r5]	@ movhi
 196              		.syntax unified
 197              	@ 879 "./cmsis/inc/cmsis_gcc.h" 1
 198 006c BFF34F8F 		dsb 0xF
 199              	@ 0 "" 2
 200              		.thumb
 201              		.syntax unified
 202 0070 9026     		movs	r6, #144
 203 0072 1568     		ldr	r5, [r2]
 204 0074 012D     		cmp	r5, #1
 205 0076 0CBF     		ite	eq
 206 0078 03F6AA25 		addweq	r5, r3, #2730
 207 007c 03F25555 		addwne	r5, r3, #1365
 208 0080 2E80     		strh	r6, [r5]	@ movhi
 209              		.syntax unified
 210              	@ 879 "./cmsis/inc/cmsis_gcc.h" 1
 211 0082 BFF34F8F 		dsb 0xF
 212              	@ 0 "" 2
 213              		.thumb
 214              		.syntax unified
 215 0086 1268     		ldr	r2, [r2]
 216 0088 1D88     		ldrh	r5, [r3]
 217 008a 012A     		cmp	r2, #1
 218 008c 0D80     		strh	r5, [r1]	@ movhi
 219 008e 0CBF     		ite	eq
 220 0090 9D1C     		addeq	r5, r3, #2
 221 0092 5D1C     		addne	r5, r3, #1
 222 0094 2D88     		ldrh	r5, [r5]
 223 0096 012A     		cmp	r2, #1
 224 0098 4D80     		strh	r5, [r1, #2]	@ movhi
 225 009a 0CBF     		ite	eq
 226 009c 03F11C05 		addeq	r5, r3, #28
 227 00a0 03F10E05 		addne	r5, r3, #14
 228 00a4 2D88     		ldrh	r5, [r5]
 229 00a6 012A     		cmp	r2, #1
 230 00a8 8D80     		strh	r5, [r1, #4]	@ movhi
 231 00aa 0CBF     		ite	eq
 232 00ac 1E33     		addeq	r3, r3, #30
 233 00ae 0F33     		addne	r3, r3, #15
 234 00b0 1B88     		ldrh	r3, [r3]
 235 00b2 CB80     		strh	r3, [r1, #6]	@ movhi
 236 00b4 84F84100 		strb	r0, [r4, #65]
 237 00b8 0020     		movs	r0, #0
 238 00ba 84F84000 		strb	r0, [r4, #64]
 239              	.L12:
ARM GAS  /tmp/ccXIOwEr.s 			page 5


 240 00be 70BD     		pop	{r4, r5, r6, pc}
 241              	.L29:
 242 00c0 4FF0C043 		mov	r3, #1610612736
 243 00c4 BDE7     		b	.L14
 244              	.L30:
 245 00c6 4FF0C843 		mov	r3, #1677721600
 246 00ca BAE7     		b	.L14
 247              	.L27:
 248 00cc 0120     		movs	r0, #1
 249 00ce F6E7     		b	.L12
 250              	.L28:
 251 00d0 1846     		mov	r0, r3
 252 00d2 F4E7     		b	.L12
 253              	.L39:
 254              		.align	2
 255              	.L38:
 256 00d4 00000000 		.word	.LANCHOR0
 258              		.section	.text.HAL_NOR_ReturnToReadMode,"ax",%progbits
 259              		.align	1
 260              		.global	HAL_NOR_ReturnToReadMode
 261              		.syntax unified
 262              		.thumb
 263              		.thumb_func
 264              		.fpu softvfp
 266              	HAL_NOR_ReturnToReadMode:
 267              		@ args = 0, pretend = 0, frame = 0
 268              		@ frame_needed = 0, uses_anonymous_args = 0
 269              		@ link register save eliminated.
 270 0000 90F84120 		ldrb	r2, [r0, #65]	@ zero_extendqisi2
 271 0004 0346     		mov	r3, r0
 272 0006 022A     		cmp	r2, #2
 273 0008 D0B2     		uxtb	r0, r2
 274 000a 2BD0     		beq	.L41
 275 000c 0128     		cmp	r0, #1
 276 000e 01D0     		beq	.L42
 277 0010 0428     		cmp	r0, #4
 278 0012 24D1     		bne	.L44
 279              	.L42:
 280 0014 93F84020 		ldrb	r2, [r3, #64]	@ zero_extendqisi2
 281 0018 012A     		cmp	r2, #1
 282 001a 4FF00202 		mov	r2, #2
 283 001e 20D0     		beq	.L45
 284 0020 0121     		movs	r1, #1
 285 0022 83F84120 		strb	r2, [r3, #65]
 286 0026 9A68     		ldr	r2, [r3, #8]
 287 0028 83F84010 		strb	r1, [r3, #64]
 288 002c 8AB1     		cbz	r2, .L46
 289 002e 022A     		cmp	r2, #2
 290 0030 12D0     		beq	.L47
 291 0032 042A     		cmp	r2, #4
 292 0034 0CBF     		ite	eq
 293 0036 4FF0D042 		moveq	r2, #1744830464
 294 003a 4FF0D842 		movne	r2, #1811939328
 295              	.L43:
 296 003e F021     		movs	r1, #240
 297 0040 1180     		strh	r1, [r2]	@ movhi
 298              		.syntax unified
ARM GAS  /tmp/ccXIOwEr.s 			page 6


 299              	@ 879 "./cmsis/inc/cmsis_gcc.h" 1
 300 0042 BFF34F8F 		dsb 0xF
 301              	@ 0 "" 2
 302              		.thumb
 303              		.syntax unified
 304 0046 83F84100 		strb	r0, [r3, #65]
 305 004a 0020     		movs	r0, #0
 306 004c 83F84000 		strb	r0, [r3, #64]
 307 0050 7047     		bx	lr
 308              	.L46:
 309 0052 4FF0C042 		mov	r2, #1610612736
 310 0056 F2E7     		b	.L43
 311              	.L47:
 312 0058 4FF0C842 		mov	r2, #1677721600
 313 005c EFE7     		b	.L43
 314              	.L44:
 315 005e 0120     		movs	r0, #1
 316 0060 7047     		bx	lr
 317              	.L45:
 318 0062 1046     		mov	r0, r2
 319              	.L41:
 320 0064 7047     		bx	lr
 322              		.section	.text.HAL_NOR_Read,"ax",%progbits
 323              		.align	1
 324              		.global	HAL_NOR_Read
 325              		.syntax unified
 326              		.thumb
 327              		.thumb_func
 328              		.fpu softvfp
 330              	HAL_NOR_Read:
 331              		@ args = 0, pretend = 0, frame = 0
 332              		@ frame_needed = 0, uses_anonymous_args = 0
 333 0000 F0B5     		push	{r4, r5, r6, r7, lr}
 334 0002 90F84130 		ldrb	r3, [r0, #65]	@ zero_extendqisi2
 335 0006 0546     		mov	r5, r0
 336 0008 022B     		cmp	r3, #2
 337 000a D8B2     		uxtb	r0, r3
 338 000c 42D0     		beq	.L56
 339 000e 0128     		cmp	r0, #1
 340 0010 01D0     		beq	.L57
 341 0012 0428     		cmp	r0, #4
 342 0014 45D1     		bne	.L65
 343              	.L57:
 344 0016 95F84030 		ldrb	r3, [r5, #64]	@ zero_extendqisi2
 345 001a 012B     		cmp	r3, #1
 346 001c 4FF00203 		mov	r3, #2
 347 0020 41D0     		beq	.L66
 348 0022 0124     		movs	r4, #1
 349 0024 85F84130 		strb	r3, [r5, #65]
 350 0028 AB68     		ldr	r3, [r5, #8]
 351 002a 85F84040 		strb	r4, [r5, #64]
 352 002e 93B3     		cbz	r3, .L67
 353 0030 022B     		cmp	r3, #2
 354 0032 33D0     		beq	.L68
 355 0034 042B     		cmp	r3, #4
 356 0036 0CBF     		ite	eq
 357 0038 4FF0D043 		moveq	r3, #1744830464
ARM GAS  /tmp/ccXIOwEr.s 			page 7


 358 003c 4FF0D843 		movne	r3, #1811939328
 359              	.L58:
 360 0040 AA27     		movs	r7, #170
 361 0042 1A4C     		ldr	r4, .L76
 362 0044 2668     		ldr	r6, [r4]
 363 0046 012E     		cmp	r6, #1
 364 0048 0CBF     		ite	eq
 365 004a 03F6AA26 		addweq	r6, r3, #2730
 366 004e 03F25556 		addwne	r6, r3, #1365
 367 0052 3780     		strh	r7, [r6]	@ movhi
 368              		.syntax unified
 369              	@ 879 "./cmsis/inc/cmsis_gcc.h" 1
 370 0054 BFF34F8F 		dsb 0xF
 371              	@ 0 "" 2
 372              		.thumb
 373              		.syntax unified
 374 0058 5527     		movs	r7, #85
 375 005a 2668     		ldr	r6, [r4]
 376 005c 012E     		cmp	r6, #1
 377 005e 0CBF     		ite	eq
 378 0060 03F25456 		addweq	r6, r3, #1364
 379 0064 03F2AA26 		addwne	r6, r3, #682
 380 0068 3780     		strh	r7, [r6]	@ movhi
 381              		.syntax unified
 382              	@ 879 "./cmsis/inc/cmsis_gcc.h" 1
 383 006a BFF34F8F 		dsb 0xF
 384              	@ 0 "" 2
 385              		.thumb
 386              		.syntax unified
 387 006e 2468     		ldr	r4, [r4]
 388 0070 012C     		cmp	r4, #1
 389 0072 4FF0F004 		mov	r4, #240
 390 0076 0CBF     		ite	eq
 391 0078 03F6AA23 		addweq	r3, r3, #2730
 392 007c 03F25553 		addwne	r3, r3, #1365
 393 0080 1C80     		strh	r4, [r3]	@ movhi
 394              		.syntax unified
 395              	@ 879 "./cmsis/inc/cmsis_gcc.h" 1
 396 0082 BFF34F8F 		dsb 0xF
 397              	@ 0 "" 2
 398              		.thumb
 399              		.syntax unified
 400 0086 0B68     		ldr	r3, [r1]
 401 0088 1380     		strh	r3, [r2]	@ movhi
 402 008a 85F84100 		strb	r0, [r5, #65]
 403 008e 0020     		movs	r0, #0
 404 0090 85F84000 		strb	r0, [r5, #64]
 405              	.L56:
 406 0094 F0BD     		pop	{r4, r5, r6, r7, pc}
 407              	.L67:
 408 0096 4FF0C043 		mov	r3, #1610612736
 409 009a D1E7     		b	.L58
 410              	.L68:
 411 009c 4FF0C843 		mov	r3, #1677721600
 412 00a0 CEE7     		b	.L58
 413              	.L65:
 414 00a2 0120     		movs	r0, #1
ARM GAS  /tmp/ccXIOwEr.s 			page 8


 415 00a4 F6E7     		b	.L56
 416              	.L66:
 417 00a6 1846     		mov	r0, r3
 418 00a8 F4E7     		b	.L56
 419              	.L77:
 420 00aa 00BF     		.align	2
 421              	.L76:
 422 00ac 00000000 		.word	.LANCHOR0
 424              		.section	.text.HAL_NOR_Program,"ax",%progbits
 425              		.align	1
 426              		.global	HAL_NOR_Program
 427              		.syntax unified
 428              		.thumb
 429              		.thumb_func
 430              		.fpu softvfp
 432              	HAL_NOR_Program:
 433              		@ args = 0, pretend = 0, frame = 0
 434              		@ frame_needed = 0, uses_anonymous_args = 0
 435 0000 70B5     		push	{r4, r5, r6, lr}
 436 0002 90F84130 		ldrb	r3, [r0, #65]	@ zero_extendqisi2
 437 0006 0446     		mov	r4, r0
 438 0008 022B     		cmp	r3, #2
 439 000a D8B2     		uxtb	r0, r3
 440 000c 45D0     		beq	.L79
 441 000e 94F84130 		ldrb	r3, [r4, #65]	@ zero_extendqisi2
 442 0012 012B     		cmp	r3, #1
 443 0014 DDB2     		uxtb	r5, r3
 444 0016 47D1     		bne	.L87
 445 0018 94F84030 		ldrb	r3, [r4, #64]	@ zero_extendqisi2
 446 001c 0220     		movs	r0, #2
 447 001e 012B     		cmp	r3, #1
 448 0020 3BD0     		beq	.L79
 449 0022 A368     		ldr	r3, [r4, #8]
 450 0024 84F84050 		strb	r5, [r4, #64]
 451 0028 84F84100 		strb	r0, [r4, #65]
 452 002c 002B     		cmp	r3, #0
 453 002e 35D0     		beq	.L89
 454 0030 8342     		cmp	r3, r0
 455 0032 36D0     		beq	.L90
 456 0034 042B     		cmp	r3, #4
 457 0036 0CBF     		ite	eq
 458 0038 4FF0D043 		moveq	r3, #1744830464
 459 003c 4FF0D843 		movne	r3, #1811939328
 460              	.L80:
 461 0040 AA26     		movs	r6, #170
 462 0042 1A48     		ldr	r0, .L95
 463 0044 0568     		ldr	r5, [r0]
 464 0046 012D     		cmp	r5, #1
 465 0048 0CBF     		ite	eq
 466 004a 03F6AA25 		addweq	r5, r3, #2730
 467 004e 03F25555 		addwne	r5, r3, #1365
 468 0052 2E80     		strh	r6, [r5]	@ movhi
 469              		.syntax unified
 470              	@ 879 "./cmsis/inc/cmsis_gcc.h" 1
 471 0054 BFF34F8F 		dsb 0xF
 472              	@ 0 "" 2
 473              		.thumb
ARM GAS  /tmp/ccXIOwEr.s 			page 9


 474              		.syntax unified
 475 0058 5526     		movs	r6, #85
 476 005a 0568     		ldr	r5, [r0]
 477 005c 012D     		cmp	r5, #1
 478 005e 0CBF     		ite	eq
 479 0060 03F25455 		addweq	r5, r3, #1364
 480 0064 03F2AA25 		addwne	r5, r3, #682
 481 0068 2E80     		strh	r6, [r5]	@ movhi
 482              		.syntax unified
 483              	@ 879 "./cmsis/inc/cmsis_gcc.h" 1
 484 006a BFF34F8F 		dsb 0xF
 485              	@ 0 "" 2
 486              		.thumb
 487              		.syntax unified
 488 006e 0068     		ldr	r0, [r0]
 489 0070 0128     		cmp	r0, #1
 490 0072 4FF0A000 		mov	r0, #160
 491 0076 0CBF     		ite	eq
 492 0078 03F6AA23 		addweq	r3, r3, #2730
 493 007c 03F25553 		addwne	r3, r3, #1365
 494 0080 1880     		strh	r0, [r3]	@ movhi
 495              		.syntax unified
 496              	@ 879 "./cmsis/inc/cmsis_gcc.h" 1
 497 0082 BFF34F8F 		dsb 0xF
 498              	@ 0 "" 2
 499              		.thumb
 500              		.syntax unified
 501 0086 1388     		ldrh	r3, [r2]
 502 0088 0B80     		strh	r3, [r1]	@ movhi
 503              		.syntax unified
 504              	@ 879 "./cmsis/inc/cmsis_gcc.h" 1
 505 008a BFF34F8F 		dsb 0xF
 506              	@ 0 "" 2
 507              		.thumb
 508              		.syntax unified
 509 008e 0123     		movs	r3, #1
 510 0090 0020     		movs	r0, #0
 511 0092 84F84130 		strb	r3, [r4, #65]
 512 0096 84F84000 		strb	r0, [r4, #64]
 513              	.L79:
 514 009a 70BD     		pop	{r4, r5, r6, pc}
 515              	.L89:
 516 009c 4FF0C043 		mov	r3, #1610612736
 517 00a0 CEE7     		b	.L80
 518              	.L90:
 519 00a2 4FF0C843 		mov	r3, #1677721600
 520 00a6 CBE7     		b	.L80
 521              	.L87:
 522 00a8 0120     		movs	r0, #1
 523 00aa F6E7     		b	.L79
 524              	.L96:
 525              		.align	2
 526              	.L95:
 527 00ac 00000000 		.word	.LANCHOR0
 529              		.section	.text.HAL_NOR_ReadBuffer,"ax",%progbits
 530              		.align	1
 531              		.global	HAL_NOR_ReadBuffer
ARM GAS  /tmp/ccXIOwEr.s 			page 10


 532              		.syntax unified
 533              		.thumb
 534              		.thumb_func
 535              		.fpu softvfp
 537              	HAL_NOR_ReadBuffer:
 538              		@ args = 0, pretend = 0, frame = 0
 539              		@ frame_needed = 0, uses_anonymous_args = 0
 540 0000 F0B5     		push	{r4, r5, r6, r7, lr}
 541 0002 90F84140 		ldrb	r4, [r0, #65]	@ zero_extendqisi2
 542 0006 0546     		mov	r5, r0
 543 0008 022C     		cmp	r4, #2
 544 000a E0B2     		uxtb	r0, r4
 545 000c 46D0     		beq	.L98
 546 000e 0128     		cmp	r0, #1
 547 0010 01D0     		beq	.L99
 548 0012 0428     		cmp	r0, #4
 549 0014 4ED1     		bne	.L109
 550              	.L99:
 551 0016 95F84040 		ldrb	r4, [r5, #64]	@ zero_extendqisi2
 552 001a 012C     		cmp	r4, #1
 553 001c 4FF00204 		mov	r4, #2
 554 0020 4AD0     		beq	.L110
 555 0022 0126     		movs	r6, #1
 556 0024 85F84140 		strb	r4, [r5, #65]
 557 0028 AC68     		ldr	r4, [r5, #8]
 558 002a 85F84060 		strb	r6, [r5, #64]
 559 002e B4B3     		cbz	r4, .L111
 560 0030 022C     		cmp	r4, #2
 561 0032 37D0     		beq	.L112
 562 0034 042C     		cmp	r4, #4
 563 0036 0CBF     		ite	eq
 564 0038 4FF0D044 		moveq	r4, #1744830464
 565 003c 4FF0D844 		movne	r4, #1811939328
 566              	.L100:
 567 0040 4FF0AA0C 		mov	ip, #170
 568 0044 1D4E     		ldr	r6, .L120
 569 0046 3768     		ldr	r7, [r6]
 570 0048 012F     		cmp	r7, #1
 571 004a 0CBF     		ite	eq
 572 004c 04F6AA27 		addweq	r7, r4, #2730
 573 0050 04F25557 		addwne	r7, r4, #1365
 574 0054 A7F800C0 		strh	ip, [r7]	@ movhi
 575              		.syntax unified
 576              	@ 879 "./cmsis/inc/cmsis_gcc.h" 1
 577 0058 BFF34F8F 		dsb 0xF
 578              	@ 0 "" 2
 579              		.thumb
 580              		.syntax unified
 581 005c 4FF0550C 		mov	ip, #85
 582 0060 3768     		ldr	r7, [r6]
 583 0062 012F     		cmp	r7, #1
 584 0064 0CBF     		ite	eq
 585 0066 04F25457 		addweq	r7, r4, #1364
 586 006a 04F2AA27 		addwne	r7, r4, #682
 587 006e A7F800C0 		strh	ip, [r7]	@ movhi
 588              		.syntax unified
 589              	@ 879 "./cmsis/inc/cmsis_gcc.h" 1
ARM GAS  /tmp/ccXIOwEr.s 			page 11


 590 0072 BFF34F8F 		dsb 0xF
 591              	@ 0 "" 2
 592              		.thumb
 593              		.syntax unified
 594 0076 3668     		ldr	r6, [r6]
 595 0078 012E     		cmp	r6, #1
 596 007a 4FF0F006 		mov	r6, #240
 597 007e 0CBF     		ite	eq
 598 0080 04F6AA24 		addweq	r4, r4, #2730
 599 0084 04F25554 		addwne	r4, r4, #1365
 600 0088 2680     		strh	r6, [r4]	@ movhi
 601              		.syntax unified
 602              	@ 879 "./cmsis/inc/cmsis_gcc.h" 1
 603 008a BFF34F8F 		dsb 0xF
 604              	@ 0 "" 2
 605              		.thumb
 606              		.syntax unified
 607 008e 891A     		subs	r1, r1, r2
 608              	.L107:
 609 0090 5BB9     		cbnz	r3, .L108
 610 0092 85F84100 		strb	r0, [r5, #65]
 611 0096 1846     		mov	r0, r3
 612 0098 85F84030 		strb	r3, [r5, #64]
 613              	.L98:
 614 009c F0BD     		pop	{r4, r5, r6, r7, pc}
 615              	.L111:
 616 009e 4FF0C044 		mov	r4, #1610612736
 617 00a2 CDE7     		b	.L100
 618              	.L112:
 619 00a4 4FF0C844 		mov	r4, #1677721600
 620 00a8 CAE7     		b	.L100
 621              	.L108:
 622 00aa 545A     		ldrh	r4, [r2, r1]
 623 00ac 013B     		subs	r3, r3, #1
 624 00ae 22F8024B 		strh	r4, [r2], #2	@ movhi
 625 00b2 EDE7     		b	.L107
 626              	.L109:
 627 00b4 0120     		movs	r0, #1
 628 00b6 F1E7     		b	.L98
 629              	.L110:
 630 00b8 2046     		mov	r0, r4
 631 00ba EFE7     		b	.L98
 632              	.L121:
 633              		.align	2
 634              	.L120:
 635 00bc 00000000 		.word	.LANCHOR0
 637              		.section	.text.HAL_NOR_ProgramBuffer,"ax",%progbits
 638              		.align	1
 639              		.global	HAL_NOR_ProgramBuffer
 640              		.syntax unified
 641              		.thumb
 642              		.thumb_func
 643              		.fpu softvfp
 645              	HAL_NOR_ProgramBuffer:
 646              		@ args = 0, pretend = 0, frame = 0
 647              		@ frame_needed = 0, uses_anonymous_args = 0
 648 0000 F0B5     		push	{r4, r5, r6, r7, lr}
ARM GAS  /tmp/ccXIOwEr.s 			page 12


 649 0002 90F84140 		ldrb	r4, [r0, #65]	@ zero_extendqisi2
 650 0006 0546     		mov	r5, r0
 651 0008 022C     		cmp	r4, #2
 652 000a E0B2     		uxtb	r0, r4
 653 000c 5DD0     		beq	.L123
 654 000e 95F84100 		ldrb	r0, [r5, #65]	@ zero_extendqisi2
 655 0012 0128     		cmp	r0, #1
 656 0014 C4B2     		uxtb	r4, r0
 657 0016 65D1     		bne	.L135
 658 0018 95F84000 		ldrb	r0, [r5, #64]	@ zero_extendqisi2
 659 001c 0128     		cmp	r0, #1
 660 001e 4FF00200 		mov	r0, #2
 661 0022 52D0     		beq	.L123
 662 0024 85F84100 		strb	r0, [r5, #65]
 663 0028 A868     		ldr	r0, [r5, #8]
 664 002a 85F84040 		strb	r4, [r5, #64]
 665 002e 0028     		cmp	r0, #0
 666 0030 4CD0     		beq	.L137
 667 0032 0228     		cmp	r0, #2
 668 0034 4DD0     		beq	.L138
 669 0036 0428     		cmp	r0, #4
 670 0038 0CBF     		ite	eq
 671 003a 4FF0D044 		moveq	r4, #1744830464
 672 003e 4FF0D844 		movne	r4, #1811939328
 673              	.L124:
 674 0042 4FF0AA0E 		mov	lr, #170
 675 0046 2848     		ldr	r0, .L144
 676 0048 03F1FF3C 		add	ip, r3, #-1
 677 004c 0768     		ldr	r7, [r0]
 678 004e 0E46     		mov	r6, r1
 679 0050 012F     		cmp	r7, #1
 680 0052 0CBF     		ite	eq
 681 0054 04F6AA27 		addweq	r7, r4, #2730
 682 0058 04F25557 		addwne	r7, r4, #1365
 683 005c 8C44     		add	ip, ip, r1
 684 005e A7F800E0 		strh	lr, [r7]	@ movhi
 685              		.syntax unified
 686              	@ 879 "./cmsis/inc/cmsis_gcc.h" 1
 687 0062 BFF34F8F 		dsb 0xF
 688              	@ 0 "" 2
 689              		.thumb
 690              		.syntax unified
 691 0066 4FF0550E 		mov	lr, #85
 692 006a 0768     		ldr	r7, [r0]
 693 006c 012F     		cmp	r7, #1
 694 006e 0CBF     		ite	eq
 695 0070 04F25457 		addweq	r7, r4, #1364
 696 0074 04F2AA27 		addwne	r7, r4, #682
 697 0078 A7F800E0 		strh	lr, [r7]	@ movhi
 698              		.syntax unified
 699              	@ 879 "./cmsis/inc/cmsis_gcc.h" 1
 700 007c BFF34F8F 		dsb 0xF
 701              	@ 0 "" 2
 702              		.thumb
 703              		.syntax unified
 704 0080 4FF0250E 		mov	lr, #37
 705 0084 0768     		ldr	r7, [r0]
ARM GAS  /tmp/ccXIOwEr.s 			page 13


 706 0086 012F     		cmp	r7, #1
 707 0088 0CBF     		ite	eq
 708 008a 04EB4107 		addeq	r7, r4, r1, lsl #1
 709 008e 6718     		addne	r7, r4, r1
 710 0090 A7F800E0 		strh	lr, [r7]	@ movhi
 711              		.syntax unified
 712              	@ 879 "./cmsis/inc/cmsis_gcc.h" 1
 713 0094 BFF34F8F 		dsb 0xF
 714              	@ 0 "" 2
 715              		.thumb
 716              		.syntax unified
 717 0098 0068     		ldr	r0, [r0]
 718 009a 9BB2     		uxth	r3, r3
 719 009c 0128     		cmp	r0, #1
 720 009e 03F1FF33 		add	r3, r3, #-1
 721 00a2 0CBF     		ite	eq
 722 00a4 04EB4104 		addeq	r4, r4, r1, lsl #1
 723 00a8 6418     		addne	r4, r4, r1
 724 00aa 9BB2     		uxth	r3, r3
 725 00ac 2380     		strh	r3, [r4]	@ movhi
 726              	.L143:
 727              		.syntax unified
 728              	@ 879 "./cmsis/inc/cmsis_gcc.h" 1
 729 00ae BFF34F8F 		dsb 0xF
 730              	@ 0 "" 2
 731              		.thumb
 732              		.syntax unified
 733 00b2 6645     		cmp	r6, ip
 734 00b4 10D9     		bls	.L134
 735 00b6 2923     		movs	r3, #41
 736 00b8 0B80     		strh	r3, [r1]	@ movhi
 737              		.syntax unified
 738              	@ 879 "./cmsis/inc/cmsis_gcc.h" 1
 739 00ba BFF34F8F 		dsb 0xF
 740              	@ 0 "" 2
 741              		.thumb
 742              		.syntax unified
 743 00be 0123     		movs	r3, #1
 744 00c0 0020     		movs	r0, #0
 745 00c2 85F84130 		strb	r3, [r5, #65]
 746 00c6 85F84000 		strb	r0, [r5, #64]
 747              	.L123:
 748 00ca F0BD     		pop	{r4, r5, r6, r7, pc}
 749              	.L137:
 750 00cc 4FF0C044 		mov	r4, #1610612736
 751 00d0 B7E7     		b	.L124
 752              	.L138:
 753 00d2 4FF0C844 		mov	r4, #1677721600
 754 00d6 B4E7     		b	.L124
 755              	.L134:
 756 00d8 32F8023B 		ldrh	r3, [r2], #2
 757 00dc 3146     		mov	r1, r6
 758 00de 26F8023B 		strh	r3, [r6], #2	@ movhi
 759 00e2 E4E7     		b	.L143
 760              	.L135:
 761 00e4 0120     		movs	r0, #1
 762 00e6 F0E7     		b	.L123
ARM GAS  /tmp/ccXIOwEr.s 			page 14


 763              	.L145:
 764              		.align	2
 765              	.L144:
 766 00e8 00000000 		.word	.LANCHOR0
 768              		.section	.text.HAL_NOR_Erase_Block,"ax",%progbits
 769              		.align	1
 770              		.global	HAL_NOR_Erase_Block
 771              		.syntax unified
 772              		.thumb
 773              		.thumb_func
 774              		.fpu softvfp
 776              	HAL_NOR_Erase_Block:
 777              		@ args = 0, pretend = 0, frame = 0
 778              		@ frame_needed = 0, uses_anonymous_args = 0
 779 0000 70B5     		push	{r4, r5, r6, lr}
 780 0002 90F84130 		ldrb	r3, [r0, #65]	@ zero_extendqisi2
 781 0006 0446     		mov	r4, r0
 782 0008 022B     		cmp	r3, #2
 783 000a D8B2     		uxtb	r0, r3
 784 000c 5BD0     		beq	.L147
 785 000e 94F84130 		ldrb	r3, [r4, #65]	@ zero_extendqisi2
 786 0012 012B     		cmp	r3, #1
 787 0014 DDB2     		uxtb	r5, r3
 788 0016 5DD1     		bne	.L159
 789 0018 94F84030 		ldrb	r3, [r4, #64]	@ zero_extendqisi2
 790 001c 0220     		movs	r0, #2
 791 001e 012B     		cmp	r3, #1
 792 0020 51D0     		beq	.L147
 793 0022 A368     		ldr	r3, [r4, #8]
 794 0024 84F84050 		strb	r5, [r4, #64]
 795 0028 84F84100 		strb	r0, [r4, #65]
 796 002c 002B     		cmp	r3, #0
 797 002e 4BD0     		beq	.L161
 798 0030 8342     		cmp	r3, r0
 799 0032 4CD0     		beq	.L162
 800 0034 042B     		cmp	r3, #4
 801 0036 0CBF     		ite	eq
 802 0038 4FF0D043 		moveq	r3, #1744830464
 803 003c 4FF0D843 		movne	r3, #1811939328
 804              	.L148:
 805 0040 AA26     		movs	r6, #170
 806 0042 2548     		ldr	r0, .L167
 807 0044 0568     		ldr	r5, [r0]
 808 0046 012D     		cmp	r5, #1
 809 0048 0CBF     		ite	eq
 810 004a 03F6AA25 		addweq	r5, r3, #2730
 811 004e 03F25555 		addwne	r5, r3, #1365
 812 0052 2E80     		strh	r6, [r5]	@ movhi
 813              		.syntax unified
 814              	@ 879 "./cmsis/inc/cmsis_gcc.h" 1
 815 0054 BFF34F8F 		dsb 0xF
 816              	@ 0 "" 2
 817              		.thumb
 818              		.syntax unified
 819 0058 5526     		movs	r6, #85
 820 005a 0568     		ldr	r5, [r0]
 821 005c 012D     		cmp	r5, #1
ARM GAS  /tmp/ccXIOwEr.s 			page 15


 822 005e 0CBF     		ite	eq
 823 0060 03F25455 		addweq	r5, r3, #1364
 824 0064 03F2AA25 		addwne	r5, r3, #682
 825 0068 2E80     		strh	r6, [r5]	@ movhi
 826              		.syntax unified
 827              	@ 879 "./cmsis/inc/cmsis_gcc.h" 1
 828 006a BFF34F8F 		dsb 0xF
 829              	@ 0 "" 2
 830              		.thumb
 831              		.syntax unified
 832 006e 8026     		movs	r6, #128
 833 0070 0568     		ldr	r5, [r0]
 834 0072 012D     		cmp	r5, #1
 835 0074 0CBF     		ite	eq
 836 0076 03F6AA25 		addweq	r5, r3, #2730
 837 007a 03F25555 		addwne	r5, r3, #1365
 838 007e 2E80     		strh	r6, [r5]	@ movhi
 839              		.syntax unified
 840              	@ 879 "./cmsis/inc/cmsis_gcc.h" 1
 841 0080 BFF34F8F 		dsb 0xF
 842              	@ 0 "" 2
 843              		.thumb
 844              		.syntax unified
 845 0084 AA26     		movs	r6, #170
 846 0086 0568     		ldr	r5, [r0]
 847 0088 012D     		cmp	r5, #1
 848 008a 0CBF     		ite	eq
 849 008c 03F6AA25 		addweq	r5, r3, #2730
 850 0090 03F25555 		addwne	r5, r3, #1365
 851 0094 2E80     		strh	r6, [r5]	@ movhi
 852              		.syntax unified
 853              	@ 879 "./cmsis/inc/cmsis_gcc.h" 1
 854 0096 BFF34F8F 		dsb 0xF
 855              	@ 0 "" 2
 856              		.thumb
 857              		.syntax unified
 858 009a 0068     		ldr	r0, [r0]
 859 009c 0128     		cmp	r0, #1
 860 009e 4FF05500 		mov	r0, #85
 861 00a2 0CBF     		ite	eq
 862 00a4 03F25453 		addweq	r3, r3, #1364
 863 00a8 03F2AA23 		addwne	r3, r3, #682
 864 00ac 1880     		strh	r0, [r3]	@ movhi
 865              		.syntax unified
 866              	@ 879 "./cmsis/inc/cmsis_gcc.h" 1
 867 00ae BFF34F8F 		dsb 0xF
 868              	@ 0 "" 2
 869              		.thumb
 870              		.syntax unified
 871 00b2 3023     		movs	r3, #48
 872 00b4 8B52     		strh	r3, [r1, r2]	@ movhi
 873              		.syntax unified
 874              	@ 879 "./cmsis/inc/cmsis_gcc.h" 1
 875 00b6 BFF34F8F 		dsb 0xF
 876              	@ 0 "" 2
 877              		.thumb
 878              		.syntax unified
ARM GAS  /tmp/ccXIOwEr.s 			page 16


 879 00ba 0123     		movs	r3, #1
 880 00bc 0020     		movs	r0, #0
 881 00be 84F84130 		strb	r3, [r4, #65]
 882 00c2 84F84000 		strb	r0, [r4, #64]
 883              	.L147:
 884 00c6 70BD     		pop	{r4, r5, r6, pc}
 885              	.L161:
 886 00c8 4FF0C043 		mov	r3, #1610612736
 887 00cc B8E7     		b	.L148
 888              	.L162:
 889 00ce 4FF0C843 		mov	r3, #1677721600
 890 00d2 B5E7     		b	.L148
 891              	.L159:
 892 00d4 0120     		movs	r0, #1
 893 00d6 F6E7     		b	.L147
 894              	.L168:
 895              		.align	2
 896              	.L167:
 897 00d8 00000000 		.word	.LANCHOR0
 899              		.section	.text.HAL_NOR_Erase_Chip,"ax",%progbits
 900              		.align	1
 901              		.global	HAL_NOR_Erase_Chip
 902              		.syntax unified
 903              		.thumb
 904              		.thumb_func
 905              		.fpu softvfp
 907              	HAL_NOR_Erase_Chip:
 908              		@ args = 0, pretend = 0, frame = 0
 909              		@ frame_needed = 0, uses_anonymous_args = 0
 910 0000 10B5     		push	{r4, lr}
 911 0002 90F84130 		ldrb	r3, [r0, #65]	@ zero_extendqisi2
 912 0006 0246     		mov	r2, r0
 913 0008 022B     		cmp	r3, #2
 914 000a D8B2     		uxtb	r0, r3
 915 000c 62D0     		beq	.L170
 916 000e 92F84130 		ldrb	r3, [r2, #65]	@ zero_extendqisi2
 917 0012 012B     		cmp	r3, #1
 918 0014 D9B2     		uxtb	r1, r3
 919 0016 64D1     		bne	.L184
 920 0018 92F84030 		ldrb	r3, [r2, #64]	@ zero_extendqisi2
 921 001c 0220     		movs	r0, #2
 922 001e 012B     		cmp	r3, #1
 923 0020 58D0     		beq	.L170
 924 0022 9368     		ldr	r3, [r2, #8]
 925 0024 82F84010 		strb	r1, [r2, #64]
 926 0028 82F84100 		strb	r0, [r2, #65]
 927 002c 002B     		cmp	r3, #0
 928 002e 52D0     		beq	.L186
 929 0030 8342     		cmp	r3, r0
 930 0032 53D0     		beq	.L187
 931 0034 042B     		cmp	r3, #4
 932 0036 0CBF     		ite	eq
 933 0038 4FF0D043 		moveq	r3, #1744830464
 934 003c 4FF0D843 		movne	r3, #1811939328
 935              	.L171:
 936 0040 AA24     		movs	r4, #170
 937 0042 2949     		ldr	r1, .L192
ARM GAS  /tmp/ccXIOwEr.s 			page 17


 938 0044 0868     		ldr	r0, [r1]
 939 0046 0128     		cmp	r0, #1
 940 0048 0CBF     		ite	eq
 941 004a 03F6AA20 		addweq	r0, r3, #2730
 942 004e 03F25550 		addwne	r0, r3, #1365
 943 0052 0480     		strh	r4, [r0]	@ movhi
 944              		.syntax unified
 945              	@ 879 "./cmsis/inc/cmsis_gcc.h" 1
 946 0054 BFF34F8F 		dsb 0xF
 947              	@ 0 "" 2
 948              		.thumb
 949              		.syntax unified
 950 0058 5524     		movs	r4, #85
 951 005a 0868     		ldr	r0, [r1]
 952 005c 0128     		cmp	r0, #1
 953 005e 0CBF     		ite	eq
 954 0060 03F25450 		addweq	r0, r3, #1364
 955 0064 03F2AA20 		addwne	r0, r3, #682
 956 0068 0480     		strh	r4, [r0]	@ movhi
 957              		.syntax unified
 958              	@ 879 "./cmsis/inc/cmsis_gcc.h" 1
 959 006a BFF34F8F 		dsb 0xF
 960              	@ 0 "" 2
 961              		.thumb
 962              		.syntax unified
 963 006e 8024     		movs	r4, #128
 964 0070 0868     		ldr	r0, [r1]
 965 0072 0128     		cmp	r0, #1
 966 0074 0CBF     		ite	eq
 967 0076 03F6AA20 		addweq	r0, r3, #2730
 968 007a 03F25550 		addwne	r0, r3, #1365
 969 007e 0480     		strh	r4, [r0]	@ movhi
 970              		.syntax unified
 971              	@ 879 "./cmsis/inc/cmsis_gcc.h" 1
 972 0080 BFF34F8F 		dsb 0xF
 973              	@ 0 "" 2
 974              		.thumb
 975              		.syntax unified
 976 0084 AA24     		movs	r4, #170
 977 0086 0868     		ldr	r0, [r1]
 978 0088 0128     		cmp	r0, #1
 979 008a 0CBF     		ite	eq
 980 008c 03F6AA20 		addweq	r0, r3, #2730
 981 0090 03F25550 		addwne	r0, r3, #1365
 982 0094 0480     		strh	r4, [r0]	@ movhi
 983              		.syntax unified
 984              	@ 879 "./cmsis/inc/cmsis_gcc.h" 1
 985 0096 BFF34F8F 		dsb 0xF
 986              	@ 0 "" 2
 987              		.thumb
 988              		.syntax unified
 989 009a 5524     		movs	r4, #85
 990 009c 0868     		ldr	r0, [r1]
 991 009e 0128     		cmp	r0, #1
 992 00a0 0CBF     		ite	eq
 993 00a2 03F25450 		addweq	r0, r3, #1364
 994 00a6 03F2AA20 		addwne	r0, r3, #682
ARM GAS  /tmp/ccXIOwEr.s 			page 18


 995 00aa 0480     		strh	r4, [r0]	@ movhi
 996              		.syntax unified
 997              	@ 879 "./cmsis/inc/cmsis_gcc.h" 1
 998 00ac BFF34F8F 		dsb 0xF
 999              	@ 0 "" 2
 1000              		.thumb
 1001              		.syntax unified
 1002 00b0 0968     		ldr	r1, [r1]
 1003 00b2 0129     		cmp	r1, #1
 1004 00b4 4FF01001 		mov	r1, #16
 1005 00b8 0CBF     		ite	eq
 1006 00ba 03F6AA23 		addweq	r3, r3, #2730
 1007 00be 03F25553 		addwne	r3, r3, #1365
 1008 00c2 1980     		strh	r1, [r3]	@ movhi
 1009              		.syntax unified
 1010              	@ 879 "./cmsis/inc/cmsis_gcc.h" 1
 1011 00c4 BFF34F8F 		dsb 0xF
 1012              	@ 0 "" 2
 1013              		.thumb
 1014              		.syntax unified
 1015 00c8 0123     		movs	r3, #1
 1016 00ca 0020     		movs	r0, #0
 1017 00cc 82F84130 		strb	r3, [r2, #65]
 1018 00d0 82F84000 		strb	r0, [r2, #64]
 1019              	.L170:
 1020 00d4 10BD     		pop	{r4, pc}
 1021              	.L186:
 1022 00d6 4FF0C043 		mov	r3, #1610612736
 1023 00da B1E7     		b	.L171
 1024              	.L187:
 1025 00dc 4FF0C843 		mov	r3, #1677721600
 1026 00e0 AEE7     		b	.L171
 1027              	.L184:
 1028 00e2 0120     		movs	r0, #1
 1029 00e4 F6E7     		b	.L170
 1030              	.L193:
 1031 00e6 00BF     		.align	2
 1032              	.L192:
 1033 00e8 00000000 		.word	.LANCHOR0
 1035              		.section	.text.HAL_NOR_Read_CFI,"ax",%progbits
 1036              		.align	1
 1037              		.global	HAL_NOR_Read_CFI
 1038              		.syntax unified
 1039              		.thumb
 1040              		.thumb_func
 1041              		.fpu softvfp
 1043              	HAL_NOR_Read_CFI:
 1044              		@ args = 0, pretend = 0, frame = 0
 1045              		@ frame_needed = 0, uses_anonymous_args = 0
 1046 0000 70B5     		push	{r4, r5, r6, lr}
 1047 0002 90F84130 		ldrb	r3, [r0, #65]	@ zero_extendqisi2
 1048 0006 0446     		mov	r4, r0
 1049 0008 022B     		cmp	r3, #2
 1050 000a D8B2     		uxtb	r0, r3
 1051 000c 49D0     		beq	.L195
 1052 000e 0128     		cmp	r0, #1
 1053 0010 01D0     		beq	.L196
ARM GAS  /tmp/ccXIOwEr.s 			page 19


 1054 0012 0428     		cmp	r0, #4
 1055 0014 4CD1     		bne	.L208
 1056              	.L196:
 1057 0016 94F84030 		ldrb	r3, [r4, #64]	@ zero_extendqisi2
 1058 001a 012B     		cmp	r3, #1
 1059 001c 4FF00203 		mov	r3, #2
 1060 0020 48D0     		beq	.L209
 1061 0022 0122     		movs	r2, #1
 1062 0024 84F84130 		strb	r3, [r4, #65]
 1063 0028 A368     		ldr	r3, [r4, #8]
 1064 002a 84F84020 		strb	r2, [r4, #64]
 1065 002e 002B     		cmp	r3, #0
 1066 0030 38D0     		beq	.L210
 1067 0032 022B     		cmp	r3, #2
 1068 0034 39D0     		beq	.L211
 1069 0036 042B     		cmp	r3, #4
 1070 0038 0CBF     		ite	eq
 1071 003a 4FF0D043 		moveq	r3, #1744830464
 1072 003e 4FF0D843 		movne	r3, #1811939328
 1073              	.L197:
 1074 0042 9826     		movs	r6, #152
 1075 0044 1C4A     		ldr	r2, .L219
 1076 0046 1568     		ldr	r5, [r2]
 1077 0048 012D     		cmp	r5, #1
 1078 004a 0CBF     		ite	eq
 1079 004c 03F1AA05 		addeq	r5, r3, #170
 1080 0050 03F15505 		addne	r5, r3, #85
 1081 0054 2E80     		strh	r6, [r5]	@ movhi
 1082              		.syntax unified
 1083              	@ 879 "./cmsis/inc/cmsis_gcc.h" 1
 1084 0056 BFF34F8F 		dsb 0xF
 1085              	@ 0 "" 2
 1086              		.thumb
 1087              		.syntax unified
 1088 005a 1268     		ldr	r2, [r2]
 1089 005c 012A     		cmp	r2, #1
 1090 005e 0CBF     		ite	eq
 1091 0060 03F1C205 		addeq	r5, r3, #194
 1092 0064 03F16105 		addne	r5, r3, #97
 1093 0068 2D88     		ldrh	r5, [r5]
 1094 006a 012A     		cmp	r2, #1
 1095 006c 0D80     		strh	r5, [r1]	@ movhi
 1096 006e 0CBF     		ite	eq
 1097 0070 03F1C405 		addeq	r5, r3, #196
 1098 0074 03F16205 		addne	r5, r3, #98
 1099 0078 2D88     		ldrh	r5, [r5]
 1100 007a 012A     		cmp	r2, #1
 1101 007c 4D80     		strh	r5, [r1, #2]	@ movhi
 1102 007e 0CBF     		ite	eq
 1103 0080 03F1C605 		addeq	r5, r3, #198
 1104 0084 03F16305 		addne	r5, r3, #99
 1105 0088 2D88     		ldrh	r5, [r5]
 1106 008a 012A     		cmp	r2, #1
 1107 008c 8D80     		strh	r5, [r1, #4]	@ movhi
 1108 008e 0CBF     		ite	eq
 1109 0090 C833     		addeq	r3, r3, #200
 1110 0092 6433     		addne	r3, r3, #100
ARM GAS  /tmp/ccXIOwEr.s 			page 20


 1111 0094 1B88     		ldrh	r3, [r3]
 1112 0096 CB80     		strh	r3, [r1, #6]	@ movhi
 1113 0098 84F84100 		strb	r0, [r4, #65]
 1114 009c 0020     		movs	r0, #0
 1115 009e 84F84000 		strb	r0, [r4, #64]
 1116              	.L195:
 1117 00a2 70BD     		pop	{r4, r5, r6, pc}
 1118              	.L210:
 1119 00a4 4FF0C043 		mov	r3, #1610612736
 1120 00a8 CBE7     		b	.L197
 1121              	.L211:
 1122 00aa 4FF0C843 		mov	r3, #1677721600
 1123 00ae C8E7     		b	.L197
 1124              	.L208:
 1125 00b0 0120     		movs	r0, #1
 1126 00b2 F6E7     		b	.L195
 1127              	.L209:
 1128 00b4 1846     		mov	r0, r3
 1129 00b6 F4E7     		b	.L195
 1130              	.L220:
 1131              		.align	2
 1132              	.L219:
 1133 00b8 00000000 		.word	.LANCHOR0
 1135              		.section	.text.HAL_NOR_WriteOperation_Enable,"ax",%progbits
 1136              		.align	1
 1137              		.global	HAL_NOR_WriteOperation_Enable
 1138              		.syntax unified
 1139              		.thumb
 1140              		.thumb_func
 1141              		.fpu softvfp
 1143              	HAL_NOR_WriteOperation_Enable:
 1144              		@ args = 0, pretend = 0, frame = 0
 1145              		@ frame_needed = 0, uses_anonymous_args = 0
 1146 0000 38B5     		push	{r3, r4, r5, lr}
 1147 0002 90F84130 		ldrb	r3, [r0, #65]	@ zero_extendqisi2
 1148 0006 0446     		mov	r4, r0
 1149 0008 042B     		cmp	r3, #4
 1150 000a 13D1     		bne	.L223
 1151 000c 90F84030 		ldrb	r3, [r0, #64]	@ zero_extendqisi2
 1152 0010 0220     		movs	r0, #2
 1153 0012 012B     		cmp	r3, #1
 1154 0014 0DD0     		beq	.L222
 1155 0016 0125     		movs	r5, #1
 1156 0018 84F84100 		strb	r0, [r4, #65]
 1157 001c A168     		ldr	r1, [r4, #8]
 1158 001e 2068     		ldr	r0, [r4]
 1159 0020 84F84050 		strb	r5, [r4, #64]
 1160 0024 FFF7FEFF 		bl	FSMC_NORSRAM_WriteOperation_Enable
 1161 0028 0020     		movs	r0, #0
 1162 002a 84F84150 		strb	r5, [r4, #65]
 1163 002e 84F84000 		strb	r0, [r4, #64]
 1164              	.L222:
 1165 0032 38BD     		pop	{r3, r4, r5, pc}
 1166              	.L223:
 1167 0034 0120     		movs	r0, #1
 1168 0036 FCE7     		b	.L222
 1170              		.section	.text.HAL_NOR_WriteOperation_Disable,"ax",%progbits
ARM GAS  /tmp/ccXIOwEr.s 			page 21


 1171              		.align	1
 1172              		.global	HAL_NOR_WriteOperation_Disable
 1173              		.syntax unified
 1174              		.thumb
 1175              		.thumb_func
 1176              		.fpu softvfp
 1178              	HAL_NOR_WriteOperation_Disable:
 1179              		@ args = 0, pretend = 0, frame = 0
 1180              		@ frame_needed = 0, uses_anonymous_args = 0
 1181 0000 10B5     		push	{r4, lr}
 1182 0002 90F84130 		ldrb	r3, [r0, #65]	@ zero_extendqisi2
 1183 0006 0446     		mov	r4, r0
 1184 0008 012B     		cmp	r3, #1
 1185 000a DAB2     		uxtb	r2, r3
 1186 000c 13D1     		bne	.L227
 1187 000e 90F84030 		ldrb	r3, [r0, #64]	@ zero_extendqisi2
 1188 0012 0220     		movs	r0, #2
 1189 0014 012B     		cmp	r3, #1
 1190 0016 0DD0     		beq	.L226
 1191 0018 84F84100 		strb	r0, [r4, #65]
 1192 001c A168     		ldr	r1, [r4, #8]
 1193 001e 2068     		ldr	r0, [r4]
 1194 0020 84F84020 		strb	r2, [r4, #64]
 1195 0024 FFF7FEFF 		bl	FSMC_NORSRAM_WriteOperation_Disable
 1196 0028 0423     		movs	r3, #4
 1197 002a 0020     		movs	r0, #0
 1198 002c 84F84130 		strb	r3, [r4, #65]
 1199 0030 84F84000 		strb	r0, [r4, #64]
 1200              	.L226:
 1201 0034 10BD     		pop	{r4, pc}
 1202              	.L227:
 1203 0036 0120     		movs	r0, #1
 1204 0038 FCE7     		b	.L226
 1206              		.section	.text.HAL_NOR_GetState,"ax",%progbits
 1207              		.align	1
 1208              		.global	HAL_NOR_GetState
 1209              		.syntax unified
 1210              		.thumb
 1211              		.thumb_func
 1212              		.fpu softvfp
 1214              	HAL_NOR_GetState:
 1215              		@ args = 0, pretend = 0, frame = 0
 1216              		@ frame_needed = 0, uses_anonymous_args = 0
 1217              		@ link register save eliminated.
 1218 0000 90F84100 		ldrb	r0, [r0, #65]	@ zero_extendqisi2
 1219 0004 7047     		bx	lr
 1221              		.section	.text.HAL_NOR_GetStatus,"ax",%progbits
 1222              		.align	1
 1223              		.global	HAL_NOR_GetStatus
 1224              		.syntax unified
 1225              		.thumb
 1226              		.thumb_func
 1227              		.fpu softvfp
 1229              	HAL_NOR_GetStatus:
 1230              		@ args = 0, pretend = 0, frame = 0
 1231              		@ frame_needed = 0, uses_anonymous_args = 0
 1232 0000 F8B5     		push	{r3, r4, r5, r6, r7, lr}
ARM GAS  /tmp/ccXIOwEr.s 			page 22


 1233 0002 0D46     		mov	r5, r1
 1234 0004 1146     		mov	r1, r2
 1235 0006 1646     		mov	r6, r2
 1236 0008 FFF7FEFF 		bl	HAL_NOR_MspWait
 1237 000c FFF7FEFF 		bl	HAL_GetTick
 1238 0010 0124     		movs	r4, #1
 1239 0012 0746     		mov	r7, r0
 1240              	.L234:
 1241 0014 721C     		adds	r2, r6, #1
 1242 0016 07D0     		beq	.L231
 1243 0018 FFF7FEFF 		bl	HAL_GetTick
 1244 001c C01B     		subs	r0, r0, r7
 1245 001e B042     		cmp	r0, r6
 1246 0020 1BD8     		bhi	.L235
 1247 0022 002E     		cmp	r6, #0
 1248 0024 08BF     		it	eq
 1249 0026 0324     		moveq	r4, #3
 1250              	.L231:
 1251 0028 2A88     		ldrh	r2, [r5]
 1252 002a 2B88     		ldrh	r3, [r5]
 1253 002c 92B2     		uxth	r2, r2
 1254 002e 5340     		eors	r3, r3, r2
 1255 0030 13F04003 		ands	r3, r3, #64
 1256 0034 13D0     		beq	.L238
 1257 0036 12F0200F 		tst	r2, #32
 1258 003a 2A88     		ldrh	r2, [r5]
 1259 003c 2B88     		ldrh	r3, [r5]
 1260 003e 92B2     		uxth	r2, r2
 1261 0040 83EA0203 		eor	r3, r3, r2
 1262 0044 18BF     		it	ne
 1263 0046 0124     		movne	r4, #1
 1264 0048 13F04003 		ands	r3, r3, #64
 1265 004c 07D0     		beq	.L238
 1266 004e 9306     		lsls	r3, r2, #26
 1267 0050 07D4     		bmi	.L239
 1268 0052 032C     		cmp	r4, #3
 1269 0054 DED1     		bne	.L234
 1270              	.L232:
 1271 0056 2046     		mov	r0, r4
 1272 0058 F8BD     		pop	{r3, r4, r5, r6, r7, pc}
 1273              	.L235:
 1274 005a 0324     		movs	r4, #3
 1275 005c E4E7     		b	.L231
 1276              	.L238:
 1277 005e 1C46     		mov	r4, r3
 1278 0060 F9E7     		b	.L232
 1279              	.L239:
 1280 0062 0224     		movs	r4, #2
 1281 0064 F7E7     		b	.L232
 1283              		.section	.bss.uwNORMemoryDataWidth,"aw",%nobits
 1284              		.align	2
 1285              		.set	.LANCHOR0,. + 0
 1288              	uwNORMemoryDataWidth:
 1289 0000 00000000 		.space	4
 1290              		.ident	"GCC: (GNU Tools for Arm Embedded Processors 9-2019-q4-major) 9.2.1 20191025 (release) [ARM
ARM GAS  /tmp/ccXIOwEr.s 			page 23

