ARM GAS  /tmp/cc6ssrEE.s 			page 1


   1              		.cpu cortex-m3
   2              		.eabi_attribute 20, 1
   3              		.eabi_attribute 21, 1
   4              		.eabi_attribute 23, 3
   5              		.eabi_attribute 24, 1
   6              		.eabi_attribute 25, 1
   7              		.eabi_attribute 26, 1
   8              		.eabi_attribute 30, 4
   9              		.eabi_attribute 34, 1
  10              		.eabi_attribute 18, 4
  11              		.file	"stm32f1xx_hal_dac.c"
  12              		.text
  13              		.section	.text.HAL_DAC_MspInit,"ax",%progbits
  14              		.align	1
  15              		.weak	HAL_DAC_MspInit
  16              		.arch armv7-m
  17              		.syntax unified
  18              		.thumb
  19              		.thumb_func
  20              		.fpu softvfp
  22              	HAL_DAC_MspInit:
  23              		@ args = 0, pretend = 0, frame = 0
  24              		@ frame_needed = 0, uses_anonymous_args = 0
  25              		@ link register save eliminated.
  26 0000 7047     		bx	lr
  28              		.section	.text.HAL_DAC_Init,"ax",%progbits
  29              		.align	1
  30              		.global	HAL_DAC_Init
  31              		.syntax unified
  32              		.thumb
  33              		.thumb_func
  34              		.fpu softvfp
  36              	HAL_DAC_Init:
  37              		@ args = 0, pretend = 0, frame = 0
  38              		@ frame_needed = 0, uses_anonymous_args = 0
  39 0000 10B5     		push	{r4, lr}
  40 0002 0446     		mov	r4, r0
  41 0004 68B1     		cbz	r0, .L5
  42 0006 0379     		ldrb	r3, [r0, #4]	@ zero_extendqisi2
  43 0008 03F0FF02 		and	r2, r3, #255
  44 000c 13B9     		cbnz	r3, .L4
  45 000e 4271     		strb	r2, [r0, #5]
  46 0010 FFF7FEFF 		bl	HAL_DAC_MspInit
  47              	.L4:
  48 0014 0223     		movs	r3, #2
  49 0016 0020     		movs	r0, #0
  50 0018 2371     		strb	r3, [r4, #4]
  51 001a 0123     		movs	r3, #1
  52 001c 2061     		str	r0, [r4, #16]
  53 001e 2371     		strb	r3, [r4, #4]
  54              	.L3:
  55 0020 10BD     		pop	{r4, pc}
  56              	.L5:
  57 0022 0120     		movs	r0, #1
  58 0024 FCE7     		b	.L3
  60              		.section	.text.HAL_DAC_MspDeInit,"ax",%progbits
  61              		.align	1
ARM GAS  /tmp/cc6ssrEE.s 			page 2


  62              		.weak	HAL_DAC_MspDeInit
  63              		.syntax unified
  64              		.thumb
  65              		.thumb_func
  66              		.fpu softvfp
  68              	HAL_DAC_MspDeInit:
  69              		@ args = 0, pretend = 0, frame = 0
  70              		@ frame_needed = 0, uses_anonymous_args = 0
  71              		@ link register save eliminated.
  72 0000 7047     		bx	lr
  74              		.section	.text.HAL_DAC_DeInit,"ax",%progbits
  75              		.align	1
  76              		.global	HAL_DAC_DeInit
  77              		.syntax unified
  78              		.thumb
  79              		.thumb_func
  80              		.fpu softvfp
  82              	HAL_DAC_DeInit:
  83              		@ args = 0, pretend = 0, frame = 0
  84              		@ frame_needed = 0, uses_anonymous_args = 0
  85 0000 10B5     		push	{r4, lr}
  86 0002 0446     		mov	r4, r0
  87 0004 40B1     		cbz	r0, .L9
  88 0006 0223     		movs	r3, #2
  89 0008 0371     		strb	r3, [r0, #4]
  90 000a FFF7FEFF 		bl	HAL_DAC_MspDeInit
  91 000e 0020     		movs	r0, #0
  92 0010 2061     		str	r0, [r4, #16]
  93 0012 6071     		strb	r0, [r4, #5]
  94 0014 2071     		strb	r0, [r4, #4]
  95              	.L8:
  96 0016 10BD     		pop	{r4, pc}
  97              	.L9:
  98 0018 0120     		movs	r0, #1
  99 001a FCE7     		b	.L8
 101              		.section	.text.HAL_DAC_Start,"ax",%progbits
 102              		.align	1
 103              		.global	HAL_DAC_Start
 104              		.syntax unified
 105              		.thumb
 106              		.thumb_func
 107              		.fpu softvfp
 109              	HAL_DAC_Start:
 110              		@ args = 0, pretend = 0, frame = 0
 111              		@ frame_needed = 0, uses_anonymous_args = 0
 112 0000 30B5     		push	{r4, r5, lr}
 113 0002 4379     		ldrb	r3, [r0, #5]	@ zero_extendqisi2
 114 0004 0246     		mov	r2, r0
 115 0006 012B     		cmp	r3, #1
 116 0008 4FF00200 		mov	r0, #2
 117 000c 16D0     		beq	.L11
 118 000e 1071     		strb	r0, [r2, #4]
 119 0010 0120     		movs	r0, #1
 120 0012 1368     		ldr	r3, [r2]
 121 0014 01F01004 		and	r4, r1, #16
 122 0018 1D68     		ldr	r5, [r3]
 123 001a A040     		lsls	r0, r0, r4
ARM GAS  /tmp/cc6ssrEE.s 			page 3


 124 001c 2843     		orrs	r0, r0, r5
 125 001e 1860     		str	r0, [r3]
 126 0020 69B9     		cbnz	r1, .L12
 127 0022 1968     		ldr	r1, [r3]
 128 0024 01F03C01 		and	r1, r1, #60
 129 0028 3C29     		cmp	r1, #60
 130 002a 03D1     		bne	.L13
 131 002c 5968     		ldr	r1, [r3, #4]
 132 002e 41F00101 		orr	r1, r1, #1
 133              	.L15:
 134 0032 5960     		str	r1, [r3, #4]
 135              	.L13:
 136 0034 0123     		movs	r3, #1
 137 0036 0020     		movs	r0, #0
 138 0038 1371     		strb	r3, [r2, #4]
 139 003a 5071     		strb	r0, [r2, #5]
 140              	.L11:
 141 003c 30BD     		pop	{r4, r5, pc}
 142              	.L12:
 143 003e 3C21     		movs	r1, #60
 144 0040 1868     		ldr	r0, [r3]
 145 0042 A140     		lsls	r1, r1, r4
 146 0044 00F47010 		and	r0, r0, #3932160
 147 0048 8842     		cmp	r0, r1
 148 004a F3D1     		bne	.L13
 149 004c 5968     		ldr	r1, [r3, #4]
 150 004e 41F00201 		orr	r1, r1, #2
 151 0052 EEE7     		b	.L15
 153              		.section	.text.HAL_DAC_Stop,"ax",%progbits
 154              		.align	1
 155              		.global	HAL_DAC_Stop
 156              		.syntax unified
 157              		.thumb
 158              		.thumb_func
 159              		.fpu softvfp
 161              	HAL_DAC_Stop:
 162              		@ args = 0, pretend = 0, frame = 0
 163              		@ frame_needed = 0, uses_anonymous_args = 0
 164 0000 0122     		movs	r2, #1
 165 0002 10B5     		push	{r4, lr}
 166 0004 0468     		ldr	r4, [r0]
 167 0006 01F01001 		and	r1, r1, #16
 168 000a 2368     		ldr	r3, [r4]
 169 000c 02FA01F1 		lsl	r1, r2, r1
 170 0010 23EA0101 		bic	r1, r3, r1
 171 0014 2160     		str	r1, [r4]
 172 0016 0271     		strb	r2, [r0, #4]
 173 0018 0020     		movs	r0, #0
 174 001a 10BD     		pop	{r4, pc}
 176              		.section	.text.HAL_DAC_Start_DMA,"ax",%progbits
 177              		.align	1
 178              		.global	HAL_DAC_Start_DMA
 179              		.syntax unified
 180              		.thumb
 181              		.thumb_func
 182              		.fpu softvfp
 184              	HAL_DAC_Start_DMA:
ARM GAS  /tmp/cc6ssrEE.s 			page 4


 185              		@ args = 4, pretend = 0, frame = 0
 186              		@ frame_needed = 0, uses_anonymous_args = 0
 187 0000 F8B5     		push	{r3, r4, r5, r6, r7, lr}
 188 0002 0D46     		mov	r5, r1
 189 0004 1146     		mov	r1, r2
 190 0006 4279     		ldrb	r2, [r0, #5]	@ zero_extendqisi2
 191 0008 0446     		mov	r4, r0
 192 000a 012A     		cmp	r2, #1
 193 000c 4FF00200 		mov	r0, #2
 194 0010 069E     		ldr	r6, [sp, #24]
 195 0012 23D0     		beq	.L18
 196 0014 0122     		movs	r2, #1
 197 0016 2071     		strb	r0, [r4, #4]
 198 0018 6271     		strb	r2, [r4, #5]
 199 001a 2268     		ldr	r2, [r4]
 200 001c 1DBB     		cbnz	r5, .L19
 201 001e A068     		ldr	r0, [r4, #8]
 202 0020 214F     		ldr	r7, .L32
 203 0022 042E     		cmp	r6, #4
 204 0024 8762     		str	r7, [r0, #40]
 205 0026 214F     		ldr	r7, .L32+4
 206 0028 C762     		str	r7, [r0, #44]
 207 002a 214F     		ldr	r7, .L32+8
 208 002c 0763     		str	r7, [r0, #48]
 209 002e 1068     		ldr	r0, [r2]
 210 0030 40F48050 		orr	r0, r0, #4096
 211 0034 1060     		str	r0, [r2]
 212 0036 12D0     		beq	.L20
 213 0038 082E     		cmp	r6, #8
 214 003a 12D0     		beq	.L21
 215 003c 56BB     		cbnz	r6, .L29
 216 003e 0832     		adds	r2, r2, #8
 217              	.L22:
 218 0040 A068     		ldr	r0, [r4, #8]
 219              	.L31:
 220 0042 FFF7FEFF 		bl	HAL_DMA_Start_IT
 221 0046 0023     		movs	r3, #0
 222 0048 6371     		strb	r3, [r4, #5]
 223 004a 38BB     		cbnz	r0, .L27
 224 004c 05F01001 		and	r1, r5, #16
 225 0050 0125     		movs	r5, #1
 226 0052 2368     		ldr	r3, [r4]
 227 0054 8D40     		lsls	r5, r5, r1
 228 0056 1A68     		ldr	r2, [r3]
 229 0058 1543     		orrs	r5, r5, r2
 230 005a 1D60     		str	r5, [r3]
 231              	.L18:
 232 005c F8BD     		pop	{r3, r4, r5, r6, r7, pc}
 233              	.L20:
 234 005e 0C32     		adds	r2, r2, #12
 235 0060 EEE7     		b	.L22
 236              	.L21:
 237 0062 1032     		adds	r2, r2, #16
 238 0064 ECE7     		b	.L22
 239              	.L19:
 240 0066 E068     		ldr	r0, [r4, #12]
 241 0068 124F     		ldr	r7, .L32+12
ARM GAS  /tmp/cc6ssrEE.s 			page 5


 242 006a 042E     		cmp	r6, #4
 243 006c 8762     		str	r7, [r0, #40]
 244 006e 124F     		ldr	r7, .L32+16
 245 0070 C762     		str	r7, [r0, #44]
 246 0072 124F     		ldr	r7, .L32+20
 247 0074 0763     		str	r7, [r0, #48]
 248 0076 1068     		ldr	r0, [r2]
 249 0078 40F08050 		orr	r0, r0, #268435456
 250 007c 1060     		str	r0, [r2]
 251 007e 05D0     		beq	.L23
 252 0080 082E     		cmp	r6, #8
 253 0082 05D0     		beq	.L24
 254 0084 46B9     		cbnz	r6, .L30
 255 0086 1432     		adds	r2, r2, #20
 256              	.L25:
 257 0088 E068     		ldr	r0, [r4, #12]
 258 008a DAE7     		b	.L31
 259              	.L23:
 260 008c 1832     		adds	r2, r2, #24
 261 008e FBE7     		b	.L25
 262              	.L24:
 263 0090 1C32     		adds	r2, r2, #28
 264 0092 F9E7     		b	.L25
 265              	.L29:
 266 0094 2A46     		mov	r2, r5
 267 0096 D3E7     		b	.L22
 268              	.L30:
 269 0098 0022     		movs	r2, #0
 270 009a F5E7     		b	.L25
 271              	.L27:
 272 009c 2369     		ldr	r3, [r4, #16]
 273 009e 43F00403 		orr	r3, r3, #4
 274 00a2 2361     		str	r3, [r4, #16]
 275 00a4 DAE7     		b	.L18
 276              	.L33:
 277 00a6 00BF     		.align	2
 278              	.L32:
 279 00a8 00000000 		.word	DAC_DMAConvCpltCh1
 280 00ac 00000000 		.word	DAC_DMAHalfConvCpltCh1
 281 00b0 00000000 		.word	DAC_DMAErrorCh1
 282 00b4 00000000 		.word	DAC_DMAConvCpltCh2
 283 00b8 00000000 		.word	DAC_DMAHalfConvCpltCh2
 284 00bc 00000000 		.word	DAC_DMAErrorCh2
 286              		.section	.text.HAL_DAC_Stop_DMA,"ax",%progbits
 287              		.align	1
 288              		.global	HAL_DAC_Stop_DMA
 289              		.syntax unified
 290              		.thumb
 291              		.thumb_func
 292              		.fpu softvfp
 294              	HAL_DAC_Stop_DMA:
 295              		@ args = 0, pretend = 0, frame = 0
 296              		@ frame_needed = 0, uses_anonymous_args = 0
 297 0000 F8B5     		push	{r3, r4, r5, r6, r7, lr}
 298 0002 4FF48056 		mov	r6, #4096
 299 0006 0368     		ldr	r3, [r0]
 300 0008 0446     		mov	r4, r0
ARM GAS  /tmp/cc6ssrEE.s 			page 6


 301 000a 0120     		movs	r0, #1
 302 000c 1D68     		ldr	r5, [r3]
 303 000e 01F01007 		and	r7, r1, #16
 304 0012 BE40     		lsls	r6, r6, r7
 305 0014 25EA0605 		bic	r5, r5, r6
 306 0018 1D60     		str	r5, [r3]
 307 001a 1A68     		ldr	r2, [r3]
 308 001c B840     		lsls	r0, r0, r7
 309 001e 22EA0002 		bic	r2, r2, r0
 310 0022 1A60     		str	r2, [r3]
 311 0024 31B9     		cbnz	r1, .L35
 312 0026 A068     		ldr	r0, [r4, #8]
 313              	.L39:
 314 0028 FFF7FEFF 		bl	HAL_DMA_Abort
 315 002c 20B1     		cbz	r0, .L37
 316 002e 0423     		movs	r3, #4
 317              	.L40:
 318 0030 2371     		strb	r3, [r4, #4]
 319 0032 F8BD     		pop	{r3, r4, r5, r6, r7, pc}
 320              	.L35:
 321 0034 E068     		ldr	r0, [r4, #12]
 322 0036 F7E7     		b	.L39
 323              	.L37:
 324 0038 0123     		movs	r3, #1
 325 003a F9E7     		b	.L40
 327              		.section	.text.HAL_DAC_IRQHandler,"ax",%progbits
 328              		.align	1
 329              		.global	HAL_DAC_IRQHandler
 330              		.syntax unified
 331              		.thumb
 332              		.thumb_func
 333              		.fpu softvfp
 335              	HAL_DAC_IRQHandler:
 336              		@ args = 0, pretend = 0, frame = 0
 337              		@ frame_needed = 0, uses_anonymous_args = 0
 338              		@ link register save eliminated.
 339 0000 7047     		bx	lr
 341              		.section	.text.HAL_DAC_SetValue,"ax",%progbits
 342              		.align	1
 343              		.global	HAL_DAC_SetValue
 344              		.syntax unified
 345              		.thumb
 346              		.thumb_func
 347              		.fpu softvfp
 349              	HAL_DAC_SetValue:
 350              		@ args = 0, pretend = 0, frame = 8
 351              		@ frame_needed = 0, uses_anonymous_args = 0
 352 0000 13B5     		push	{r0, r1, r4, lr}
 353 0002 0024     		movs	r4, #0
 354 0004 0068     		ldr	r0, [r0]
 355 0006 0194     		str	r4, [sp, #4]
 356 0008 0190     		str	r0, [sp, #4]
 357 000a 41B9     		cbnz	r1, .L43
 358 000c 0199     		ldr	r1, [sp, #4]
 359 000e 0831     		adds	r1, r1, #8
 360              	.L45:
 361 0010 0020     		movs	r0, #0
ARM GAS  /tmp/cc6ssrEE.s 			page 7


 362 0012 0A44     		add	r2, r2, r1
 363 0014 0192     		str	r2, [sp, #4]
 364 0016 019A     		ldr	r2, [sp, #4]
 365 0018 1360     		str	r3, [r2]
 366 001a 02B0     		add	sp, sp, #8
 367              		@ sp needed
 368 001c 10BD     		pop	{r4, pc}
 369              	.L43:
 370 001e 0199     		ldr	r1, [sp, #4]
 371 0020 1431     		adds	r1, r1, #20
 372 0022 F5E7     		b	.L45
 374              		.section	.text.HAL_DAC_ConvCpltCallbackCh1,"ax",%progbits
 375              		.align	1
 376              		.weak	HAL_DAC_ConvCpltCallbackCh1
 377              		.syntax unified
 378              		.thumb
 379              		.thumb_func
 380              		.fpu softvfp
 382              	HAL_DAC_ConvCpltCallbackCh1:
 383              		@ args = 0, pretend = 0, frame = 0
 384              		@ frame_needed = 0, uses_anonymous_args = 0
 385              		@ link register save eliminated.
 386 0000 7047     		bx	lr
 388              		.section	.text.DAC_DMAConvCpltCh1,"ax",%progbits
 389              		.align	1
 390              		.global	DAC_DMAConvCpltCh1
 391              		.syntax unified
 392              		.thumb
 393              		.thumb_func
 394              		.fpu softvfp
 396              	DAC_DMAConvCpltCh1:
 397              		@ args = 0, pretend = 0, frame = 0
 398              		@ frame_needed = 0, uses_anonymous_args = 0
 399 0000 10B5     		push	{r4, lr}
 400 0002 446A     		ldr	r4, [r0, #36]
 401 0004 2046     		mov	r0, r4
 402 0006 FFF7FEFF 		bl	HAL_DAC_ConvCpltCallbackCh1
 403 000a 0123     		movs	r3, #1
 404 000c 2371     		strb	r3, [r4, #4]
 405 000e 10BD     		pop	{r4, pc}
 407              		.section	.text.HAL_DAC_ConvHalfCpltCallbackCh1,"ax",%progbits
 408              		.align	1
 409              		.weak	HAL_DAC_ConvHalfCpltCallbackCh1
 410              		.syntax unified
 411              		.thumb
 412              		.thumb_func
 413              		.fpu softvfp
 415              	HAL_DAC_ConvHalfCpltCallbackCh1:
 416              		@ args = 0, pretend = 0, frame = 0
 417              		@ frame_needed = 0, uses_anonymous_args = 0
 418              		@ link register save eliminated.
 419 0000 7047     		bx	lr
 421              		.section	.text.DAC_DMAHalfConvCpltCh1,"ax",%progbits
 422              		.align	1
 423              		.global	DAC_DMAHalfConvCpltCh1
 424              		.syntax unified
 425              		.thumb
ARM GAS  /tmp/cc6ssrEE.s 			page 8


 426              		.thumb_func
 427              		.fpu softvfp
 429              	DAC_DMAHalfConvCpltCh1:
 430              		@ args = 0, pretend = 0, frame = 0
 431              		@ frame_needed = 0, uses_anonymous_args = 0
 432 0000 08B5     		push	{r3, lr}
 433 0002 406A     		ldr	r0, [r0, #36]
 434 0004 FFF7FEFF 		bl	HAL_DAC_ConvHalfCpltCallbackCh1
 435 0008 08BD     		pop	{r3, pc}
 437              		.section	.text.HAL_DAC_ErrorCallbackCh1,"ax",%progbits
 438              		.align	1
 439              		.weak	HAL_DAC_ErrorCallbackCh1
 440              		.syntax unified
 441              		.thumb
 442              		.thumb_func
 443              		.fpu softvfp
 445              	HAL_DAC_ErrorCallbackCh1:
 446              		@ args = 0, pretend = 0, frame = 0
 447              		@ frame_needed = 0, uses_anonymous_args = 0
 448              		@ link register save eliminated.
 449 0000 7047     		bx	lr
 451              		.section	.text.DAC_DMAErrorCh1,"ax",%progbits
 452              		.align	1
 453              		.global	DAC_DMAErrorCh1
 454              		.syntax unified
 455              		.thumb
 456              		.thumb_func
 457              		.fpu softvfp
 459              	DAC_DMAErrorCh1:
 460              		@ args = 0, pretend = 0, frame = 0
 461              		@ frame_needed = 0, uses_anonymous_args = 0
 462 0000 10B5     		push	{r4, lr}
 463 0002 446A     		ldr	r4, [r0, #36]
 464 0004 2369     		ldr	r3, [r4, #16]
 465 0006 2046     		mov	r0, r4
 466 0008 43F00403 		orr	r3, r3, #4
 467 000c 2361     		str	r3, [r4, #16]
 468 000e FFF7FEFF 		bl	HAL_DAC_ErrorCallbackCh1
 469 0012 0123     		movs	r3, #1
 470 0014 2371     		strb	r3, [r4, #4]
 471 0016 10BD     		pop	{r4, pc}
 473              		.section	.text.HAL_DAC_DMAUnderrunCallbackCh1,"ax",%progbits
 474              		.align	1
 475              		.weak	HAL_DAC_DMAUnderrunCallbackCh1
 476              		.syntax unified
 477              		.thumb
 478              		.thumb_func
 479              		.fpu softvfp
 481              	HAL_DAC_DMAUnderrunCallbackCh1:
 482              		@ args = 0, pretend = 0, frame = 0
 483              		@ frame_needed = 0, uses_anonymous_args = 0
 484              		@ link register save eliminated.
 485 0000 7047     		bx	lr
 487              		.section	.text.HAL_DAC_GetValue,"ax",%progbits
 488              		.align	1
 489              		.global	HAL_DAC_GetValue
 490              		.syntax unified
ARM GAS  /tmp/cc6ssrEE.s 			page 9


 491              		.thumb
 492              		.thumb_func
 493              		.fpu softvfp
 495              	HAL_DAC_GetValue:
 496              		@ args = 0, pretend = 0, frame = 0
 497              		@ frame_needed = 0, uses_anonymous_args = 0
 498              		@ link register save eliminated.
 499 0000 0368     		ldr	r3, [r0]
 500 0002 09B9     		cbnz	r1, .L54
 501 0004 D86A     		ldr	r0, [r3, #44]
 502 0006 7047     		bx	lr
 503              	.L54:
 504 0008 186B     		ldr	r0, [r3, #48]
 505 000a 7047     		bx	lr
 507              		.section	.text.HAL_DAC_ConfigChannel,"ax",%progbits
 508              		.align	1
 509              		.global	HAL_DAC_ConfigChannel
 510              		.syntax unified
 511              		.thumb
 512              		.thumb_func
 513              		.fpu softvfp
 515              	HAL_DAC_ConfigChannel:
 516              		@ args = 0, pretend = 0, frame = 0
 517              		@ frame_needed = 0, uses_anonymous_args = 0
 518 0000 30B5     		push	{r4, r5, lr}
 519 0002 0346     		mov	r3, r0
 520 0004 4079     		ldrb	r0, [r0, #5]	@ zero_extendqisi2
 521 0006 0128     		cmp	r0, #1
 522 0008 4FF00200 		mov	r0, #2
 523 000c 1ED0     		beq	.L57
 524 000e 1871     		strb	r0, [r3, #4]
 525 0010 40F6FE70 		movw	r0, #4094
 526 0014 1C68     		ldr	r4, [r3]
 527 0016 02F01002 		and	r2, r2, #16
 528 001a 2568     		ldr	r5, [r4]
 529 001c 9040     		lsls	r0, r0, r2
 530 001e 25EA0005 		bic	r5, r5, r0
 531 0022 D1E90001 		ldrd	r0, r1, [r1]
 532 0026 0143     		orrs	r1, r1, r0
 533 0028 9140     		lsls	r1, r1, r2
 534 002a 2943     		orrs	r1, r1, r5
 535 002c 2160     		str	r1, [r4]
 536 002e C021     		movs	r1, #192
 537 0030 2068     		ldr	r0, [r4]
 538 0032 01FA02F2 		lsl	r2, r1, r2
 539 0036 20EA0200 		bic	r0, r0, r2
 540 003a 2060     		str	r0, [r4]
 541 003c 2168     		ldr	r1, [r4]
 542 003e 0020     		movs	r0, #0
 543 0040 21EA0202 		bic	r2, r1, r2
 544 0044 2260     		str	r2, [r4]
 545 0046 0122     		movs	r2, #1
 546 0048 5871     		strb	r0, [r3, #5]
 547 004a 1A71     		strb	r2, [r3, #4]
 548              	.L57:
 549 004c 30BD     		pop	{r4, r5, pc}
 551              		.section	.text.HAL_DAC_GetState,"ax",%progbits
ARM GAS  /tmp/cc6ssrEE.s 			page 10


 552              		.align	1
 553              		.global	HAL_DAC_GetState
 554              		.syntax unified
 555              		.thumb
 556              		.thumb_func
 557              		.fpu softvfp
 559              	HAL_DAC_GetState:
 560              		@ args = 0, pretend = 0, frame = 0
 561              		@ frame_needed = 0, uses_anonymous_args = 0
 562              		@ link register save eliminated.
 563 0000 0079     		ldrb	r0, [r0, #4]	@ zero_extendqisi2
 564 0002 7047     		bx	lr
 566              		.section	.text.HAL_DAC_GetError,"ax",%progbits
 567              		.align	1
 568              		.global	HAL_DAC_GetError
 569              		.syntax unified
 570              		.thumb
 571              		.thumb_func
 572              		.fpu softvfp
 574              	HAL_DAC_GetError:
 575              		@ args = 0, pretend = 0, frame = 0
 576              		@ frame_needed = 0, uses_anonymous_args = 0
 577              		@ link register save eliminated.
 578 0000 0069     		ldr	r0, [r0, #16]
 579 0002 7047     		bx	lr
 581              		.ident	"GCC: (GNU Tools for Arm Embedded Processors 9-2019-q4-major) 9.2.1 20191025 (release) [ARM
ARM GAS  /tmp/cc6ssrEE.s 			page 11

