ARM GAS  /tmp/ccyKHMeg.s 			page 1


   1              		.cpu cortex-m3
   2              		.eabi_attribute 20, 1
   3              		.eabi_attribute 21, 1
   4              		.eabi_attribute 23, 3
   5              		.eabi_attribute 24, 1
   6              		.eabi_attribute 25, 1
   7              		.eabi_attribute 26, 1
   8              		.eabi_attribute 30, 4
   9              		.eabi_attribute 34, 1
  10              		.eabi_attribute 18, 4
  11              		.file	"stm32f1xx_hal_nand.c"
  12              		.text
  13              		.section	.text.HAL_NAND_MspInit,"ax",%progbits
  14              		.align	1
  15              		.weak	HAL_NAND_MspInit
  16              		.arch armv7-m
  17              		.syntax unified
  18              		.thumb
  19              		.thumb_func
  20              		.fpu softvfp
  22              	HAL_NAND_MspInit:
  23              		@ args = 0, pretend = 0, frame = 0
  24              		@ frame_needed = 0, uses_anonymous_args = 0
  25              		@ link register save eliminated.
  26 0000 7047     		bx	lr
  28              		.section	.text.HAL_NAND_Init,"ax",%progbits
  29              		.align	1
  30              		.global	HAL_NAND_Init
  31              		.syntax unified
  32              		.thumb
  33              		.thumb_func
  34              		.fpu softvfp
  36              	HAL_NAND_Init:
  37              		@ args = 0, pretend = 0, frame = 0
  38              		@ frame_needed = 0, uses_anonymous_args = 0
  39 0000 70B5     		push	{r4, r5, r6, lr}
  40 0002 0E46     		mov	r6, r1
  41 0004 1546     		mov	r5, r2
  42 0006 0446     		mov	r4, r0
  43 0008 40B3     		cbz	r0, .L7
  44 000a 90F82130 		ldrb	r3, [r0, #33]	@ zero_extendqisi2
  45 000e 03F0FF02 		and	r2, r3, #255
  46 0012 1BB9     		cbnz	r3, .L4
  47 0014 80F82020 		strb	r2, [r0, #32]
  48 0018 FFF7FEFF 		bl	HAL_NAND_MspInit
  49              	.L4:
  50 001c 211D     		adds	r1, r4, #4
  51 001e 2068     		ldr	r0, [r4]
  52 0020 FFF7FEFF 		bl	FSMC_NAND_Init
  53 0024 3146     		mov	r1, r6
  54 0026 6268     		ldr	r2, [r4, #4]
  55 0028 2068     		ldr	r0, [r4]
  56 002a FFF7FEFF 		bl	FSMC_NAND_CommonSpace_Timing_Init
  57 002e 6268     		ldr	r2, [r4, #4]
  58 0030 2946     		mov	r1, r5
  59 0032 2068     		ldr	r0, [r4]
  60 0034 FFF7FEFF 		bl	FSMC_NAND_AttributeSpace_Timing_Init
ARM GAS  /tmp/ccyKHMeg.s 			page 2


  61 0038 6368     		ldr	r3, [r4, #4]
  62 003a 0020     		movs	r0, #0
  63 003c 102B     		cmp	r3, #16
  64 003e 2368     		ldr	r3, [r4]
  65 0040 0BBF     		itete	eq
  66 0042 1A68     		ldreq	r2, [r3]
  67 0044 1A6A     		ldrne	r2, [r3, #32]
  68 0046 42F00402 		orreq	r2, r2, #4
  69 004a 42F00402 		orrne	r2, r2, #4
  70 004e 0CBF     		ite	eq
  71 0050 1A60     		streq	r2, [r3]
  72 0052 1A62     		strne	r2, [r3, #32]
  73 0054 0123     		movs	r3, #1
  74 0056 84F82130 		strb	r3, [r4, #33]
  75              	.L3:
  76 005a 70BD     		pop	{r4, r5, r6, pc}
  77              	.L7:
  78 005c 0120     		movs	r0, #1
  79 005e FCE7     		b	.L3
  81              		.section	.text.HAL_NAND_MspDeInit,"ax",%progbits
  82              		.align	1
  83              		.weak	HAL_NAND_MspDeInit
  84              		.syntax unified
  85              		.thumb
  86              		.thumb_func
  87              		.fpu softvfp
  89              	HAL_NAND_MspDeInit:
  90              		@ args = 0, pretend = 0, frame = 0
  91              		@ frame_needed = 0, uses_anonymous_args = 0
  92              		@ link register save eliminated.
  93 0000 7047     		bx	lr
  95              		.section	.text.HAL_NAND_DeInit,"ax",%progbits
  96              		.align	1
  97              		.global	HAL_NAND_DeInit
  98              		.syntax unified
  99              		.thumb
 100              		.thumb_func
 101              		.fpu softvfp
 103              	HAL_NAND_DeInit:
 104              		@ args = 0, pretend = 0, frame = 0
 105              		@ frame_needed = 0, uses_anonymous_args = 0
 106 0000 10B5     		push	{r4, lr}
 107 0002 0446     		mov	r4, r0
 108 0004 FFF7FEFF 		bl	HAL_NAND_MspDeInit
 109 0008 D4E90001 		ldrd	r0, r1, [r4]
 110 000c FFF7FEFF 		bl	FSMC_NAND_DeInit
 111 0010 0020     		movs	r0, #0
 112 0012 84F82100 		strb	r0, [r4, #33]
 113 0016 84F82000 		strb	r0, [r4, #32]
 114 001a 10BD     		pop	{r4, pc}
 116              		.section	.text.HAL_NAND_ITCallback,"ax",%progbits
 117              		.align	1
 118              		.weak	HAL_NAND_ITCallback
 119              		.syntax unified
 120              		.thumb
 121              		.thumb_func
 122              		.fpu softvfp
ARM GAS  /tmp/ccyKHMeg.s 			page 3


 124              	HAL_NAND_ITCallback:
 125              		@ args = 0, pretend = 0, frame = 0
 126              		@ frame_needed = 0, uses_anonymous_args = 0
 127              		@ link register save eliminated.
 128 0000 7047     		bx	lr
 130              		.section	.text.HAL_NAND_IRQHandler,"ax",%progbits
 131              		.align	1
 132              		.global	HAL_NAND_IRQHandler
 133              		.syntax unified
 134              		.thumb
 135              		.thumb_func
 136              		.fpu softvfp
 138              	HAL_NAND_IRQHandler:
 139              		@ args = 0, pretend = 0, frame = 0
 140              		@ frame_needed = 0, uses_anonymous_args = 0
 141 0000 D0E90032 		ldrd	r3, r2, [r0]
 142 0004 102A     		cmp	r2, #16
 143 0006 10B5     		push	{r4, lr}
 144 0008 0446     		mov	r4, r0
 145 000a 41D1     		bne	.L12
 146 000c 5B68     		ldr	r3, [r3, #4]
 147 000e DA07     		lsls	r2, r3, #31
 148 0010 0AD5     		bpl	.L14
 149              	.L13:
 150 0012 2046     		mov	r0, r4
 151 0014 FFF7FEFF 		bl	HAL_NAND_ITCallback
 152 0018 6368     		ldr	r3, [r4, #4]
 153 001a 102B     		cmp	r3, #16
 154 001c 2368     		ldr	r3, [r4]
 155 001e 45D1     		bne	.L16
 156 0020 5A68     		ldr	r2, [r3, #4]
 157 0022 22F00102 		bic	r2, r2, #1
 158 0026 5A60     		str	r2, [r3, #4]
 159              	.L14:
 160 0028 2368     		ldr	r3, [r4]
 161 002a 5B68     		ldr	r3, [r3, #4]
 162 002c 9807     		lsls	r0, r3, #30
 163 002e 0AD5     		bpl	.L17
 164              	.L20:
 165 0030 2046     		mov	r0, r4
 166 0032 FFF7FEFF 		bl	HAL_NAND_ITCallback
 167 0036 6368     		ldr	r3, [r4, #4]
 168 0038 102B     		cmp	r3, #16
 169 003a 2368     		ldr	r3, [r4]
 170 003c 3BD1     		bne	.L42
 171 003e 5A68     		ldr	r2, [r3, #4]
 172 0040 22F00202 		bic	r2, r2, #2
 173 0044 5A60     		str	r2, [r3, #4]
 174              	.L17:
 175 0046 2368     		ldr	r3, [r4]
 176 0048 5B68     		ldr	r3, [r3, #4]
 177 004a 5A07     		lsls	r2, r3, #29
 178 004c 0AD5     		bpl	.L22
 179              	.L25:
 180 004e 2046     		mov	r0, r4
 181 0050 FFF7FEFF 		bl	HAL_NAND_ITCallback
 182 0054 6368     		ldr	r3, [r4, #4]
ARM GAS  /tmp/ccyKHMeg.s 			page 4


 183 0056 102B     		cmp	r3, #16
 184 0058 2368     		ldr	r3, [r4]
 185 005a 31D1     		bne	.L43
 186 005c 5A68     		ldr	r2, [r3, #4]
 187 005e 22F00402 		bic	r2, r2, #4
 188 0062 5A60     		str	r2, [r3, #4]
 189              	.L22:
 190 0064 2368     		ldr	r3, [r4]
 191 0066 5B68     		ldr	r3, [r3, #4]
 192              	.L44:
 193 0068 C3F38013 		ubfx	r3, r3, #6, #1
 194 006c 7BB1     		cbz	r3, .L11
 195 006e 2046     		mov	r0, r4
 196 0070 FFF7FEFF 		bl	HAL_NAND_ITCallback
 197 0074 6368     		ldr	r3, [r4, #4]
 198 0076 102B     		cmp	r3, #16
 199 0078 2368     		ldr	r3, [r4]
 200 007a 0BBF     		itete	eq
 201 007c 5A68     		ldreq	r2, [r3, #4]
 202 007e 5A6A     		ldrne	r2, [r3, #36]
 203 0080 22F04002 		biceq	r2, r2, #64
 204 0084 22F04002 		bicne	r2, r2, #64
 205 0088 0CBF     		ite	eq
 206 008a 5A60     		streq	r2, [r3, #4]
 207 008c 5A62     		strne	r2, [r3, #36]
 208              	.L11:
 209 008e 10BD     		pop	{r4, pc}
 210              	.L12:
 211 0090 5B6A     		ldr	r3, [r3, #36]
 212 0092 DB07     		lsls	r3, r3, #31
 213 0094 BDD4     		bmi	.L13
 214              	.L15:
 215 0096 2368     		ldr	r3, [r4]
 216 0098 5B6A     		ldr	r3, [r3, #36]
 217 009a 9907     		lsls	r1, r3, #30
 218 009c C8D4     		bmi	.L20
 219              	.L21:
 220 009e 2368     		ldr	r3, [r4]
 221 00a0 5B6A     		ldr	r3, [r3, #36]
 222 00a2 5B07     		lsls	r3, r3, #29
 223 00a4 D3D4     		bmi	.L25
 224              	.L26:
 225 00a6 2368     		ldr	r3, [r4]
 226 00a8 5B6A     		ldr	r3, [r3, #36]
 227 00aa DDE7     		b	.L44
 228              	.L16:
 229 00ac 5A6A     		ldr	r2, [r3, #36]
 230 00ae 22F00102 		bic	r2, r2, #1
 231 00b2 5A62     		str	r2, [r3, #36]
 232 00b4 EFE7     		b	.L15
 233              	.L42:
 234 00b6 5A6A     		ldr	r2, [r3, #36]
 235 00b8 22F00202 		bic	r2, r2, #2
 236 00bc 5A62     		str	r2, [r3, #36]
 237 00be EEE7     		b	.L21
 238              	.L43:
 239 00c0 5A6A     		ldr	r2, [r3, #36]
ARM GAS  /tmp/ccyKHMeg.s 			page 5


 240 00c2 22F00402 		bic	r2, r2, #4
 241 00c6 5A62     		str	r2, [r3, #36]
 242 00c8 EDE7     		b	.L26
 244              		.section	.text.HAL_NAND_Read_ID,"ax",%progbits
 245              		.align	1
 246              		.global	HAL_NAND_Read_ID
 247              		.syntax unified
 248              		.thumb
 249              		.thumb_func
 250              		.fpu softvfp
 252              	HAL_NAND_Read_ID:
 253              		@ args = 0, pretend = 0, frame = 8
 254              		@ frame_needed = 0, uses_anonymous_args = 0
 255 0000 37B5     		push	{r0, r1, r2, r4, r5, lr}
 256 0002 0024     		movs	r4, #0
 257 0004 0094     		str	r4, [sp]
 258 0006 0194     		str	r4, [sp, #4]
 259 0008 90F82120 		ldrb	r2, [r0, #33]	@ zero_extendqisi2
 260 000c 0346     		mov	r3, r0
 261 000e 022A     		cmp	r2, #2
 262 0010 D0B2     		uxtb	r0, r2
 263 0012 34D0     		beq	.L46
 264 0014 93F82120 		ldrb	r2, [r3, #33]	@ zero_extendqisi2
 265 0018 012A     		cmp	r2, #1
 266 001a D5B2     		uxtb	r5, r2
 267 001c 3FD1     		bne	.L50
 268 001e 93F82020 		ldrb	r2, [r3, #32]	@ zero_extendqisi2
 269 0022 0220     		movs	r0, #2
 270 0024 012A     		cmp	r2, #1
 271 0026 2AD0     		beq	.L46
 272 0028 5A68     		ldr	r2, [r3, #4]
 273 002a 83F82050 		strb	r5, [r3, #32]
 274 002e 102A     		cmp	r2, #16
 275 0030 0CBF     		ite	eq
 276 0032 4FF0E042 		moveq	r2, #1879048192
 277 0036 4FF00042 		movne	r2, #-2147483648
 278 003a 9025     		movs	r5, #144
 279 003c 83F82100 		strb	r0, [r3, #33]
 280 0040 42F48030 		orr	r0, r2, #65536
 281 0044 0570     		strb	r5, [r0]
 282              		.syntax unified
 283              	@ 879 "./cmsis/inc/cmsis_gcc.h" 1
 284 0046 BFF34F8F 		dsb 0xF
 285              	@ 0 "" 2
 286              		.thumb
 287              		.syntax unified
 288 004a 42F40030 		orr	r0, r2, #131072
 289 004e 0470     		strb	r4, [r0]
 290              		.syntax unified
 291              	@ 879 "./cmsis/inc/cmsis_gcc.h" 1
 292 0050 BFF34F8F 		dsb 0xF
 293              	@ 0 "" 2
 294              		.thumb
 295              		.syntax unified
 296 0054 D868     		ldr	r0, [r3, #12]
 297 0056 A0B9     		cbnz	r0, .L48
 298 0058 1268     		ldr	r2, [r2]
ARM GAS  /tmp/ccyKHMeg.s 			page 6


 299 005a 0092     		str	r2, [sp]
 300 005c 009A     		ldr	r2, [sp]
 301 005e 0A70     		strb	r2, [r1]
 302 0060 009A     		ldr	r2, [sp]
 303 0062 120A     		lsrs	r2, r2, #8
 304 0064 4A70     		strb	r2, [r1, #1]
 305 0066 009A     		ldr	r2, [sp]
 306 0068 120C     		lsrs	r2, r2, #16
 307 006a 8A70     		strb	r2, [r1, #2]
 308 006c 009A     		ldr	r2, [sp]
 309 006e 120E     		lsrs	r2, r2, #24
 310              	.L56:
 311 0070 CA70     		strb	r2, [r1, #3]
 312 0072 0020     		movs	r0, #0
 313 0074 0122     		movs	r2, #1
 314 0076 83F82000 		strb	r0, [r3, #32]
 315 007a 83F82120 		strb	r2, [r3, #33]
 316              	.L46:
 317 007e 03B0     		add	sp, sp, #12
 318              		@ sp needed
 319 0080 30BD     		pop	{r4, r5, pc}
 320              	.L48:
 321 0082 1068     		ldr	r0, [r2]
 322 0084 0090     		str	r0, [sp]
 323 0086 1269     		ldr	r2, [r2, #16]
 324 0088 0192     		str	r2, [sp, #4]
 325 008a 009A     		ldr	r2, [sp]
 326 008c 0A70     		strb	r2, [r1]
 327 008e 009A     		ldr	r2, [sp]
 328 0090 120C     		lsrs	r2, r2, #16
 329 0092 4A70     		strb	r2, [r1, #1]
 330 0094 019A     		ldr	r2, [sp, #4]
 331 0096 8A70     		strb	r2, [r1, #2]
 332 0098 019A     		ldr	r2, [sp, #4]
 333 009a 120C     		lsrs	r2, r2, #16
 334 009c E8E7     		b	.L56
 335              	.L50:
 336 009e 0120     		movs	r0, #1
 337 00a0 EDE7     		b	.L46
 339              		.section	.text.HAL_NAND_Reset,"ax",%progbits
 340              		.align	1
 341              		.global	HAL_NAND_Reset
 342              		.syntax unified
 343              		.thumb
 344              		.thumb_func
 345              		.fpu softvfp
 347              	HAL_NAND_Reset:
 348              		@ args = 0, pretend = 0, frame = 0
 349              		@ frame_needed = 0, uses_anonymous_args = 0
 350              		@ link register save eliminated.
 351 0000 90F82120 		ldrb	r2, [r0, #33]	@ zero_extendqisi2
 352 0004 0346     		mov	r3, r0
 353 0006 022A     		cmp	r2, #2
 354 0008 D0B2     		uxtb	r0, r2
 355 000a 1DD0     		beq	.L58
 356 000c 93F82120 		ldrb	r2, [r3, #33]	@ zero_extendqisi2
 357 0010 012A     		cmp	r2, #1
ARM GAS  /tmp/ccyKHMeg.s 			page 7


 358 0012 D1B2     		uxtb	r1, r2
 359 0014 17D1     		bne	.L60
 360 0016 93F82020 		ldrb	r2, [r3, #32]	@ zero_extendqisi2
 361 001a 0220     		movs	r0, #2
 362 001c 012A     		cmp	r2, #1
 363 001e 13D0     		beq	.L58
 364 0020 5A68     		ldr	r2, [r3, #4]
 365 0022 83F82100 		strb	r0, [r3, #33]
 366 0026 102A     		cmp	r2, #16
 367 0028 0CBF     		ite	eq
 368 002a 4FF0E042 		moveq	r2, #1879048192
 369 002e 4FF00042 		movne	r2, #-2147483648
 370 0032 FF20     		movs	r0, #255
 371 0034 42F48032 		orr	r2, r2, #65536
 372 0038 1070     		strb	r0, [r2]
 373 003a 0020     		movs	r0, #0
 374 003c 83F82110 		strb	r1, [r3, #33]
 375 0040 83F82000 		strb	r0, [r3, #32]
 376 0044 7047     		bx	lr
 377              	.L60:
 378 0046 0120     		movs	r0, #1
 379              	.L58:
 380 0048 7047     		bx	lr
 382              		.section	.text.HAL_NAND_ConfigDevice,"ax",%progbits
 383              		.align	1
 384              		.global	HAL_NAND_ConfigDevice
 385              		.syntax unified
 386              		.thumb
 387              		.thumb_func
 388              		.fpu softvfp
 390              	HAL_NAND_ConfigDevice:
 391              		@ args = 0, pretend = 0, frame = 0
 392              		@ frame_needed = 0, uses_anonymous_args = 0
 393              		@ link register save eliminated.
 394 0000 0B68     		ldr	r3, [r1]
 395 0002 4362     		str	r3, [r0, #36]
 396 0004 4B68     		ldr	r3, [r1, #4]
 397 0006 8362     		str	r3, [r0, #40]
 398 0008 8B68     		ldr	r3, [r1, #8]
 399 000a C362     		str	r3, [r0, #44]
 400 000c CB68     		ldr	r3, [r1, #12]
 401 000e 0363     		str	r3, [r0, #48]
 402 0010 4B69     		ldr	r3, [r1, #20]
 403 0012 8363     		str	r3, [r0, #56]
 404 0014 0B69     		ldr	r3, [r1, #16]
 405 0016 4363     		str	r3, [r0, #52]
 406 0018 0B7E     		ldrb	r3, [r1, #24]	@ zero_extendqisi2
 407 001a 80F83C30 		strb	r3, [r0, #60]
 408 001e 0020     		movs	r0, #0
 409 0020 7047     		bx	lr
 411              		.section	.text.HAL_NAND_Erase_Block,"ax",%progbits
 412              		.align	1
 413              		.global	HAL_NAND_Erase_Block
 414              		.syntax unified
 415              		.thumb
 416              		.thumb_func
 417              		.fpu softvfp
ARM GAS  /tmp/ccyKHMeg.s 			page 8


 419              	HAL_NAND_Erase_Block:
 420              		@ args = 0, pretend = 0, frame = 0
 421              		@ frame_needed = 0, uses_anonymous_args = 0
 422 0000 F0B5     		push	{r4, r5, r6, r7, lr}
 423 0002 90F82120 		ldrb	r2, [r0, #33]	@ zero_extendqisi2
 424 0006 0346     		mov	r3, r0
 425 0008 022A     		cmp	r2, #2
 426 000a D0B2     		uxtb	r0, r2
 427 000c 4ED0     		beq	.L68
 428 000e 93F82120 		ldrb	r2, [r3, #33]	@ zero_extendqisi2
 429 0012 012A     		cmp	r2, #1
 430 0014 D4B2     		uxtb	r4, r2
 431 0016 4AD1     		bne	.L70
 432 0018 93F82020 		ldrb	r2, [r3, #32]	@ zero_extendqisi2
 433 001c 0220     		movs	r0, #2
 434 001e 012A     		cmp	r2, #1
 435 0020 44D0     		beq	.L68
 436 0022 5A68     		ldr	r2, [r3, #4]
 437 0024 83F82100 		strb	r0, [r3, #33]
 438 0028 102A     		cmp	r2, #16
 439 002a 0CBF     		ite	eq
 440 002c 4FF0E040 		moveq	r0, #1879048192
 441 0030 4FF00040 		movne	r0, #-2147483648
 442 0034 6022     		movs	r2, #96
 443 0036 40F48035 		orr	r5, r0, #65536
 444 003a 83F82040 		strb	r4, [r3, #32]
 445 003e 2A70     		strb	r2, [r5]
 446              		.syntax unified
 447              	@ 879 "./cmsis/inc/cmsis_gcc.h" 1
 448 0040 BFF34F8F 		dsb 0xF
 449              	@ 0 "" 2
 450              		.thumb
 451              		.syntax unified
 452 0044 4A88     		ldrh	r2, [r1, #2]
 453 0046 9F6B     		ldr	r7, [r3, #56]
 454 0048 8E88     		ldrh	r6, [r1, #4]
 455 004a 40F40030 		orr	r0, r0, #131072
 456 004e 07FB0266 		mla	r6, r7, r2, r6
 457 0052 DA6A     		ldr	r2, [r3, #44]
 458 0054 0F78     		ldrb	r7, [r1]	@ zero_extendqisi2
 459 0056 06FB0272 		mla	r2, r6, r2, r7
 460 005a D2B2     		uxtb	r2, r2
 461 005c 0270     		strb	r2, [r0]
 462              		.syntax unified
 463              	@ 879 "./cmsis/inc/cmsis_gcc.h" 1
 464 005e BFF34F8F 		dsb 0xF
 465              	@ 0 "" 2
 466              		.thumb
 467              		.syntax unified
 468 0062 9F6B     		ldr	r7, [r3, #56]
 469 0064 8E88     		ldrh	r6, [r1, #4]
 470 0066 4A88     		ldrh	r2, [r1, #2]
 471 0068 07FB0262 		mla	r2, r7, r2, r6
 472 006c DF6A     		ldr	r7, [r3, #44]
 473 006e 0E88     		ldrh	r6, [r1]
 474 0070 07FB0262 		mla	r2, r7, r2, r6
 475 0074 C2F30722 		ubfx	r2, r2, #8, #8
ARM GAS  /tmp/ccyKHMeg.s 			page 9


 476 0078 0270     		strb	r2, [r0]
 477              		.syntax unified
 478              	@ 879 "./cmsis/inc/cmsis_gcc.h" 1
 479 007a BFF34F8F 		dsb 0xF
 480              	@ 0 "" 2
 481              		.thumb
 482              		.syntax unified
 483 007e 8E88     		ldrh	r6, [r1, #4]
 484 0080 4A88     		ldrh	r2, [r1, #2]
 485 0082 9F6B     		ldr	r7, [r3, #56]
 486 0084 0988     		ldrh	r1, [r1]
 487 0086 07FB0262 		mla	r2, r7, r2, r6
 488 008a DE6A     		ldr	r6, [r3, #44]
 489 008c 06FB0212 		mla	r2, r6, r2, r1
 490 0090 C2F30742 		ubfx	r2, r2, #16, #8
 491 0094 0270     		strb	r2, [r0]
 492              		.syntax unified
 493              	@ 879 "./cmsis/inc/cmsis_gcc.h" 1
 494 0096 BFF34F8F 		dsb 0xF
 495              	@ 0 "" 2
 496              		.thumb
 497              		.syntax unified
 498 009a D022     		movs	r2, #208
 499 009c 2A70     		strb	r2, [r5]
 500              		.syntax unified
 501              	@ 879 "./cmsis/inc/cmsis_gcc.h" 1
 502 009e BFF34F8F 		dsb 0xF
 503              	@ 0 "" 2
 504              		.thumb
 505              		.syntax unified
 506 00a2 0020     		movs	r0, #0
 507 00a4 83F82140 		strb	r4, [r3, #33]
 508 00a8 83F82000 		strb	r0, [r3, #32]
 509              	.L68:
 510 00ac F0BD     		pop	{r4, r5, r6, r7, pc}
 511              	.L70:
 512 00ae 0120     		movs	r0, #1
 513 00b0 FCE7     		b	.L68
 515              		.section	.text.HAL_NAND_Address_Inc,"ax",%progbits
 516              		.align	1
 517              		.global	HAL_NAND_Address_Inc
 518              		.syntax unified
 519              		.thumb
 520              		.thumb_func
 521              		.fpu softvfp
 523              	HAL_NAND_Address_Inc:
 524              		@ args = 0, pretend = 0, frame = 0
 525              		@ frame_needed = 0, uses_anonymous_args = 0
 526 0000 0B88     		ldrh	r3, [r1]
 527 0002 C26A     		ldr	r2, [r0, #44]
 528 0004 0133     		adds	r3, r3, #1
 529 0006 9BB2     		uxth	r3, r3
 530 0008 9342     		cmp	r3, r2
 531 000a 10B5     		push	{r4, lr}
 532 000c 0B80     		strh	r3, [r1]	@ movhi
 533 000e 02D0     		beq	.L77
 534              	.L79:
ARM GAS  /tmp/ccyKHMeg.s 			page 10


 535 0010 4FF48070 		mov	r0, #256
 536              	.L76:
 537 0014 10BD     		pop	{r4, pc}
 538              	.L77:
 539 0016 0022     		movs	r2, #0
 540 0018 8B88     		ldrh	r3, [r1, #4]
 541 001a 846B     		ldr	r4, [r0, #56]
 542 001c 0133     		adds	r3, r3, #1
 543 001e 9BB2     		uxth	r3, r3
 544 0020 A342     		cmp	r3, r4
 545 0022 0A80     		strh	r2, [r1]	@ movhi
 546 0024 8B80     		strh	r3, [r1, #4]	@ movhi
 547 0026 F3D1     		bne	.L79
 548 0028 4B88     		ldrh	r3, [r1, #2]
 549 002a 8A80     		strh	r2, [r1, #4]	@ movhi
 550 002c 0133     		adds	r3, r3, #1
 551 002e 426B     		ldr	r2, [r0, #52]
 552 0030 9BB2     		uxth	r3, r3
 553 0032 9342     		cmp	r3, r2
 554 0034 4B80     		strh	r3, [r1, #2]	@ movhi
 555 0036 EBD1     		bne	.L79
 556 0038 4FF40070 		mov	r0, #512
 557 003c EAE7     		b	.L76
 559              		.section	.text.HAL_NAND_ECC_Enable,"ax",%progbits
 560              		.align	1
 561              		.global	HAL_NAND_ECC_Enable
 562              		.syntax unified
 563              		.thumb
 564              		.thumb_func
 565              		.fpu softvfp
 567              	HAL_NAND_ECC_Enable:
 568              		@ args = 0, pretend = 0, frame = 0
 569              		@ frame_needed = 0, uses_anonymous_args = 0
 570 0000 38B5     		push	{r3, r4, r5, lr}
 571 0002 90F82130 		ldrb	r3, [r0, #33]	@ zero_extendqisi2
 572 0006 0446     		mov	r4, r0
 573 0008 022B     		cmp	r3, #2
 574 000a D8B2     		uxtb	r0, r3
 575 000c 0ED0     		beq	.L81
 576 000e 94F82130 		ldrb	r3, [r4, #33]	@ zero_extendqisi2
 577 0012 012B     		cmp	r3, #1
 578 0014 DDB2     		uxtb	r5, r3
 579 0016 0AD1     		bne	.L82
 580 0018 D4E90001 		ldrd	r0, r1, [r4]
 581 001c 0223     		movs	r3, #2
 582 001e 84F82130 		strb	r3, [r4, #33]
 583 0022 FFF7FEFF 		bl	FSMC_NAND_ECC_Enable
 584 0026 0020     		movs	r0, #0
 585 0028 84F82150 		strb	r5, [r4, #33]
 586              	.L81:
 587 002c 38BD     		pop	{r3, r4, r5, pc}
 588              	.L82:
 589 002e 0120     		movs	r0, #1
 590 0030 FCE7     		b	.L81
 592              		.section	.text.HAL_NAND_ECC_Disable,"ax",%progbits
 593              		.align	1
 594              		.global	HAL_NAND_ECC_Disable
ARM GAS  /tmp/ccyKHMeg.s 			page 11


 595              		.syntax unified
 596              		.thumb
 597              		.thumb_func
 598              		.fpu softvfp
 600              	HAL_NAND_ECC_Disable:
 601              		@ args = 0, pretend = 0, frame = 0
 602              		@ frame_needed = 0, uses_anonymous_args = 0
 603 0000 38B5     		push	{r3, r4, r5, lr}
 604 0002 90F82130 		ldrb	r3, [r0, #33]	@ zero_extendqisi2
 605 0006 0446     		mov	r4, r0
 606 0008 022B     		cmp	r3, #2
 607 000a D8B2     		uxtb	r0, r3
 608 000c 0ED0     		beq	.L87
 609 000e 94F82130 		ldrb	r3, [r4, #33]	@ zero_extendqisi2
 610 0012 012B     		cmp	r3, #1
 611 0014 DDB2     		uxtb	r5, r3
 612 0016 0AD1     		bne	.L88
 613 0018 D4E90001 		ldrd	r0, r1, [r4]
 614 001c 0223     		movs	r3, #2
 615 001e 84F82130 		strb	r3, [r4, #33]
 616 0022 FFF7FEFF 		bl	FSMC_NAND_ECC_Disable
 617 0026 0020     		movs	r0, #0
 618 0028 84F82150 		strb	r5, [r4, #33]
 619              	.L87:
 620 002c 38BD     		pop	{r3, r4, r5, pc}
 621              	.L88:
 622 002e 0120     		movs	r0, #1
 623 0030 FCE7     		b	.L87
 625              		.section	.text.HAL_NAND_GetECC,"ax",%progbits
 626              		.align	1
 627              		.global	HAL_NAND_GetECC
 628              		.syntax unified
 629              		.thumb
 630              		.thumb_func
 631              		.fpu softvfp
 633              	HAL_NAND_GetECC:
 634              		@ args = 0, pretend = 0, frame = 0
 635              		@ frame_needed = 0, uses_anonymous_args = 0
 636 0000 38B5     		push	{r3, r4, r5, lr}
 637 0002 1346     		mov	r3, r2
 638 0004 90F82120 		ldrb	r2, [r0, #33]	@ zero_extendqisi2
 639 0008 0446     		mov	r4, r0
 640 000a 022A     		cmp	r2, #2
 641 000c D0B2     		uxtb	r0, r2
 642 000e 0DD0     		beq	.L93
 643 0010 94F82120 		ldrb	r2, [r4, #33]	@ zero_extendqisi2
 644 0014 012A     		cmp	r2, #1
 645 0016 D5B2     		uxtb	r5, r2
 646 0018 09D1     		bne	.L94
 647 001a 0222     		movs	r2, #2
 648 001c 84F82120 		strb	r2, [r4, #33]
 649 0020 D4E90002 		ldrd	r0, r2, [r4]
 650 0024 FFF7FEFF 		bl	FSMC_NAND_GetECC
 651 0028 84F82150 		strb	r5, [r4, #33]
 652              	.L93:
 653 002c 38BD     		pop	{r3, r4, r5, pc}
 654              	.L94:
ARM GAS  /tmp/ccyKHMeg.s 			page 12


 655 002e 0120     		movs	r0, #1
 656 0030 FCE7     		b	.L93
 658              		.section	.text.HAL_NAND_GetState,"ax",%progbits
 659              		.align	1
 660              		.global	HAL_NAND_GetState
 661              		.syntax unified
 662              		.thumb
 663              		.thumb_func
 664              		.fpu softvfp
 666              	HAL_NAND_GetState:
 667              		@ args = 0, pretend = 0, frame = 0
 668              		@ frame_needed = 0, uses_anonymous_args = 0
 669              		@ link register save eliminated.
 670 0000 90F82100 		ldrb	r0, [r0, #33]	@ zero_extendqisi2
 671 0004 7047     		bx	lr
 673              		.section	.text.HAL_NAND_Read_Status,"ax",%progbits
 674              		.align	1
 675              		.global	HAL_NAND_Read_Status
 676              		.syntax unified
 677              		.thumb
 678              		.thumb_func
 679              		.fpu softvfp
 681              	HAL_NAND_Read_Status:
 682              		@ args = 0, pretend = 0, frame = 0
 683              		@ frame_needed = 0, uses_anonymous_args = 0
 684              		@ link register save eliminated.
 685 0000 4368     		ldr	r3, [r0, #4]
 686 0002 7021     		movs	r1, #112
 687 0004 102B     		cmp	r3, #16
 688 0006 0CBF     		ite	eq
 689 0008 4FF0E043 		moveq	r3, #1879048192
 690 000c 4FF00043 		movne	r3, #-2147483648
 691 0010 43F48032 		orr	r2, r3, #65536
 692 0014 1170     		strb	r1, [r2]
 693 0016 1B78     		ldrb	r3, [r3]	@ zero_extendqisi2
 694 0018 D8B2     		uxtb	r0, r3
 695 001a DB07     		lsls	r3, r3, #31
 696 001c 54BF     		ite	pl
 697 001e 00F04000 		andpl	r0, r0, #64
 698 0022 0120     		movmi	r0, #1
 699 0024 7047     		bx	lr
 701              		.section	.text.HAL_NAND_Read_Page_8b,"ax",%progbits
 702              		.align	1
 703              		.global	HAL_NAND_Read_Page_8b
 704              		.syntax unified
 705              		.thumb
 706              		.thumb_func
 707              		.fpu softvfp
 709              	HAL_NAND_Read_Page_8b:
 710              		@ args = 0, pretend = 0, frame = 8
 711              		@ frame_needed = 0, uses_anonymous_args = 0
 712 0000 2DE9F74F 		push	{r0, r1, r2, r4, r5, r6, r7, r8, r9, r10, fp, lr}
 713 0004 9046     		mov	r8, r2
 714 0006 90F82120 		ldrb	r2, [r0, #33]	@ zero_extendqisi2
 715 000a 0446     		mov	r4, r0
 716 000c 022A     		cmp	r2, #2
 717 000e D0B2     		uxtb	r0, r2
ARM GAS  /tmp/ccyKHMeg.s 			page 13


 718 0010 00F09280 		beq	.L106
 719 0014 94F82120 		ldrb	r2, [r4, #33]	@ zero_extendqisi2
 720 0018 012A     		cmp	r2, #1
 721 001a D5B2     		uxtb	r5, r2
 722 001c 40F09480 		bne	.L120
 723 0020 94F82020 		ldrb	r2, [r4, #32]	@ zero_extendqisi2
 724 0024 0220     		movs	r0, #2
 725 0026 012A     		cmp	r2, #1
 726 0028 00F08680 		beq	.L106
 727 002c 6268     		ldr	r2, [r4, #4]
 728 002e 0027     		movs	r7, #0
 729 0030 102A     		cmp	r2, #16
 730 0032 0CBF     		ite	eq
 731 0034 4FF0E049 		moveq	r9, #1879048192
 732 0038 4FF00049 		movne	r9, #-2147483648
 733 003c 84F82050 		strb	r5, [r4, #32]
 734 0040 84F82100 		strb	r0, [r4, #33]
 735 0044 8A88     		ldrh	r2, [r1, #4]
 736 0046 A06B     		ldr	r0, [r4, #56]
 737 0048 4E88     		ldrh	r6, [r1, #2]
 738 004a 49F4803A 		orr	r10, r9, #65536
 739 004e 00FB0626 		mla	r6, r0, r6, r2
 740 0052 E06A     		ldr	r0, [r4, #44]
 741 0054 0A88     		ldrh	r2, [r1]
 742 0056 49F40035 		orr	r5, r9, #131072
 743 005a 00FB0626 		mla	r6, r0, r6, r2
 744 005e 3344     		add	r3, r3, r6
 745 0060 0193     		str	r3, [sp, #4]
 746              	.L108:
 747 0062 019B     		ldr	r3, [sp, #4]
 748 0064 9E42     		cmp	r6, r3
 749 0066 04D0     		beq	.L118
 750 0068 D4E90B23 		ldrd	r2, r3, [r4, #44]
 751 006c 5343     		muls	r3, r2, r3
 752 006e B342     		cmp	r3, r6
 753 0070 06D8     		bhi	.L119
 754              	.L118:
 755 0072 0123     		movs	r3, #1
 756 0074 0020     		movs	r0, #0
 757 0076 84F82130 		strb	r3, [r4, #33]
 758 007a 84F82000 		strb	r0, [r4, #32]
 759 007e 5BE0     		b	.L106
 760              	.L119:
 761 0080 8AF80070 		strb	r7, [r10]
 762              		.syntax unified
 763              	@ 879 "./cmsis/inc/cmsis_gcc.h" 1
 764 0084 BFF34F8F 		dsb 0xF
 765              	@ 0 "" 2
 766              		.thumb
 767              		.syntax unified
 768 0088 636A     		ldr	r3, [r4, #36]
 769 008a F0B2     		uxtb	r0, r6
 770 008c B3F5007F 		cmp	r3, #512
 771 0090 C6F30722 		ubfx	r2, r6, #8, #8
 772 0094 D4E90B13 		ldrd	r1, r3, [r4, #44]
 773 0098 2F70     		strb	r7, [r5]
 774 009a 03FB01F3 		mul	r3, r3, r1
ARM GAS  /tmp/ccyKHMeg.s 			page 14


 775 009e 28D8     		bhi	.L109
 776 00a0 B3F5803F 		cmp	r3, #65536
 777 00a4 2FD2     		bcs	.L128
 778              	.L129:
 779              		.syntax unified
 780              	@ 879 "./cmsis/inc/cmsis_gcc.h" 1
 781 00a6 BFF34F8F 		dsb 0xF
 782              	@ 0 "" 2
 783              		.thumb
 784              		.syntax unified
 785 00aa 2870     		strb	r0, [r5]
 786              		.syntax unified
 787              	@ 879 "./cmsis/inc/cmsis_gcc.h" 1
 788 00ac BFF34F8F 		dsb 0xF
 789              	@ 0 "" 2
 790              		.thumb
 791              		.syntax unified
 792 00b0 2A70     		strb	r2, [r5]
 793              	.L127:
 794              		.syntax unified
 795              	@ 879 "./cmsis/inc/cmsis_gcc.h" 1
 796 00b2 BFF34F8F 		dsb 0xF
 797              	@ 0 "" 2
 798              		.thumb
 799              		.syntax unified
 800 00b6 3023     		movs	r3, #48
 801 00b8 8AF80030 		strb	r3, [r10]
 802              		.syntax unified
 803              	@ 879 "./cmsis/inc/cmsis_gcc.h" 1
 804 00bc BFF34F8F 		dsb 0xF
 805              	@ 0 "" 2
 806              		.thumb
 807              		.syntax unified
 808 00c0 94F83C30 		ldrb	r3, [r4, #60]	@ zero_extendqisi2
 809 00c4 012B     		cmp	r3, #1
 810 00c6 0BD1     		bne	.L113
 811 00c8 FFF7FEFF 		bl	HAL_GetTick
 812 00cc 8346     		mov	fp, r0
 813              	.L114:
 814 00ce 2046     		mov	r0, r4
 815 00d0 FFF7FEFF 		bl	HAL_NAND_Read_Status
 816 00d4 4028     		cmp	r0, #64
 817 00d6 22D1     		bne	.L115
 818 00d8 8AF80070 		strb	r7, [r10]
 819              		.syntax unified
 820              	@ 879 "./cmsis/inc/cmsis_gcc.h" 1
 821 00dc BFF34F8F 		dsb 0xF
 822              	@ 0 "" 2
 823              		.thumb
 824              		.syntax unified
 825              	.L113:
 826 00e0 4246     		mov	r2, r8
 827              	.L116:
 828 00e2 636A     		ldr	r3, [r4, #36]
 829 00e4 A2EB0800 		sub	r0, r2, r8
 830 00e8 9842     		cmp	r0, r3
 831 00ea 28D3     		bcc	.L117
ARM GAS  /tmp/ccyKHMeg.s 			page 15


 832 00ec 9046     		mov	r8, r2
 833 00ee 0136     		adds	r6, r6, #1
 834 00f0 B7E7     		b	.L108
 835              	.L109:
 836 00f2 B3F5803F 		cmp	r3, #65536
 837 00f6 03D2     		bcs	.L112
 838              		.syntax unified
 839              	@ 879 "./cmsis/inc/cmsis_gcc.h" 1
 840 00f8 BFF34F8F 		dsb 0xF
 841              	@ 0 "" 2
 842              		.thumb
 843              		.syntax unified
 844 00fc 2F70     		strb	r7, [r5]
 845 00fe D2E7     		b	.L129
 846              	.L112:
 847              		.syntax unified
 848              	@ 879 "./cmsis/inc/cmsis_gcc.h" 1
 849 0100 BFF34F8F 		dsb 0xF
 850              	@ 0 "" 2
 851              		.thumb
 852              		.syntax unified
 853 0104 2F70     		strb	r7, [r5]
 854              	.L128:
 855              		.syntax unified
 856              	@ 879 "./cmsis/inc/cmsis_gcc.h" 1
 857 0106 BFF34F8F 		dsb 0xF
 858              	@ 0 "" 2
 859              		.thumb
 860              		.syntax unified
 861 010a 2870     		strb	r0, [r5]
 862              		.syntax unified
 863              	@ 879 "./cmsis/inc/cmsis_gcc.h" 1
 864 010c BFF34F8F 		dsb 0xF
 865              	@ 0 "" 2
 866              		.thumb
 867              		.syntax unified
 868 0110 2A70     		strb	r2, [r5]
 869              		.syntax unified
 870              	@ 879 "./cmsis/inc/cmsis_gcc.h" 1
 871 0112 BFF34F8F 		dsb 0xF
 872              	@ 0 "" 2
 873              		.thumb
 874              		.syntax unified
 875 0116 C6F30743 		ubfx	r3, r6, #16, #8
 876 011a 2B70     		strb	r3, [r5]
 877 011c C9E7     		b	.L127
 878              	.L115:
 879 011e FFF7FEFF 		bl	HAL_GetTick
 880 0122 A0EB0B00 		sub	r0, r0, fp
 881 0126 B0F1807F 		cmp	r0, #16777216
 882 012a D0D9     		bls	.L114
 883 012c 0320     		movs	r0, #3
 884 012e 0023     		movs	r3, #0
 885 0130 84F82100 		strb	r0, [r4, #33]
 886 0134 84F82030 		strb	r3, [r4, #32]
 887              	.L106:
 888 0138 03B0     		add	sp, sp, #12
ARM GAS  /tmp/ccyKHMeg.s 			page 16


 889              		@ sp needed
 890 013a BDE8F08F 		pop	{r4, r5, r6, r7, r8, r9, r10, fp, pc}
 891              	.L117:
 892 013e 99F80030 		ldrb	r3, [r9]	@ zero_extendqisi2
 893 0142 02F8013B 		strb	r3, [r2], #1
 894 0146 CCE7     		b	.L116
 895              	.L120:
 896 0148 0120     		movs	r0, #1
 897 014a F5E7     		b	.L106
 899              		.section	.text.HAL_NAND_Read_Page_16b,"ax",%progbits
 900              		.align	1
 901              		.global	HAL_NAND_Read_Page_16b
 902              		.syntax unified
 903              		.thumb
 904              		.thumb_func
 905              		.fpu softvfp
 907              	HAL_NAND_Read_Page_16b:
 908              		@ args = 0, pretend = 0, frame = 8
 909              		@ frame_needed = 0, uses_anonymous_args = 0
 910 0000 2DE9F74F 		push	{r0, r1, r2, r4, r5, r6, r7, r8, r9, r10, fp, lr}
 911 0004 9046     		mov	r8, r2
 912 0006 90F82120 		ldrb	r2, [r0, #33]	@ zero_extendqisi2
 913 000a 0446     		mov	r4, r0
 914 000c 022A     		cmp	r2, #2
 915 000e D0B2     		uxtb	r0, r2
 916 0010 00F09180 		beq	.L131
 917 0014 94F82120 		ldrb	r2, [r4, #33]	@ zero_extendqisi2
 918 0018 012A     		cmp	r2, #1
 919 001a D5B2     		uxtb	r5, r2
 920 001c 40F09480 		bne	.L145
 921 0020 94F82020 		ldrb	r2, [r4, #32]	@ zero_extendqisi2
 922 0024 0220     		movs	r0, #2
 923 0026 012A     		cmp	r2, #1
 924 0028 00F08580 		beq	.L131
 925 002c 6268     		ldr	r2, [r4, #4]
 926 002e 0027     		movs	r7, #0
 927 0030 102A     		cmp	r2, #16
 928 0032 0CBF     		ite	eq
 929 0034 4FF0E049 		moveq	r9, #1879048192
 930 0038 4FF00049 		movne	r9, #-2147483648
 931 003c 84F82050 		strb	r5, [r4, #32]
 932 0040 84F82100 		strb	r0, [r4, #33]
 933 0044 8A88     		ldrh	r2, [r1, #4]
 934 0046 A06B     		ldr	r0, [r4, #56]
 935 0048 4E88     		ldrh	r6, [r1, #2]
 936 004a 49F4803A 		orr	r10, r9, #65536
 937 004e 00FB0626 		mla	r6, r0, r6, r2
 938 0052 E06A     		ldr	r0, [r4, #44]
 939 0054 0A88     		ldrh	r2, [r1]
 940 0056 49F40035 		orr	r5, r9, #131072
 941 005a 00FB0626 		mla	r6, r0, r6, r2
 942 005e 3344     		add	r3, r3, r6
 943 0060 0193     		str	r3, [sp, #4]
 944              	.L133:
 945 0062 019B     		ldr	r3, [sp, #4]
 946 0064 9E42     		cmp	r6, r3
 947 0066 04D0     		beq	.L143
ARM GAS  /tmp/ccyKHMeg.s 			page 17


 948 0068 D4E90B23 		ldrd	r2, r3, [r4, #44]
 949 006c 5343     		muls	r3, r2, r3
 950 006e B342     		cmp	r3, r6
 951 0070 06D8     		bhi	.L144
 952              	.L143:
 953 0072 0123     		movs	r3, #1
 954 0074 0020     		movs	r0, #0
 955 0076 84F82130 		strb	r3, [r4, #33]
 956 007a 84F82000 		strb	r0, [r4, #32]
 957 007e 5AE0     		b	.L131
 958              	.L144:
 959 0080 8AF80070 		strb	r7, [r10]
 960              		.syntax unified
 961              	@ 879 "./cmsis/inc/cmsis_gcc.h" 1
 962 0084 BFF34F8F 		dsb 0xF
 963              	@ 0 "" 2
 964              		.thumb
 965              		.syntax unified
 966 0088 636A     		ldr	r3, [r4, #36]
 967 008a F0B2     		uxtb	r0, r6
 968 008c B3F5007F 		cmp	r3, #512
 969 0090 C6F30722 		ubfx	r2, r6, #8, #8
 970 0094 D4E90B13 		ldrd	r1, r3, [r4, #44]
 971 0098 2F70     		strb	r7, [r5]
 972 009a 03FB01F3 		mul	r3, r3, r1
 973 009e 27D8     		bhi	.L134
 974 00a0 B3F5803F 		cmp	r3, #65536
 975 00a4 2ED2     		bcs	.L153
 976              	.L154:
 977              		.syntax unified
 978              	@ 879 "./cmsis/inc/cmsis_gcc.h" 1
 979 00a6 BFF34F8F 		dsb 0xF
 980              	@ 0 "" 2
 981              		.thumb
 982              		.syntax unified
 983 00aa 2870     		strb	r0, [r5]
 984              		.syntax unified
 985              	@ 879 "./cmsis/inc/cmsis_gcc.h" 1
 986 00ac BFF34F8F 		dsb 0xF
 987              	@ 0 "" 2
 988              		.thumb
 989              		.syntax unified
 990 00b0 2A70     		strb	r2, [r5]
 991              	.L152:
 992              		.syntax unified
 993              	@ 879 "./cmsis/inc/cmsis_gcc.h" 1
 994 00b2 BFF34F8F 		dsb 0xF
 995              	@ 0 "" 2
 996              		.thumb
 997              		.syntax unified
 998 00b6 3023     		movs	r3, #48
 999 00b8 8AF80030 		strb	r3, [r10]
 1000              		.syntax unified
 1001              	@ 879 "./cmsis/inc/cmsis_gcc.h" 1
 1002 00bc BFF34F8F 		dsb 0xF
 1003              	@ 0 "" 2
 1004              		.thumb
ARM GAS  /tmp/ccyKHMeg.s 			page 18


 1005              		.syntax unified
 1006 00c0 94F83C30 		ldrb	r3, [r4, #60]	@ zero_extendqisi2
 1007 00c4 012B     		cmp	r3, #1
 1008 00c6 0BD1     		bne	.L138
 1009 00c8 FFF7FEFF 		bl	HAL_GetTick
 1010 00cc 8346     		mov	fp, r0
 1011              	.L139:
 1012 00ce 2046     		mov	r0, r4
 1013 00d0 FFF7FEFF 		bl	HAL_NAND_Read_Status
 1014 00d4 4028     		cmp	r0, #64
 1015 00d6 21D1     		bne	.L140
 1016 00d8 8AF80070 		strb	r7, [r10]
 1017              		.syntax unified
 1018              	@ 879 "./cmsis/inc/cmsis_gcc.h" 1
 1019 00dc BFF34F8F 		dsb 0xF
 1020              	@ 0 "" 2
 1021              		.thumb
 1022              		.syntax unified
 1023              	.L138:
 1024 00e0 0023     		movs	r3, #0
 1025 00e2 626A     		ldr	r2, [r4, #36]
 1026              	.L141:
 1027 00e4 9A42     		cmp	r2, r3
 1028 00e6 29D1     		bne	.L142
 1029 00e8 08EB4208 		add	r8, r8, r2, lsl #1
 1030 00ec 0136     		adds	r6, r6, #1
 1031 00ee B8E7     		b	.L133
 1032              	.L134:
 1033 00f0 B3F5803F 		cmp	r3, #65536
 1034 00f4 03D2     		bcs	.L137
 1035              		.syntax unified
 1036              	@ 879 "./cmsis/inc/cmsis_gcc.h" 1
 1037 00f6 BFF34F8F 		dsb 0xF
 1038              	@ 0 "" 2
 1039              		.thumb
 1040              		.syntax unified
 1041 00fa 2F70     		strb	r7, [r5]
 1042 00fc D3E7     		b	.L154
 1043              	.L137:
 1044              		.syntax unified
 1045              	@ 879 "./cmsis/inc/cmsis_gcc.h" 1
 1046 00fe BFF34F8F 		dsb 0xF
 1047              	@ 0 "" 2
 1048              		.thumb
 1049              		.syntax unified
 1050 0102 2F70     		strb	r7, [r5]
 1051              	.L153:
 1052              		.syntax unified
 1053              	@ 879 "./cmsis/inc/cmsis_gcc.h" 1
 1054 0104 BFF34F8F 		dsb 0xF
 1055              	@ 0 "" 2
 1056              		.thumb
 1057              		.syntax unified
 1058 0108 2870     		strb	r0, [r5]
 1059              		.syntax unified
 1060              	@ 879 "./cmsis/inc/cmsis_gcc.h" 1
 1061 010a BFF34F8F 		dsb 0xF
ARM GAS  /tmp/ccyKHMeg.s 			page 19


 1062              	@ 0 "" 2
 1063              		.thumb
 1064              		.syntax unified
 1065 010e 2A70     		strb	r2, [r5]
 1066              		.syntax unified
 1067              	@ 879 "./cmsis/inc/cmsis_gcc.h" 1
 1068 0110 BFF34F8F 		dsb 0xF
 1069              	@ 0 "" 2
 1070              		.thumb
 1071              		.syntax unified
 1072 0114 C6F30743 		ubfx	r3, r6, #16, #8
 1073 0118 2B70     		strb	r3, [r5]
 1074 011a CAE7     		b	.L152
 1075              	.L140:
 1076 011c FFF7FEFF 		bl	HAL_GetTick
 1077 0120 A0EB0B00 		sub	r0, r0, fp
 1078 0124 B0F1807F 		cmp	r0, #16777216
 1079 0128 D1D9     		bls	.L139
 1080 012a 0320     		movs	r0, #3
 1081 012c 0023     		movs	r3, #0
 1082 012e 84F82100 		strb	r0, [r4, #33]
 1083 0132 84F82030 		strb	r3, [r4, #32]
 1084              	.L131:
 1085 0136 03B0     		add	sp, sp, #12
 1086              		@ sp needed
 1087 0138 BDE8F08F 		pop	{r4, r5, r6, r7, r8, r9, r10, fp, pc}
 1088              	.L142:
 1089 013c B9F80000 		ldrh	r0, [r9]
 1090 0140 28F81300 		strh	r0, [r8, r3, lsl #1]	@ movhi
 1091 0144 0133     		adds	r3, r3, #1
 1092 0146 CDE7     		b	.L141
 1093              	.L145:
 1094 0148 0120     		movs	r0, #1
 1095 014a F4E7     		b	.L131
 1097              		.section	.text.HAL_NAND_Write_Page_8b,"ax",%progbits
 1098              		.align	1
 1099              		.global	HAL_NAND_Write_Page_8b
 1100              		.syntax unified
 1101              		.thumb
 1102              		.thumb_func
 1103              		.fpu softvfp
 1105              	HAL_NAND_Write_Page_8b:
 1106              		@ args = 0, pretend = 0, frame = 8
 1107              		@ frame_needed = 0, uses_anonymous_args = 0
 1108 0000 2DE9F74F 		push	{r0, r1, r2, r4, r5, r6, r7, r8, r9, r10, fp, lr}
 1109 0004 90F82150 		ldrb	r5, [r0, #33]	@ zero_extendqisi2
 1110 0008 0446     		mov	r4, r0
 1111 000a 022D     		cmp	r5, #2
 1112 000c E8B2     		uxtb	r0, r5
 1113 000e 00F09A80 		beq	.L156
 1114 0012 94F82100 		ldrb	r0, [r4, #33]	@ zero_extendqisi2
 1115 0016 0128     		cmp	r0, #1
 1116 0018 C5B2     		uxtb	r5, r0
 1117 001a 40F09780 		bne	.L169
 1118 001e 94F82000 		ldrb	r0, [r4, #32]	@ zero_extendqisi2
 1119 0022 0128     		cmp	r0, #1
 1120 0024 4FF00200 		mov	r0, #2
ARM GAS  /tmp/ccyKHMeg.s 			page 20


 1121 0028 00F08D80 		beq	.L156
 1122 002c 84F82100 		strb	r0, [r4, #33]
 1123 0030 6068     		ldr	r0, [r4, #4]
 1124 0032 84F82050 		strb	r5, [r4, #32]
 1125 0036 1028     		cmp	r0, #16
 1126 0038 4D88     		ldrh	r5, [r1, #2]
 1127 003a 8888     		ldrh	r0, [r1, #4]
 1128 003c A66B     		ldr	r6, [r4, #56]
 1129 003e 0CBF     		ite	eq
 1130 0040 4FF0E048 		moveq	r8, #1879048192
 1131 0044 4FF00048 		movne	r8, #-2147483648
 1132 0048 06FB0505 		mla	r5, r6, r5, r0
 1133 004c 4FF0800A 		mov	r10, #128
 1134 0050 0026     		movs	r6, #0
 1135 0052 E06A     		ldr	r0, [r4, #44]
 1136 0054 0988     		ldrh	r1, [r1]
 1137 0056 48F48039 		orr	r9, r8, #65536
 1138 005a 00FB0515 		mla	r5, r0, r5, r1
 1139 005e 2B44     		add	r3, r3, r5
 1140 0060 0193     		str	r3, [sp, #4]
 1141              	.L158:
 1142 0062 019B     		ldr	r3, [sp, #4]
 1143 0064 9D42     		cmp	r5, r3
 1144 0066 04D0     		beq	.L167
 1145 0068 D4E90B01 		ldrd	r0, r1, [r4, #44]
 1146 006c 4143     		muls	r1, r0, r1
 1147 006e A942     		cmp	r1, r5
 1148 0070 06D8     		bhi	.L168
 1149              	.L167:
 1150 0072 0123     		movs	r3, #1
 1151 0074 0020     		movs	r0, #0
 1152 0076 84F82130 		strb	r3, [r4, #33]
 1153 007a 84F82000 		strb	r0, [r4, #32]
 1154 007e 62E0     		b	.L156
 1155              	.L168:
 1156 0080 89F80060 		strb	r6, [r9]
 1157              		.syntax unified
 1158              	@ 879 "./cmsis/inc/cmsis_gcc.h" 1
 1159 0084 BFF34F8F 		dsb 0xF
 1160              	@ 0 "" 2
 1161              		.thumb
 1162              		.syntax unified
 1163 0088 89F800A0 		strb	r10, [r9]
 1164              		.syntax unified
 1165              	@ 879 "./cmsis/inc/cmsis_gcc.h" 1
 1166 008c BFF34F8F 		dsb 0xF
 1167              	@ 0 "" 2
 1168              		.thumb
 1169              		.syntax unified
 1170 0090 606A     		ldr	r0, [r4, #36]
 1171 0092 48F40031 		orr	r1, r8, #131072
 1172 0096 B0F5007F 		cmp	r0, #512
 1173 009a 5FFA85FC 		uxtb	ip, r5
 1174 009e D4E90B30 		ldrd	r3, r0, [r4, #44]
 1175 00a2 C5F30727 		ubfx	r7, r5, #8, #8
 1176 00a6 00FB03F0 		mul	r0, r0, r3
 1177 00aa 0E70     		strb	r6, [r1]
ARM GAS  /tmp/ccyKHMeg.s 			page 21


 1178 00ac 20D8     		bhi	.L159
 1179 00ae B0F5803F 		cmp	r0, #65536
 1180 00b2 27D2     		bcs	.L178
 1181              	.L176:
 1182              		.syntax unified
 1183              	@ 879 "./cmsis/inc/cmsis_gcc.h" 1
 1184 00b4 BFF34F8F 		dsb 0xF
 1185              	@ 0 "" 2
 1186              		.thumb
 1187              		.syntax unified
 1188 00b8 81F800C0 		strb	ip, [r1]
 1189              		.syntax unified
 1190              	@ 879 "./cmsis/inc/cmsis_gcc.h" 1
 1191 00bc BFF34F8F 		dsb 0xF
 1192              	@ 0 "" 2
 1193              		.thumb
 1194              		.syntax unified
 1195 00c0 0F70     		strb	r7, [r1]
 1196              	.L177:
 1197              		.syntax unified
 1198              	@ 879 "./cmsis/inc/cmsis_gcc.h" 1
 1199 00c2 BFF34F8F 		dsb 0xF
 1200              	@ 0 "" 2
 1201              		.thumb
 1202              		.syntax unified
 1203 00c6 1746     		mov	r7, r2
 1204              	.L163:
 1205 00c8 616A     		ldr	r1, [r4, #36]
 1206 00ca B81A     		subs	r0, r7, r2
 1207 00cc 8842     		cmp	r0, r1
 1208 00ce 26D3     		bcc	.L164
 1209 00d0 1022     		movs	r2, #16
 1210 00d2 89F80020 		strb	r2, [r9]
 1211              		.syntax unified
 1212              	@ 879 "./cmsis/inc/cmsis_gcc.h" 1
 1213 00d6 BFF34F8F 		dsb 0xF
 1214              	@ 0 "" 2
 1215              		.thumb
 1216              		.syntax unified
 1217 00da FFF7FEFF 		bl	HAL_GetTick
 1218 00de 8346     		mov	fp, r0
 1219              	.L165:
 1220 00e0 2046     		mov	r0, r4
 1221 00e2 FFF7FEFF 		bl	HAL_NAND_Read_Status
 1222 00e6 4028     		cmp	r0, #64
 1223 00e8 20D1     		bne	.L166
 1224 00ea 3A46     		mov	r2, r7
 1225 00ec 0135     		adds	r5, r5, #1
 1226 00ee B8E7     		b	.L158
 1227              	.L159:
 1228 00f0 B0F5803F 		cmp	r0, #65536
 1229 00f4 03D2     		bcs	.L162
 1230              		.syntax unified
 1231              	@ 879 "./cmsis/inc/cmsis_gcc.h" 1
 1232 00f6 BFF34F8F 		dsb 0xF
 1233              	@ 0 "" 2
 1234              		.thumb
ARM GAS  /tmp/ccyKHMeg.s 			page 22


 1235              		.syntax unified
 1236 00fa 0E70     		strb	r6, [r1]
 1237 00fc DAE7     		b	.L176
 1238              	.L162:
 1239              		.syntax unified
 1240              	@ 879 "./cmsis/inc/cmsis_gcc.h" 1
 1241 00fe BFF34F8F 		dsb 0xF
 1242              	@ 0 "" 2
 1243              		.thumb
 1244              		.syntax unified
 1245 0102 0E70     		strb	r6, [r1]
 1246              	.L178:
 1247              		.syntax unified
 1248              	@ 879 "./cmsis/inc/cmsis_gcc.h" 1
 1249 0104 BFF34F8F 		dsb 0xF
 1250              	@ 0 "" 2
 1251              		.thumb
 1252              		.syntax unified
 1253 0108 81F800C0 		strb	ip, [r1]
 1254              		.syntax unified
 1255              	@ 879 "./cmsis/inc/cmsis_gcc.h" 1
 1256 010c BFF34F8F 		dsb 0xF
 1257              	@ 0 "" 2
 1258              		.thumb
 1259              		.syntax unified
 1260 0110 0F70     		strb	r7, [r1]
 1261              		.syntax unified
 1262              	@ 879 "./cmsis/inc/cmsis_gcc.h" 1
 1263 0112 BFF34F8F 		dsb 0xF
 1264              	@ 0 "" 2
 1265              		.thumb
 1266              		.syntax unified
 1267 0116 C5F30740 		ubfx	r0, r5, #16, #8
 1268 011a 0870     		strb	r0, [r1]
 1269 011c D1E7     		b	.L177
 1270              	.L164:
 1271 011e 17F8011B 		ldrb	r1, [r7], #1	@ zero_extendqisi2
 1272 0122 88F80010 		strb	r1, [r8]
 1273              		.syntax unified
 1274              	@ 879 "./cmsis/inc/cmsis_gcc.h" 1
 1275 0126 BFF34F8F 		dsb 0xF
 1276              	@ 0 "" 2
 1277              		.thumb
 1278              		.syntax unified
 1279 012a CDE7     		b	.L163
 1280              	.L166:
 1281 012c FFF7FEFF 		bl	HAL_GetTick
 1282 0130 A0EB0B00 		sub	r0, r0, fp
 1283 0134 B0F1807F 		cmp	r0, #16777216
 1284 0138 D2D9     		bls	.L165
 1285 013a 0320     		movs	r0, #3
 1286 013c 0023     		movs	r3, #0
 1287 013e 84F82100 		strb	r0, [r4, #33]
 1288 0142 84F82030 		strb	r3, [r4, #32]
 1289              	.L156:
 1290 0146 03B0     		add	sp, sp, #12
 1291              		@ sp needed
ARM GAS  /tmp/ccyKHMeg.s 			page 23


 1292 0148 BDE8F08F 		pop	{r4, r5, r6, r7, r8, r9, r10, fp, pc}
 1293              	.L169:
 1294 014c 0120     		movs	r0, #1
 1295 014e FAE7     		b	.L156
 1297              		.section	.text.HAL_NAND_Write_Page_16b,"ax",%progbits
 1298              		.align	1
 1299              		.global	HAL_NAND_Write_Page_16b
 1300              		.syntax unified
 1301              		.thumb
 1302              		.thumb_func
 1303              		.fpu softvfp
 1305              	HAL_NAND_Write_Page_16b:
 1306              		@ args = 0, pretend = 0, frame = 8
 1307              		@ frame_needed = 0, uses_anonymous_args = 0
 1308 0000 2DE9F74F 		push	{r0, r1, r2, r4, r5, r6, r7, r8, r9, r10, fp, lr}
 1309 0004 1746     		mov	r7, r2
 1310 0006 90F82120 		ldrb	r2, [r0, #33]	@ zero_extendqisi2
 1311 000a 0446     		mov	r4, r0
 1312 000c 022A     		cmp	r2, #2
 1313 000e D0B2     		uxtb	r0, r2
 1314 0010 00F09880 		beq	.L180
 1315 0014 94F82120 		ldrb	r2, [r4, #33]	@ zero_extendqisi2
 1316 0018 012A     		cmp	r2, #1
 1317 001a D5B2     		uxtb	r5, r2
 1318 001c 40F09580 		bne	.L193
 1319 0020 94F82020 		ldrb	r2, [r4, #32]	@ zero_extendqisi2
 1320 0024 0220     		movs	r0, #2
 1321 0026 012A     		cmp	r2, #1
 1322 0028 00F08C80 		beq	.L180
 1323 002c 6268     		ldr	r2, [r4, #4]
 1324 002e 0026     		movs	r6, #0
 1325 0030 102A     		cmp	r2, #16
 1326 0032 0CBF     		ite	eq
 1327 0034 4FF0E048 		moveq	r8, #1879048192
 1328 0038 4FF00048 		movne	r8, #-2147483648
 1329 003c 4FF0800A 		mov	r10, #128
 1330 0040 84F82100 		strb	r0, [r4, #33]
 1331 0044 84F82050 		strb	r5, [r4, #32]
 1332 0048 A06B     		ldr	r0, [r4, #56]
 1333 004a 8A88     		ldrh	r2, [r1, #4]
 1334 004c 4D88     		ldrh	r5, [r1, #2]
 1335 004e 48F48039 		orr	r9, r8, #65536
 1336 0052 00FB0525 		mla	r5, r0, r5, r2
 1337 0056 E06A     		ldr	r0, [r4, #44]
 1338 0058 0A88     		ldrh	r2, [r1]
 1339 005a 00FB0525 		mla	r5, r0, r5, r2
 1340 005e 2B44     		add	r3, r3, r5
 1341 0060 0193     		str	r3, [sp, #4]
 1342              	.L182:
 1343 0062 019B     		ldr	r3, [sp, #4]
 1344 0064 AB42     		cmp	r3, r5
 1345 0066 04D0     		beq	.L191
 1346 0068 D4E90B12 		ldrd	r1, r2, [r4, #44]
 1347 006c 4A43     		muls	r2, r1, r2
 1348 006e AA42     		cmp	r2, r5
 1349 0070 06D8     		bhi	.L192
 1350              	.L191:
ARM GAS  /tmp/ccyKHMeg.s 			page 24


 1351 0072 0123     		movs	r3, #1
 1352 0074 0020     		movs	r0, #0
 1353 0076 84F82130 		strb	r3, [r4, #33]
 1354 007a 84F82000 		strb	r0, [r4, #32]
 1355 007e 61E0     		b	.L180
 1356              	.L192:
 1357 0080 89F80060 		strb	r6, [r9]
 1358              		.syntax unified
 1359              	@ 879 "./cmsis/inc/cmsis_gcc.h" 1
 1360 0084 BFF34F8F 		dsb 0xF
 1361              	@ 0 "" 2
 1362              		.thumb
 1363              		.syntax unified
 1364 0088 89F800A0 		strb	r10, [r9]
 1365              		.syntax unified
 1366              	@ 879 "./cmsis/inc/cmsis_gcc.h" 1
 1367 008c BFF34F8F 		dsb 0xF
 1368              	@ 0 "" 2
 1369              		.thumb
 1370              		.syntax unified
 1371 0090 626A     		ldr	r2, [r4, #36]
 1372 0092 48F40031 		orr	r1, r8, #131072
 1373 0096 B2F5007F 		cmp	r2, #512
 1374 009a 5FFA85FC 		uxtb	ip, r5
 1375 009e D4E90B32 		ldrd	r3, r2, [r4, #44]
 1376 00a2 C5F30720 		ubfx	r0, r5, #8, #8
 1377 00a6 02FB03F2 		mul	r2, r2, r3
 1378 00aa 0E70     		strb	r6, [r1]
 1379 00ac 1ED8     		bhi	.L183
 1380 00ae B2F5803F 		cmp	r2, #65536
 1381 00b2 25D2     		bcs	.L202
 1382              	.L200:
 1383              		.syntax unified
 1384              	@ 879 "./cmsis/inc/cmsis_gcc.h" 1
 1385 00b4 BFF34F8F 		dsb 0xF
 1386              	@ 0 "" 2
 1387              		.thumb
 1388              		.syntax unified
 1389 00b8 81F800C0 		strb	ip, [r1]
 1390              		.syntax unified
 1391              	@ 879 "./cmsis/inc/cmsis_gcc.h" 1
 1392 00bc BFF34F8F 		dsb 0xF
 1393              	@ 0 "" 2
 1394              		.thumb
 1395              		.syntax unified
 1396 00c0 0870     		strb	r0, [r1]
 1397              	.L201:
 1398              		.syntax unified
 1399              	@ 879 "./cmsis/inc/cmsis_gcc.h" 1
 1400 00c2 BFF34F8F 		dsb 0xF
 1401              	@ 0 "" 2
 1402              		.thumb
 1403              		.syntax unified
 1404 00c6 0022     		movs	r2, #0
 1405              	.L187:
 1406 00c8 616A     		ldr	r1, [r4, #36]
 1407 00ca 9142     		cmp	r1, r2
ARM GAS  /tmp/ccyKHMeg.s 			page 25


 1408 00cc 25D8     		bhi	.L188
 1409 00ce 1022     		movs	r2, #16
 1410 00d0 89F80020 		strb	r2, [r9]
 1411              		.syntax unified
 1412              	@ 879 "./cmsis/inc/cmsis_gcc.h" 1
 1413 00d4 BFF34F8F 		dsb 0xF
 1414              	@ 0 "" 2
 1415              		.thumb
 1416              		.syntax unified
 1417 00d8 FFF7FEFF 		bl	HAL_GetTick
 1418 00dc 8346     		mov	fp, r0
 1419              	.L189:
 1420 00de 2046     		mov	r0, r4
 1421 00e0 FFF7FEFF 		bl	HAL_NAND_Read_Status
 1422 00e4 4028     		cmp	r0, #64
 1423 00e6 20D1     		bne	.L190
 1424 00e8 0135     		adds	r5, r5, #1
 1425 00ea BAE7     		b	.L182
 1426              	.L183:
 1427 00ec B2F5803F 		cmp	r2, #65536
 1428 00f0 03D2     		bcs	.L186
 1429              		.syntax unified
 1430              	@ 879 "./cmsis/inc/cmsis_gcc.h" 1
 1431 00f2 BFF34F8F 		dsb 0xF
 1432              	@ 0 "" 2
 1433              		.thumb
 1434              		.syntax unified
 1435 00f6 0E70     		strb	r6, [r1]
 1436 00f8 DCE7     		b	.L200
 1437              	.L186:
 1438              		.syntax unified
 1439              	@ 879 "./cmsis/inc/cmsis_gcc.h" 1
 1440 00fa BFF34F8F 		dsb 0xF
 1441              	@ 0 "" 2
 1442              		.thumb
 1443              		.syntax unified
 1444 00fe 0E70     		strb	r6, [r1]
 1445              	.L202:
 1446              		.syntax unified
 1447              	@ 879 "./cmsis/inc/cmsis_gcc.h" 1
 1448 0100 BFF34F8F 		dsb 0xF
 1449              	@ 0 "" 2
 1450              		.thumb
 1451              		.syntax unified
 1452 0104 81F800C0 		strb	ip, [r1]
 1453              		.syntax unified
 1454              	@ 879 "./cmsis/inc/cmsis_gcc.h" 1
 1455 0108 BFF34F8F 		dsb 0xF
 1456              	@ 0 "" 2
 1457              		.thumb
 1458              		.syntax unified
 1459 010c 0870     		strb	r0, [r1]
 1460              		.syntax unified
 1461              	@ 879 "./cmsis/inc/cmsis_gcc.h" 1
 1462 010e BFF34F8F 		dsb 0xF
 1463              	@ 0 "" 2
 1464              		.thumb
ARM GAS  /tmp/ccyKHMeg.s 			page 26


 1465              		.syntax unified
 1466 0112 C5F30742 		ubfx	r2, r5, #16, #8
 1467 0116 0A70     		strb	r2, [r1]
 1468 0118 D3E7     		b	.L201
 1469              	.L188:
 1470 011a 37F8021B 		ldrh	r1, [r7], #2
 1471 011e A8F80010 		strh	r1, [r8]	@ movhi
 1472              		.syntax unified
 1473              	@ 879 "./cmsis/inc/cmsis_gcc.h" 1
 1474 0122 BFF34F8F 		dsb 0xF
 1475              	@ 0 "" 2
 1476              		.thumb
 1477              		.syntax unified
 1478 0126 0132     		adds	r2, r2, #1
 1479 0128 CEE7     		b	.L187
 1480              	.L190:
 1481 012a FFF7FEFF 		bl	HAL_GetTick
 1482 012e A0EB0B00 		sub	r0, r0, fp
 1483 0132 B0F1807F 		cmp	r0, #16777216
 1484 0136 D2D9     		bls	.L189
 1485 0138 0320     		movs	r0, #3
 1486 013a 0023     		movs	r3, #0
 1487 013c 84F82100 		strb	r0, [r4, #33]
 1488 0140 84F82030 		strb	r3, [r4, #32]
 1489              	.L180:
 1490 0144 03B0     		add	sp, sp, #12
 1491              		@ sp needed
 1492 0146 BDE8F08F 		pop	{r4, r5, r6, r7, r8, r9, r10, fp, pc}
 1493              	.L193:
 1494 014a 0120     		movs	r0, #1
 1495 014c FAE7     		b	.L180
 1497              		.section	.text.HAL_NAND_Read_SpareArea_8b,"ax",%progbits
 1498              		.align	1
 1499              		.global	HAL_NAND_Read_SpareArea_8b
 1500              		.syntax unified
 1501              		.thumb
 1502              		.thumb_func
 1503              		.fpu softvfp
 1505              	HAL_NAND_Read_SpareArea_8b:
 1506              		@ args = 0, pretend = 0, frame = 16
 1507              		@ frame_needed = 0, uses_anonymous_args = 0
 1508 0000 2DE9F04F 		push	{r4, r5, r6, r7, r8, r9, r10, fp, lr}
 1509 0004 1746     		mov	r7, r2
 1510 0006 90F82120 		ldrb	r2, [r0, #33]	@ zero_extendqisi2
 1511 000a 0446     		mov	r4, r0
 1512 000c 022A     		cmp	r2, #2
 1513 000e 85B0     		sub	sp, sp, #20
 1514 0010 D0B2     		uxtb	r0, r2
 1515 0012 00F0A480 		beq	.L204
 1516 0016 94F82120 		ldrb	r2, [r4, #33]	@ zero_extendqisi2
 1517 001a 012A     		cmp	r2, #1
 1518 001c D5B2     		uxtb	r5, r2
 1519 001e 40F0A680 		bne	.L218
 1520 0022 94F82020 		ldrb	r2, [r4, #32]	@ zero_extendqisi2
 1521 0026 0220     		movs	r0, #2
 1522 0028 012A     		cmp	r2, #1
 1523 002a 00F09880 		beq	.L204
ARM GAS  /tmp/ccyKHMeg.s 			page 27


 1524 002e 6268     		ldr	r2, [r4, #4]
 1525 0030 4FF00009 		mov	r9, #0
 1526 0034 102A     		cmp	r2, #16
 1527 0036 0CBF     		ite	eq
 1528 0038 4FF0E04A 		moveq	r10, #1879048192
 1529 003c 4FF0004A 		movne	r10, #-2147483648
 1530 0040 84F82050 		strb	r5, [r4, #32]
 1531 0044 84F82100 		strb	r0, [r4, #33]
 1532 0048 8A88     		ldrh	r2, [r1, #4]
 1533 004a A06B     		ldr	r0, [r4, #56]
 1534 004c 4E88     		ldrh	r6, [r1, #2]
 1535 004e 4AF48038 		orr	r8, r10, #65536
 1536 0052 00FB0626 		mla	r6, r0, r6, r2
 1537 0056 0A88     		ldrh	r2, [r1]
 1538 0058 E06A     		ldr	r0, [r4, #44]
 1539 005a 4AF40035 		orr	r5, r10, #131072
 1540 005e 00FB0626 		mla	r6, r0, r6, r2
 1541 0062 626A     		ldr	r2, [r4, #36]
 1542 0064 3344     		add	r3, r3, r6
 1543 0066 0192     		str	r2, [sp, #4]
 1544 0068 C2F3072B 		ubfx	fp, r2, #8, #8
 1545 006c 0393     		str	r3, [sp, #12]
 1546              	.L206:
 1547 006e 039B     		ldr	r3, [sp, #12]
 1548 0070 9E42     		cmp	r6, r3
 1549 0072 04D0     		beq	.L216
 1550 0074 D4E90B23 		ldrd	r2, r3, [r4, #44]
 1551 0078 5343     		muls	r3, r2, r3
 1552 007a B342     		cmp	r3, r6
 1553 007c 06D8     		bhi	.L217
 1554              	.L216:
 1555 007e 0123     		movs	r3, #1
 1556 0080 0020     		movs	r0, #0
 1557 0082 84F82130 		strb	r3, [r4, #33]
 1558 0086 84F82000 		strb	r0, [r4, #32]
 1559 008a 68E0     		b	.L204
 1560              	.L217:
 1561 008c 636A     		ldr	r3, [r4, #36]
 1562 008e F0B2     		uxtb	r0, r6
 1563 0090 B3F5007F 		cmp	r3, #512
 1564 0094 C6F30721 		ubfx	r1, r6, #8, #8
 1565 0098 31D8     		bhi	.L207
 1566 009a 5023     		movs	r3, #80
 1567 009c 88F80030 		strb	r3, [r8]
 1568              		.syntax unified
 1569              	@ 879 "./cmsis/inc/cmsis_gcc.h" 1
 1570 00a0 BFF34F8F 		dsb 0xF
 1571              	@ 0 "" 2
 1572              		.thumb
 1573              		.syntax unified
 1574 00a4 D4E90B23 		ldrd	r2, r3, [r4, #44]
 1575 00a8 5343     		muls	r3, r2, r3
 1576 00aa B3F5803F 		cmp	r3, #65536
 1577 00ae 85F80090 		strb	r9, [r5]
 1578 00b2 3BD2     		bcs	.L226
 1579              	.L227:
 1580              		.syntax unified
ARM GAS  /tmp/ccyKHMeg.s 			page 28


 1581              	@ 879 "./cmsis/inc/cmsis_gcc.h" 1
 1582 00b4 BFF34F8F 		dsb 0xF
 1583              	@ 0 "" 2
 1584              		.thumb
 1585              		.syntax unified
 1586 00b8 2870     		strb	r0, [r5]
 1587              		.syntax unified
 1588              	@ 879 "./cmsis/inc/cmsis_gcc.h" 1
 1589 00ba BFF34F8F 		dsb 0xF
 1590              	@ 0 "" 2
 1591              		.thumb
 1592              		.syntax unified
 1593 00be 2970     		strb	r1, [r5]
 1594              	.L225:
 1595              		.syntax unified
 1596              	@ 879 "./cmsis/inc/cmsis_gcc.h" 1
 1597 00c0 BFF34F8F 		dsb 0xF
 1598              	@ 0 "" 2
 1599              		.thumb
 1600              		.syntax unified
 1601 00c4 3023     		movs	r3, #48
 1602 00c6 88F80030 		strb	r3, [r8]
 1603              		.syntax unified
 1604              	@ 879 "./cmsis/inc/cmsis_gcc.h" 1
 1605 00ca BFF34F8F 		dsb 0xF
 1606              	@ 0 "" 2
 1607              		.thumb
 1608              		.syntax unified
 1609 00ce 94F83C30 		ldrb	r3, [r4, #60]	@ zero_extendqisi2
 1610 00d2 012B     		cmp	r3, #1
 1611 00d4 0BD1     		bne	.L211
 1612 00d6 FFF7FEFF 		bl	HAL_GetTick
 1613 00da 0290     		str	r0, [sp, #8]
 1614              	.L212:
 1615 00dc 2046     		mov	r0, r4
 1616 00de FFF7FEFF 		bl	HAL_NAND_Read_Status
 1617 00e2 4028     		cmp	r0, #64
 1618 00e4 2ED1     		bne	.L213
 1619 00e6 88F80090 		strb	r9, [r8]
 1620              		.syntax unified
 1621              	@ 879 "./cmsis/inc/cmsis_gcc.h" 1
 1622 00ea BFF34F8F 		dsb 0xF
 1623              	@ 0 "" 2
 1624              		.thumb
 1625              		.syntax unified
 1626              	.L211:
 1627 00ee 3B46     		mov	r3, r7
 1628              	.L214:
 1629 00f0 A26A     		ldr	r2, [r4, #40]
 1630 00f2 D91B     		subs	r1, r3, r7
 1631 00f4 9142     		cmp	r1, r2
 1632 00f6 35D3     		bcc	.L215
 1633 00f8 1F46     		mov	r7, r3
 1634 00fa 0136     		adds	r6, r6, #1
 1635 00fc B7E7     		b	.L206
 1636              	.L207:
 1637 00fe 88F80090 		strb	r9, [r8]
ARM GAS  /tmp/ccyKHMeg.s 			page 29


 1638              		.syntax unified
 1639              	@ 879 "./cmsis/inc/cmsis_gcc.h" 1
 1640 0102 BFF34F8F 		dsb 0xF
 1641              	@ 0 "" 2
 1642              		.thumb
 1643              		.syntax unified
 1644 0106 D4E90B23 		ldrd	r2, r3, [r4, #44]
 1645 010a 5343     		muls	r3, r2, r3
 1646 010c 9DF804C0 		ldrb	ip, [sp, #4]	@ zero_extendqisi2
 1647 0110 B3F5803F 		cmp	r3, #65536
 1648 0114 85F800C0 		strb	ip, [r5]
 1649 0118 04D2     		bcs	.L210
 1650              		.syntax unified
 1651              	@ 879 "./cmsis/inc/cmsis_gcc.h" 1
 1652 011a BFF34F8F 		dsb 0xF
 1653              	@ 0 "" 2
 1654              		.thumb
 1655              		.syntax unified
 1656 011e 85F800B0 		strb	fp, [r5]
 1657 0122 C7E7     		b	.L227
 1658              	.L210:
 1659              		.syntax unified
 1660              	@ 879 "./cmsis/inc/cmsis_gcc.h" 1
 1661 0124 BFF34F8F 		dsb 0xF
 1662              	@ 0 "" 2
 1663              		.thumb
 1664              		.syntax unified
 1665 0128 85F800B0 		strb	fp, [r5]
 1666              	.L226:
 1667              		.syntax unified
 1668              	@ 879 "./cmsis/inc/cmsis_gcc.h" 1
 1669 012c BFF34F8F 		dsb 0xF
 1670              	@ 0 "" 2
 1671              		.thumb
 1672              		.syntax unified
 1673 0130 2870     		strb	r0, [r5]
 1674              		.syntax unified
 1675              	@ 879 "./cmsis/inc/cmsis_gcc.h" 1
 1676 0132 BFF34F8F 		dsb 0xF
 1677              	@ 0 "" 2
 1678              		.thumb
 1679              		.syntax unified
 1680 0136 2970     		strb	r1, [r5]
 1681              		.syntax unified
 1682              	@ 879 "./cmsis/inc/cmsis_gcc.h" 1
 1683 0138 BFF34F8F 		dsb 0xF
 1684              	@ 0 "" 2
 1685              		.thumb
 1686              		.syntax unified
 1687 013c C6F30743 		ubfx	r3, r6, #16, #8
 1688 0140 2B70     		strb	r3, [r5]
 1689 0142 BDE7     		b	.L225
 1690              	.L213:
 1691 0144 FFF7FEFF 		bl	HAL_GetTick
 1692 0148 029B     		ldr	r3, [sp, #8]
 1693 014a C01A     		subs	r0, r0, r3
 1694 014c B0F1807F 		cmp	r0, #16777216
ARM GAS  /tmp/ccyKHMeg.s 			page 30


 1695 0150 C4D9     		bls	.L212
 1696 0152 0320     		movs	r0, #3
 1697 0154 0023     		movs	r3, #0
 1698 0156 84F82100 		strb	r0, [r4, #33]
 1699 015a 84F82030 		strb	r3, [r4, #32]
 1700              	.L204:
 1701 015e 05B0     		add	sp, sp, #20
 1702              		@ sp needed
 1703 0160 BDE8F08F 		pop	{r4, r5, r6, r7, r8, r9, r10, fp, pc}
 1704              	.L215:
 1705 0164 9AF80020 		ldrb	r2, [r10]	@ zero_extendqisi2
 1706 0168 03F8012B 		strb	r2, [r3], #1
 1707 016c C0E7     		b	.L214
 1708              	.L218:
 1709 016e 0120     		movs	r0, #1
 1710 0170 F5E7     		b	.L204
 1712              		.section	.text.HAL_NAND_Read_SpareArea_16b,"ax",%progbits
 1713              		.align	1
 1714              		.global	HAL_NAND_Read_SpareArea_16b
 1715              		.syntax unified
 1716              		.thumb
 1717              		.thumb_func
 1718              		.fpu softvfp
 1720              	HAL_NAND_Read_SpareArea_16b:
 1721              		@ args = 0, pretend = 0, frame = 16
 1722              		@ frame_needed = 0, uses_anonymous_args = 0
 1723 0000 2DE9F04F 		push	{r4, r5, r6, r7, r8, r9, r10, fp, lr}
 1724 0004 1746     		mov	r7, r2
 1725 0006 90F82120 		ldrb	r2, [r0, #33]	@ zero_extendqisi2
 1726 000a 0446     		mov	r4, r0
 1727 000c 022A     		cmp	r2, #2
 1728 000e 85B0     		sub	sp, sp, #20
 1729 0010 D0B2     		uxtb	r0, r2
 1730 0012 00F0A580 		beq	.L229
 1731 0016 94F82120 		ldrb	r2, [r4, #33]	@ zero_extendqisi2
 1732 001a 012A     		cmp	r2, #1
 1733 001c D5B2     		uxtb	r5, r2
 1734 001e 40F0A880 		bne	.L243
 1735 0022 94F82020 		ldrb	r2, [r4, #32]	@ zero_extendqisi2
 1736 0026 0220     		movs	r0, #2
 1737 0028 012A     		cmp	r2, #1
 1738 002a 00F09980 		beq	.L229
 1739 002e 6268     		ldr	r2, [r4, #4]
 1740 0030 4FF00009 		mov	r9, #0
 1741 0034 102A     		cmp	r2, #16
 1742 0036 0CBF     		ite	eq
 1743 0038 4FF0E04A 		moveq	r10, #1879048192
 1744 003c 4FF0004A 		movne	r10, #-2147483648
 1745 0040 84F82050 		strb	r5, [r4, #32]
 1746 0044 84F82100 		strb	r0, [r4, #33]
 1747 0048 8A88     		ldrh	r2, [r1, #4]
 1748 004a 4E88     		ldrh	r6, [r1, #2]
 1749 004c A06B     		ldr	r0, [r4, #56]
 1750 004e 4AF48038 		orr	r8, r10, #65536
 1751 0052 00FB0626 		mla	r6, r0, r6, r2
 1752 0056 0A88     		ldrh	r2, [r1]
 1753 0058 E06A     		ldr	r0, [r4, #44]
ARM GAS  /tmp/ccyKHMeg.s 			page 31


 1754 005a 4AF40035 		orr	r5, r10, #131072
 1755 005e 00FB0626 		mla	r6, r0, r6, r2
 1756 0062 626A     		ldr	r2, [r4, #36]
 1757 0064 3344     		add	r3, r3, r6
 1758 0066 5100     		lsls	r1, r2, #1
 1759 0068 0291     		str	r1, [sp, #8]
 1760 006a C2F3C71B 		ubfx	fp, r2, #7, #8
 1761 006e 0193     		str	r3, [sp, #4]
 1762              	.L231:
 1763 0070 019B     		ldr	r3, [sp, #4]
 1764 0072 B342     		cmp	r3, r6
 1765 0074 04D0     		beq	.L241
 1766 0076 D4E90B23 		ldrd	r2, r3, [r4, #44]
 1767 007a 5343     		muls	r3, r2, r3
 1768 007c B342     		cmp	r3, r6
 1769 007e 06D8     		bhi	.L242
 1770              	.L241:
 1771 0080 0123     		movs	r3, #1
 1772 0082 0020     		movs	r0, #0
 1773 0084 84F82130 		strb	r3, [r4, #33]
 1774 0088 84F82000 		strb	r0, [r4, #32]
 1775 008c 68E0     		b	.L229
 1776              	.L242:
 1777 008e 636A     		ldr	r3, [r4, #36]
 1778 0090 F0B2     		uxtb	r0, r6
 1779 0092 B3F5007F 		cmp	r3, #512
 1780 0096 C6F30721 		ubfx	r1, r6, #8, #8
 1781 009a 31D8     		bhi	.L232
 1782 009c 5023     		movs	r3, #80
 1783 009e 88F80030 		strb	r3, [r8]
 1784              		.syntax unified
 1785              	@ 879 "./cmsis/inc/cmsis_gcc.h" 1
 1786 00a2 BFF34F8F 		dsb 0xF
 1787              	@ 0 "" 2
 1788              		.thumb
 1789              		.syntax unified
 1790 00a6 D4E90B23 		ldrd	r2, r3, [r4, #44]
 1791 00aa 5343     		muls	r3, r2, r3
 1792 00ac B3F5803F 		cmp	r3, #65536
 1793 00b0 85F80090 		strb	r9, [r5]
 1794 00b4 3BD2     		bcs	.L251
 1795              	.L252:
 1796              		.syntax unified
 1797              	@ 879 "./cmsis/inc/cmsis_gcc.h" 1
 1798 00b6 BFF34F8F 		dsb 0xF
 1799              	@ 0 "" 2
 1800              		.thumb
 1801              		.syntax unified
 1802 00ba 2870     		strb	r0, [r5]
 1803              		.syntax unified
 1804              	@ 879 "./cmsis/inc/cmsis_gcc.h" 1
 1805 00bc BFF34F8F 		dsb 0xF
 1806              	@ 0 "" 2
 1807              		.thumb
 1808              		.syntax unified
 1809 00c0 2970     		strb	r1, [r5]
 1810              	.L250:
ARM GAS  /tmp/ccyKHMeg.s 			page 32


 1811              		.syntax unified
 1812              	@ 879 "./cmsis/inc/cmsis_gcc.h" 1
 1813 00c2 BFF34F8F 		dsb 0xF
 1814              	@ 0 "" 2
 1815              		.thumb
 1816              		.syntax unified
 1817 00c6 3023     		movs	r3, #48
 1818 00c8 88F80030 		strb	r3, [r8]
 1819              		.syntax unified
 1820              	@ 879 "./cmsis/inc/cmsis_gcc.h" 1
 1821 00cc BFF34F8F 		dsb 0xF
 1822              	@ 0 "" 2
 1823              		.thumb
 1824              		.syntax unified
 1825 00d0 94F83C30 		ldrb	r3, [r4, #60]	@ zero_extendqisi2
 1826 00d4 012B     		cmp	r3, #1
 1827 00d6 0BD1     		bne	.L236
 1828 00d8 FFF7FEFF 		bl	HAL_GetTick
 1829 00dc 0390     		str	r0, [sp, #12]
 1830              	.L237:
 1831 00de 2046     		mov	r0, r4
 1832 00e0 FFF7FEFF 		bl	HAL_NAND_Read_Status
 1833 00e4 4028     		cmp	r0, #64
 1834 00e6 2ED1     		bne	.L238
 1835 00e8 88F80090 		strb	r9, [r8]
 1836              		.syntax unified
 1837              	@ 879 "./cmsis/inc/cmsis_gcc.h" 1
 1838 00ec BFF34F8F 		dsb 0xF
 1839              	@ 0 "" 2
 1840              		.thumb
 1841              		.syntax unified
 1842              	.L236:
 1843 00f0 0023     		movs	r3, #0
 1844 00f2 A26A     		ldr	r2, [r4, #40]
 1845              	.L239:
 1846 00f4 9A42     		cmp	r2, r3
 1847 00f6 36D1     		bne	.L240
 1848 00f8 07EB4207 		add	r7, r7, r2, lsl #1
 1849 00fc 0136     		adds	r6, r6, #1
 1850 00fe B7E7     		b	.L231
 1851              	.L232:
 1852 0100 88F80090 		strb	r9, [r8]
 1853              		.syntax unified
 1854              	@ 879 "./cmsis/inc/cmsis_gcc.h" 1
 1855 0104 BFF34F8F 		dsb 0xF
 1856              	@ 0 "" 2
 1857              		.thumb
 1858              		.syntax unified
 1859 0108 D4E90B23 		ldrd	r2, r3, [r4, #44]
 1860 010c 5343     		muls	r3, r2, r3
 1861 010e 9DF808C0 		ldrb	ip, [sp, #8]	@ zero_extendqisi2
 1862 0112 B3F5803F 		cmp	r3, #65536
 1863 0116 85F800C0 		strb	ip, [r5]
 1864 011a 04D2     		bcs	.L235
 1865              		.syntax unified
 1866              	@ 879 "./cmsis/inc/cmsis_gcc.h" 1
 1867 011c BFF34F8F 		dsb 0xF
ARM GAS  /tmp/ccyKHMeg.s 			page 33


 1868              	@ 0 "" 2
 1869              		.thumb
 1870              		.syntax unified
 1871 0120 85F800B0 		strb	fp, [r5]
 1872 0124 C7E7     		b	.L252
 1873              	.L235:
 1874              		.syntax unified
 1875              	@ 879 "./cmsis/inc/cmsis_gcc.h" 1
 1876 0126 BFF34F8F 		dsb 0xF
 1877              	@ 0 "" 2
 1878              		.thumb
 1879              		.syntax unified
 1880 012a 85F800B0 		strb	fp, [r5]
 1881              	.L251:
 1882              		.syntax unified
 1883              	@ 879 "./cmsis/inc/cmsis_gcc.h" 1
 1884 012e BFF34F8F 		dsb 0xF
 1885              	@ 0 "" 2
 1886              		.thumb
 1887              		.syntax unified
 1888 0132 2870     		strb	r0, [r5]
 1889              		.syntax unified
 1890              	@ 879 "./cmsis/inc/cmsis_gcc.h" 1
 1891 0134 BFF34F8F 		dsb 0xF
 1892              	@ 0 "" 2
 1893              		.thumb
 1894              		.syntax unified
 1895 0138 2970     		strb	r1, [r5]
 1896              		.syntax unified
 1897              	@ 879 "./cmsis/inc/cmsis_gcc.h" 1
 1898 013a BFF34F8F 		dsb 0xF
 1899              	@ 0 "" 2
 1900              		.thumb
 1901              		.syntax unified
 1902 013e C6F30743 		ubfx	r3, r6, #16, #8
 1903 0142 2B70     		strb	r3, [r5]
 1904 0144 BDE7     		b	.L250
 1905              	.L238:
 1906 0146 FFF7FEFF 		bl	HAL_GetTick
 1907 014a 039B     		ldr	r3, [sp, #12]
 1908 014c C01A     		subs	r0, r0, r3
 1909 014e B0F1807F 		cmp	r0, #16777216
 1910 0152 C4D9     		bls	.L237
 1911 0154 0320     		movs	r0, #3
 1912 0156 0023     		movs	r3, #0
 1913 0158 84F82100 		strb	r0, [r4, #33]
 1914 015c 84F82030 		strb	r3, [r4, #32]
 1915              	.L229:
 1916 0160 05B0     		add	sp, sp, #20
 1917              		@ sp needed
 1918 0162 BDE8F08F 		pop	{r4, r5, r6, r7, r8, r9, r10, fp, pc}
 1919              	.L240:
 1920 0166 BAF80010 		ldrh	r1, [r10]
 1921 016a 27F81310 		strh	r1, [r7, r3, lsl #1]	@ movhi
 1922 016e 0133     		adds	r3, r3, #1
 1923 0170 C0E7     		b	.L239
 1924              	.L243:
ARM GAS  /tmp/ccyKHMeg.s 			page 34


 1925 0172 0120     		movs	r0, #1
 1926 0174 F4E7     		b	.L229
 1928              		.section	.text.HAL_NAND_Write_SpareArea_8b,"ax",%progbits
 1929              		.align	1
 1930              		.global	HAL_NAND_Write_SpareArea_8b
 1931              		.syntax unified
 1932              		.thumb
 1933              		.thumb_func
 1934              		.fpu softvfp
 1936              	HAL_NAND_Write_SpareArea_8b:
 1937              		@ args = 0, pretend = 0, frame = 16
 1938              		@ frame_needed = 0, uses_anonymous_args = 0
 1939 0000 2DE9F04F 		push	{r4, r5, r6, r7, r8, r9, r10, fp, lr}
 1940 0004 90F82150 		ldrb	r5, [r0, #33]	@ zero_extendqisi2
 1941 0008 0446     		mov	r4, r0
 1942 000a 022D     		cmp	r5, #2
 1943 000c 85B0     		sub	sp, sp, #20
 1944 000e E8B2     		uxtb	r0, r5
 1945 0010 00F0AF80 		beq	.L254
 1946 0014 94F82100 		ldrb	r0, [r4, #33]	@ zero_extendqisi2
 1947 0018 0128     		cmp	r0, #1
 1948 001a C5B2     		uxtb	r5, r0
 1949 001c 40F0AC80 		bne	.L267
 1950 0020 94F82000 		ldrb	r0, [r4, #32]	@ zero_extendqisi2
 1951 0024 0128     		cmp	r0, #1
 1952 0026 4FF00200 		mov	r0, #2
 1953 002a 00F0A280 		beq	.L254
 1954 002e 84F82100 		strb	r0, [r4, #33]
 1955 0032 6068     		ldr	r0, [r4, #4]
 1956 0034 4FF0800A 		mov	r10, #128
 1957 0038 1028     		cmp	r0, #16
 1958 003a 0CBF     		ite	eq
 1959 003c 4FF0E049 		moveq	r9, #1879048192
 1960 0040 4FF00049 		movne	r9, #-2147483648
 1961 0044 84F82050 		strb	r5, [r4, #32]
 1962 0048 8888     		ldrh	r0, [r1, #4]
 1963 004a 4E88     		ldrh	r6, [r1, #2]
 1964 004c A56B     		ldr	r5, [r4, #56]
 1965 004e 0988     		ldrh	r1, [r1]
 1966 0050 05FB0606 		mla	r6, r5, r6, r0
 1967 0054 E06A     		ldr	r0, [r4, #44]
 1968 0056 49F48037 		orr	r7, r9, #65536
 1969 005a 00FB0616 		mla	r6, r0, r6, r1
 1970 005e 616A     		ldr	r1, [r4, #36]
 1971 0060 3344     		add	r3, r3, r6
 1972 0062 0191     		str	r1, [sp, #4]
 1973 0064 C1F3072B 		ubfx	fp, r1, #8, #8
 1974 0068 0393     		str	r3, [sp, #12]
 1975 006a 49F40035 		orr	r5, r9, #131072
 1976              	.L256:
 1977 006e 039B     		ldr	r3, [sp, #12]
 1978 0070 9E42     		cmp	r6, r3
 1979 0072 04D0     		beq	.L265
 1980 0074 D4E90B13 		ldrd	r1, r3, [r4, #44]
 1981 0078 4B43     		muls	r3, r1, r3
 1982 007a B342     		cmp	r3, r6
 1983 007c 06D8     		bhi	.L266
ARM GAS  /tmp/ccyKHMeg.s 			page 35


 1984              	.L265:
 1985 007e 0123     		movs	r3, #1
 1986 0080 0020     		movs	r0, #0
 1987 0082 84F82130 		strb	r3, [r4, #33]
 1988 0086 84F82000 		strb	r0, [r4, #32]
 1989 008a 72E0     		b	.L254
 1990              	.L266:
 1991 008c 636A     		ldr	r3, [r4, #36]
 1992 008e 5FFA86FC 		uxtb	ip, r6
 1993 0092 B3F5007F 		cmp	r3, #512
 1994 0096 C6F30720 		ubfx	r0, r6, #8, #8
 1995 009a 2ED8     		bhi	.L257
 1996 009c 5023     		movs	r3, #80
 1997 009e 3B70     		strb	r3, [r7]
 1998              		.syntax unified
 1999              	@ 879 "./cmsis/inc/cmsis_gcc.h" 1
 2000 00a0 BFF34F8F 		dsb 0xF
 2001              	@ 0 "" 2
 2002              		.thumb
 2003              		.syntax unified
 2004 00a4 87F800A0 		strb	r10, [r7]
 2005              		.syntax unified
 2006              	@ 879 "./cmsis/inc/cmsis_gcc.h" 1
 2007 00a8 BFF34F8F 		dsb 0xF
 2008              	@ 0 "" 2
 2009              		.thumb
 2010              		.syntax unified
 2011 00ac D4E90B13 		ldrd	r1, r3, [r4, #44]
 2012 00b0 4B43     		muls	r3, r1, r3
 2013 00b2 B3F5803F 		cmp	r3, #65536
 2014 00b6 4FF00003 		mov	r3, #0
 2015 00ba 2B70     		strb	r3, [r5]
 2016 00bc 38D2     		bcs	.L276
 2017              	.L274:
 2018              		.syntax unified
 2019              	@ 879 "./cmsis/inc/cmsis_gcc.h" 1
 2020 00be BFF34F8F 		dsb 0xF
 2021              	@ 0 "" 2
 2022              		.thumb
 2023              		.syntax unified
 2024 00c2 85F800C0 		strb	ip, [r5]
 2025              		.syntax unified
 2026              	@ 879 "./cmsis/inc/cmsis_gcc.h" 1
 2027 00c6 BFF34F8F 		dsb 0xF
 2028              	@ 0 "" 2
 2029              		.thumb
 2030              		.syntax unified
 2031 00ca 2870     		strb	r0, [r5]
 2032              	.L275:
 2033              		.syntax unified
 2034              	@ 879 "./cmsis/inc/cmsis_gcc.h" 1
 2035 00cc BFF34F8F 		dsb 0xF
 2036              	@ 0 "" 2
 2037              		.thumb
 2038              		.syntax unified
 2039 00d0 9046     		mov	r8, r2
 2040              	.L261:
ARM GAS  /tmp/ccyKHMeg.s 			page 36


 2041 00d2 A36A     		ldr	r3, [r4, #40]
 2042 00d4 A8EB0201 		sub	r1, r8, r2
 2043 00d8 9942     		cmp	r1, r3
 2044 00da 36D3     		bcc	.L262
 2045 00dc 1023     		movs	r3, #16
 2046 00de 3B70     		strb	r3, [r7]
 2047              		.syntax unified
 2048              	@ 879 "./cmsis/inc/cmsis_gcc.h" 1
 2049 00e0 BFF34F8F 		dsb 0xF
 2050              	@ 0 "" 2
 2051              		.thumb
 2052              		.syntax unified
 2053 00e4 FFF7FEFF 		bl	HAL_GetTick
 2054 00e8 0290     		str	r0, [sp, #8]
 2055              	.L263:
 2056 00ea 2046     		mov	r0, r4
 2057 00ec FFF7FEFF 		bl	HAL_NAND_Read_Status
 2058 00f0 4028     		cmp	r0, #64
 2059 00f2 31D1     		bne	.L264
 2060 00f4 4246     		mov	r2, r8
 2061 00f6 0136     		adds	r6, r6, #1
 2062 00f8 B9E7     		b	.L256
 2063              	.L257:
 2064 00fa 0023     		movs	r3, #0
 2065 00fc 3B70     		strb	r3, [r7]
 2066              		.syntax unified
 2067              	@ 879 "./cmsis/inc/cmsis_gcc.h" 1
 2068 00fe BFF34F8F 		dsb 0xF
 2069              	@ 0 "" 2
 2070              		.thumb
 2071              		.syntax unified
 2072 0102 87F800A0 		strb	r10, [r7]
 2073              		.syntax unified
 2074              	@ 879 "./cmsis/inc/cmsis_gcc.h" 1
 2075 0106 BFF34F8F 		dsb 0xF
 2076              	@ 0 "" 2
 2077              		.thumb
 2078              		.syntax unified
 2079 010a D4E90B13 		ldrd	r1, r3, [r4, #44]
 2080 010e 4B43     		muls	r3, r1, r3
 2081 0110 9DF804E0 		ldrb	lr, [sp, #4]	@ zero_extendqisi2
 2082 0114 B3F5803F 		cmp	r3, #65536
 2083 0118 85F800E0 		strb	lr, [r5]
 2084 011c 04D2     		bcs	.L260
 2085              		.syntax unified
 2086              	@ 879 "./cmsis/inc/cmsis_gcc.h" 1
 2087 011e BFF34F8F 		dsb 0xF
 2088              	@ 0 "" 2
 2089              		.thumb
 2090              		.syntax unified
 2091 0122 85F800B0 		strb	fp, [r5]
 2092 0126 CAE7     		b	.L274
 2093              	.L260:
 2094              		.syntax unified
 2095              	@ 879 "./cmsis/inc/cmsis_gcc.h" 1
 2096 0128 BFF34F8F 		dsb 0xF
 2097              	@ 0 "" 2
ARM GAS  /tmp/ccyKHMeg.s 			page 37


 2098              		.thumb
 2099              		.syntax unified
 2100 012c 85F800B0 		strb	fp, [r5]
 2101              	.L276:
 2102              		.syntax unified
 2103              	@ 879 "./cmsis/inc/cmsis_gcc.h" 1
 2104 0130 BFF34F8F 		dsb 0xF
 2105              	@ 0 "" 2
 2106              		.thumb
 2107              		.syntax unified
 2108 0134 85F800C0 		strb	ip, [r5]
 2109              		.syntax unified
 2110              	@ 879 "./cmsis/inc/cmsis_gcc.h" 1
 2111 0138 BFF34F8F 		dsb 0xF
 2112              	@ 0 "" 2
 2113              		.thumb
 2114              		.syntax unified
 2115 013c 2870     		strb	r0, [r5]
 2116              		.syntax unified
 2117              	@ 879 "./cmsis/inc/cmsis_gcc.h" 1
 2118 013e BFF34F8F 		dsb 0xF
 2119              	@ 0 "" 2
 2120              		.thumb
 2121              		.syntax unified
 2122 0142 C6F30743 		ubfx	r3, r6, #16, #8
 2123 0146 2B70     		strb	r3, [r5]
 2124 0148 C0E7     		b	.L275
 2125              	.L262:
 2126 014a 18F8013B 		ldrb	r3, [r8], #1	@ zero_extendqisi2
 2127 014e 89F80030 		strb	r3, [r9]
 2128              		.syntax unified
 2129              	@ 879 "./cmsis/inc/cmsis_gcc.h" 1
 2130 0152 BFF34F8F 		dsb 0xF
 2131              	@ 0 "" 2
 2132              		.thumb
 2133              		.syntax unified
 2134 0156 BCE7     		b	.L261
 2135              	.L264:
 2136 0158 FFF7FEFF 		bl	HAL_GetTick
 2137 015c 029B     		ldr	r3, [sp, #8]
 2138 015e C01A     		subs	r0, r0, r3
 2139 0160 B0F1807F 		cmp	r0, #16777216
 2140 0164 C1D9     		bls	.L263
 2141 0166 0320     		movs	r0, #3
 2142 0168 0023     		movs	r3, #0
 2143 016a 84F82100 		strb	r0, [r4, #33]
 2144 016e 84F82030 		strb	r3, [r4, #32]
 2145              	.L254:
 2146 0172 05B0     		add	sp, sp, #20
 2147              		@ sp needed
 2148 0174 BDE8F08F 		pop	{r4, r5, r6, r7, r8, r9, r10, fp, pc}
 2149              	.L267:
 2150 0178 0120     		movs	r0, #1
 2151 017a FAE7     		b	.L254
 2153              		.section	.text.HAL_NAND_Write_SpareArea_16b,"ax",%progbits
 2154              		.align	1
 2155              		.global	HAL_NAND_Write_SpareArea_16b
ARM GAS  /tmp/ccyKHMeg.s 			page 38


 2156              		.syntax unified
 2157              		.thumb
 2158              		.thumb_func
 2159              		.fpu softvfp
 2161              	HAL_NAND_Write_SpareArea_16b:
 2162              		@ args = 0, pretend = 0, frame = 16
 2163              		@ frame_needed = 0, uses_anonymous_args = 0
 2164 0000 2DE9F04F 		push	{r4, r5, r6, r7, r8, r9, r10, fp, lr}
 2165 0004 9246     		mov	r10, r2
 2166 0006 90F82120 		ldrb	r2, [r0, #33]	@ zero_extendqisi2
 2167 000a 0446     		mov	r4, r0
 2168 000c 022A     		cmp	r2, #2
 2169 000e 85B0     		sub	sp, sp, #20
 2170 0010 D0B2     		uxtb	r0, r2
 2171 0012 00F0AA80 		beq	.L278
 2172 0016 94F82120 		ldrb	r2, [r4, #33]	@ zero_extendqisi2
 2173 001a 012A     		cmp	r2, #1
 2174 001c D5B2     		uxtb	r5, r2
 2175 001e 40F0A780 		bne	.L291
 2176 0022 94F82020 		ldrb	r2, [r4, #32]	@ zero_extendqisi2
 2177 0026 0220     		movs	r0, #2
 2178 0028 012A     		cmp	r2, #1
 2179 002a 00F09E80 		beq	.L278
 2180 002e 6268     		ldr	r2, [r4, #4]
 2181 0030 4FF08009 		mov	r9, #128
 2182 0034 102A     		cmp	r2, #16
 2183 0036 0CBF     		ite	eq
 2184 0038 4FF0E048 		moveq	r8, #1879048192
 2185 003c 4FF00048 		movne	r8, #-2147483648
 2186 0040 84F82050 		strb	r5, [r4, #32]
 2187 0044 84F82100 		strb	r0, [r4, #33]
 2188 0048 8A88     		ldrh	r2, [r1, #4]
 2189 004a 4E88     		ldrh	r6, [r1, #2]
 2190 004c A06B     		ldr	r0, [r4, #56]
 2191 004e 48F48037 		orr	r7, r8, #65536
 2192 0052 00FB0626 		mla	r6, r0, r6, r2
 2193 0056 0A88     		ldrh	r2, [r1]
 2194 0058 E06A     		ldr	r0, [r4, #44]
 2195 005a 48F40035 		orr	r5, r8, #131072
 2196 005e 00FB0626 		mla	r6, r0, r6, r2
 2197 0062 626A     		ldr	r2, [r4, #36]
 2198 0064 3344     		add	r3, r3, r6
 2199 0066 5100     		lsls	r1, r2, #1
 2200 0068 0291     		str	r1, [sp, #8]
 2201 006a C2F3C71B 		ubfx	fp, r2, #7, #8
 2202 006e 0193     		str	r3, [sp, #4]
 2203              	.L280:
 2204 0070 019B     		ldr	r3, [sp, #4]
 2205 0072 B342     		cmp	r3, r6
 2206 0074 04D0     		beq	.L289
 2207 0076 D4E90B23 		ldrd	r2, r3, [r4, #44]
 2208 007a 5343     		muls	r3, r2, r3
 2209 007c B342     		cmp	r3, r6
 2210 007e 06D8     		bhi	.L290
 2211              	.L289:
 2212 0080 0123     		movs	r3, #1
 2213 0082 0020     		movs	r0, #0
ARM GAS  /tmp/ccyKHMeg.s 			page 39


 2214 0084 84F82130 		strb	r3, [r4, #33]
 2215 0088 84F82000 		strb	r0, [r4, #32]
 2216 008c 6DE0     		b	.L278
 2217              	.L290:
 2218 008e 636A     		ldr	r3, [r4, #36]
 2219 0090 F0B2     		uxtb	r0, r6
 2220 0092 B3F5007F 		cmp	r3, #512
 2221 0096 C6F30721 		ubfx	r1, r6, #8, #8
 2222 009a 2AD8     		bhi	.L281
 2223 009c 5023     		movs	r3, #80
 2224 009e 3B70     		strb	r3, [r7]
 2225              		.syntax unified
 2226              	@ 879 "./cmsis/inc/cmsis_gcc.h" 1
 2227 00a0 BFF34F8F 		dsb 0xF
 2228              	@ 0 "" 2
 2229              		.thumb
 2230              		.syntax unified
 2231 00a4 87F80090 		strb	r9, [r7]
 2232              		.syntax unified
 2233              	@ 879 "./cmsis/inc/cmsis_gcc.h" 1
 2234 00a8 BFF34F8F 		dsb 0xF
 2235              	@ 0 "" 2
 2236              		.thumb
 2237              		.syntax unified
 2238 00ac D4E90B23 		ldrd	r2, r3, [r4, #44]
 2239 00b0 5343     		muls	r3, r2, r3
 2240 00b2 B3F5803F 		cmp	r3, #65536
 2241 00b6 4FF00003 		mov	r3, #0
 2242 00ba 2B70     		strb	r3, [r5]
 2243 00bc 34D2     		bcs	.L300
 2244              	.L298:
 2245              		.syntax unified
 2246              	@ 879 "./cmsis/inc/cmsis_gcc.h" 1
 2247 00be BFF34F8F 		dsb 0xF
 2248              	@ 0 "" 2
 2249              		.thumb
 2250              		.syntax unified
 2251 00c2 2870     		strb	r0, [r5]
 2252              		.syntax unified
 2253              	@ 879 "./cmsis/inc/cmsis_gcc.h" 1
 2254 00c4 BFF34F8F 		dsb 0xF
 2255              	@ 0 "" 2
 2256              		.thumb
 2257              		.syntax unified
 2258 00c8 2970     		strb	r1, [r5]
 2259              	.L299:
 2260              		.syntax unified
 2261              	@ 879 "./cmsis/inc/cmsis_gcc.h" 1
 2262 00ca BFF34F8F 		dsb 0xF
 2263              	@ 0 "" 2
 2264              		.thumb
 2265              		.syntax unified
 2266 00ce 0022     		movs	r2, #0
 2267              	.L285:
 2268 00d0 A36A     		ldr	r3, [r4, #40]
 2269 00d2 9342     		cmp	r3, r2
 2270 00d4 34D8     		bhi	.L286
ARM GAS  /tmp/ccyKHMeg.s 			page 40


 2271 00d6 1023     		movs	r3, #16
 2272 00d8 3B70     		strb	r3, [r7]
 2273              		.syntax unified
 2274              	@ 879 "./cmsis/inc/cmsis_gcc.h" 1
 2275 00da BFF34F8F 		dsb 0xF
 2276              	@ 0 "" 2
 2277              		.thumb
 2278              		.syntax unified
 2279 00de FFF7FEFF 		bl	HAL_GetTick
 2280 00e2 0390     		str	r0, [sp, #12]
 2281              	.L287:
 2282 00e4 2046     		mov	r0, r4
 2283 00e6 FFF7FEFF 		bl	HAL_NAND_Read_Status
 2284 00ea 4028     		cmp	r0, #64
 2285 00ec 30D1     		bne	.L288
 2286 00ee 0136     		adds	r6, r6, #1
 2287 00f0 BEE7     		b	.L280
 2288              	.L281:
 2289 00f2 0023     		movs	r3, #0
 2290 00f4 3B70     		strb	r3, [r7]
 2291              		.syntax unified
 2292              	@ 879 "./cmsis/inc/cmsis_gcc.h" 1
 2293 00f6 BFF34F8F 		dsb 0xF
 2294              	@ 0 "" 2
 2295              		.thumb
 2296              		.syntax unified
 2297 00fa 87F80090 		strb	r9, [r7]
 2298              		.syntax unified
 2299              	@ 879 "./cmsis/inc/cmsis_gcc.h" 1
 2300 00fe BFF34F8F 		dsb 0xF
 2301              	@ 0 "" 2
 2302              		.thumb
 2303              		.syntax unified
 2304 0102 D4E90B23 		ldrd	r2, r3, [r4, #44]
 2305 0106 5343     		muls	r3, r2, r3
 2306 0108 9DF808C0 		ldrb	ip, [sp, #8]	@ zero_extendqisi2
 2307 010c B3F5803F 		cmp	r3, #65536
 2308 0110 85F800C0 		strb	ip, [r5]
 2309 0114 04D2     		bcs	.L284
 2310              		.syntax unified
 2311              	@ 879 "./cmsis/inc/cmsis_gcc.h" 1
 2312 0116 BFF34F8F 		dsb 0xF
 2313              	@ 0 "" 2
 2314              		.thumb
 2315              		.syntax unified
 2316 011a 85F800B0 		strb	fp, [r5]
 2317 011e CEE7     		b	.L298
 2318              	.L284:
 2319              		.syntax unified
 2320              	@ 879 "./cmsis/inc/cmsis_gcc.h" 1
 2321 0120 BFF34F8F 		dsb 0xF
 2322              	@ 0 "" 2
 2323              		.thumb
 2324              		.syntax unified
 2325 0124 85F800B0 		strb	fp, [r5]
 2326              	.L300:
 2327              		.syntax unified
ARM GAS  /tmp/ccyKHMeg.s 			page 41


 2328              	@ 879 "./cmsis/inc/cmsis_gcc.h" 1
 2329 0128 BFF34F8F 		dsb 0xF
 2330              	@ 0 "" 2
 2331              		.thumb
 2332              		.syntax unified
 2333 012c 2870     		strb	r0, [r5]
 2334              		.syntax unified
 2335              	@ 879 "./cmsis/inc/cmsis_gcc.h" 1
 2336 012e BFF34F8F 		dsb 0xF
 2337              	@ 0 "" 2
 2338              		.thumb
 2339              		.syntax unified
 2340 0132 2970     		strb	r1, [r5]
 2341              		.syntax unified
 2342              	@ 879 "./cmsis/inc/cmsis_gcc.h" 1
 2343 0134 BFF34F8F 		dsb 0xF
 2344              	@ 0 "" 2
 2345              		.thumb
 2346              		.syntax unified
 2347 0138 C6F30743 		ubfx	r3, r6, #16, #8
 2348 013c 2B70     		strb	r3, [r5]
 2349 013e C4E7     		b	.L299
 2350              	.L286:
 2351 0140 3AF8023B 		ldrh	r3, [r10], #2
 2352 0144 A8F80030 		strh	r3, [r8]	@ movhi
 2353              		.syntax unified
 2354              	@ 879 "./cmsis/inc/cmsis_gcc.h" 1
 2355 0148 BFF34F8F 		dsb 0xF
 2356              	@ 0 "" 2
 2357              		.thumb
 2358              		.syntax unified
 2359 014c 0132     		adds	r2, r2, #1
 2360 014e BFE7     		b	.L285
 2361              	.L288:
 2362 0150 FFF7FEFF 		bl	HAL_GetTick
 2363 0154 039B     		ldr	r3, [sp, #12]
 2364 0156 C01A     		subs	r0, r0, r3
 2365 0158 B0F1807F 		cmp	r0, #16777216
 2366 015c C2D9     		bls	.L287
 2367 015e 0320     		movs	r0, #3
 2368 0160 0023     		movs	r3, #0
 2369 0162 84F82100 		strb	r0, [r4, #33]
 2370 0166 84F82030 		strb	r3, [r4, #32]
 2371              	.L278:
 2372 016a 05B0     		add	sp, sp, #20
 2373              		@ sp needed
 2374 016c BDE8F08F 		pop	{r4, r5, r6, r7, r8, r9, r10, fp, pc}
 2375              	.L291:
 2376 0170 0120     		movs	r0, #1
 2377 0172 FAE7     		b	.L278
 2379              		.ident	"GCC: (GNU Tools for Arm Embedded Processors 9-2019-q4-major) 9.2.1 20191025 (release) [ARM
ARM GAS  /tmp/ccyKHMeg.s 			page 42

