ARM GAS  /tmp/cclLi5Tx.s 			page 1


   1              		.cpu cortex-m3
   2              		.eabi_attribute 20, 1
   3              		.eabi_attribute 21, 1
   4              		.eabi_attribute 23, 3
   5              		.eabi_attribute 24, 1
   6              		.eabi_attribute 25, 1
   7              		.eabi_attribute 26, 1
   8              		.eabi_attribute 30, 4
   9              		.eabi_attribute 34, 1
  10              		.eabi_attribute 18, 4
  11              		.file	"stm32f1xx_hal_uart.c"
  12              		.text
  13              		.section	.text.HAL_UART_MspInit,"ax",%progbits
  14              		.align	1
  15              		.weak	HAL_UART_MspInit
  16              		.arch armv7-m
  17              		.syntax unified
  18              		.thumb
  19              		.thumb_func
  20              		.fpu softvfp
  22              	HAL_UART_MspInit:
  23              		@ args = 0, pretend = 0, frame = 0
  24              		@ frame_needed = 0, uses_anonymous_args = 0
  25              		@ link register save eliminated.
  26 0000 7047     		bx	lr
  28              		.section	.text.UART_DMATransmitCplt,"ax",%progbits
  29              		.align	1
  30              		.syntax unified
  31              		.thumb
  32              		.thumb_func
  33              		.fpu softvfp
  35              	UART_DMATransmitCplt:
  36              		@ args = 0, pretend = 0, frame = 0
  37              		@ frame_needed = 0, uses_anonymous_args = 0
  38              		@ link register save eliminated.
  39 0000 0346     		mov	r3, r0
  40 0002 1B68     		ldr	r3, [r3]
  41 0004 406A     		ldr	r0, [r0, #36]
  42 0006 1B68     		ldr	r3, [r3]
  43 0008 13F02003 		ands	r3, r3, #32
  44 000c 0AD1     		bne	.L3
  45 000e C384     		strh	r3, [r0, #38]	@ movhi
  46 0010 0368     		ldr	r3, [r0]
  47 0012 5A69     		ldr	r2, [r3, #20]
  48 0014 22F08002 		bic	r2, r2, #128
  49 0018 5A61     		str	r2, [r3, #20]
  50 001a DA68     		ldr	r2, [r3, #12]
  51 001c 42F04002 		orr	r2, r2, #64
  52 0020 DA60     		str	r2, [r3, #12]
  53 0022 7047     		bx	lr
  54              	.L3:
  55 0024 436C     		ldr	r3, [r0, #68]
  56 0026 1847     		bx	r3	@ indirect register sibling call
  58              		.section	.text.UART_DMATxHalfCplt,"ax",%progbits
  59              		.align	1
  60              		.syntax unified
  61              		.thumb
ARM GAS  /tmp/cclLi5Tx.s 			page 2


  62              		.thumb_func
  63              		.fpu softvfp
  65              	UART_DMATxHalfCplt:
  66              		@ args = 0, pretend = 0, frame = 0
  67              		@ frame_needed = 0, uses_anonymous_args = 0
  68              		@ link register save eliminated.
  69 0000 406A     		ldr	r0, [r0, #36]
  70 0002 036C     		ldr	r3, [r0, #64]
  71 0004 1847     		bx	r3	@ indirect register sibling call
  73              		.section	.text.UART_DMAReceiveCplt,"ax",%progbits
  74              		.align	1
  75              		.syntax unified
  76              		.thumb
  77              		.thumb_func
  78              		.fpu softvfp
  80              	UART_DMAReceiveCplt:
  81              		@ args = 0, pretend = 0, frame = 0
  82              		@ frame_needed = 0, uses_anonymous_args = 0
  83              		@ link register save eliminated.
  84 0000 0346     		mov	r3, r0
  85 0002 1B68     		ldr	r3, [r3]
  86 0004 406A     		ldr	r0, [r0, #36]
  87 0006 1B68     		ldr	r3, [r3]
  88 0008 13F02003 		ands	r3, r3, #32
  89 000c 10D1     		bne	.L8
  90 000e C385     		strh	r3, [r0, #46]	@ movhi
  91 0010 0368     		ldr	r3, [r0]
  92 0012 DA68     		ldr	r2, [r3, #12]
  93 0014 22F48072 		bic	r2, r2, #256
  94 0018 DA60     		str	r2, [r3, #12]
  95 001a 5A69     		ldr	r2, [r3, #20]
  96 001c 22F00102 		bic	r2, r2, #1
  97 0020 5A61     		str	r2, [r3, #20]
  98 0022 5A69     		ldr	r2, [r3, #20]
  99 0024 22F04002 		bic	r2, r2, #64
 100 0028 5A61     		str	r2, [r3, #20]
 101 002a 2023     		movs	r3, #32
 102 002c 80F83A30 		strb	r3, [r0, #58]
 103              	.L8:
 104 0030 C36C     		ldr	r3, [r0, #76]
 105 0032 1847     		bx	r3	@ indirect register sibling call
 107              		.section	.text.UART_DMARxHalfCplt,"ax",%progbits
 108              		.align	1
 109              		.syntax unified
 110              		.thumb
 111              		.thumb_func
 112              		.fpu softvfp
 114              	UART_DMARxHalfCplt:
 115              		@ args = 0, pretend = 0, frame = 0
 116              		@ frame_needed = 0, uses_anonymous_args = 0
 117              		@ link register save eliminated.
 118 0000 406A     		ldr	r0, [r0, #36]
 119 0002 836C     		ldr	r3, [r0, #72]
 120 0004 1847     		bx	r3	@ indirect register sibling call
 122              		.section	.text.UART_EndRxTransfer,"ax",%progbits
 123              		.align	1
 124              		.syntax unified
ARM GAS  /tmp/cclLi5Tx.s 			page 3


 125              		.thumb
 126              		.thumb_func
 127              		.fpu softvfp
 129              	UART_EndRxTransfer:
 130              		@ args = 0, pretend = 0, frame = 0
 131              		@ frame_needed = 0, uses_anonymous_args = 0
 132              		@ link register save eliminated.
 133 0000 0368     		ldr	r3, [r0]
 134 0002 DA68     		ldr	r2, [r3, #12]
 135 0004 22F49072 		bic	r2, r2, #288
 136 0008 DA60     		str	r2, [r3, #12]
 137 000a 5A69     		ldr	r2, [r3, #20]
 138 000c 22F00102 		bic	r2, r2, #1
 139 0010 5A61     		str	r2, [r3, #20]
 140 0012 2023     		movs	r3, #32
 141 0014 80F83A30 		strb	r3, [r0, #58]
 142 0018 7047     		bx	lr
 144              		.section	.text.UART_DMAError,"ax",%progbits
 145              		.align	1
 146              		.syntax unified
 147              		.thumb
 148              		.thumb_func
 149              		.fpu softvfp
 151              	UART_DMAError:
 152              		@ args = 0, pretend = 0, frame = 0
 153              		@ frame_needed = 0, uses_anonymous_args = 0
 154 0000 10B5     		push	{r4, lr}
 155 0002 406A     		ldr	r0, [r0, #36]
 156 0004 0368     		ldr	r3, [r0]
 157 0006 5A69     		ldr	r2, [r3, #20]
 158 0008 90F83910 		ldrb	r1, [r0, #57]	@ zero_extendqisi2
 159 000c 2129     		cmp	r1, #33
 160 000e 0AD1     		bne	.L12
 161 0010 1206     		lsls	r2, r2, #24
 162 0012 08D5     		bpl	.L12
 163 0014 0022     		movs	r2, #0
 164 0016 C284     		strh	r2, [r0, #38]	@ movhi
 165 0018 DA68     		ldr	r2, [r3, #12]
 166 001a 22F0C002 		bic	r2, r2, #192
 167 001e DA60     		str	r2, [r3, #12]
 168 0020 2022     		movs	r2, #32
 169 0022 80F83920 		strb	r2, [r0, #57]
 170              	.L12:
 171 0026 5B69     		ldr	r3, [r3, #20]
 172 0028 90F83A20 		ldrb	r2, [r0, #58]	@ zero_extendqisi2
 173 002c 222A     		cmp	r2, #34
 174 002e 05D1     		bne	.L13
 175 0030 5B06     		lsls	r3, r3, #25
 176 0032 03D5     		bpl	.L13
 177 0034 0023     		movs	r3, #0
 178 0036 C385     		strh	r3, [r0, #46]	@ movhi
 179 0038 FFF7FEFF 		bl	UART_EndRxTransfer
 180              	.L13:
 181 003c BDE81040 		pop	{r4, lr}
 182 0040 C36B     		ldr	r3, [r0, #60]
 183 0042 43F01003 		orr	r3, r3, #16
 184 0046 C363     		str	r3, [r0, #60]
ARM GAS  /tmp/cclLi5Tx.s 			page 4


 185 0048 036D     		ldr	r3, [r0, #80]
 186 004a 1847     		bx	r3	@ indirect register sibling call
 188              		.section	.text.UART_DMAAbortOnError,"ax",%progbits
 189              		.align	1
 190              		.syntax unified
 191              		.thumb
 192              		.thumb_func
 193              		.fpu softvfp
 195              	UART_DMAAbortOnError:
 196              		@ args = 0, pretend = 0, frame = 0
 197              		@ frame_needed = 0, uses_anonymous_args = 0
 198              		@ link register save eliminated.
 199 0000 0023     		movs	r3, #0
 200 0002 406A     		ldr	r0, [r0, #36]
 201 0004 C385     		strh	r3, [r0, #46]	@ movhi
 202 0006 C384     		strh	r3, [r0, #38]	@ movhi
 203 0008 036D     		ldr	r3, [r0, #80]
 204 000a 1847     		bx	r3	@ indirect register sibling call
 206              		.section	.text.UART_DMATxAbortCallback,"ax",%progbits
 207              		.align	1
 208              		.syntax unified
 209              		.thumb
 210              		.thumb_func
 211              		.fpu softvfp
 213              	UART_DMATxAbortCallback:
 214              		@ args = 0, pretend = 0, frame = 0
 215              		@ frame_needed = 0, uses_anonymous_args = 0
 216              		@ link register save eliminated.
 217 0000 0023     		movs	r3, #0
 218 0002 406A     		ldr	r0, [r0, #36]
 219 0004 026B     		ldr	r2, [r0, #48]
 220 0006 5363     		str	r3, [r2, #52]
 221 0008 426B     		ldr	r2, [r0, #52]
 222 000a 0AB1     		cbz	r2, .L22
 223 000c 526B     		ldr	r2, [r2, #52]
 224 000e 4AB9     		cbnz	r2, .L21
 225              	.L22:
 226 0010 C384     		strh	r3, [r0, #38]	@ movhi
 227 0012 C385     		strh	r3, [r0, #46]	@ movhi
 228 0014 C363     		str	r3, [r0, #60]
 229 0016 2023     		movs	r3, #32
 230 0018 80F83930 		strb	r3, [r0, #57]
 231 001c 80F83A30 		strb	r3, [r0, #58]
 232 0020 436D     		ldr	r3, [r0, #84]
 233 0022 1847     		bx	r3	@ indirect register sibling call
 234              	.L21:
 235 0024 7047     		bx	lr
 237              		.section	.text.UART_DMARxAbortCallback,"ax",%progbits
 238              		.align	1
 239              		.syntax unified
 240              		.thumb
 241              		.thumb_func
 242              		.fpu softvfp
 244              	UART_DMARxAbortCallback:
 245              		@ args = 0, pretend = 0, frame = 0
 246              		@ frame_needed = 0, uses_anonymous_args = 0
 247              		@ link register save eliminated.
ARM GAS  /tmp/cclLi5Tx.s 			page 5


 248 0000 0023     		movs	r3, #0
 249 0002 406A     		ldr	r0, [r0, #36]
 250 0004 426B     		ldr	r2, [r0, #52]
 251 0006 5363     		str	r3, [r2, #52]
 252 0008 026B     		ldr	r2, [r0, #48]
 253 000a 0AB1     		cbz	r2, .L28
 254 000c 526B     		ldr	r2, [r2, #52]
 255 000e 4AB9     		cbnz	r2, .L27
 256              	.L28:
 257 0010 C384     		strh	r3, [r0, #38]	@ movhi
 258 0012 C385     		strh	r3, [r0, #46]	@ movhi
 259 0014 C363     		str	r3, [r0, #60]
 260 0016 2023     		movs	r3, #32
 261 0018 80F83930 		strb	r3, [r0, #57]
 262 001c 80F83A30 		strb	r3, [r0, #58]
 263 0020 436D     		ldr	r3, [r0, #84]
 264 0022 1847     		bx	r3	@ indirect register sibling call
 265              	.L27:
 266 0024 7047     		bx	lr
 268              		.section	.text.UART_DMATxOnlyAbortCallback,"ax",%progbits
 269              		.align	1
 270              		.syntax unified
 271              		.thumb
 272              		.thumb_func
 273              		.fpu softvfp
 275              	UART_DMATxOnlyAbortCallback:
 276              		@ args = 0, pretend = 0, frame = 0
 277              		@ frame_needed = 0, uses_anonymous_args = 0
 278              		@ link register save eliminated.
 279 0000 0023     		movs	r3, #0
 280 0002 406A     		ldr	r0, [r0, #36]
 281 0004 C384     		strh	r3, [r0, #38]	@ movhi
 282 0006 2023     		movs	r3, #32
 283 0008 80F83930 		strb	r3, [r0, #57]
 284 000c 836D     		ldr	r3, [r0, #88]
 285 000e 1847     		bx	r3	@ indirect register sibling call
 287              		.section	.text.UART_DMARxOnlyAbortCallback,"ax",%progbits
 288              		.align	1
 289              		.syntax unified
 290              		.thumb
 291              		.thumb_func
 292              		.fpu softvfp
 294              	UART_DMARxOnlyAbortCallback:
 295              		@ args = 0, pretend = 0, frame = 0
 296              		@ frame_needed = 0, uses_anonymous_args = 0
 297              		@ link register save eliminated.
 298 0000 0023     		movs	r3, #0
 299 0002 406A     		ldr	r0, [r0, #36]
 300 0004 C385     		strh	r3, [r0, #46]	@ movhi
 301 0006 2023     		movs	r3, #32
 302 0008 80F83A30 		strb	r3, [r0, #58]
 303 000c C36D     		ldr	r3, [r0, #92]
 304 000e 1847     		bx	r3	@ indirect register sibling call
 306              		.section	.text.UART_SetConfig,"ax",%progbits
 307              		.align	1
 308              		.syntax unified
 309              		.thumb
ARM GAS  /tmp/cclLi5Tx.s 			page 6


 310              		.thumb_func
 311              		.fpu softvfp
 313              	UART_SetConfig:
 314              		@ args = 0, pretend = 0, frame = 0
 315              		@ frame_needed = 0, uses_anonymous_args = 0
 316 0000 38B5     		push	{r3, r4, r5, lr}
 317 0002 0546     		mov	r5, r0
 318 0004 0368     		ldr	r3, [r0]
 319 0006 C168     		ldr	r1, [r0, #12]
 320 0008 1A69     		ldr	r2, [r3, #16]
 321 000a 1924     		movs	r4, #25
 322 000c 22F44052 		bic	r2, r2, #12288
 323 0010 0A43     		orrs	r2, r2, r1
 324 0012 1A61     		str	r2, [r3, #16]
 325 0014 8268     		ldr	r2, [r0, #8]
 326 0016 0069     		ldr	r0, [r0, #16]
 327 0018 D968     		ldr	r1, [r3, #12]
 328 001a 0243     		orrs	r2, r2, r0
 329 001c 6869     		ldr	r0, [r5, #20]
 330 001e 21F4B051 		bic	r1, r1, #5632
 331 0022 21F00C01 		bic	r1, r1, #12
 332 0026 0243     		orrs	r2, r2, r0
 333 0028 0A43     		orrs	r2, r2, r1
 334 002a DA60     		str	r2, [r3, #12]
 335 002c 5A69     		ldr	r2, [r3, #20]
 336 002e A969     		ldr	r1, [r5, #24]
 337 0030 22F44072 		bic	r2, r2, #768
 338 0034 0A43     		orrs	r2, r2, r1
 339 0036 5A61     		str	r2, [r3, #20]
 340 0038 0D4A     		ldr	r2, .L39
 341 003a 9342     		cmp	r3, r2
 342 003c 14D1     		bne	.L36
 343 003e FFF7FEFF 		bl	HAL_RCC_GetPCLK2Freq
 344              	.L38:
 345 0042 4443     		muls	r4, r0, r4
 346 0044 6B68     		ldr	r3, [r5, #4]
 347 0046 6422     		movs	r2, #100
 348 0048 9B00     		lsls	r3, r3, #2
 349 004a B4FBF3F4 		udiv	r4, r4, r3
 350 004e B4FBF2F1 		udiv	r1, r4, r2
 351 0052 02FB1143 		mls	r3, r2, r1, r4
 352 0056 1B01     		lsls	r3, r3, #4
 353 0058 3233     		adds	r3, r3, #50
 354 005a B3FBF2F3 		udiv	r3, r3, r2
 355 005e 2868     		ldr	r0, [r5]
 356 0060 03EB0113 		add	r3, r3, r1, lsl #4
 357 0064 8360     		str	r3, [r0, #8]
 358 0066 38BD     		pop	{r3, r4, r5, pc}
 359              	.L36:
 360 0068 FFF7FEFF 		bl	HAL_RCC_GetPCLK1Freq
 361 006c E9E7     		b	.L38
 362              	.L40:
 363 006e 00BF     		.align	2
 364              	.L39:
 365 0070 00380140 		.word	1073821696
 367              		.section	.text.UART_Receive_IT,"ax",%progbits
 368              		.align	1
ARM GAS  /tmp/cclLi5Tx.s 			page 7


 369              		.syntax unified
 370              		.thumb
 371              		.thumb_func
 372              		.fpu softvfp
 374              	UART_Receive_IT:
 375              		@ args = 0, pretend = 0, frame = 0
 376              		@ frame_needed = 0, uses_anonymous_args = 0
 377 0000 10B5     		push	{r4, lr}
 378 0002 90F83A30 		ldrb	r3, [r0, #58]	@ zero_extendqisi2
 379 0006 222B     		cmp	r3, #34
 380 0008 33D1     		bne	.L47
 381 000a 8168     		ldr	r1, [r0, #8]
 382 000c 0469     		ldr	r4, [r0, #16]
 383 000e B1F5805F 		cmp	r1, #4096
 384 0012 836A     		ldr	r3, [r0, #40]
 385 0014 0268     		ldr	r2, [r0]
 386 0016 23D1     		bne	.L43
 387 0018 5268     		ldr	r2, [r2, #4]
 388 001a ECB9     		cbnz	r4, .L44
 389 001c C2F30802 		ubfx	r2, r2, #0, #9
 390 0020 23F8022B 		strh	r2, [r3], #2	@ movhi
 391              	.L49:
 392 0024 8362     		str	r3, [r0, #40]
 393              	.L45:
 394 0026 C48D     		ldrh	r4, [r0, #46]
 395 0028 013C     		subs	r4, r4, #1
 396 002a A4B2     		uxth	r4, r4
 397 002c C485     		strh	r4, [r0, #46]	@ movhi
 398 002e 8CB9     		cbnz	r4, .L48
 399 0030 0368     		ldr	r3, [r0]
 400 0032 DA68     		ldr	r2, [r3, #12]
 401 0034 22F02002 		bic	r2, r2, #32
 402 0038 DA60     		str	r2, [r3, #12]
 403 003a DA68     		ldr	r2, [r3, #12]
 404 003c 22F48072 		bic	r2, r2, #256
 405 0040 DA60     		str	r2, [r3, #12]
 406 0042 5A69     		ldr	r2, [r3, #20]
 407 0044 22F00102 		bic	r2, r2, #1
 408 0048 5A61     		str	r2, [r3, #20]
 409 004a 2023     		movs	r3, #32
 410 004c 80F83A30 		strb	r3, [r0, #58]
 411 0050 C36C     		ldr	r3, [r0, #76]
 412 0052 9847     		blx	r3
 413              	.L48:
 414 0054 0020     		movs	r0, #0
 415 0056 0DE0     		b	.L42
 416              	.L44:
 417 0058 D2B2     		uxtb	r2, r2
 418 005a 23F8012B 		strh	r2, [r3], #1	@ movhi
 419 005e E1E7     		b	.L49
 420              	.L43:
 421 0060 591C     		adds	r1, r3, #1
 422 0062 5268     		ldr	r2, [r2, #4]
 423 0064 8162     		str	r1, [r0, #40]
 424 0066 0CB9     		cbnz	r4, .L46
 425              	.L50:
 426 0068 1A70     		strb	r2, [r3]
ARM GAS  /tmp/cclLi5Tx.s 			page 8


 427 006a DCE7     		b	.L45
 428              	.L46:
 429 006c 02F07F02 		and	r2, r2, #127
 430 0070 FAE7     		b	.L50
 431              	.L47:
 432 0072 0220     		movs	r0, #2
 433              	.L42:
 434 0074 10BD     		pop	{r4, pc}
 436              		.section	.text.UART_WaitOnFlagUntilTimeout.constprop.0,"ax",%progbits
 437              		.align	1
 438              		.syntax unified
 439              		.thumb
 440              		.thumb_func
 441              		.fpu softvfp
 443              	UART_WaitOnFlagUntilTimeout.constprop.0:
 444              		@ args = 0, pretend = 0, frame = 0
 445              		@ frame_needed = 0, uses_anonymous_args = 0
 446 0000 F8B5     		push	{r3, r4, r5, r6, r7, lr}
 447 0002 0446     		mov	r4, r0
 448 0004 0E46     		mov	r6, r1
 449 0006 1746     		mov	r7, r2
 450 0008 1D46     		mov	r5, r3
 451              	.L52:
 452 000a 2268     		ldr	r2, [r4]
 453              	.L53:
 454 000c 1368     		ldr	r3, [r2]
 455 000e 36EA0303 		bics	r3, r6, r3
 456 0012 01D1     		bne	.L57
 457 0014 0020     		movs	r0, #0
 458 0016 14E0     		b	.L55
 459              	.L57:
 460 0018 6B1C     		adds	r3, r5, #1
 461 001a F7D0     		beq	.L53
 462 001c 95B9     		cbnz	r5, .L54
 463              	.L56:
 464 001e 2368     		ldr	r3, [r4]
 465 0020 0320     		movs	r0, #3
 466 0022 DA68     		ldr	r2, [r3, #12]
 467 0024 22F4D072 		bic	r2, r2, #416
 468 0028 DA60     		str	r2, [r3, #12]
 469 002a 5A69     		ldr	r2, [r3, #20]
 470 002c 22F00102 		bic	r2, r2, #1
 471 0030 5A61     		str	r2, [r3, #20]
 472 0032 2023     		movs	r3, #32
 473 0034 84F83930 		strb	r3, [r4, #57]
 474 0038 84F83A30 		strb	r3, [r4, #58]
 475 003c 0023     		movs	r3, #0
 476 003e 84F83830 		strb	r3, [r4, #56]
 477              	.L55:
 478 0042 F8BD     		pop	{r3, r4, r5, r6, r7, pc}
 479              	.L54:
 480 0044 FFF7FEFF 		bl	HAL_GetTick
 481 0048 C01B     		subs	r0, r0, r7
 482 004a 8542     		cmp	r5, r0
 483 004c DDD2     		bcs	.L52
 484 004e E6E7     		b	.L56
 486              		.section	.text.HAL_UART_AbortReceiveCpltCallback,"ax",%progbits
ARM GAS  /tmp/cclLi5Tx.s 			page 9


 487              		.align	1
 488              		.weak	HAL_UART_AbortReceiveCpltCallback
 489              		.syntax unified
 490              		.thumb
 491              		.thumb_func
 492              		.fpu softvfp
 494              	HAL_UART_AbortReceiveCpltCallback:
 495              		@ args = 0, pretend = 0, frame = 0
 496              		@ frame_needed = 0, uses_anonymous_args = 0
 497              		@ link register save eliminated.
 498 0000 7047     		bx	lr
 500              		.section	.text.HAL_UART_MspDeInit,"ax",%progbits
 501              		.align	1
 502              		.weak	HAL_UART_MspDeInit
 503              		.syntax unified
 504              		.thumb
 505              		.thumb_func
 506              		.fpu softvfp
 508              	HAL_UART_MspDeInit:
 509              		@ args = 0, pretend = 0, frame = 0
 510              		@ frame_needed = 0, uses_anonymous_args = 0
 511              		@ link register save eliminated.
 512 0000 7047     		bx	lr
 514              		.section	.text.HAL_UART_TxCpltCallback,"ax",%progbits
 515              		.align	1
 516              		.weak	HAL_UART_TxCpltCallback
 517              		.syntax unified
 518              		.thumb
 519              		.thumb_func
 520              		.fpu softvfp
 522              	HAL_UART_TxCpltCallback:
 523              		@ args = 0, pretend = 0, frame = 0
 524              		@ frame_needed = 0, uses_anonymous_args = 0
 525              		@ link register save eliminated.
 526 0000 7047     		bx	lr
 528              		.section	.text.HAL_UART_TxHalfCpltCallback,"ax",%progbits
 529              		.align	1
 530              		.weak	HAL_UART_TxHalfCpltCallback
 531              		.syntax unified
 532              		.thumb
 533              		.thumb_func
 534              		.fpu softvfp
 536              	HAL_UART_TxHalfCpltCallback:
 537              		@ args = 0, pretend = 0, frame = 0
 538              		@ frame_needed = 0, uses_anonymous_args = 0
 539              		@ link register save eliminated.
 540 0000 7047     		bx	lr
 542              		.section	.text.HAL_UART_RxCpltCallback,"ax",%progbits
 543              		.align	1
 544              		.weak	HAL_UART_RxCpltCallback
 545              		.syntax unified
 546              		.thumb
 547              		.thumb_func
 548              		.fpu softvfp
 550              	HAL_UART_RxCpltCallback:
 551              		@ args = 0, pretend = 0, frame = 0
 552              		@ frame_needed = 0, uses_anonymous_args = 0
ARM GAS  /tmp/cclLi5Tx.s 			page 10


 553              		@ link register save eliminated.
 554 0000 7047     		bx	lr
 556              		.section	.text.HAL_UART_RxHalfCpltCallback,"ax",%progbits
 557              		.align	1
 558              		.weak	HAL_UART_RxHalfCpltCallback
 559              		.syntax unified
 560              		.thumb
 561              		.thumb_func
 562              		.fpu softvfp
 564              	HAL_UART_RxHalfCpltCallback:
 565              		@ args = 0, pretend = 0, frame = 0
 566              		@ frame_needed = 0, uses_anonymous_args = 0
 567              		@ link register save eliminated.
 568 0000 7047     		bx	lr
 570              		.section	.text.HAL_UART_ErrorCallback,"ax",%progbits
 571              		.align	1
 572              		.weak	HAL_UART_ErrorCallback
 573              		.syntax unified
 574              		.thumb
 575              		.thumb_func
 576              		.fpu softvfp
 578              	HAL_UART_ErrorCallback:
 579              		@ args = 0, pretend = 0, frame = 0
 580              		@ frame_needed = 0, uses_anonymous_args = 0
 581              		@ link register save eliminated.
 582 0000 7047     		bx	lr
 584              		.section	.text.HAL_UART_AbortCpltCallback,"ax",%progbits
 585              		.align	1
 586              		.weak	HAL_UART_AbortCpltCallback
 587              		.syntax unified
 588              		.thumb
 589              		.thumb_func
 590              		.fpu softvfp
 592              	HAL_UART_AbortCpltCallback:
 593              		@ args = 0, pretend = 0, frame = 0
 594              		@ frame_needed = 0, uses_anonymous_args = 0
 595              		@ link register save eliminated.
 596 0000 7047     		bx	lr
 598              		.section	.text.HAL_UART_AbortTransmitCpltCallback,"ax",%progbits
 599              		.align	1
 600              		.weak	HAL_UART_AbortTransmitCpltCallback
 601              		.syntax unified
 602              		.thumb
 603              		.thumb_func
 604              		.fpu softvfp
 606              	HAL_UART_AbortTransmitCpltCallback:
 607              		@ args = 0, pretend = 0, frame = 0
 608              		@ frame_needed = 0, uses_anonymous_args = 0
 609              		@ link register save eliminated.
 610 0000 7047     		bx	lr
 612              		.section	.text.HAL_UART_DeInit,"ax",%progbits
 613              		.align	1
 614              		.global	HAL_UART_DeInit
 615              		.syntax unified
 616              		.thumb
 617              		.thumb_func
 618              		.fpu softvfp
ARM GAS  /tmp/cclLi5Tx.s 			page 11


 620              	HAL_UART_DeInit:
 621              		@ args = 0, pretend = 0, frame = 0
 622              		@ frame_needed = 0, uses_anonymous_args = 0
 623 0000 10B5     		push	{r4, lr}
 624 0002 0446     		mov	r4, r0
 625 0004 B8B1     		cbz	r0, .L72
 626 0006 2423     		movs	r3, #36
 627 0008 0268     		ldr	r2, [r0]
 628 000a 80F83930 		strb	r3, [r0, #57]
 629 000e D368     		ldr	r3, [r2, #12]
 630 0010 23F40053 		bic	r3, r3, #8192
 631 0014 D360     		str	r3, [r2, #12]
 632 0016 836E     		ldr	r3, [r0, #104]
 633 0018 0BB9     		cbnz	r3, .L71
 634 001a 084B     		ldr	r3, .L73
 635 001c 8366     		str	r3, [r0, #104]
 636              	.L71:
 637 001e 2046     		mov	r0, r4
 638 0020 A36E     		ldr	r3, [r4, #104]
 639 0022 9847     		blx	r3
 640 0024 0020     		movs	r0, #0
 641 0026 E063     		str	r0, [r4, #60]
 642 0028 84F83800 		strb	r0, [r4, #56]
 643 002c 84F83900 		strb	r0, [r4, #57]
 644 0030 84F83A00 		strb	r0, [r4, #58]
 645              	.L70:
 646 0034 10BD     		pop	{r4, pc}
 647              	.L72:
 648 0036 0120     		movs	r0, #1
 649 0038 FCE7     		b	.L70
 650              	.L74:
 651 003a 00BF     		.align	2
 652              	.L73:
 653 003c 00000000 		.word	HAL_UART_MspDeInit
 655              		.section	.text.HAL_UART_RegisterCallback,"ax",%progbits
 656              		.align	1
 657              		.global	HAL_UART_RegisterCallback
 658              		.syntax unified
 659              		.thumb
 660              		.thumb_func
 661              		.fpu softvfp
 663              	HAL_UART_RegisterCallback:
 664              		@ args = 0, pretend = 0, frame = 0
 665              		@ frame_needed = 0, uses_anonymous_args = 0
 666 0000 10B5     		push	{r4, lr}
 667 0002 2AB9     		cbnz	r2, .L76
 668 0004 C36B     		ldr	r3, [r0, #60]
 669 0006 43F02003 		orr	r3, r3, #32
 670 000a C363     		str	r3, [r0, #60]
 671 000c 0120     		movs	r0, #1
 672              	.L77:
 673 000e 10BD     		pop	{r4, pc}
 674              	.L76:
 675 0010 90F83830 		ldrb	r3, [r0, #56]	@ zero_extendqisi2
 676 0014 012B     		cmp	r3, #1
 677 0016 42D0     		beq	.L93
 678 0018 0123     		movs	r3, #1
ARM GAS  /tmp/cclLi5Tx.s 			page 12


 679 001a 90F83940 		ldrb	r4, [r0, #57]	@ zero_extendqisi2
 680 001e 80F83830 		strb	r3, [r0, #56]
 681 0022 202C     		cmp	r4, #32
 682 0024 29D1     		bne	.L78
 683 0026 0C29     		cmp	r1, #12
 684 0028 21D8     		bhi	.L79
 685 002a DFE801F0 		tbb	[pc, r1]
 686              	.L81:
 687 002e 07       		.byte	(.L90-.L81)/2
 688 002f 0D       		.byte	(.L89-.L81)/2
 689 0030 10       		.byte	(.L88-.L81)/2
 690 0031 12       		.byte	(.L87-.L81)/2
 691 0032 14       		.byte	(.L86-.L81)/2
 692 0033 16       		.byte	(.L85-.L81)/2
 693 0034 18       		.byte	(.L84-.L81)/2
 694 0035 1A       		.byte	(.L83-.L81)/2
 695 0036 20       		.byte	(.L79-.L81)/2
 696 0037 20       		.byte	(.L79-.L81)/2
 697 0038 20       		.byte	(.L79-.L81)/2
 698 0039 1C       		.byte	(.L82-.L81)/2
 699 003a 1E       		.byte	(.L80-.L81)/2
 700 003b 00       		.p2align 1
 701              	.L90:
 702 003c 0264     		str	r2, [r0, #64]
 703              	.L91:
 704 003e 0023     		movs	r3, #0
 705 0040 80F83830 		strb	r3, [r0, #56]
 706 0044 0846     		mov	r0, r1
 707 0046 E2E7     		b	.L77
 708              	.L89:
 709 0048 4264     		str	r2, [r0, #68]
 710              	.L101:
 711 004a 0021     		movs	r1, #0
 712 004c F7E7     		b	.L91
 713              	.L88:
 714 004e 8264     		str	r2, [r0, #72]
 715 0050 FBE7     		b	.L101
 716              	.L87:
 717 0052 C264     		str	r2, [r0, #76]
 718 0054 F9E7     		b	.L101
 719              	.L86:
 720 0056 0265     		str	r2, [r0, #80]
 721 0058 F7E7     		b	.L101
 722              	.L85:
 723 005a 4265     		str	r2, [r0, #84]
 724 005c F5E7     		b	.L101
 725              	.L84:
 726 005e 8265     		str	r2, [r0, #88]
 727 0060 F3E7     		b	.L101
 728              	.L83:
 729 0062 C265     		str	r2, [r0, #92]
 730 0064 F1E7     		b	.L101
 731              	.L82:
 732 0066 4266     		str	r2, [r0, #100]
 733 0068 EFE7     		b	.L101
 734              	.L80:
 735 006a 8266     		str	r2, [r0, #104]
ARM GAS  /tmp/cclLi5Tx.s 			page 13


 736 006c EDE7     		b	.L101
 737              	.L79:
 738 006e C36B     		ldr	r3, [r0, #60]
 739 0070 43F02003 		orr	r3, r3, #32
 740 0074 C363     		str	r3, [r0, #60]
 741              	.L100:
 742 0076 0121     		movs	r1, #1
 743 0078 E1E7     		b	.L91
 744              	.L78:
 745 007a 90F83940 		ldrb	r4, [r0, #57]	@ zero_extendqisi2
 746 007e 44B9     		cbnz	r4, .L92
 747 0080 0B29     		cmp	r1, #11
 748 0082 F0D0     		beq	.L82
 749 0084 0C29     		cmp	r1, #12
 750 0086 F0D0     		beq	.L80
 751 0088 C26B     		ldr	r2, [r0, #60]
 752 008a 42F02002 		orr	r2, r2, #32
 753 008e C263     		str	r2, [r0, #60]
 754 0090 F1E7     		b	.L100
 755              	.L92:
 756 0092 C26B     		ldr	r2, [r0, #60]
 757 0094 1946     		mov	r1, r3
 758 0096 42F02002 		orr	r2, r2, #32
 759 009a C263     		str	r2, [r0, #60]
 760 009c CFE7     		b	.L91
 761              	.L93:
 762 009e 0220     		movs	r0, #2
 763 00a0 B5E7     		b	.L77
 765              		.section	.text.HAL_UART_UnRegisterCallback,"ax",%progbits
 766              		.align	1
 767              		.global	HAL_UART_UnRegisterCallback
 768              		.syntax unified
 769              		.thumb
 770              		.thumb_func
 771              		.fpu softvfp
 773              	HAL_UART_UnRegisterCallback:
 774              		@ args = 0, pretend = 0, frame = 0
 775              		@ frame_needed = 0, uses_anonymous_args = 0
 776              		@ link register save eliminated.
 777 0000 90F83830 		ldrb	r3, [r0, #56]	@ zero_extendqisi2
 778 0004 012B     		cmp	r3, #1
 779 0006 4CD0     		beq	.L119
 780 0008 0123     		movs	r3, #1
 781 000a 90F83920 		ldrb	r2, [r0, #57]	@ zero_extendqisi2
 782 000e 80F83830 		strb	r3, [r0, #56]
 783 0012 202A     		cmp	r2, #32
 784 0014 33D1     		bne	.L104
 785 0016 0C29     		cmp	r1, #12
 786 0018 2BD8     		bhi	.L105
 787 001a DFE801F0 		tbb	[pc, r1]
 788              	.L107:
 789 001e 07       		.byte	(.L116-.L107)/2
 790 001f 0E       		.byte	(.L115-.L107)/2
 791 0020 12       		.byte	(.L114-.L107)/2
 792 0021 15       		.byte	(.L113-.L107)/2
 793 0022 18       		.byte	(.L112-.L107)/2
 794 0023 1B       		.byte	(.L111-.L107)/2
ARM GAS  /tmp/cclLi5Tx.s 			page 14


 795 0024 1E       		.byte	(.L110-.L107)/2
 796 0025 21       		.byte	(.L109-.L107)/2
 797 0026 2A       		.byte	(.L105-.L107)/2
 798 0027 2A       		.byte	(.L105-.L107)/2
 799 0028 2A       		.byte	(.L105-.L107)/2
 800 0029 24       		.byte	(.L108-.L107)/2
 801 002a 27       		.byte	(.L106-.L107)/2
 802 002b 00       		.p2align 1
 803              	.L116:
 804 002c 1E4B     		ldr	r3, .L128
 805 002e 0364     		str	r3, [r0, #64]
 806              	.L117:
 807 0030 0023     		movs	r3, #0
 808 0032 80F83830 		strb	r3, [r0, #56]
 809 0036 0846     		mov	r0, r1
 810 0038 7047     		bx	lr
 811              	.L115:
 812 003a 1C4B     		ldr	r3, .L128+4
 813 003c 4364     		str	r3, [r0, #68]
 814              	.L127:
 815 003e 0021     		movs	r1, #0
 816 0040 F6E7     		b	.L117
 817              	.L114:
 818 0042 1B4B     		ldr	r3, .L128+8
 819 0044 8364     		str	r3, [r0, #72]
 820 0046 FAE7     		b	.L127
 821              	.L113:
 822 0048 1A4B     		ldr	r3, .L128+12
 823 004a C364     		str	r3, [r0, #76]
 824 004c F7E7     		b	.L127
 825              	.L112:
 826 004e 1A4B     		ldr	r3, .L128+16
 827 0050 0365     		str	r3, [r0, #80]
 828 0052 F4E7     		b	.L127
 829              	.L111:
 830 0054 194B     		ldr	r3, .L128+20
 831 0056 4365     		str	r3, [r0, #84]
 832 0058 F1E7     		b	.L127
 833              	.L110:
 834 005a 194B     		ldr	r3, .L128+24
 835 005c 8365     		str	r3, [r0, #88]
 836 005e EEE7     		b	.L127
 837              	.L109:
 838 0060 184B     		ldr	r3, .L128+28
 839 0062 C365     		str	r3, [r0, #92]
 840 0064 EBE7     		b	.L127
 841              	.L108:
 842 0066 184B     		ldr	r3, .L128+32
 843 0068 4366     		str	r3, [r0, #100]
 844 006a E8E7     		b	.L127
 845              	.L106:
 846 006c 174B     		ldr	r3, .L128+36
 847 006e 8366     		str	r3, [r0, #104]
 848 0070 E5E7     		b	.L127
 849              	.L105:
 850 0072 C36B     		ldr	r3, [r0, #60]
 851 0074 43F02003 		orr	r3, r3, #32
ARM GAS  /tmp/cclLi5Tx.s 			page 15


 852 0078 C363     		str	r3, [r0, #60]
 853              	.L126:
 854 007a 0121     		movs	r1, #1
 855 007c D8E7     		b	.L117
 856              	.L104:
 857 007e 90F83920 		ldrb	r2, [r0, #57]	@ zero_extendqisi2
 858 0082 42B9     		cbnz	r2, .L118
 859 0084 0B29     		cmp	r1, #11
 860 0086 EED0     		beq	.L108
 861 0088 0C29     		cmp	r1, #12
 862 008a EFD0     		beq	.L106
 863 008c C26B     		ldr	r2, [r0, #60]
 864 008e 42F02002 		orr	r2, r2, #32
 865 0092 C263     		str	r2, [r0, #60]
 866 0094 F1E7     		b	.L126
 867              	.L118:
 868 0096 C26B     		ldr	r2, [r0, #60]
 869 0098 1946     		mov	r1, r3
 870 009a 42F02002 		orr	r2, r2, #32
 871 009e C263     		str	r2, [r0, #60]
 872 00a0 C6E7     		b	.L117
 873              	.L119:
 874 00a2 0220     		movs	r0, #2
 875 00a4 7047     		bx	lr
 876              	.L129:
 877 00a6 00BF     		.align	2
 878              	.L128:
 879 00a8 00000000 		.word	HAL_UART_TxHalfCpltCallback
 880 00ac 00000000 		.word	HAL_UART_TxCpltCallback
 881 00b0 00000000 		.word	HAL_UART_RxHalfCpltCallback
 882 00b4 00000000 		.word	HAL_UART_RxCpltCallback
 883 00b8 00000000 		.word	HAL_UART_ErrorCallback
 884 00bc 00000000 		.word	HAL_UART_AbortCpltCallback
 885 00c0 00000000 		.word	HAL_UART_AbortTransmitCpltCallback
 886 00c4 00000000 		.word	HAL_UART_AbortReceiveCpltCallback
 887 00c8 00000000 		.word	HAL_UART_MspInit
 888 00cc 00000000 		.word	HAL_UART_MspDeInit
 890              		.section	.text.HAL_UART_Transmit,"ax",%progbits
 891              		.align	1
 892              		.global	HAL_UART_Transmit
 893              		.syntax unified
 894              		.thumb
 895              		.thumb_func
 896              		.fpu softvfp
 898              	HAL_UART_Transmit:
 899              		@ args = 0, pretend = 0, frame = 0
 900              		@ frame_needed = 0, uses_anonymous_args = 0
 901 0000 2DE9F041 		push	{r4, r5, r6, r7, r8, lr}
 902 0004 1F46     		mov	r7, r3
 903 0006 90F83930 		ldrb	r3, [r0, #57]	@ zero_extendqisi2
 904 000a 0446     		mov	r4, r0
 905 000c 202B     		cmp	r3, #32
 906 000e 0D46     		mov	r5, r1
 907 0010 9046     		mov	r8, r2
 908 0012 4ED1     		bne	.L142
 909 0014 0029     		cmp	r1, #0
 910 0016 4AD0     		beq	.L141
ARM GAS  /tmp/cclLi5Tx.s 			page 16


 911 0018 002A     		cmp	r2, #0
 912 001a 48D0     		beq	.L141
 913 001c 90F83830 		ldrb	r3, [r0, #56]	@ zero_extendqisi2
 914 0020 012B     		cmp	r3, #1
 915 0022 46D0     		beq	.L142
 916 0024 0123     		movs	r3, #1
 917 0026 80F83830 		strb	r3, [r0, #56]
 918 002a 0023     		movs	r3, #0
 919 002c C363     		str	r3, [r0, #60]
 920 002e 2123     		movs	r3, #33
 921 0030 80F83930 		strb	r3, [r0, #57]
 922 0034 FFF7FEFF 		bl	HAL_GetTick
 923 0038 0646     		mov	r6, r0
 924 003a A4F82480 		strh	r8, [r4, #36]	@ movhi
 925 003e A4F82680 		strh	r8, [r4, #38]	@ movhi
 926              	.L132:
 927 0042 E38C     		ldrh	r3, [r4, #38]
 928 0044 9BB2     		uxth	r3, r3
 929 0046 63B9     		cbnz	r3, .L138
 930 0048 3B46     		mov	r3, r7
 931 004a 3246     		mov	r2, r6
 932 004c 4021     		movs	r1, #64
 933 004e 2046     		mov	r0, r4
 934 0050 FFF7FEFF 		bl	UART_WaitOnFlagUntilTimeout.constprop.0
 935 0054 A0B9     		cbnz	r0, .L137
 936 0056 2023     		movs	r3, #32
 937 0058 84F83800 		strb	r0, [r4, #56]
 938 005c 84F83930 		strb	r3, [r4, #57]
 939 0060 0FE0     		b	.L131
 940              	.L138:
 941 0062 E38C     		ldrh	r3, [r4, #38]
 942 0064 3246     		mov	r2, r6
 943 0066 013B     		subs	r3, r3, #1
 944 0068 9BB2     		uxth	r3, r3
 945 006a E384     		strh	r3, [r4, #38]	@ movhi
 946 006c A368     		ldr	r3, [r4, #8]
 947 006e 8021     		movs	r1, #128
 948 0070 B3F5805F 		cmp	r3, #4096
 949 0074 2046     		mov	r0, r4
 950 0076 3B46     		mov	r3, r7
 951 0078 10D1     		bne	.L133
 952 007a FFF7FEFF 		bl	UART_WaitOnFlagUntilTimeout.constprop.0
 953 007e 10B1     		cbz	r0, .L134
 954              	.L137:
 955 0080 0320     		movs	r0, #3
 956              	.L131:
 957 0082 BDE8F081 		pop	{r4, r5, r6, r7, r8, pc}
 958              	.L134:
 959 0086 2B88     		ldrh	r3, [r5]
 960 0088 2268     		ldr	r2, [r4]
 961 008a C3F30803 		ubfx	r3, r3, #0, #9
 962 008e 5360     		str	r3, [r2, #4]
 963 0090 2369     		ldr	r3, [r4, #16]
 964 0092 0BB9     		cbnz	r3, .L135
 965 0094 0235     		adds	r5, r5, #2
 966 0096 D4E7     		b	.L132
 967              	.L135:
ARM GAS  /tmp/cclLi5Tx.s 			page 17


 968 0098 0135     		adds	r5, r5, #1
 969 009a D2E7     		b	.L132
 970              	.L133:
 971 009c FFF7FEFF 		bl	UART_WaitOnFlagUntilTimeout.constprop.0
 972 00a0 0028     		cmp	r0, #0
 973 00a2 EDD1     		bne	.L137
 974 00a4 2368     		ldr	r3, [r4]
 975 00a6 15F8012B 		ldrb	r2, [r5], #1	@ zero_extendqisi2
 976 00aa 5A60     		str	r2, [r3, #4]
 977 00ac C9E7     		b	.L132
 978              	.L141:
 979 00ae 0120     		movs	r0, #1
 980 00b0 E7E7     		b	.L131
 981              	.L142:
 982 00b2 0220     		movs	r0, #2
 983 00b4 E5E7     		b	.L131
 985              		.section	.text.HAL_UART_Receive,"ax",%progbits
 986              		.align	1
 987              		.global	HAL_UART_Receive
 988              		.syntax unified
 989              		.thumb
 990              		.thumb_func
 991              		.fpu softvfp
 993              	HAL_UART_Receive:
 994              		@ args = 0, pretend = 0, frame = 0
 995              		@ frame_needed = 0, uses_anonymous_args = 0
 996 0000 2DE9F041 		push	{r4, r5, r6, r7, r8, lr}
 997 0004 1E46     		mov	r6, r3
 998 0006 90F83A30 		ldrb	r3, [r0, #58]	@ zero_extendqisi2
 999 000a 0446     		mov	r4, r0
 1000 000c 202B     		cmp	r3, #32
 1001 000e 0D46     		mov	r5, r1
 1002 0010 9046     		mov	r8, r2
 1003 0012 52D1     		bne	.L156
 1004 0014 0029     		cmp	r1, #0
 1005 0016 4ED0     		beq	.L155
 1006 0018 002A     		cmp	r2, #0
 1007 001a 4CD0     		beq	.L155
 1008 001c 90F83830 		ldrb	r3, [r0, #56]	@ zero_extendqisi2
 1009 0020 012B     		cmp	r3, #1
 1010 0022 4AD0     		beq	.L156
 1011 0024 0123     		movs	r3, #1
 1012 0026 80F83830 		strb	r3, [r0, #56]
 1013 002a 0023     		movs	r3, #0
 1014 002c C363     		str	r3, [r0, #60]
 1015 002e 2223     		movs	r3, #34
 1016 0030 80F83A30 		strb	r3, [r0, #58]
 1017 0034 FFF7FEFF 		bl	HAL_GetTick
 1018 0038 0746     		mov	r7, r0
 1019 003a A4F82C80 		strh	r8, [r4, #44]	@ movhi
 1020 003e A4F82E80 		strh	r8, [r4, #46]	@ movhi
 1021              	.L145:
 1022 0042 E08D     		ldrh	r0, [r4, #46]
 1023 0044 80B2     		uxth	r0, r0
 1024 0046 28B9     		cbnz	r0, .L152
 1025 0048 2023     		movs	r3, #32
 1026 004a 84F83800 		strb	r0, [r4, #56]
ARM GAS  /tmp/cclLi5Tx.s 			page 18


 1027 004e 84F83A30 		strb	r3, [r4, #58]
 1028 0052 10E0     		b	.L144
 1029              	.L152:
 1030 0054 E18D     		ldrh	r1, [r4, #46]
 1031 0056 A368     		ldr	r3, [r4, #8]
 1032 0058 0139     		subs	r1, r1, #1
 1033 005a 89B2     		uxth	r1, r1
 1034 005c B3F5805F 		cmp	r3, #4096
 1035 0060 E185     		strh	r1, [r4, #46]	@ movhi
 1036 0062 3346     		mov	r3, r6
 1037 0064 3A46     		mov	r2, r7
 1038 0066 4FF02001 		mov	r1, #32
 1039 006a 2046     		mov	r0, r4
 1040 006c 15D1     		bne	.L146
 1041 006e FFF7FEFF 		bl	UART_WaitOnFlagUntilTimeout.constprop.0
 1042 0072 10B1     		cbz	r0, .L147
 1043              	.L150:
 1044 0074 0320     		movs	r0, #3
 1045              	.L144:
 1046 0076 BDE8F081 		pop	{r4, r5, r6, r7, r8, pc}
 1047              	.L147:
 1048 007a 2368     		ldr	r3, [r4]
 1049 007c 2269     		ldr	r2, [r4, #16]
 1050 007e 5B68     		ldr	r3, [r3, #4]
 1051 0080 32B9     		cbnz	r2, .L148
 1052 0082 2946     		mov	r1, r5
 1053 0084 C3F30803 		ubfx	r3, r3, #0, #9
 1054 0088 21F8023B 		strh	r3, [r1], #2	@ movhi
 1055              	.L149:
 1056 008c 0D46     		mov	r5, r1
 1057 008e D8E7     		b	.L145
 1058              	.L148:
 1059 0090 2946     		mov	r1, r5
 1060 0092 DBB2     		uxtb	r3, r3
 1061 0094 21F8013B 		strh	r3, [r1], #1	@ movhi
 1062 0098 F8E7     		b	.L149
 1063              	.L146:
 1064 009a FFF7FEFF 		bl	UART_WaitOnFlagUntilTimeout.constprop.0
 1065 009e 0028     		cmp	r0, #0
 1066 00a0 E8D1     		bne	.L150
 1067 00a2 2368     		ldr	r3, [r4]
 1068 00a4 2269     		ldr	r2, [r4, #16]
 1069 00a6 5B68     		ldr	r3, [r3, #4]
 1070 00a8 691C     		adds	r1, r5, #1
 1071 00aa 0AB9     		cbnz	r2, .L151
 1072              	.L157:
 1073 00ac 2B70     		strb	r3, [r5]
 1074 00ae EDE7     		b	.L149
 1075              	.L151:
 1076 00b0 03F07F03 		and	r3, r3, #127
 1077 00b4 FAE7     		b	.L157
 1078              	.L155:
 1079 00b6 0120     		movs	r0, #1
 1080 00b8 DDE7     		b	.L144
 1081              	.L156:
 1082 00ba 0220     		movs	r0, #2
 1083 00bc DBE7     		b	.L144
ARM GAS  /tmp/cclLi5Tx.s 			page 19


 1085              		.section	.text.HAL_UART_Transmit_IT,"ax",%progbits
 1086              		.align	1
 1087              		.global	HAL_UART_Transmit_IT
 1088              		.syntax unified
 1089              		.thumb
 1090              		.thumb_func
 1091              		.fpu softvfp
 1093              	HAL_UART_Transmit_IT:
 1094              		@ args = 0, pretend = 0, frame = 0
 1095              		@ frame_needed = 0, uses_anonymous_args = 0
 1096              		@ link register save eliminated.
 1097 0000 90F83930 		ldrb	r3, [r0, #57]	@ zero_extendqisi2
 1098 0004 202B     		cmp	r3, #32
 1099 0006 18D1     		bne	.L163
 1100 0008 A9B1     		cbz	r1, .L162
 1101 000a A2B1     		cbz	r2, .L162
 1102 000c 90F83830 		ldrb	r3, [r0, #56]	@ zero_extendqisi2
 1103 0010 012B     		cmp	r3, #1
 1104 0012 12D0     		beq	.L163
 1105 0014 C284     		strh	r2, [r0, #38]	@ movhi
 1106 0016 0023     		movs	r3, #0
 1107 0018 8284     		strh	r2, [r0, #36]	@ movhi
 1108 001a 2122     		movs	r2, #33
 1109 001c 0162     		str	r1, [r0, #32]
 1110 001e 0168     		ldr	r1, [r0]
 1111 0020 C363     		str	r3, [r0, #60]
 1112 0022 80F83830 		strb	r3, [r0, #56]
 1113 0026 80F83920 		strb	r2, [r0, #57]
 1114 002a CA68     		ldr	r2, [r1, #12]
 1115 002c 1846     		mov	r0, r3
 1116 002e 42F08002 		orr	r2, r2, #128
 1117 0032 CA60     		str	r2, [r1, #12]
 1118 0034 7047     		bx	lr
 1119              	.L162:
 1120 0036 0120     		movs	r0, #1
 1121 0038 7047     		bx	lr
 1122              	.L163:
 1123 003a 0220     		movs	r0, #2
 1124 003c 7047     		bx	lr
 1126              		.section	.text.HAL_UART_Receive_IT,"ax",%progbits
 1127              		.align	1
 1128              		.global	HAL_UART_Receive_IT
 1129              		.syntax unified
 1130              		.thumb
 1131              		.thumb_func
 1132              		.fpu softvfp
 1134              	HAL_UART_Receive_IT:
 1135              		@ args = 0, pretend = 0, frame = 0
 1136              		@ frame_needed = 0, uses_anonymous_args = 0
 1137              		@ link register save eliminated.
 1138 0000 90F83A30 		ldrb	r3, [r0, #58]	@ zero_extendqisi2
 1139 0004 202B     		cmp	r3, #32
 1140 0006 20D1     		bne	.L169
 1141 0008 E9B1     		cbz	r1, .L168
 1142 000a E2B1     		cbz	r2, .L168
 1143 000c 90F83830 		ldrb	r3, [r0, #56]	@ zero_extendqisi2
 1144 0010 012B     		cmp	r3, #1
ARM GAS  /tmp/cclLi5Tx.s 			page 20


 1145 0012 1AD0     		beq	.L169
 1146 0014 C285     		strh	r2, [r0, #46]	@ movhi
 1147 0016 8285     		strh	r2, [r0, #44]	@ movhi
 1148 0018 0023     		movs	r3, #0
 1149 001a 2222     		movs	r2, #34
 1150 001c C363     		str	r3, [r0, #60]
 1151 001e 80F83A20 		strb	r2, [r0, #58]
 1152 0022 0268     		ldr	r2, [r0]
 1153 0024 80F83830 		strb	r3, [r0, #56]
 1154 0028 8162     		str	r1, [r0, #40]
 1155 002a D168     		ldr	r1, [r2, #12]
 1156 002c 1846     		mov	r0, r3
 1157 002e 41F48071 		orr	r1, r1, #256
 1158 0032 D160     		str	r1, [r2, #12]
 1159 0034 5169     		ldr	r1, [r2, #20]
 1160 0036 41F00101 		orr	r1, r1, #1
 1161 003a 5161     		str	r1, [r2, #20]
 1162 003c D168     		ldr	r1, [r2, #12]
 1163 003e 41F02001 		orr	r1, r1, #32
 1164 0042 D160     		str	r1, [r2, #12]
 1165 0044 7047     		bx	lr
 1166              	.L168:
 1167 0046 0120     		movs	r0, #1
 1168 0048 7047     		bx	lr
 1169              	.L169:
 1170 004a 0220     		movs	r0, #2
 1171 004c 7047     		bx	lr
 1173              		.section	.text.HAL_UART_Transmit_DMA,"ax",%progbits
 1174              		.align	1
 1175              		.global	HAL_UART_Transmit_DMA
 1176              		.syntax unified
 1177              		.thumb
 1178              		.thumb_func
 1179              		.fpu softvfp
 1181              	HAL_UART_Transmit_DMA:
 1182              		@ args = 0, pretend = 0, frame = 0
 1183              		@ frame_needed = 0, uses_anonymous_args = 0
 1184 0000 38B5     		push	{r3, r4, r5, lr}
 1185 0002 0446     		mov	r4, r0
 1186 0004 1346     		mov	r3, r2
 1187 0006 94F83920 		ldrb	r2, [r4, #57]	@ zero_extendqisi2
 1188 000a 202A     		cmp	r2, #32
 1189 000c 2AD1     		bne	.L175
 1190 000e 39B3     		cbz	r1, .L174
 1191 0010 33B3     		cbz	r3, .L174
 1192 0012 94F83820 		ldrb	r2, [r4, #56]	@ zero_extendqisi2
 1193 0016 012A     		cmp	r2, #1
 1194 0018 24D0     		beq	.L175
 1195 001a 0122     		movs	r2, #1
 1196 001c 0025     		movs	r5, #0
 1197 001e 84F83820 		strb	r2, [r4, #56]
 1198 0022 2122     		movs	r2, #33
 1199 0024 E384     		strh	r3, [r4, #38]	@ movhi
 1200 0026 206B     		ldr	r0, [r4, #48]
 1201 0028 E563     		str	r5, [r4, #60]
 1202 002a 84F83920 		strb	r2, [r4, #57]
 1203 002e 0E4A     		ldr	r2, .L176
ARM GAS  /tmp/cclLi5Tx.s 			page 21


 1204 0030 A384     		strh	r3, [r4, #36]	@ movhi
 1205 0032 2162     		str	r1, [r4, #32]
 1206 0034 8262     		str	r2, [r0, #40]
 1207 0036 0D4A     		ldr	r2, .L176+4
 1208 0038 C262     		str	r2, [r0, #44]
 1209 003a 0D4A     		ldr	r2, .L176+8
 1210 003c C0E90C25 		strd	r2, r5, [r0, #48]
 1211 0040 2268     		ldr	r2, [r4]
 1212 0042 0432     		adds	r2, r2, #4
 1213 0044 FFF7FEFF 		bl	HAL_DMA_Start_IT
 1214 0048 6FF04002 		mvn	r2, #64
 1215 004c 2846     		mov	r0, r5
 1216 004e 2368     		ldr	r3, [r4]
 1217 0050 1A60     		str	r2, [r3]
 1218 0052 84F83850 		strb	r5, [r4, #56]
 1219 0056 5A69     		ldr	r2, [r3, #20]
 1220 0058 42F08002 		orr	r2, r2, #128
 1221 005c 5A61     		str	r2, [r3, #20]
 1222              	.L171:
 1223 005e 38BD     		pop	{r3, r4, r5, pc}
 1224              	.L174:
 1225 0060 0120     		movs	r0, #1
 1226 0062 FCE7     		b	.L171
 1227              	.L175:
 1228 0064 0220     		movs	r0, #2
 1229 0066 FAE7     		b	.L171
 1230              	.L177:
 1231              		.align	2
 1232              	.L176:
 1233 0068 00000000 		.word	UART_DMATransmitCplt
 1234 006c 00000000 		.word	UART_DMATxHalfCplt
 1235 0070 00000000 		.word	UART_DMAError
 1237              		.section	.text.HAL_UART_Receive_DMA,"ax",%progbits
 1238              		.align	1
 1239              		.global	HAL_UART_Receive_DMA
 1240              		.syntax unified
 1241              		.thumb
 1242              		.thumb_func
 1243              		.fpu softvfp
 1245              	HAL_UART_Receive_DMA:
 1246              		@ args = 0, pretend = 0, frame = 8
 1247              		@ frame_needed = 0, uses_anonymous_args = 0
 1248 0000 73B5     		push	{r0, r1, r4, r5, r6, lr}
 1249 0002 1346     		mov	r3, r2
 1250 0004 90F83A20 		ldrb	r2, [r0, #58]	@ zero_extendqisi2
 1251 0008 0446     		mov	r4, r0
 1252 000a 202A     		cmp	r2, #32
 1253 000c 38D1     		bne	.L183
 1254 000e 0029     		cmp	r1, #0
 1255 0010 34D0     		beq	.L182
 1256 0012 002B     		cmp	r3, #0
 1257 0014 32D0     		beq	.L182
 1258 0016 90F83820 		ldrb	r2, [r0, #56]	@ zero_extendqisi2
 1259 001a 012A     		cmp	r2, #1
 1260 001c 30D0     		beq	.L183
 1261 001e 0122     		movs	r2, #1
 1262 0020 0025     		movs	r5, #0
ARM GAS  /tmp/cclLi5Tx.s 			page 22


 1263 0022 80F83820 		strb	r2, [r0, #56]
 1264 0026 2222     		movs	r2, #34
 1265 0028 8162     		str	r1, [r0, #40]
 1266 002a 8385     		strh	r3, [r0, #44]	@ movhi
 1267 002c C563     		str	r5, [r0, #60]
 1268 002e 80F83A20 		strb	r2, [r0, #58]
 1269 0032 406B     		ldr	r0, [r0, #52]
 1270 0034 134A     		ldr	r2, .L184
 1271 0036 2668     		ldr	r6, [r4]
 1272 0038 8262     		str	r2, [r0, #40]
 1273 003a 134A     		ldr	r2, .L184+4
 1274 003c C262     		str	r2, [r0, #44]
 1275 003e 134A     		ldr	r2, .L184+8
 1276 0040 C0E90C25 		strd	r2, r5, [r0, #48]
 1277 0044 0A46     		mov	r2, r1
 1278 0046 311D     		adds	r1, r6, #4
 1279 0048 FFF7FEFF 		bl	HAL_DMA_Start_IT
 1280 004c 2846     		mov	r0, r5
 1281 004e 2368     		ldr	r3, [r4]
 1282 0050 0195     		str	r5, [sp, #4]
 1283 0052 1A68     		ldr	r2, [r3]
 1284 0054 0192     		str	r2, [sp, #4]
 1285 0056 5A68     		ldr	r2, [r3, #4]
 1286 0058 84F83850 		strb	r5, [r4, #56]
 1287 005c 0192     		str	r2, [sp, #4]
 1288 005e 019A     		ldr	r2, [sp, #4]
 1289 0060 DA68     		ldr	r2, [r3, #12]
 1290 0062 42F48072 		orr	r2, r2, #256
 1291 0066 DA60     		str	r2, [r3, #12]
 1292 0068 5A69     		ldr	r2, [r3, #20]
 1293 006a 42F00102 		orr	r2, r2, #1
 1294 006e 5A61     		str	r2, [r3, #20]
 1295 0070 5A69     		ldr	r2, [r3, #20]
 1296 0072 42F04002 		orr	r2, r2, #64
 1297 0076 5A61     		str	r2, [r3, #20]
 1298              	.L179:
 1299 0078 02B0     		add	sp, sp, #8
 1300              		@ sp needed
 1301 007a 70BD     		pop	{r4, r5, r6, pc}
 1302              	.L182:
 1303 007c 0120     		movs	r0, #1
 1304 007e FBE7     		b	.L179
 1305              	.L183:
 1306 0080 0220     		movs	r0, #2
 1307 0082 F9E7     		b	.L179
 1308              	.L185:
 1309              		.align	2
 1310              	.L184:
 1311 0084 00000000 		.word	UART_DMAReceiveCplt
 1312 0088 00000000 		.word	UART_DMARxHalfCplt
 1313 008c 00000000 		.word	UART_DMAError
 1315              		.section	.text.HAL_UART_DMAPause,"ax",%progbits
 1316              		.align	1
 1317              		.global	HAL_UART_DMAPause
 1318              		.syntax unified
 1319              		.thumb
 1320              		.thumb_func
ARM GAS  /tmp/cclLi5Tx.s 			page 23


 1321              		.fpu softvfp
 1323              	HAL_UART_DMAPause:
 1324              		@ args = 0, pretend = 0, frame = 0
 1325              		@ frame_needed = 0, uses_anonymous_args = 0
 1326              		@ link register save eliminated.
 1327 0000 90F83830 		ldrb	r3, [r0, #56]	@ zero_extendqisi2
 1328 0004 012B     		cmp	r3, #1
 1329 0006 26D0     		beq	.L190
 1330 0008 0123     		movs	r3, #1
 1331 000a 80F83830 		strb	r3, [r0, #56]
 1332 000e 0368     		ldr	r3, [r0]
 1333 0010 5A69     		ldr	r2, [r3, #20]
 1334 0012 90F83910 		ldrb	r1, [r0, #57]	@ zero_extendqisi2
 1335 0016 2129     		cmp	r1, #33
 1336 0018 05D1     		bne	.L188
 1337 001a 1106     		lsls	r1, r2, #24
 1338 001c 42BF     		ittt	mi
 1339 001e 5A69     		ldrmi	r2, [r3, #20]
 1340 0020 22F08002 		bicmi	r2, r2, #128
 1341 0024 5A61     		strmi	r2, [r3, #20]
 1342              	.L188:
 1343 0026 5A69     		ldr	r2, [r3, #20]
 1344 0028 90F83A10 		ldrb	r1, [r0, #58]	@ zero_extendqisi2
 1345 002c 2229     		cmp	r1, #34
 1346 002e 0DD1     		bne	.L189
 1347 0030 5206     		lsls	r2, r2, #25
 1348 0032 0BD5     		bpl	.L189
 1349 0034 DA68     		ldr	r2, [r3, #12]
 1350 0036 22F48072 		bic	r2, r2, #256
 1351 003a DA60     		str	r2, [r3, #12]
 1352 003c 5A69     		ldr	r2, [r3, #20]
 1353 003e 22F00102 		bic	r2, r2, #1
 1354 0042 5A61     		str	r2, [r3, #20]
 1355 0044 5A69     		ldr	r2, [r3, #20]
 1356 0046 22F04002 		bic	r2, r2, #64
 1357 004a 5A61     		str	r2, [r3, #20]
 1358              	.L189:
 1359 004c 0023     		movs	r3, #0
 1360 004e 80F83830 		strb	r3, [r0, #56]
 1361 0052 1846     		mov	r0, r3
 1362 0054 7047     		bx	lr
 1363              	.L190:
 1364 0056 0220     		movs	r0, #2
 1365 0058 7047     		bx	lr
 1367              		.section	.text.HAL_UART_DMAResume,"ax",%progbits
 1368              		.align	1
 1369              		.global	HAL_UART_DMAResume
 1370              		.syntax unified
 1371              		.thumb
 1372              		.thumb_func
 1373              		.fpu softvfp
 1375              	HAL_UART_DMAResume:
 1376              		@ args = 0, pretend = 0, frame = 8
 1377              		@ frame_needed = 0, uses_anonymous_args = 0
 1378              		@ link register save eliminated.
 1379 0000 90F83830 		ldrb	r3, [r0, #56]	@ zero_extendqisi2
 1380 0004 82B0     		sub	sp, sp, #8
ARM GAS  /tmp/cclLi5Tx.s 			page 24


 1381 0006 012B     		cmp	r3, #1
 1382 0008 29D0     		beq	.L201
 1383 000a 0123     		movs	r3, #1
 1384 000c 80F83830 		strb	r3, [r0, #56]
 1385 0010 90F83930 		ldrb	r3, [r0, #57]	@ zero_extendqisi2
 1386 0014 212B     		cmp	r3, #33
 1387 0016 01BF     		itttt	eq
 1388 0018 0268     		ldreq	r2, [r0]
 1389 001a 5369     		ldreq	r3, [r2, #20]
 1390 001c 43F08003 		orreq	r3, r3, #128
 1391 0020 5361     		streq	r3, [r2, #20]
 1392 0022 90F83A30 		ldrb	r3, [r0, #58]	@ zero_extendqisi2
 1393 0026 222B     		cmp	r3, #34
 1394 0028 13D1     		bne	.L200
 1395 002a 0023     		movs	r3, #0
 1396 002c 0193     		str	r3, [sp, #4]
 1397 002e 0368     		ldr	r3, [r0]
 1398 0030 1A68     		ldr	r2, [r3]
 1399 0032 0192     		str	r2, [sp, #4]
 1400 0034 5A68     		ldr	r2, [r3, #4]
 1401 0036 0192     		str	r2, [sp, #4]
 1402 0038 019A     		ldr	r2, [sp, #4]
 1403 003a DA68     		ldr	r2, [r3, #12]
 1404 003c 42F48072 		orr	r2, r2, #256
 1405 0040 DA60     		str	r2, [r3, #12]
 1406 0042 5A69     		ldr	r2, [r3, #20]
 1407 0044 42F00102 		orr	r2, r2, #1
 1408 0048 5A61     		str	r2, [r3, #20]
 1409 004a 5A69     		ldr	r2, [r3, #20]
 1410 004c 42F04002 		orr	r2, r2, #64
 1411 0050 5A61     		str	r2, [r3, #20]
 1412              	.L200:
 1413 0052 0023     		movs	r3, #0
 1414 0054 80F83830 		strb	r3, [r0, #56]
 1415 0058 1846     		mov	r0, r3
 1416              	.L198:
 1417 005a 02B0     		add	sp, sp, #8
 1418              		@ sp needed
 1419 005c 7047     		bx	lr
 1420              	.L201:
 1421 005e 0220     		movs	r0, #2
 1422 0060 FBE7     		b	.L198
 1424              		.section	.text.HAL_UART_DMAStop,"ax",%progbits
 1425              		.align	1
 1426              		.global	HAL_UART_DMAStop
 1427              		.syntax unified
 1428              		.thumb
 1429              		.thumb_func
 1430              		.fpu softvfp
 1432              	HAL_UART_DMAStop:
 1433              		@ args = 0, pretend = 0, frame = 0
 1434              		@ frame_needed = 0, uses_anonymous_args = 0
 1435 0000 10B5     		push	{r4, lr}
 1436 0002 0368     		ldr	r3, [r0]
 1437 0004 0446     		mov	r4, r0
 1438 0006 5A69     		ldr	r2, [r3, #20]
 1439 0008 90F83910 		ldrb	r1, [r0, #57]	@ zero_extendqisi2
ARM GAS  /tmp/cclLi5Tx.s 			page 25


 1440 000c 2129     		cmp	r1, #33
 1441 000e 11D1     		bne	.L203
 1442 0010 1106     		lsls	r1, r2, #24
 1443 0012 0FD5     		bpl	.L203
 1444 0014 5A69     		ldr	r2, [r3, #20]
 1445 0016 006B     		ldr	r0, [r0, #48]
 1446 0018 22F08002 		bic	r2, r2, #128
 1447 001c 5A61     		str	r2, [r3, #20]
 1448 001e 08B1     		cbz	r0, .L204
 1449 0020 FFF7FEFF 		bl	HAL_DMA_Abort
 1450              	.L204:
 1451 0024 2268     		ldr	r2, [r4]
 1452 0026 D368     		ldr	r3, [r2, #12]
 1453 0028 23F0C003 		bic	r3, r3, #192
 1454 002c D360     		str	r3, [r2, #12]
 1455 002e 2023     		movs	r3, #32
 1456 0030 84F83930 		strb	r3, [r4, #57]
 1457              	.L203:
 1458 0034 2368     		ldr	r3, [r4]
 1459 0036 5A69     		ldr	r2, [r3, #20]
 1460 0038 94F83A10 		ldrb	r1, [r4, #58]	@ zero_extendqisi2
 1461 003c 2229     		cmp	r1, #34
 1462 003e 0CD1     		bne	.L205
 1463 0040 5206     		lsls	r2, r2, #25
 1464 0042 0AD5     		bpl	.L205
 1465 0044 5A69     		ldr	r2, [r3, #20]
 1466 0046 606B     		ldr	r0, [r4, #52]
 1467 0048 22F04002 		bic	r2, r2, #64
 1468 004c 5A61     		str	r2, [r3, #20]
 1469 004e 08B1     		cbz	r0, .L206
 1470 0050 FFF7FEFF 		bl	HAL_DMA_Abort
 1471              	.L206:
 1472 0054 2046     		mov	r0, r4
 1473 0056 FFF7FEFF 		bl	UART_EndRxTransfer
 1474              	.L205:
 1475 005a 0020     		movs	r0, #0
 1476 005c 10BD     		pop	{r4, pc}
 1478              		.section	.text.HAL_UART_Abort,"ax",%progbits
 1479              		.align	1
 1480              		.global	HAL_UART_Abort
 1481              		.syntax unified
 1482              		.thumb
 1483              		.thumb_func
 1484              		.fpu softvfp
 1486              	HAL_UART_Abort:
 1487              		@ args = 0, pretend = 0, frame = 0
 1488              		@ frame_needed = 0, uses_anonymous_args = 0
 1489 0000 0368     		ldr	r3, [r0]
 1490 0002 10B5     		push	{r4, lr}
 1491 0004 DA68     		ldr	r2, [r3, #12]
 1492 0006 0446     		mov	r4, r0
 1493 0008 22F4F072 		bic	r2, r2, #480
 1494 000c DA60     		str	r2, [r3, #12]
 1495 000e 5A69     		ldr	r2, [r3, #20]
 1496 0010 22F00102 		bic	r2, r2, #1
 1497 0014 5A61     		str	r2, [r3, #20]
 1498 0016 5A69     		ldr	r2, [r3, #20]
ARM GAS  /tmp/cclLi5Tx.s 			page 26


 1499 0018 1106     		lsls	r1, r2, #24
 1500 001a 13D5     		bpl	.L220
 1501 001c 5A69     		ldr	r2, [r3, #20]
 1502 001e 006B     		ldr	r0, [r0, #48]
 1503 0020 22F08002 		bic	r2, r2, #128
 1504 0024 5A61     		str	r2, [r3, #20]
 1505 0026 68B1     		cbz	r0, .L220
 1506 0028 0023     		movs	r3, #0
 1507 002a 4363     		str	r3, [r0, #52]
 1508 002c FFF7FEFF 		bl	HAL_DMA_Abort
 1509 0030 40B1     		cbz	r0, .L220
 1510 0032 206B     		ldr	r0, [r4, #48]
 1511 0034 FFF7FEFF 		bl	HAL_DMA_GetError
 1512 0038 2028     		cmp	r0, #32
 1513 003a 03D1     		bne	.L220
 1514              	.L241:
 1515 003c 1023     		movs	r3, #16
 1516 003e 0320     		movs	r0, #3
 1517 0040 E363     		str	r3, [r4, #60]
 1518              	.L221:
 1519 0042 10BD     		pop	{r4, pc}
 1520              	.L220:
 1521 0044 2368     		ldr	r3, [r4]
 1522 0046 5A69     		ldr	r2, [r3, #20]
 1523 0048 5206     		lsls	r2, r2, #25
 1524 004a 0FD5     		bpl	.L222
 1525 004c 5A69     		ldr	r2, [r3, #20]
 1526 004e 606B     		ldr	r0, [r4, #52]
 1527 0050 22F04002 		bic	r2, r2, #64
 1528 0054 5A61     		str	r2, [r3, #20]
 1529 0056 48B1     		cbz	r0, .L222
 1530 0058 0023     		movs	r3, #0
 1531 005a 4363     		str	r3, [r0, #52]
 1532 005c FFF7FEFF 		bl	HAL_DMA_Abort
 1533 0060 20B1     		cbz	r0, .L222
 1534 0062 606B     		ldr	r0, [r4, #52]
 1535 0064 FFF7FEFF 		bl	HAL_DMA_GetError
 1536 0068 2028     		cmp	r0, #32
 1537 006a E7D0     		beq	.L241
 1538              	.L222:
 1539 006c 0020     		movs	r0, #0
 1540 006e 2023     		movs	r3, #32
 1541 0070 E084     		strh	r0, [r4, #38]	@ movhi
 1542 0072 E085     		strh	r0, [r4, #46]	@ movhi
 1543 0074 E063     		str	r0, [r4, #60]
 1544 0076 84F83A30 		strb	r3, [r4, #58]
 1545 007a 84F83930 		strb	r3, [r4, #57]
 1546 007e E0E7     		b	.L221
 1548              		.section	.text.HAL_UART_AbortTransmit,"ax",%progbits
 1549              		.align	1
 1550              		.global	HAL_UART_AbortTransmit
 1551              		.syntax unified
 1552              		.thumb
 1553              		.thumb_func
 1554              		.fpu softvfp
 1556              	HAL_UART_AbortTransmit:
 1557              		@ args = 0, pretend = 0, frame = 0
ARM GAS  /tmp/cclLi5Tx.s 			page 27


 1558              		@ frame_needed = 0, uses_anonymous_args = 0
 1559 0000 0368     		ldr	r3, [r0]
 1560 0002 10B5     		push	{r4, lr}
 1561 0004 DA68     		ldr	r2, [r3, #12]
 1562 0006 0446     		mov	r4, r0
 1563 0008 22F0C002 		bic	r2, r2, #192
 1564 000c DA60     		str	r2, [r3, #12]
 1565 000e 5A69     		ldr	r2, [r3, #20]
 1566 0010 1206     		lsls	r2, r2, #24
 1567 0012 13D5     		bpl	.L243
 1568 0014 5A69     		ldr	r2, [r3, #20]
 1569 0016 006B     		ldr	r0, [r0, #48]
 1570 0018 22F08002 		bic	r2, r2, #128
 1571 001c 5A61     		str	r2, [r3, #20]
 1572 001e 68B1     		cbz	r0, .L243
 1573 0020 0023     		movs	r3, #0
 1574 0022 4363     		str	r3, [r0, #52]
 1575 0024 FFF7FEFF 		bl	HAL_DMA_Abort
 1576 0028 40B1     		cbz	r0, .L243
 1577 002a 206B     		ldr	r0, [r4, #48]
 1578 002c FFF7FEFF 		bl	HAL_DMA_GetError
 1579 0030 2028     		cmp	r0, #32
 1580 0032 03D1     		bne	.L243
 1581 0034 1023     		movs	r3, #16
 1582 0036 0320     		movs	r0, #3
 1583 0038 E363     		str	r3, [r4, #60]
 1584              	.L244:
 1585 003a 10BD     		pop	{r4, pc}
 1586              	.L243:
 1587 003c 0020     		movs	r0, #0
 1588 003e 2023     		movs	r3, #32
 1589 0040 E084     		strh	r0, [r4, #38]	@ movhi
 1590 0042 84F83930 		strb	r3, [r4, #57]
 1591 0046 F8E7     		b	.L244
 1593              		.section	.text.HAL_UART_AbortReceive,"ax",%progbits
 1594              		.align	1
 1595              		.global	HAL_UART_AbortReceive
 1596              		.syntax unified
 1597              		.thumb
 1598              		.thumb_func
 1599              		.fpu softvfp
 1601              	HAL_UART_AbortReceive:
 1602              		@ args = 0, pretend = 0, frame = 0
 1603              		@ frame_needed = 0, uses_anonymous_args = 0
 1604 0000 0368     		ldr	r3, [r0]
 1605 0002 10B5     		push	{r4, lr}
 1606 0004 DA68     		ldr	r2, [r3, #12]
 1607 0006 0446     		mov	r4, r0
 1608 0008 22F49072 		bic	r2, r2, #288
 1609 000c DA60     		str	r2, [r3, #12]
 1610 000e 5A69     		ldr	r2, [r3, #20]
 1611 0010 22F00102 		bic	r2, r2, #1
 1612 0014 5A61     		str	r2, [r3, #20]
 1613 0016 5A69     		ldr	r2, [r3, #20]
 1614 0018 5206     		lsls	r2, r2, #25
 1615 001a 13D5     		bpl	.L255
 1616 001c 5A69     		ldr	r2, [r3, #20]
ARM GAS  /tmp/cclLi5Tx.s 			page 28


 1617 001e 406B     		ldr	r0, [r0, #52]
 1618 0020 22F04002 		bic	r2, r2, #64
 1619 0024 5A61     		str	r2, [r3, #20]
 1620 0026 68B1     		cbz	r0, .L255
 1621 0028 0023     		movs	r3, #0
 1622 002a 4363     		str	r3, [r0, #52]
 1623 002c FFF7FEFF 		bl	HAL_DMA_Abort
 1624 0030 40B1     		cbz	r0, .L255
 1625 0032 606B     		ldr	r0, [r4, #52]
 1626 0034 FFF7FEFF 		bl	HAL_DMA_GetError
 1627 0038 2028     		cmp	r0, #32
 1628 003a 03D1     		bne	.L255
 1629 003c 1023     		movs	r3, #16
 1630 003e 0320     		movs	r0, #3
 1631 0040 E363     		str	r3, [r4, #60]
 1632              	.L256:
 1633 0042 10BD     		pop	{r4, pc}
 1634              	.L255:
 1635 0044 0020     		movs	r0, #0
 1636 0046 2023     		movs	r3, #32
 1637 0048 E085     		strh	r0, [r4, #46]	@ movhi
 1638 004a 84F83A30 		strb	r3, [r4, #58]
 1639 004e F8E7     		b	.L256
 1641              		.section	.text.HAL_UART_Abort_IT,"ax",%progbits
 1642              		.align	1
 1643              		.global	HAL_UART_Abort_IT
 1644              		.syntax unified
 1645              		.thumb
 1646              		.thumb_func
 1647              		.fpu softvfp
 1649              	HAL_UART_Abort_IT:
 1650              		@ args = 0, pretend = 0, frame = 0
 1651              		@ frame_needed = 0, uses_anonymous_args = 0
 1652 0000 0368     		ldr	r3, [r0]
 1653 0002 10B5     		push	{r4, lr}
 1654 0004 DA68     		ldr	r2, [r3, #12]
 1655 0006 0446     		mov	r4, r0
 1656 0008 22F4F072 		bic	r2, r2, #480
 1657 000c DA60     		str	r2, [r3, #12]
 1658 000e 5A69     		ldr	r2, [r3, #20]
 1659 0010 006B     		ldr	r0, [r0, #48]
 1660 0012 22F00102 		bic	r2, r2, #1
 1661 0016 5A61     		str	r2, [r3, #20]
 1662 0018 28B1     		cbz	r0, .L267
 1663 001a 5A69     		ldr	r2, [r3, #20]
 1664 001c 12F08002 		ands	r2, r2, #128
 1665 0020 18BF     		it	ne
 1666 0022 1F4A     		ldrne	r2, .L296
 1667 0024 4263     		str	r2, [r0, #52]
 1668              	.L267:
 1669 0026 616B     		ldr	r1, [r4, #52]
 1670 0028 29B1     		cbz	r1, .L269
 1671 002a 5A69     		ldr	r2, [r3, #20]
 1672 002c 12F04002 		ands	r2, r2, #64
 1673 0030 18BF     		it	ne
 1674 0032 1C4A     		ldrne	r2, .L296+4
 1675 0034 4A63     		str	r2, [r1, #52]
ARM GAS  /tmp/cclLi5Tx.s 			page 29


 1676              	.L269:
 1677 0036 5A69     		ldr	r2, [r3, #20]
 1678 0038 1206     		lsls	r2, r2, #24
 1679 003a 1DD4     		bmi	.L271
 1680              	.L295:
 1681 003c 0123     		movs	r3, #1
 1682              	.L272:
 1683 003e 2268     		ldr	r2, [r4]
 1684 0040 5169     		ldr	r1, [r2, #20]
 1685 0042 4906     		lsls	r1, r1, #25
 1686 0044 27D5     		bpl	.L274
 1687 0046 5169     		ldr	r1, [r2, #20]
 1688 0048 606B     		ldr	r0, [r4, #52]
 1689 004a 21F04001 		bic	r1, r1, #64
 1690 004e 5161     		str	r1, [r2, #20]
 1691 0050 08B3     		cbz	r0, .L274
 1692 0052 FFF7FEFF 		bl	HAL_DMA_Abort_IT
 1693 0056 00B3     		cbz	r0, .L276
 1694 0058 0022     		movs	r2, #0
 1695 005a 636B     		ldr	r3, [r4, #52]
 1696 005c 5A63     		str	r2, [r3, #52]
 1697              	.L277:
 1698 005e 0023     		movs	r3, #0
 1699 0060 E384     		strh	r3, [r4, #38]	@ movhi
 1700 0062 E385     		strh	r3, [r4, #46]	@ movhi
 1701 0064 E363     		str	r3, [r4, #60]
 1702 0066 2023     		movs	r3, #32
 1703 0068 2046     		mov	r0, r4
 1704 006a 84F83930 		strb	r3, [r4, #57]
 1705 006e 84F83A30 		strb	r3, [r4, #58]
 1706 0072 636D     		ldr	r3, [r4, #84]
 1707 0074 9847     		blx	r3
 1708 0076 10E0     		b	.L276
 1709              	.L271:
 1710 0078 5A69     		ldr	r2, [r3, #20]
 1711 007a 22F08002 		bic	r2, r2, #128
 1712 007e 5A61     		str	r2, [r3, #20]
 1713 0080 0028     		cmp	r0, #0
 1714 0082 DBD0     		beq	.L295
 1715 0084 FFF7FEFF 		bl	HAL_DMA_Abort_IT
 1716 0088 0346     		mov	r3, r0
 1717 008a 0028     		cmp	r0, #0
 1718 008c D7D0     		beq	.L272
 1719 008e 0022     		movs	r2, #0
 1720 0090 236B     		ldr	r3, [r4, #48]
 1721 0092 5A63     		str	r2, [r3, #52]
 1722 0094 D2E7     		b	.L295
 1723              	.L274:
 1724 0096 002B     		cmp	r3, #0
 1725 0098 E1D1     		bne	.L277
 1726              	.L276:
 1727 009a 0020     		movs	r0, #0
 1728 009c 10BD     		pop	{r4, pc}
 1729              	.L297:
 1730 009e 00BF     		.align	2
 1731              	.L296:
 1732 00a0 00000000 		.word	UART_DMATxAbortCallback
ARM GAS  /tmp/cclLi5Tx.s 			page 30


 1733 00a4 00000000 		.word	UART_DMARxAbortCallback
 1735              		.section	.text.HAL_UART_AbortTransmit_IT,"ax",%progbits
 1736              		.align	1
 1737              		.global	HAL_UART_AbortTransmit_IT
 1738              		.syntax unified
 1739              		.thumb
 1740              		.thumb_func
 1741              		.fpu softvfp
 1743              	HAL_UART_AbortTransmit_IT:
 1744              		@ args = 0, pretend = 0, frame = 0
 1745              		@ frame_needed = 0, uses_anonymous_args = 0
 1746 0000 0368     		ldr	r3, [r0]
 1747 0002 10B5     		push	{r4, lr}
 1748 0004 DA68     		ldr	r2, [r3, #12]
 1749 0006 0446     		mov	r4, r0
 1750 0008 22F0C002 		bic	r2, r2, #192
 1751 000c DA60     		str	r2, [r3, #12]
 1752 000e 5A69     		ldr	r2, [r3, #20]
 1753 0010 12F08002 		ands	r2, r2, #128
 1754 0014 16D0     		beq	.L299
 1755 0016 5A69     		ldr	r2, [r3, #20]
 1756 0018 22F08002 		bic	r2, r2, #128
 1757 001c 5A61     		str	r2, [r3, #20]
 1758 001e 036B     		ldr	r3, [r0, #48]
 1759 0020 53B1     		cbz	r3, .L300
 1760 0022 094A     		ldr	r2, .L307
 1761 0024 1846     		mov	r0, r3
 1762 0026 5A63     		str	r2, [r3, #52]
 1763 0028 FFF7FEFF 		bl	HAL_DMA_Abort_IT
 1764 002c 10B1     		cbz	r0, .L301
 1765 002e 206B     		ldr	r0, [r4, #48]
 1766 0030 436B     		ldr	r3, [r0, #52]
 1767              	.L305:
 1768 0032 9847     		blx	r3
 1769              	.L301:
 1770 0034 0020     		movs	r0, #0
 1771 0036 10BD     		pop	{r4, pc}
 1772              	.L300:
 1773 0038 C384     		strh	r3, [r0, #38]	@ movhi
 1774              	.L306:
 1775 003a 2023     		movs	r3, #32
 1776 003c 84F83930 		strb	r3, [r4, #57]
 1777 0040 A36D     		ldr	r3, [r4, #88]
 1778 0042 F6E7     		b	.L305
 1779              	.L299:
 1780 0044 C284     		strh	r2, [r0, #38]	@ movhi
 1781 0046 F8E7     		b	.L306
 1782              	.L308:
 1783              		.align	2
 1784              	.L307:
 1785 0048 00000000 		.word	UART_DMATxOnlyAbortCallback
 1787              		.section	.text.HAL_UART_AbortReceive_IT,"ax",%progbits
 1788              		.align	1
 1789              		.global	HAL_UART_AbortReceive_IT
 1790              		.syntax unified
 1791              		.thumb
 1792              		.thumb_func
ARM GAS  /tmp/cclLi5Tx.s 			page 31


 1793              		.fpu softvfp
 1795              	HAL_UART_AbortReceive_IT:
 1796              		@ args = 0, pretend = 0, frame = 0
 1797              		@ frame_needed = 0, uses_anonymous_args = 0
 1798 0000 0368     		ldr	r3, [r0]
 1799 0002 10B5     		push	{r4, lr}
 1800 0004 DA68     		ldr	r2, [r3, #12]
 1801 0006 0446     		mov	r4, r0
 1802 0008 22F49072 		bic	r2, r2, #288
 1803 000c DA60     		str	r2, [r3, #12]
 1804 000e 5A69     		ldr	r2, [r3, #20]
 1805 0010 22F00102 		bic	r2, r2, #1
 1806 0014 5A61     		str	r2, [r3, #20]
 1807 0016 5A69     		ldr	r2, [r3, #20]
 1808 0018 12F04002 		ands	r2, r2, #64
 1809 001c 16D0     		beq	.L310
 1810 001e 5A69     		ldr	r2, [r3, #20]
 1811 0020 22F04002 		bic	r2, r2, #64
 1812 0024 5A61     		str	r2, [r3, #20]
 1813 0026 436B     		ldr	r3, [r0, #52]
 1814 0028 53B1     		cbz	r3, .L311
 1815 002a 094A     		ldr	r2, .L318
 1816 002c 1846     		mov	r0, r3
 1817 002e 5A63     		str	r2, [r3, #52]
 1818 0030 FFF7FEFF 		bl	HAL_DMA_Abort_IT
 1819 0034 10B1     		cbz	r0, .L312
 1820 0036 606B     		ldr	r0, [r4, #52]
 1821 0038 436B     		ldr	r3, [r0, #52]
 1822              	.L316:
 1823 003a 9847     		blx	r3
 1824              	.L312:
 1825 003c 0020     		movs	r0, #0
 1826 003e 10BD     		pop	{r4, pc}
 1827              	.L311:
 1828 0040 C385     		strh	r3, [r0, #46]	@ movhi
 1829              	.L317:
 1830 0042 2023     		movs	r3, #32
 1831 0044 84F83A30 		strb	r3, [r4, #58]
 1832 0048 E36D     		ldr	r3, [r4, #92]
 1833 004a F6E7     		b	.L316
 1834              	.L310:
 1835 004c C285     		strh	r2, [r0, #46]	@ movhi
 1836 004e F8E7     		b	.L317
 1837              	.L319:
 1838              		.align	2
 1839              	.L318:
 1840 0050 00000000 		.word	UART_DMARxOnlyAbortCallback
 1842              		.section	.text.HAL_UART_IRQHandler,"ax",%progbits
 1843              		.align	1
 1844              		.global	HAL_UART_IRQHandler
 1845              		.syntax unified
 1846              		.thumb
 1847              		.thumb_func
 1848              		.fpu softvfp
 1850              	HAL_UART_IRQHandler:
 1851              		@ args = 0, pretend = 0, frame = 0
 1852              		@ frame_needed = 0, uses_anonymous_args = 0
ARM GAS  /tmp/cclLi5Tx.s 			page 32


 1853 0000 0368     		ldr	r3, [r0]
 1854 0002 70B5     		push	{r4, r5, r6, lr}
 1855 0004 1A68     		ldr	r2, [r3]
 1856 0006 0446     		mov	r4, r0
 1857 0008 1607     		lsls	r6, r2, #28
 1858 000a D968     		ldr	r1, [r3, #12]
 1859 000c 5D69     		ldr	r5, [r3, #20]
 1860 000e 07D1     		bne	.L321
 1861 0010 9606     		lsls	r6, r2, #26
 1862 0012 5AD5     		bpl	.L322
 1863 0014 8D06     		lsls	r5, r1, #26
 1864 0016 58D5     		bpl	.L322
 1865 0018 BDE87040 		pop	{r4, r5, r6, lr}
 1866 001c FFF7FEBF 		b	UART_Receive_IT
 1867              	.L321:
 1868 0020 05F00100 		and	r0, r5, #1
 1869 0024 01F49075 		and	r5, r1, #288
 1870 0028 0543     		orrs	r5, r5, r0
 1871 002a 4ED0     		beq	.L322
 1872 002c D607     		lsls	r6, r2, #31
 1873 002e 05D5     		bpl	.L323
 1874 0030 CD05     		lsls	r5, r1, #23
 1875 0032 42BF     		ittt	mi
 1876 0034 E36B     		ldrmi	r3, [r4, #60]
 1877 0036 43F00103 		orrmi	r3, r3, #1
 1878 003a E363     		strmi	r3, [r4, #60]
 1879              	.L323:
 1880 003c 5307     		lsls	r3, r2, #29
 1881 003e 04D5     		bpl	.L324
 1882 0040 18B1     		cbz	r0, .L324
 1883 0042 E36B     		ldr	r3, [r4, #60]
 1884 0044 43F00203 		orr	r3, r3, #2
 1885 0048 E363     		str	r3, [r4, #60]
 1886              	.L324:
 1887 004a 9607     		lsls	r6, r2, #30
 1888 004c 04D5     		bpl	.L325
 1889 004e 18B1     		cbz	r0, .L325
 1890 0050 E36B     		ldr	r3, [r4, #60]
 1891 0052 43F00403 		orr	r3, r3, #4
 1892 0056 E363     		str	r3, [r4, #60]
 1893              	.L325:
 1894 0058 1507     		lsls	r5, r2, #28
 1895 005a 04D5     		bpl	.L326
 1896 005c 18B1     		cbz	r0, .L326
 1897 005e E36B     		ldr	r3, [r4, #60]
 1898 0060 43F00803 		orr	r3, r3, #8
 1899 0064 E363     		str	r3, [r4, #60]
 1900              	.L326:
 1901 0066 E36B     		ldr	r3, [r4, #60]
 1902 0068 002B     		cmp	r3, #0
 1903 006a 2DD0     		beq	.L320
 1904 006c 9006     		lsls	r0, r2, #26
 1905 006e 04D5     		bpl	.L329
 1906 0070 8906     		lsls	r1, r1, #26
 1907 0072 02D5     		bpl	.L329
 1908 0074 2046     		mov	r0, r4
 1909 0076 FFF7FEFF 		bl	UART_Receive_IT
ARM GAS  /tmp/cclLi5Tx.s 			page 33


 1910              	.L329:
 1911 007a 2368     		ldr	r3, [r4]
 1912 007c 5B69     		ldr	r3, [r3, #20]
 1913 007e E56B     		ldr	r5, [r4, #60]
 1914 0080 03F04003 		and	r3, r3, #64
 1915 0084 05F00805 		and	r5, r5, #8
 1916 0088 1D43     		orrs	r5, r3, r5
 1917 008a 19D0     		beq	.L330
 1918 008c 2046     		mov	r0, r4
 1919 008e FFF7FEFF 		bl	UART_EndRxTransfer
 1920 0092 2368     		ldr	r3, [r4]
 1921 0094 5A69     		ldr	r2, [r3, #20]
 1922 0096 5206     		lsls	r2, r2, #25
 1923 0098 0FD5     		bpl	.L331
 1924 009a 5A69     		ldr	r2, [r3, #20]
 1925 009c 606B     		ldr	r0, [r4, #52]
 1926 009e 22F04002 		bic	r2, r2, #64
 1927 00a2 5A61     		str	r2, [r3, #20]
 1928 00a4 48B1     		cbz	r0, .L331
 1929 00a6 254B     		ldr	r3, .L395
 1930 00a8 4363     		str	r3, [r0, #52]
 1931 00aa FFF7FEFF 		bl	HAL_DMA_Abort_IT
 1932 00ae 58B1     		cbz	r0, .L320
 1933 00b0 606B     		ldr	r0, [r4, #52]
 1934 00b2 436B     		ldr	r3, [r0, #52]
 1935              	.L393:
 1936 00b4 BDE87040 		pop	{r4, r5, r6, lr}
 1937 00b8 1847     		bx	r3	@ indirect register sibling call
 1938              	.L331:
 1939 00ba 236D     		ldr	r3, [r4, #80]
 1940              	.L394:
 1941 00bc 2046     		mov	r0, r4
 1942 00be F9E7     		b	.L393
 1943              	.L330:
 1944 00c0 2046     		mov	r0, r4
 1945 00c2 236D     		ldr	r3, [r4, #80]
 1946 00c4 9847     		blx	r3
 1947 00c6 E563     		str	r5, [r4, #60]
 1948              	.L320:
 1949 00c8 70BD     		pop	{r4, r5, r6, pc}
 1950              	.L322:
 1951 00ca 1606     		lsls	r6, r2, #24
 1952 00cc 28D5     		bpl	.L334
 1953 00ce 0D06     		lsls	r5, r1, #24
 1954 00d0 26D5     		bpl	.L334
 1955 00d2 94F83920 		ldrb	r2, [r4, #57]	@ zero_extendqisi2
 1956 00d6 212A     		cmp	r2, #33
 1957 00d8 F6D1     		bne	.L320
 1958 00da A168     		ldr	r1, [r4, #8]
 1959 00dc 226A     		ldr	r2, [r4, #32]
 1960 00de B1F5805F 		cmp	r1, #4096
 1961 00e2 18D1     		bne	.L335
 1962 00e4 1188     		ldrh	r1, [r2]
 1963 00e6 C1F30801 		ubfx	r1, r1, #0, #9
 1964 00ea 5960     		str	r1, [r3, #4]
 1965 00ec 2169     		ldr	r1, [r4, #16]
 1966 00ee 81B9     		cbnz	r1, .L336
ARM GAS  /tmp/cclLi5Tx.s 			page 34


 1967 00f0 0232     		adds	r2, r2, #2
 1968              	.L392:
 1969 00f2 2262     		str	r2, [r4, #32]
 1970              	.L337:
 1971 00f4 E28C     		ldrh	r2, [r4, #38]
 1972 00f6 013A     		subs	r2, r2, #1
 1973 00f8 92B2     		uxth	r2, r2
 1974 00fa E284     		strh	r2, [r4, #38]	@ movhi
 1975 00fc 002A     		cmp	r2, #0
 1976 00fe E3D1     		bne	.L320
 1977 0100 DA68     		ldr	r2, [r3, #12]
 1978 0102 22F08002 		bic	r2, r2, #128
 1979 0106 DA60     		str	r2, [r3, #12]
 1980 0108 DA68     		ldr	r2, [r3, #12]
 1981 010a 42F04002 		orr	r2, r2, #64
 1982 010e DA60     		str	r2, [r3, #12]
 1983 0110 DAE7     		b	.L320
 1984              	.L336:
 1985 0112 0132     		adds	r2, r2, #1
 1986 0114 EDE7     		b	.L392
 1987              	.L335:
 1988 0116 511C     		adds	r1, r2, #1
 1989 0118 2162     		str	r1, [r4, #32]
 1990 011a 1278     		ldrb	r2, [r2]	@ zero_extendqisi2
 1991 011c 5A60     		str	r2, [r3, #4]
 1992 011e E9E7     		b	.L337
 1993              	.L334:
 1994 0120 5006     		lsls	r0, r2, #25
 1995 0122 D1D5     		bpl	.L320
 1996 0124 4A06     		lsls	r2, r1, #25
 1997 0126 CFD5     		bpl	.L320
 1998 0128 DA68     		ldr	r2, [r3, #12]
 1999 012a 22F04002 		bic	r2, r2, #64
 2000 012e DA60     		str	r2, [r3, #12]
 2001 0130 2023     		movs	r3, #32
 2002 0132 84F83930 		strb	r3, [r4, #57]
 2003 0136 636C     		ldr	r3, [r4, #68]
 2004 0138 C0E7     		b	.L394
 2005              	.L396:
 2006 013a 00BF     		.align	2
 2007              	.L395:
 2008 013c 00000000 		.word	UART_DMAAbortOnError
 2010              		.section	.text.HAL_LIN_SendBreak,"ax",%progbits
 2011              		.align	1
 2012              		.global	HAL_LIN_SendBreak
 2013              		.syntax unified
 2014              		.thumb
 2015              		.thumb_func
 2016              		.fpu softvfp
 2018              	HAL_LIN_SendBreak:
 2019              		@ args = 0, pretend = 0, frame = 0
 2020              		@ frame_needed = 0, uses_anonymous_args = 0
 2021              		@ link register save eliminated.
 2022 0000 90F83830 		ldrb	r3, [r0, #56]	@ zero_extendqisi2
 2023 0004 012B     		cmp	r3, #1
 2024 0006 0FD0     		beq	.L399
 2025 0008 2423     		movs	r3, #36
ARM GAS  /tmp/cclLi5Tx.s 			page 35


 2026 000a 0268     		ldr	r2, [r0]
 2027 000c 80F83930 		strb	r3, [r0, #57]
 2028 0010 D368     		ldr	r3, [r2, #12]
 2029 0012 43F00103 		orr	r3, r3, #1
 2030 0016 D360     		str	r3, [r2, #12]
 2031 0018 2023     		movs	r3, #32
 2032 001a 80F83930 		strb	r3, [r0, #57]
 2033 001e 0023     		movs	r3, #0
 2034 0020 80F83830 		strb	r3, [r0, #56]
 2035 0024 1846     		mov	r0, r3
 2036 0026 7047     		bx	lr
 2037              	.L399:
 2038 0028 0220     		movs	r0, #2
 2039 002a 7047     		bx	lr
 2041              		.section	.text.HAL_MultiProcessor_EnterMuteMode,"ax",%progbits
 2042              		.align	1
 2043              		.global	HAL_MultiProcessor_EnterMuteMode
 2044              		.syntax unified
 2045              		.thumb
 2046              		.thumb_func
 2047              		.fpu softvfp
 2049              	HAL_MultiProcessor_EnterMuteMode:
 2050              		@ args = 0, pretend = 0, frame = 0
 2051              		@ frame_needed = 0, uses_anonymous_args = 0
 2052              		@ link register save eliminated.
 2053 0000 90F83830 		ldrb	r3, [r0, #56]	@ zero_extendqisi2
 2054 0004 012B     		cmp	r3, #1
 2055 0006 0FD0     		beq	.L402
 2056 0008 2423     		movs	r3, #36
 2057 000a 0268     		ldr	r2, [r0]
 2058 000c 80F83930 		strb	r3, [r0, #57]
 2059 0010 D368     		ldr	r3, [r2, #12]
 2060 0012 43F00203 		orr	r3, r3, #2
 2061 0016 D360     		str	r3, [r2, #12]
 2062 0018 2023     		movs	r3, #32
 2063 001a 80F83930 		strb	r3, [r0, #57]
 2064 001e 0023     		movs	r3, #0
 2065 0020 80F83830 		strb	r3, [r0, #56]
 2066 0024 1846     		mov	r0, r3
 2067 0026 7047     		bx	lr
 2068              	.L402:
 2069 0028 0220     		movs	r0, #2
 2070 002a 7047     		bx	lr
 2072              		.section	.text.HAL_MultiProcessor_ExitMuteMode,"ax",%progbits
 2073              		.align	1
 2074              		.global	HAL_MultiProcessor_ExitMuteMode
 2075              		.syntax unified
 2076              		.thumb
 2077              		.thumb_func
 2078              		.fpu softvfp
 2080              	HAL_MultiProcessor_ExitMuteMode:
 2081              		@ args = 0, pretend = 0, frame = 0
 2082              		@ frame_needed = 0, uses_anonymous_args = 0
 2083              		@ link register save eliminated.
 2084 0000 90F83830 		ldrb	r3, [r0, #56]	@ zero_extendqisi2
 2085 0004 012B     		cmp	r3, #1
 2086 0006 0FD0     		beq	.L405
ARM GAS  /tmp/cclLi5Tx.s 			page 36


 2087 0008 2423     		movs	r3, #36
 2088 000a 0268     		ldr	r2, [r0]
 2089 000c 80F83930 		strb	r3, [r0, #57]
 2090 0010 D368     		ldr	r3, [r2, #12]
 2091 0012 23F00203 		bic	r3, r3, #2
 2092 0016 D360     		str	r3, [r2, #12]
 2093 0018 2023     		movs	r3, #32
 2094 001a 80F83930 		strb	r3, [r0, #57]
 2095 001e 0023     		movs	r3, #0
 2096 0020 80F83830 		strb	r3, [r0, #56]
 2097 0024 1846     		mov	r0, r3
 2098 0026 7047     		bx	lr
 2099              	.L405:
 2100 0028 0220     		movs	r0, #2
 2101 002a 7047     		bx	lr
 2103              		.section	.text.HAL_HalfDuplex_EnableTransmitter,"ax",%progbits
 2104              		.align	1
 2105              		.global	HAL_HalfDuplex_EnableTransmitter
 2106              		.syntax unified
 2107              		.thumb
 2108              		.thumb_func
 2109              		.fpu softvfp
 2111              	HAL_HalfDuplex_EnableTransmitter:
 2112              		@ args = 0, pretend = 0, frame = 0
 2113              		@ frame_needed = 0, uses_anonymous_args = 0
 2114              		@ link register save eliminated.
 2115 0000 90F83830 		ldrb	r3, [r0, #56]	@ zero_extendqisi2
 2116 0004 012B     		cmp	r3, #1
 2117 0006 11D0     		beq	.L408
 2118 0008 2423     		movs	r3, #36
 2119 000a 0268     		ldr	r2, [r0]
 2120 000c 80F83930 		strb	r3, [r0, #57]
 2121 0010 D368     		ldr	r3, [r2, #12]
 2122 0012 23F00C03 		bic	r3, r3, #12
 2123 0016 43F00803 		orr	r3, r3, #8
 2124 001a D360     		str	r3, [r2, #12]
 2125 001c 2023     		movs	r3, #32
 2126 001e 80F83930 		strb	r3, [r0, #57]
 2127 0022 0023     		movs	r3, #0
 2128 0024 80F83830 		strb	r3, [r0, #56]
 2129 0028 1846     		mov	r0, r3
 2130 002a 7047     		bx	lr
 2131              	.L408:
 2132 002c 0220     		movs	r0, #2
 2133 002e 7047     		bx	lr
 2135              		.section	.text.HAL_HalfDuplex_EnableReceiver,"ax",%progbits
 2136              		.align	1
 2137              		.global	HAL_HalfDuplex_EnableReceiver
 2138              		.syntax unified
 2139              		.thumb
 2140              		.thumb_func
 2141              		.fpu softvfp
 2143              	HAL_HalfDuplex_EnableReceiver:
 2144              		@ args = 0, pretend = 0, frame = 0
 2145              		@ frame_needed = 0, uses_anonymous_args = 0
 2146              		@ link register save eliminated.
 2147 0000 90F83830 		ldrb	r3, [r0, #56]	@ zero_extendqisi2
ARM GAS  /tmp/cclLi5Tx.s 			page 37


 2148 0004 012B     		cmp	r3, #1
 2149 0006 11D0     		beq	.L411
 2150 0008 2423     		movs	r3, #36
 2151 000a 0268     		ldr	r2, [r0]
 2152 000c 80F83930 		strb	r3, [r0, #57]
 2153 0010 D368     		ldr	r3, [r2, #12]
 2154 0012 23F00C03 		bic	r3, r3, #12
 2155 0016 43F00403 		orr	r3, r3, #4
 2156 001a D360     		str	r3, [r2, #12]
 2157 001c 2023     		movs	r3, #32
 2158 001e 80F83930 		strb	r3, [r0, #57]
 2159 0022 0023     		movs	r3, #0
 2160 0024 80F83830 		strb	r3, [r0, #56]
 2161 0028 1846     		mov	r0, r3
 2162 002a 7047     		bx	lr
 2163              	.L411:
 2164 002c 0220     		movs	r0, #2
 2165 002e 7047     		bx	lr
 2167              		.section	.text.HAL_UART_GetState,"ax",%progbits
 2168              		.align	1
 2169              		.global	HAL_UART_GetState
 2170              		.syntax unified
 2171              		.thumb
 2172              		.thumb_func
 2173              		.fpu softvfp
 2175              	HAL_UART_GetState:
 2176              		@ args = 0, pretend = 0, frame = 0
 2177              		@ frame_needed = 0, uses_anonymous_args = 0
 2178              		@ link register save eliminated.
 2179 0000 90F83920 		ldrb	r2, [r0, #57]	@ zero_extendqisi2
 2180 0004 90F83A00 		ldrb	r0, [r0, #58]	@ zero_extendqisi2
 2181 0008 1043     		orrs	r0, r0, r2
 2182 000a 7047     		bx	lr
 2184              		.section	.text.HAL_UART_GetError,"ax",%progbits
 2185              		.align	1
 2186              		.global	HAL_UART_GetError
 2187              		.syntax unified
 2188              		.thumb
 2189              		.thumb_func
 2190              		.fpu softvfp
 2192              	HAL_UART_GetError:
 2193              		@ args = 0, pretend = 0, frame = 0
 2194              		@ frame_needed = 0, uses_anonymous_args = 0
 2195              		@ link register save eliminated.
 2196 0000 C06B     		ldr	r0, [r0, #60]
 2197 0002 7047     		bx	lr
 2199              		.section	.text.UART_InitCallbacksToDefault,"ax",%progbits
 2200              		.align	1
 2201              		.global	UART_InitCallbacksToDefault
 2202              		.syntax unified
 2203              		.thumb
 2204              		.thumb_func
 2205              		.fpu softvfp
 2207              	UART_InitCallbacksToDefault:
 2208              		@ args = 0, pretend = 0, frame = 0
 2209              		@ frame_needed = 0, uses_anonymous_args = 0
 2210              		@ link register save eliminated.
ARM GAS  /tmp/cclLi5Tx.s 			page 38


 2211 0000 084B     		ldr	r3, .L415
 2212 0002 0364     		str	r3, [r0, #64]
 2213 0004 084B     		ldr	r3, .L415+4
 2214 0006 4364     		str	r3, [r0, #68]
 2215 0008 084B     		ldr	r3, .L415+8
 2216 000a 8364     		str	r3, [r0, #72]
 2217 000c 084B     		ldr	r3, .L415+12
 2218 000e C364     		str	r3, [r0, #76]
 2219 0010 084B     		ldr	r3, .L415+16
 2220 0012 0365     		str	r3, [r0, #80]
 2221 0014 084B     		ldr	r3, .L415+20
 2222 0016 4365     		str	r3, [r0, #84]
 2223 0018 084B     		ldr	r3, .L415+24
 2224 001a 8365     		str	r3, [r0, #88]
 2225 001c 084B     		ldr	r3, .L415+28
 2226 001e C365     		str	r3, [r0, #92]
 2227 0020 7047     		bx	lr
 2228              	.L416:
 2229 0022 00BF     		.align	2
 2230              	.L415:
 2231 0024 00000000 		.word	HAL_UART_TxHalfCpltCallback
 2232 0028 00000000 		.word	HAL_UART_TxCpltCallback
 2233 002c 00000000 		.word	HAL_UART_RxHalfCpltCallback
 2234 0030 00000000 		.word	HAL_UART_RxCpltCallback
 2235 0034 00000000 		.word	HAL_UART_ErrorCallback
 2236 0038 00000000 		.word	HAL_UART_AbortCpltCallback
 2237 003c 00000000 		.word	HAL_UART_AbortTransmitCpltCallback
 2238 0040 00000000 		.word	HAL_UART_AbortReceiveCpltCallback
 2240              		.section	.text.HAL_UART_Init,"ax",%progbits
 2241              		.align	1
 2242              		.global	HAL_UART_Init
 2243              		.syntax unified
 2244              		.thumb
 2245              		.thumb_func
 2246              		.fpu softvfp
 2248              	HAL_UART_Init:
 2249              		@ args = 0, pretend = 0, frame = 0
 2250              		@ frame_needed = 0, uses_anonymous_args = 0
 2251 0000 10B5     		push	{r4, lr}
 2252 0002 0446     		mov	r4, r0
 2253 0004 78B3     		cbz	r0, .L421
 2254 0006 90F83930 		ldrb	r3, [r0, #57]	@ zero_extendqisi2
 2255 000a 03F0FF02 		and	r2, r3, #255
 2256 000e 53B9     		cbnz	r3, .L419
 2257 0010 80F83820 		strb	r2, [r0, #56]
 2258 0014 FFF7FEFF 		bl	UART_InitCallbacksToDefault
 2259 0018 436E     		ldr	r3, [r0, #100]
 2260 001a 0BB9     		cbnz	r3, .L420
 2261 001c 134B     		ldr	r3, .L422
 2262 001e 4366     		str	r3, [r0, #100]
 2263              	.L420:
 2264 0020 2046     		mov	r0, r4
 2265 0022 636E     		ldr	r3, [r4, #100]
 2266 0024 9847     		blx	r3
 2267              	.L419:
 2268 0026 2423     		movs	r3, #36
 2269 0028 2268     		ldr	r2, [r4]
ARM GAS  /tmp/cclLi5Tx.s 			page 39


 2270 002a 84F83930 		strb	r3, [r4, #57]
 2271 002e D368     		ldr	r3, [r2, #12]
 2272 0030 2046     		mov	r0, r4
 2273 0032 23F40053 		bic	r3, r3, #8192
 2274 0036 D360     		str	r3, [r2, #12]
 2275 0038 FFF7FEFF 		bl	UART_SetConfig
 2276 003c 2368     		ldr	r3, [r4]
 2277 003e 0020     		movs	r0, #0
 2278 0040 1A69     		ldr	r2, [r3, #16]
 2279 0042 22F49042 		bic	r2, r2, #18432
 2280 0046 1A61     		str	r2, [r3, #16]
 2281 0048 5A69     		ldr	r2, [r3, #20]
 2282 004a 22F02A02 		bic	r2, r2, #42
 2283 004e 5A61     		str	r2, [r3, #20]
 2284 0050 DA68     		ldr	r2, [r3, #12]
 2285 0052 42F40052 		orr	r2, r2, #8192
 2286 0056 DA60     		str	r2, [r3, #12]
 2287 0058 2023     		movs	r3, #32
 2288 005a E063     		str	r0, [r4, #60]
 2289 005c 84F83930 		strb	r3, [r4, #57]
 2290 0060 84F83A30 		strb	r3, [r4, #58]
 2291              	.L418:
 2292 0064 10BD     		pop	{r4, pc}
 2293              	.L421:
 2294 0066 0120     		movs	r0, #1
 2295 0068 FCE7     		b	.L418
 2296              	.L423:
 2297 006a 00BF     		.align	2
 2298              	.L422:
 2299 006c 00000000 		.word	HAL_UART_MspInit
 2301              		.section	.text.HAL_HalfDuplex_Init,"ax",%progbits
 2302              		.align	1
 2303              		.global	HAL_HalfDuplex_Init
 2304              		.syntax unified
 2305              		.thumb
 2306              		.thumb_func
 2307              		.fpu softvfp
 2309              	HAL_HalfDuplex_Init:
 2310              		@ args = 0, pretend = 0, frame = 0
 2311              		@ frame_needed = 0, uses_anonymous_args = 0
 2312 0000 10B5     		push	{r4, lr}
 2313 0002 0446     		mov	r4, r0
 2314 0004 0028     		cmp	r0, #0
 2315 0006 33D0     		beq	.L428
 2316 0008 90F83930 		ldrb	r3, [r0, #57]	@ zero_extendqisi2
 2317 000c 03F0FF02 		and	r2, r3, #255
 2318 0010 53B9     		cbnz	r3, .L426
 2319 0012 80F83820 		strb	r2, [r0, #56]
 2320 0016 FFF7FEFF 		bl	UART_InitCallbacksToDefault
 2321 001a 436E     		ldr	r3, [r0, #100]
 2322 001c 0BB9     		cbnz	r3, .L427
 2323 001e 154B     		ldr	r3, .L429
 2324 0020 4366     		str	r3, [r0, #100]
 2325              	.L427:
 2326 0022 2046     		mov	r0, r4
 2327 0024 636E     		ldr	r3, [r4, #100]
 2328 0026 9847     		blx	r3
ARM GAS  /tmp/cclLi5Tx.s 			page 40


 2329              	.L426:
 2330 0028 2423     		movs	r3, #36
 2331 002a 2268     		ldr	r2, [r4]
 2332 002c 84F83930 		strb	r3, [r4, #57]
 2333 0030 D368     		ldr	r3, [r2, #12]
 2334 0032 2046     		mov	r0, r4
 2335 0034 23F40053 		bic	r3, r3, #8192
 2336 0038 D360     		str	r3, [r2, #12]
 2337 003a FFF7FEFF 		bl	UART_SetConfig
 2338 003e 2368     		ldr	r3, [r4]
 2339 0040 0020     		movs	r0, #0
 2340 0042 1A69     		ldr	r2, [r3, #16]
 2341 0044 22F49042 		bic	r2, r2, #18432
 2342 0048 1A61     		str	r2, [r3, #16]
 2343 004a 5A69     		ldr	r2, [r3, #20]
 2344 004c 22F02202 		bic	r2, r2, #34
 2345 0050 5A61     		str	r2, [r3, #20]
 2346 0052 5A69     		ldr	r2, [r3, #20]
 2347 0054 42F00802 		orr	r2, r2, #8
 2348 0058 5A61     		str	r2, [r3, #20]
 2349 005a DA68     		ldr	r2, [r3, #12]
 2350 005c 42F40052 		orr	r2, r2, #8192
 2351 0060 DA60     		str	r2, [r3, #12]
 2352 0062 2023     		movs	r3, #32
 2353 0064 E063     		str	r0, [r4, #60]
 2354 0066 84F83930 		strb	r3, [r4, #57]
 2355 006a 84F83A30 		strb	r3, [r4, #58]
 2356              	.L425:
 2357 006e 10BD     		pop	{r4, pc}
 2358              	.L428:
 2359 0070 0120     		movs	r0, #1
 2360 0072 FCE7     		b	.L425
 2361              	.L430:
 2362              		.align	2
 2363              	.L429:
 2364 0074 00000000 		.word	HAL_UART_MspInit
 2366              		.section	.text.HAL_LIN_Init,"ax",%progbits
 2367              		.align	1
 2368              		.global	HAL_LIN_Init
 2369              		.syntax unified
 2370              		.thumb
 2371              		.thumb_func
 2372              		.fpu softvfp
 2374              	HAL_LIN_Init:
 2375              		@ args = 0, pretend = 0, frame = 0
 2376              		@ frame_needed = 0, uses_anonymous_args = 0
 2377 0000 38B5     		push	{r3, r4, r5, lr}
 2378 0002 0D46     		mov	r5, r1
 2379 0004 0446     		mov	r4, r0
 2380 0006 0028     		cmp	r0, #0
 2381 0008 3AD0     		beq	.L435
 2382 000a 90F83930 		ldrb	r3, [r0, #57]	@ zero_extendqisi2
 2383 000e 03F0FF02 		and	r2, r3, #255
 2384 0012 53B9     		cbnz	r3, .L433
 2385 0014 80F83820 		strb	r2, [r0, #56]
 2386 0018 FFF7FEFF 		bl	UART_InitCallbacksToDefault
 2387 001c 436E     		ldr	r3, [r0, #100]
ARM GAS  /tmp/cclLi5Tx.s 			page 41


 2388 001e 0BB9     		cbnz	r3, .L434
 2389 0020 184B     		ldr	r3, .L436
 2390 0022 4366     		str	r3, [r0, #100]
 2391              	.L434:
 2392 0024 2046     		mov	r0, r4
 2393 0026 636E     		ldr	r3, [r4, #100]
 2394 0028 9847     		blx	r3
 2395              	.L433:
 2396 002a 2423     		movs	r3, #36
 2397 002c 2268     		ldr	r2, [r4]
 2398 002e 84F83930 		strb	r3, [r4, #57]
 2399 0032 D368     		ldr	r3, [r2, #12]
 2400 0034 2046     		mov	r0, r4
 2401 0036 23F40053 		bic	r3, r3, #8192
 2402 003a D360     		str	r3, [r2, #12]
 2403 003c FFF7FEFF 		bl	UART_SetConfig
 2404 0040 2368     		ldr	r3, [r4]
 2405 0042 0020     		movs	r0, #0
 2406 0044 1A69     		ldr	r2, [r3, #16]
 2407 0046 22F40062 		bic	r2, r2, #2048
 2408 004a 1A61     		str	r2, [r3, #16]
 2409 004c 5A69     		ldr	r2, [r3, #20]
 2410 004e 22F02A02 		bic	r2, r2, #42
 2411 0052 5A61     		str	r2, [r3, #20]
 2412 0054 1A69     		ldr	r2, [r3, #16]
 2413 0056 42F48042 		orr	r2, r2, #16384
 2414 005a 1A61     		str	r2, [r3, #16]
 2415 005c 1A69     		ldr	r2, [r3, #16]
 2416 005e 22F02002 		bic	r2, r2, #32
 2417 0062 1A61     		str	r2, [r3, #16]
 2418 0064 1A69     		ldr	r2, [r3, #16]
 2419 0066 2A43     		orrs	r2, r2, r5
 2420 0068 1A61     		str	r2, [r3, #16]
 2421 006a DA68     		ldr	r2, [r3, #12]
 2422 006c 42F40052 		orr	r2, r2, #8192
 2423 0070 DA60     		str	r2, [r3, #12]
 2424 0072 2023     		movs	r3, #32
 2425 0074 E063     		str	r0, [r4, #60]
 2426 0076 84F83930 		strb	r3, [r4, #57]
 2427 007a 84F83A30 		strb	r3, [r4, #58]
 2428              	.L432:
 2429 007e 38BD     		pop	{r3, r4, r5, pc}
 2430              	.L435:
 2431 0080 0120     		movs	r0, #1
 2432 0082 FCE7     		b	.L432
 2433              	.L437:
 2434              		.align	2
 2435              	.L436:
 2436 0084 00000000 		.word	HAL_UART_MspInit
 2438              		.section	.text.HAL_MultiProcessor_Init,"ax",%progbits
 2439              		.align	1
 2440              		.global	HAL_MultiProcessor_Init
 2441              		.syntax unified
 2442              		.thumb
 2443              		.thumb_func
 2444              		.fpu softvfp
 2446              	HAL_MultiProcessor_Init:
ARM GAS  /tmp/cclLi5Tx.s 			page 42


 2447              		@ args = 0, pretend = 0, frame = 0
 2448              		@ frame_needed = 0, uses_anonymous_args = 0
 2449 0000 70B5     		push	{r4, r5, r6, lr}
 2450 0002 0D46     		mov	r5, r1
 2451 0004 1646     		mov	r6, r2
 2452 0006 0446     		mov	r4, r0
 2453 0008 0028     		cmp	r0, #0
 2454 000a 3DD0     		beq	.L442
 2455 000c 90F83930 		ldrb	r3, [r0, #57]	@ zero_extendqisi2
 2456 0010 03F0FF02 		and	r2, r3, #255
 2457 0014 53B9     		cbnz	r3, .L440
 2458 0016 80F83820 		strb	r2, [r0, #56]
 2459 001a FFF7FEFF 		bl	UART_InitCallbacksToDefault
 2460 001e 436E     		ldr	r3, [r0, #100]
 2461 0020 0BB9     		cbnz	r3, .L441
 2462 0022 1A4B     		ldr	r3, .L443
 2463 0024 4366     		str	r3, [r0, #100]
 2464              	.L441:
 2465 0026 2046     		mov	r0, r4
 2466 0028 636E     		ldr	r3, [r4, #100]
 2467 002a 9847     		blx	r3
 2468              	.L440:
 2469 002c 2423     		movs	r3, #36
 2470 002e 2268     		ldr	r2, [r4]
 2471 0030 84F83930 		strb	r3, [r4, #57]
 2472 0034 D368     		ldr	r3, [r2, #12]
 2473 0036 2046     		mov	r0, r4
 2474 0038 23F40053 		bic	r3, r3, #8192
 2475 003c D360     		str	r3, [r2, #12]
 2476 003e FFF7FEFF 		bl	UART_SetConfig
 2477 0042 2368     		ldr	r3, [r4]
 2478 0044 0020     		movs	r0, #0
 2479 0046 1A69     		ldr	r2, [r3, #16]
 2480 0048 22F49042 		bic	r2, r2, #18432
 2481 004c 1A61     		str	r2, [r3, #16]
 2482 004e 5A69     		ldr	r2, [r3, #20]
 2483 0050 22F02A02 		bic	r2, r2, #42
 2484 0054 5A61     		str	r2, [r3, #20]
 2485 0056 1A69     		ldr	r2, [r3, #16]
 2486 0058 22F00F02 		bic	r2, r2, #15
 2487 005c 1A61     		str	r2, [r3, #16]
 2488 005e 1969     		ldr	r1, [r3, #16]
 2489 0060 0D43     		orrs	r5, r5, r1
 2490 0062 1D61     		str	r5, [r3, #16]
 2491 0064 D968     		ldr	r1, [r3, #12]
 2492 0066 21F40061 		bic	r1, r1, #2048
 2493 006a D960     		str	r1, [r3, #12]
 2494 006c D968     		ldr	r1, [r3, #12]
 2495 006e 3143     		orrs	r1, r1, r6
 2496 0070 D960     		str	r1, [r3, #12]
 2497 0072 DA68     		ldr	r2, [r3, #12]
 2498 0074 42F40052 		orr	r2, r2, #8192
 2499 0078 DA60     		str	r2, [r3, #12]
 2500 007a 2023     		movs	r3, #32
 2501 007c E063     		str	r0, [r4, #60]
 2502 007e 84F83930 		strb	r3, [r4, #57]
 2503 0082 84F83A30 		strb	r3, [r4, #58]
ARM GAS  /tmp/cclLi5Tx.s 			page 43


 2504              	.L439:
 2505 0086 70BD     		pop	{r4, r5, r6, pc}
 2506              	.L442:
 2507 0088 0120     		movs	r0, #1
 2508 008a FCE7     		b	.L439
 2509              	.L444:
 2510              		.align	2
 2511              	.L443:
 2512 008c 00000000 		.word	HAL_UART_MspInit
 2514              		.ident	"GCC: (GNU Tools for Arm Embedded Processors 9-2019-q4-major) 9.2.1 20191025 (release) [ARM
ARM GAS  /tmp/cclLi5Tx.s 			page 44


DEFINED SYMBOLS
                            *ABS*:0000000000000000 stm32f1xx_hal_uart.c
     /tmp/cclLi5Tx.s:14     .text.HAL_UART_MspInit:0000000000000000 $t
     /tmp/cclLi5Tx.s:22     .text.HAL_UART_MspInit:0000000000000000 HAL_UART_MspInit
     /tmp/cclLi5Tx.s:29     .text.UART_DMATransmitCplt:0000000000000000 $t
     /tmp/cclLi5Tx.s:35     .text.UART_DMATransmitCplt:0000000000000000 UART_DMATransmitCplt
     /tmp/cclLi5Tx.s:59     .text.UART_DMATxHalfCplt:0000000000000000 $t
     /tmp/cclLi5Tx.s:65     .text.UART_DMATxHalfCplt:0000000000000000 UART_DMATxHalfCplt
     /tmp/cclLi5Tx.s:74     .text.UART_DMAReceiveCplt:0000000000000000 $t
     /tmp/cclLi5Tx.s:80     .text.UART_DMAReceiveCplt:0000000000000000 UART_DMAReceiveCplt
     /tmp/cclLi5Tx.s:108    .text.UART_DMARxHalfCplt:0000000000000000 $t
     /tmp/cclLi5Tx.s:114    .text.UART_DMARxHalfCplt:0000000000000000 UART_DMARxHalfCplt
     /tmp/cclLi5Tx.s:123    .text.UART_EndRxTransfer:0000000000000000 $t
     /tmp/cclLi5Tx.s:129    .text.UART_EndRxTransfer:0000000000000000 UART_EndRxTransfer
     /tmp/cclLi5Tx.s:145    .text.UART_DMAError:0000000000000000 $t
     /tmp/cclLi5Tx.s:151    .text.UART_DMAError:0000000000000000 UART_DMAError
     /tmp/cclLi5Tx.s:189    .text.UART_DMAAbortOnError:0000000000000000 $t
     /tmp/cclLi5Tx.s:195    .text.UART_DMAAbortOnError:0000000000000000 UART_DMAAbortOnError
     /tmp/cclLi5Tx.s:207    .text.UART_DMATxAbortCallback:0000000000000000 $t
     /tmp/cclLi5Tx.s:213    .text.UART_DMATxAbortCallback:0000000000000000 UART_DMATxAbortCallback
     /tmp/cclLi5Tx.s:238    .text.UART_DMARxAbortCallback:0000000000000000 $t
     /tmp/cclLi5Tx.s:244    .text.UART_DMARxAbortCallback:0000000000000000 UART_DMARxAbortCallback
     /tmp/cclLi5Tx.s:269    .text.UART_DMATxOnlyAbortCallback:0000000000000000 $t
     /tmp/cclLi5Tx.s:275    .text.UART_DMATxOnlyAbortCallback:0000000000000000 UART_DMATxOnlyAbortCallback
     /tmp/cclLi5Tx.s:288    .text.UART_DMARxOnlyAbortCallback:0000000000000000 $t
     /tmp/cclLi5Tx.s:294    .text.UART_DMARxOnlyAbortCallback:0000000000000000 UART_DMARxOnlyAbortCallback
     /tmp/cclLi5Tx.s:307    .text.UART_SetConfig:0000000000000000 $t
     /tmp/cclLi5Tx.s:313    .text.UART_SetConfig:0000000000000000 UART_SetConfig
     /tmp/cclLi5Tx.s:365    .text.UART_SetConfig:0000000000000070 $d
     /tmp/cclLi5Tx.s:368    .text.UART_Receive_IT:0000000000000000 $t
     /tmp/cclLi5Tx.s:374    .text.UART_Receive_IT:0000000000000000 UART_Receive_IT
     /tmp/cclLi5Tx.s:437    .text.UART_WaitOnFlagUntilTimeout.constprop.0:0000000000000000 $t
     /tmp/cclLi5Tx.s:443    .text.UART_WaitOnFlagUntilTimeout.constprop.0:0000000000000000 UART_WaitOnFlagUntilTimeout.constprop.0
     /tmp/cclLi5Tx.s:487    .text.HAL_UART_AbortReceiveCpltCallback:0000000000000000 $t
     /tmp/cclLi5Tx.s:494    .text.HAL_UART_AbortReceiveCpltCallback:0000000000000000 HAL_UART_AbortReceiveCpltCallback
     /tmp/cclLi5Tx.s:501    .text.HAL_UART_MspDeInit:0000000000000000 $t
     /tmp/cclLi5Tx.s:508    .text.HAL_UART_MspDeInit:0000000000000000 HAL_UART_MspDeInit
     /tmp/cclLi5Tx.s:515    .text.HAL_UART_TxCpltCallback:0000000000000000 $t
     /tmp/cclLi5Tx.s:522    .text.HAL_UART_TxCpltCallback:0000000000000000 HAL_UART_TxCpltCallback
     /tmp/cclLi5Tx.s:529    .text.HAL_UART_TxHalfCpltCallback:0000000000000000 $t
     /tmp/cclLi5Tx.s:536    .text.HAL_UART_TxHalfCpltCallback:0000000000000000 HAL_UART_TxHalfCpltCallback
     /tmp/cclLi5Tx.s:543    .text.HAL_UART_RxCpltCallback:0000000000000000 $t
     /tmp/cclLi5Tx.s:550    .text.HAL_UART_RxCpltCallback:0000000000000000 HAL_UART_RxCpltCallback
     /tmp/cclLi5Tx.s:557    .text.HAL_UART_RxHalfCpltCallback:0000000000000000 $t
     /tmp/cclLi5Tx.s:564    .text.HAL_UART_RxHalfCpltCallback:0000000000000000 HAL_UART_RxHalfCpltCallback
     /tmp/cclLi5Tx.s:571    .text.HAL_UART_ErrorCallback:0000000000000000 $t
     /tmp/cclLi5Tx.s:578    .text.HAL_UART_ErrorCallback:0000000000000000 HAL_UART_ErrorCallback
     /tmp/cclLi5Tx.s:585    .text.HAL_UART_AbortCpltCallback:0000000000000000 $t
     /tmp/cclLi5Tx.s:592    .text.HAL_UART_AbortCpltCallback:0000000000000000 HAL_UART_AbortCpltCallback
     /tmp/cclLi5Tx.s:599    .text.HAL_UART_AbortTransmitCpltCallback:0000000000000000 $t
     /tmp/cclLi5Tx.s:606    .text.HAL_UART_AbortTransmitCpltCallback:0000000000000000 HAL_UART_AbortTransmitCpltCallback
     /tmp/cclLi5Tx.s:613    .text.HAL_UART_DeInit:0000000000000000 $t
     /tmp/cclLi5Tx.s:620    .text.HAL_UART_DeInit:0000000000000000 HAL_UART_DeInit
     /tmp/cclLi5Tx.s:653    .text.HAL_UART_DeInit:000000000000003c $d
     /tmp/cclLi5Tx.s:656    .text.HAL_UART_RegisterCallback:0000000000000000 $t
     /tmp/cclLi5Tx.s:663    .text.HAL_UART_RegisterCallback:0000000000000000 HAL_UART_RegisterCallback
     /tmp/cclLi5Tx.s:687    .text.HAL_UART_RegisterCallback:000000000000002e $d
ARM GAS  /tmp/cclLi5Tx.s 			page 45


     /tmp/cclLi5Tx.s:766    .text.HAL_UART_UnRegisterCallback:0000000000000000 $t
     /tmp/cclLi5Tx.s:773    .text.HAL_UART_UnRegisterCallback:0000000000000000 HAL_UART_UnRegisterCallback
     /tmp/cclLi5Tx.s:789    .text.HAL_UART_UnRegisterCallback:000000000000001e $d
     /tmp/cclLi5Tx.s:879    .text.HAL_UART_UnRegisterCallback:00000000000000a8 $d
     /tmp/cclLi5Tx.s:891    .text.HAL_UART_Transmit:0000000000000000 $t
     /tmp/cclLi5Tx.s:898    .text.HAL_UART_Transmit:0000000000000000 HAL_UART_Transmit
     /tmp/cclLi5Tx.s:986    .text.HAL_UART_Receive:0000000000000000 $t
     /tmp/cclLi5Tx.s:993    .text.HAL_UART_Receive:0000000000000000 HAL_UART_Receive
     /tmp/cclLi5Tx.s:1086   .text.HAL_UART_Transmit_IT:0000000000000000 $t
     /tmp/cclLi5Tx.s:1093   .text.HAL_UART_Transmit_IT:0000000000000000 HAL_UART_Transmit_IT
     /tmp/cclLi5Tx.s:1127   .text.HAL_UART_Receive_IT:0000000000000000 $t
     /tmp/cclLi5Tx.s:1134   .text.HAL_UART_Receive_IT:0000000000000000 HAL_UART_Receive_IT
     /tmp/cclLi5Tx.s:1174   .text.HAL_UART_Transmit_DMA:0000000000000000 $t
     /tmp/cclLi5Tx.s:1181   .text.HAL_UART_Transmit_DMA:0000000000000000 HAL_UART_Transmit_DMA
     /tmp/cclLi5Tx.s:1233   .text.HAL_UART_Transmit_DMA:0000000000000068 $d
     /tmp/cclLi5Tx.s:1238   .text.HAL_UART_Receive_DMA:0000000000000000 $t
     /tmp/cclLi5Tx.s:1245   .text.HAL_UART_Receive_DMA:0000000000000000 HAL_UART_Receive_DMA
     /tmp/cclLi5Tx.s:1311   .text.HAL_UART_Receive_DMA:0000000000000084 $d
     /tmp/cclLi5Tx.s:1316   .text.HAL_UART_DMAPause:0000000000000000 $t
     /tmp/cclLi5Tx.s:1323   .text.HAL_UART_DMAPause:0000000000000000 HAL_UART_DMAPause
     /tmp/cclLi5Tx.s:1368   .text.HAL_UART_DMAResume:0000000000000000 $t
     /tmp/cclLi5Tx.s:1375   .text.HAL_UART_DMAResume:0000000000000000 HAL_UART_DMAResume
     /tmp/cclLi5Tx.s:1425   .text.HAL_UART_DMAStop:0000000000000000 $t
     /tmp/cclLi5Tx.s:1432   .text.HAL_UART_DMAStop:0000000000000000 HAL_UART_DMAStop
     /tmp/cclLi5Tx.s:1479   .text.HAL_UART_Abort:0000000000000000 $t
     /tmp/cclLi5Tx.s:1486   .text.HAL_UART_Abort:0000000000000000 HAL_UART_Abort
     /tmp/cclLi5Tx.s:1549   .text.HAL_UART_AbortTransmit:0000000000000000 $t
     /tmp/cclLi5Tx.s:1556   .text.HAL_UART_AbortTransmit:0000000000000000 HAL_UART_AbortTransmit
     /tmp/cclLi5Tx.s:1594   .text.HAL_UART_AbortReceive:0000000000000000 $t
     /tmp/cclLi5Tx.s:1601   .text.HAL_UART_AbortReceive:0000000000000000 HAL_UART_AbortReceive
     /tmp/cclLi5Tx.s:1642   .text.HAL_UART_Abort_IT:0000000000000000 $t
     /tmp/cclLi5Tx.s:1649   .text.HAL_UART_Abort_IT:0000000000000000 HAL_UART_Abort_IT
     /tmp/cclLi5Tx.s:1732   .text.HAL_UART_Abort_IT:00000000000000a0 $d
     /tmp/cclLi5Tx.s:1736   .text.HAL_UART_AbortTransmit_IT:0000000000000000 $t
     /tmp/cclLi5Tx.s:1743   .text.HAL_UART_AbortTransmit_IT:0000000000000000 HAL_UART_AbortTransmit_IT
     /tmp/cclLi5Tx.s:1785   .text.HAL_UART_AbortTransmit_IT:0000000000000048 $d
     /tmp/cclLi5Tx.s:1788   .text.HAL_UART_AbortReceive_IT:0000000000000000 $t
     /tmp/cclLi5Tx.s:1795   .text.HAL_UART_AbortReceive_IT:0000000000000000 HAL_UART_AbortReceive_IT
     /tmp/cclLi5Tx.s:1840   .text.HAL_UART_AbortReceive_IT:0000000000000050 $d
     /tmp/cclLi5Tx.s:1843   .text.HAL_UART_IRQHandler:0000000000000000 $t
     /tmp/cclLi5Tx.s:1850   .text.HAL_UART_IRQHandler:0000000000000000 HAL_UART_IRQHandler
     /tmp/cclLi5Tx.s:2008   .text.HAL_UART_IRQHandler:000000000000013c $d
     /tmp/cclLi5Tx.s:2011   .text.HAL_LIN_SendBreak:0000000000000000 $t
     /tmp/cclLi5Tx.s:2018   .text.HAL_LIN_SendBreak:0000000000000000 HAL_LIN_SendBreak
     /tmp/cclLi5Tx.s:2042   .text.HAL_MultiProcessor_EnterMuteMode:0000000000000000 $t
     /tmp/cclLi5Tx.s:2049   .text.HAL_MultiProcessor_EnterMuteMode:0000000000000000 HAL_MultiProcessor_EnterMuteMode
     /tmp/cclLi5Tx.s:2073   .text.HAL_MultiProcessor_ExitMuteMode:0000000000000000 $t
     /tmp/cclLi5Tx.s:2080   .text.HAL_MultiProcessor_ExitMuteMode:0000000000000000 HAL_MultiProcessor_ExitMuteMode
     /tmp/cclLi5Tx.s:2104   .text.HAL_HalfDuplex_EnableTransmitter:0000000000000000 $t
     /tmp/cclLi5Tx.s:2111   .text.HAL_HalfDuplex_EnableTransmitter:0000000000000000 HAL_HalfDuplex_EnableTransmitter
     /tmp/cclLi5Tx.s:2136   .text.HAL_HalfDuplex_EnableReceiver:0000000000000000 $t
     /tmp/cclLi5Tx.s:2143   .text.HAL_HalfDuplex_EnableReceiver:0000000000000000 HAL_HalfDuplex_EnableReceiver
     /tmp/cclLi5Tx.s:2168   .text.HAL_UART_GetState:0000000000000000 $t
     /tmp/cclLi5Tx.s:2175   .text.HAL_UART_GetState:0000000000000000 HAL_UART_GetState
     /tmp/cclLi5Tx.s:2185   .text.HAL_UART_GetError:0000000000000000 $t
     /tmp/cclLi5Tx.s:2192   .text.HAL_UART_GetError:0000000000000000 HAL_UART_GetError
     /tmp/cclLi5Tx.s:2200   .text.UART_InitCallbacksToDefault:0000000000000000 $t
ARM GAS  /tmp/cclLi5Tx.s 			page 46


     /tmp/cclLi5Tx.s:2207   .text.UART_InitCallbacksToDefault:0000000000000000 UART_InitCallbacksToDefault
     /tmp/cclLi5Tx.s:2231   .text.UART_InitCallbacksToDefault:0000000000000024 $d
     /tmp/cclLi5Tx.s:2241   .text.HAL_UART_Init:0000000000000000 $t
     /tmp/cclLi5Tx.s:2248   .text.HAL_UART_Init:0000000000000000 HAL_UART_Init
     /tmp/cclLi5Tx.s:2299   .text.HAL_UART_Init:000000000000006c $d
     /tmp/cclLi5Tx.s:2302   .text.HAL_HalfDuplex_Init:0000000000000000 $t
     /tmp/cclLi5Tx.s:2309   .text.HAL_HalfDuplex_Init:0000000000000000 HAL_HalfDuplex_Init
     /tmp/cclLi5Tx.s:2364   .text.HAL_HalfDuplex_Init:0000000000000074 $d
     /tmp/cclLi5Tx.s:2367   .text.HAL_LIN_Init:0000000000000000 $t
     /tmp/cclLi5Tx.s:2374   .text.HAL_LIN_Init:0000000000000000 HAL_LIN_Init
     /tmp/cclLi5Tx.s:2436   .text.HAL_LIN_Init:0000000000000084 $d
     /tmp/cclLi5Tx.s:2439   .text.HAL_MultiProcessor_Init:0000000000000000 $t
     /tmp/cclLi5Tx.s:2446   .text.HAL_MultiProcessor_Init:0000000000000000 HAL_MultiProcessor_Init
     /tmp/cclLi5Tx.s:2512   .text.HAL_MultiProcessor_Init:000000000000008c $d
     /tmp/cclLi5Tx.s:700    .text.HAL_UART_RegisterCallback:000000000000003b $d
     /tmp/cclLi5Tx.s:700    .text.HAL_UART_RegisterCallback:000000000000003c $t
     /tmp/cclLi5Tx.s:802    .text.HAL_UART_UnRegisterCallback:000000000000002b $d
     /tmp/cclLi5Tx.s:802    .text.HAL_UART_UnRegisterCallback:000000000000002c $t

UNDEFINED SYMBOLS
HAL_RCC_GetPCLK2Freq
HAL_RCC_GetPCLK1Freq
HAL_GetTick
HAL_DMA_Start_IT
HAL_DMA_Abort
HAL_DMA_GetError
HAL_DMA_Abort_IT
