ARM GAS  /tmp/cctwxent.s 			page 1


   1              		.syntax unified
   2              		.cpu cortex-m3
   3              		.fpu softvfp
   4              		.eabi_attribute 20, 1
   5              		.eabi_attribute 21, 1
   6              		.eabi_attribute 23, 3
   7              		.eabi_attribute 24, 1
   8              		.eabi_attribute 25, 1
   9              		.eabi_attribute 26, 1
  10              		.eabi_attribute 30, 4
  11              		.eabi_attribute 34, 1
  12              		.eabi_attribute 18, 4
  13              		.thumb
  14              		.file	"stm32f1xx_hal_i2c.c"
  15              		.section	.text.HAL_I2C_MspInit,"ax",%progbits
  16              		.align	1
  17              		.weak	HAL_I2C_MspInit
  18              		.thumb
  19              		.thumb_func
  21              	HAL_I2C_MspInit:
  22              		@ args = 0, pretend = 0, frame = 0
  23              		@ frame_needed = 0, uses_anonymous_args = 0
  24              		@ link register save eliminated.
  25 0000 7047     		bx	lr
  27              		.section	.text.HAL_I2C_MspDeInit,"ax",%progbits
  28              		.align	1
  29              		.weak	HAL_I2C_MspDeInit
  30              		.thumb
  31              		.thumb_func
  33              	HAL_I2C_MspDeInit:
  34              		@ args = 0, pretend = 0, frame = 0
  35              		@ frame_needed = 0, uses_anonymous_args = 0
  36              		@ link register save eliminated.
  37 0000 7047     		bx	lr
  39              		.section	.text.HAL_I2C_MasterTxCpltCallback,"ax",%progbits
  40              		.align	1
  41              		.weak	HAL_I2C_MasterTxCpltCallback
  42              		.thumb
  43              		.thumb_func
  45              	HAL_I2C_MasterTxCpltCallback:
  46              		@ args = 0, pretend = 0, frame = 0
  47              		@ frame_needed = 0, uses_anonymous_args = 0
  48              		@ link register save eliminated.
  49 0000 7047     		bx	lr
  51              		.section	.text.HAL_I2C_MasterRxCpltCallback,"ax",%progbits
  52              		.align	1
  53              		.weak	HAL_I2C_MasterRxCpltCallback
  54              		.thumb
  55              		.thumb_func
  57              	HAL_I2C_MasterRxCpltCallback:
  58              		@ args = 0, pretend = 0, frame = 0
  59              		@ frame_needed = 0, uses_anonymous_args = 0
  60              		@ link register save eliminated.
  61 0000 7047     		bx	lr
  63              		.section	.text.HAL_I2C_SlaveTxCpltCallback,"ax",%progbits
  64              		.align	1
  65              		.weak	HAL_I2C_SlaveTxCpltCallback
ARM GAS  /tmp/cctwxent.s 			page 2


  66              		.thumb
  67              		.thumb_func
  69              	HAL_I2C_SlaveTxCpltCallback:
  70              		@ args = 0, pretend = 0, frame = 0
  71              		@ frame_needed = 0, uses_anonymous_args = 0
  72              		@ link register save eliminated.
  73 0000 7047     		bx	lr
  75              		.section	.text.HAL_I2C_SlaveRxCpltCallback,"ax",%progbits
  76              		.align	1
  77              		.weak	HAL_I2C_SlaveRxCpltCallback
  78              		.thumb
  79              		.thumb_func
  81              	HAL_I2C_SlaveRxCpltCallback:
  82              		@ args = 0, pretend = 0, frame = 0
  83              		@ frame_needed = 0, uses_anonymous_args = 0
  84              		@ link register save eliminated.
  85 0000 7047     		bx	lr
  87              		.section	.text.HAL_I2C_AddrCallback,"ax",%progbits
  88              		.align	1
  89              		.weak	HAL_I2C_AddrCallback
  90              		.thumb
  91              		.thumb_func
  93              	HAL_I2C_AddrCallback:
  94              		@ args = 0, pretend = 0, frame = 0
  95              		@ frame_needed = 0, uses_anonymous_args = 0
  96              		@ link register save eliminated.
  97 0000 7047     		bx	lr
  99              		.section	.text.HAL_I2C_ListenCpltCallback,"ax",%progbits
 100              		.align	1
 101              		.weak	HAL_I2C_ListenCpltCallback
 102              		.thumb
 103              		.thumb_func
 105              	HAL_I2C_ListenCpltCallback:
 106              		@ args = 0, pretend = 0, frame = 0
 107              		@ frame_needed = 0, uses_anonymous_args = 0
 108              		@ link register save eliminated.
 109 0000 7047     		bx	lr
 111              		.section	.text.HAL_I2C_MemTxCpltCallback,"ax",%progbits
 112              		.align	1
 113              		.weak	HAL_I2C_MemTxCpltCallback
 114              		.thumb
 115              		.thumb_func
 117              	HAL_I2C_MemTxCpltCallback:
 118              		@ args = 0, pretend = 0, frame = 0
 119              		@ frame_needed = 0, uses_anonymous_args = 0
 120              		@ link register save eliminated.
 121 0000 7047     		bx	lr
 123              		.section	.text.HAL_I2C_MemRxCpltCallback,"ax",%progbits
 124              		.align	1
 125              		.weak	HAL_I2C_MemRxCpltCallback
 126              		.thumb
 127              		.thumb_func
 129              	HAL_I2C_MemRxCpltCallback:
 130              		@ args = 0, pretend = 0, frame = 0
 131              		@ frame_needed = 0, uses_anonymous_args = 0
 132              		@ link register save eliminated.
 133 0000 7047     		bx	lr
ARM GAS  /tmp/cctwxent.s 			page 3


 135              		.section	.text.HAL_I2C_ErrorCallback,"ax",%progbits
 136              		.align	1
 137              		.weak	HAL_I2C_ErrorCallback
 138              		.thumb
 139              		.thumb_func
 141              	HAL_I2C_ErrorCallback:
 142              		@ args = 0, pretend = 0, frame = 0
 143              		@ frame_needed = 0, uses_anonymous_args = 0
 144              		@ link register save eliminated.
 145 0000 7047     		bx	lr
 147              		.section	.text.HAL_I2C_AbortCpltCallback,"ax",%progbits
 148              		.align	1
 149              		.weak	HAL_I2C_AbortCpltCallback
 150              		.thumb
 151              		.thumb_func
 153              	HAL_I2C_AbortCpltCallback:
 154              		@ args = 0, pretend = 0, frame = 0
 155              		@ frame_needed = 0, uses_anonymous_args = 0
 156              		@ link register save eliminated.
 157 0000 7047     		bx	lr
 159              		.section	.text.I2C_DMAXferCplt,"ax",%progbits
 160              		.align	1
 161              		.thumb
 162              		.thumb_func
 164              	I2C_DMAXferCplt:
 165              		@ args = 0, pretend = 0, frame = 0
 166              		@ frame_needed = 0, uses_anonymous_args = 0
 167 0000 70B5     		push	{r4, r5, r6, lr}
 168 0002 446A     		ldr	r4, [r0, #36]
 169 0004 2368     		ldr	r3, [r4]
 170 0006 94F83D20 		ldrb	r2, [r4, #61]	@ zero_extendqisi2
 171 000a 94F83E00 		ldrb	r0, [r4, #62]	@ zero_extendqisi2
 172 000e E16A     		ldr	r1, [r4, #44]
 173 0010 5D68     		ldr	r5, [r3, #4]
 174 0012 666B     		ldr	r6, [r4, #52]
 175 0014 25F44075 		bic	r5, r5, #768
 176 0018 5D60     		str	r5, [r3, #4]
 177 001a 0025     		movs	r5, #0
 178 001c B562     		str	r5, [r6, #40]
 179 001e A66B     		ldr	r6, [r4, #56]
 180 0020 D2B2     		uxtb	r2, r2
 181 0022 B562     		str	r5, [r6, #40]
 182 0024 02F02105 		and	r5, r2, #33
 183 0028 212D     		cmp	r5, #33
 184 002a C0B2     		uxtb	r0, r0
 185 002c 05D0     		beq	.L14
 186 002e 02F02205 		and	r5, r2, #34
 187 0032 222D     		cmp	r5, #34
 188 0034 21D1     		bne	.L15
 189 0036 2028     		cmp	r0, #32
 190 0038 1FD1     		bne	.L15
 191              	.L14:
 192 003a 5968     		ldr	r1, [r3, #4]
 193 003c 292A     		cmp	r2, #41
 194 003e 21F40061 		bic	r1, r1, #2048
 195 0042 5960     		str	r1, [r3, #4]
 196 0044 4FF00003 		mov	r3, #0
ARM GAS  /tmp/cctwxent.s 			page 4


 197 0048 6385     		strh	r3, [r4, #42]	@ movhi
 198 004a 06D1     		bne	.L16
 199 004c 2123     		movs	r3, #33
 200 004e 2363     		str	r3, [r4, #48]
 201 0050 2823     		movs	r3, #40
 202 0052 84F83D30 		strb	r3, [r4, #61]
 203 0056 E36D     		ldr	r3, [r4, #92]
 204 0058 07E0     		b	.L39
 205              	.L16:
 206 005a 2A2A     		cmp	r2, #42
 207 005c 07D1     		bne	.L17
 208 005e 2223     		movs	r3, #34
 209 0060 2363     		str	r3, [r4, #48]
 210 0062 2823     		movs	r3, #40
 211 0064 84F83D30 		strb	r3, [r4, #61]
 212 0068 236E     		ldr	r3, [r4, #96]
 213              	.L39:
 214 006a 2046     		mov	r0, r4
 215 006c 9847     		blx	r3
 216              	.L17:
 217 006e 2268     		ldr	r2, [r4]
 218 0070 5368     		ldr	r3, [r2, #4]
 219 0072 43F44073 		orr	r3, r3, #768
 220 0076 5360     		str	r3, [r2, #4]
 221 0078 70BD     		pop	{r4, r5, r6, pc}
 222              	.L15:
 223 007a 94F83E20 		ldrb	r2, [r4, #62]	@ zero_extendqisi2
 224 007e 002A     		cmp	r2, #0
 225 0080 3AD0     		beq	.L13
 226 0082 628D     		ldrh	r2, [r4, #42]
 227 0084 92B2     		uxth	r2, r2
 228 0086 012A     		cmp	r2, #1
 229 0088 02BF     		ittt	eq
 230 008a 1A68     		ldreq	r2, [r3]
 231 008c 22F48062 		biceq	r2, r2, #1024
 232 0090 1A60     		streq	r2, [r3]
 233 0092 5A68     		ldr	r2, [r3, #4]
 234 0094 11F5803F 		cmn	r1, #65536
 235 0098 22F44072 		bic	r2, r2, #768
 236 009c 5A60     		str	r2, [r3, #4]
 237 009e 06D0     		beq	.L20
 238 00a0 0829     		cmp	r1, #8
 239 00a2 04D0     		beq	.L20
 240 00a4 B1F12A4F 		cmp	r1, #-1442840576
 241 00a8 01D0     		beq	.L20
 242 00aa 2029     		cmp	r1, #32
 243 00ac 03D1     		bne	.L21
 244              	.L20:
 245 00ae 1A68     		ldr	r2, [r3]
 246 00b0 42F40072 		orr	r2, r2, #512
 247 00b4 1A60     		str	r2, [r3]
 248              	.L21:
 249 00b6 5A68     		ldr	r2, [r3, #4]
 250 00b8 22F48052 		bic	r2, r2, #4096
 251 00bc 5A60     		str	r2, [r3, #4]
 252 00be 5A68     		ldr	r2, [r3, #4]
 253 00c0 22F40062 		bic	r2, r2, #2048
ARM GAS  /tmp/cctwxent.s 			page 5


 254 00c4 5A60     		str	r2, [r3, #4]
 255 00c6 0023     		movs	r3, #0
 256 00c8 6385     		strh	r3, [r4, #42]	@ movhi
 257 00ca 236C     		ldr	r3, [r4, #64]
 258 00cc 0BB1     		cbz	r3, .L22
 259 00ce 236F     		ldr	r3, [r4, #112]
 260 00d0 0EE0     		b	.L40
 261              	.L22:
 262 00d2 2022     		movs	r2, #32
 263 00d4 84F83D20 		strb	r2, [r4, #61]
 264 00d8 94F83E20 		ldrb	r2, [r4, #62]	@ zero_extendqisi2
 265 00dc 84F83E30 		strb	r3, [r4, #62]
 266 00e0 402A     		cmp	r2, #64
 267 00e2 15BF     		itete	ne
 268 00e4 1223     		movne	r3, #18
 269 00e6 2363     		streq	r3, [r4, #48]
 270 00e8 2363     		strne	r3, [r4, #48]
 271 00ea E36E     		ldreq	r3, [r4, #108]
 272 00ec 18BF     		it	ne
 273 00ee A36D     		ldrne	r3, [r4, #88]
 274              	.L40:
 275 00f0 2046     		mov	r0, r4
 276 00f2 BDE87040 		pop	{r4, r5, r6, lr}
 277 00f6 1847     		bx	r3	@ indirect register sibling call
 278              	.L13:
 279 00f8 70BD     		pop	{r4, r5, r6, pc}
 281              		.section	.text.I2C_DMAError,"ax",%progbits
 282              		.align	1
 283              		.thumb
 284              		.thumb_func
 286              	I2C_DMAError:
 287              		@ args = 0, pretend = 0, frame = 0
 288              		@ frame_needed = 0, uses_anonymous_args = 0
 289              		@ link register save eliminated.
 290 0000 406A     		ldr	r0, [r0, #36]
 291 0002 0023     		movs	r3, #0
 292 0004 426B     		ldr	r2, [r0, #52]
 293 0006 0168     		ldr	r1, [r0]
 294 0008 9362     		str	r3, [r2, #40]
 295 000a 826B     		ldr	r2, [r0, #56]
 296 000c 9362     		str	r3, [r2, #40]
 297 000e 0A68     		ldr	r2, [r1]
 298 0010 22F48062 		bic	r2, r2, #1024
 299 0014 0A60     		str	r2, [r1]
 300 0016 2022     		movs	r2, #32
 301 0018 4385     		strh	r3, [r0, #42]	@ movhi
 302 001a 80F83D20 		strb	r2, [r0, #61]
 303 001e 80F83E30 		strb	r3, [r0, #62]
 304 0022 036C     		ldr	r3, [r0, #64]
 305 0024 43F01003 		orr	r3, r3, #16
 306 0028 0364     		str	r3, [r0, #64]
 307 002a 036F     		ldr	r3, [r0, #112]
 308 002c 1847     		bx	r3	@ indirect register sibling call
 310              		.section	.text.I2C_DMAAbort,"ax",%progbits
 311              		.align	1
 312              		.thumb
 313              		.thumb_func
ARM GAS  /tmp/cctwxent.s 			page 6


 315              	I2C_DMAAbort:
 316              		@ args = 0, pretend = 0, frame = 0
 317              		@ frame_needed = 0, uses_anonymous_args = 0
 318 0000 406A     		ldr	r0, [r0, #36]
 319 0002 70B5     		push	{r4, r5, r6, lr}
 320 0004 0268     		ldr	r2, [r0]
 321 0006 90F83D10 		ldrb	r1, [r0, #61]	@ zero_extendqisi2
 322 000a 1468     		ldr	r4, [r2]
 323 000c 466B     		ldr	r6, [r0, #52]
 324 000e 856B     		ldr	r5, [r0, #56]
 325 0010 0023     		movs	r3, #0
 326 0012 24F48064 		bic	r4, r4, #1024
 327 0016 B362     		str	r3, [r6, #40]
 328 0018 AB62     		str	r3, [r5, #40]
 329 001a 1460     		str	r4, [r2]
 330 001c 4385     		strh	r3, [r0, #42]	@ movhi
 331 001e 1468     		ldr	r4, [r2]
 332 0020 7363     		str	r3, [r6, #52]
 333 0022 24F00104 		bic	r4, r4, #1
 334 0026 6B63     		str	r3, [r5, #52]
 335 0028 1460     		str	r4, [r2]
 336 002a 90F83D40 		ldrb	r4, [r0, #61]	@ zero_extendqisi2
 337 002e C9B2     		uxtb	r1, r1
 338 0030 602C     		cmp	r4, #96
 339 0032 07D1     		bne	.L44
 340 0034 2022     		movs	r2, #32
 341 0036 80F83D20 		strb	r2, [r0, #61]
 342 003a 80F83E30 		strb	r3, [r0, #62]
 343 003e 0364     		str	r3, [r0, #64]
 344 0040 436F     		ldr	r3, [r0, #116]
 345 0042 17E0     		b	.L47
 346              	.L44:
 347 0044 01F02801 		and	r1, r1, #40
 348 0048 2829     		cmp	r1, #40
 349 004a 09BF     		itett	eq
 350 004c 1468     		ldreq	r4, [r2]
 351 004e 2022     		movne	r2, #32
 352 0050 44F00104 		orreq	r4, r4, #1
 353 0054 1460     		streq	r4, [r2]
 354 0056 09BF     		itett	eq
 355 0058 1468     		ldreq	r4, [r2]
 356 005a 80F83D20 		strbne	r2, [r0, #61]
 357 005e 44F48064 		orreq	r4, r4, #1024
 358 0062 1460     		streq	r4, [r2]
 359 0064 14BF     		ite	ne
 360 0066 80F83E30 		strbne	r3, [r0, #62]
 361 006a 0363     		streq	r3, [r0, #48]
 362 006c 036F     		ldr	r3, [r0, #112]
 363 006e 08BF     		it	eq
 364 0070 80F83D10 		strbeq	r1, [r0, #61]
 365              	.L47:
 366 0074 BDE87040 		pop	{r4, r5, r6, lr}
 367 0078 1847     		bx	r3	@ indirect register sibling call
 369              		.section	.text.I2C_IsAcknowledgeFailed,"ax",%progbits
 370              		.align	1
 371              		.thumb
 372              		.thumb_func
ARM GAS  /tmp/cctwxent.s 			page 7


 374              	I2C_IsAcknowledgeFailed:
 375              		@ args = 0, pretend = 0, frame = 0
 376              		@ frame_needed = 0, uses_anonymous_args = 0
 377              		@ link register save eliminated.
 378 0000 0168     		ldr	r1, [r0]
 379 0002 0022     		movs	r2, #0
 380 0004 4B69     		ldr	r3, [r1, #20]
 381 0006 13F48063 		ands	r3, r3, #1024
 382 000a 1FBF     		itttt	ne
 383 000c 6FF48063 		mvnne	r3, #1024
 384 0010 4B61     		strne	r3, [r1, #20]
 385 0012 2023     		movne	r3, #32
 386 0014 0263     		strne	r2, [r0, #48]
 387 0016 1FBF     		itttt	ne
 388 0018 80F83D30 		strbne	r3, [r0, #61]
 389 001c 80F83E20 		strbne	r2, [r0, #62]
 390 0020 036C     		ldrne	r3, [r0, #64]
 391 0022 80F83C20 		strbne	r2, [r0, #60]
 392 0026 1DBF     		ittte	ne
 393 0028 43F00403 		orrne	r3, r3, #4
 394 002c 0364     		strne	r3, [r0, #64]
 395 002e 0120     		movne	r0, #1
 396 0030 1846     		moveq	r0, r3
 397 0032 7047     		bx	lr
 399              		.section	.text.I2C_WaitOnMasterAddressFlagUntilTimeout,"ax",%progbits
 400              		.align	1
 401              		.thumb
 402              		.thumb_func
 404              	I2C_WaitOnMasterAddressFlagUntilTimeout:
 405              		@ args = 0, pretend = 0, frame = 0
 406              		@ frame_needed = 0, uses_anonymous_args = 0
 407 0000 2DE9F843 		push	{r3, r4, r5, r6, r7, r8, r9, lr}
 408 0004 0446     		mov	r4, r0
 409 0006 0E46     		mov	r6, r1
 410 0008 1746     		mov	r7, r2
 411 000a 9946     		mov	r9, r3
 412 000c C1F30748 		ubfx	r8, r1, #16, #8
 413              	.L55:
 414 0010 2568     		ldr	r5, [r4]
 415 0012 B8F1010F 		cmp	r8, #1
 416 0016 0CBF     		ite	eq
 417 0018 6869     		ldreq	r0, [r5, #20]
 418 001a A869     		ldrne	r0, [r5, #24]
 419 001c C043     		mvns	r0, r0
 420 001e 80B2     		uxth	r0, r0
 421 0020 3042     		tst	r0, r6
 422 0022 14BF     		ite	ne
 423 0024 0120     		movne	r0, #1
 424 0026 0020     		moveq	r0, #0
 425 0028 70B3     		cbz	r0, .L65
 426 002a 6B69     		ldr	r3, [r5, #20]
 427 002c 5A05     		lsls	r2, r3, #21
 428 002e 11D5     		bpl	.L53
 429 0030 2B68     		ldr	r3, [r5]
 430 0032 2022     		movs	r2, #32
 431 0034 43F40073 		orr	r3, r3, #512
 432 0038 2B60     		str	r3, [r5]
ARM GAS  /tmp/cctwxent.s 			page 8


 433 003a 6FF48063 		mvn	r3, #1024
 434 003e 6B61     		str	r3, [r5, #20]
 435 0040 0023     		movs	r3, #0
 436 0042 2363     		str	r3, [r4, #48]
 437 0044 84F83D20 		strb	r2, [r4, #61]
 438 0048 84F83E30 		strb	r3, [r4, #62]
 439 004c 226C     		ldr	r2, [r4, #64]
 440 004e 42F00402 		orr	r2, r2, #4
 441 0052 13E0     		b	.L64
 442              	.L53:
 443 0054 7B1C     		adds	r3, r7, #1
 444 0056 DBD0     		beq	.L55
 445 0058 FFF7FEFF 		bl	HAL_GetTick
 446 005c C9EB0000 		rsb	r0, r9, r0
 447 0060 B842     		cmp	r0, r7
 448 0062 01D8     		bhi	.L56
 449 0064 002F     		cmp	r7, #0
 450 0066 D3D1     		bne	.L55
 451              	.L56:
 452 0068 0023     		movs	r3, #0
 453 006a 2022     		movs	r2, #32
 454 006c 2363     		str	r3, [r4, #48]
 455 006e 84F83D20 		strb	r2, [r4, #61]
 456 0072 84F83E30 		strb	r3, [r4, #62]
 457 0076 226C     		ldr	r2, [r4, #64]
 458 0078 42F02002 		orr	r2, r2, #32
 459              	.L64:
 460 007c 2264     		str	r2, [r4, #64]
 461 007e 84F83C30 		strb	r3, [r4, #60]
 462 0082 0120     		movs	r0, #1
 463 0084 BDE8F883 		pop	{r3, r4, r5, r6, r7, r8, r9, pc}
 464              	.L65:
 465 0088 BDE8F883 		pop	{r3, r4, r5, r6, r7, r8, r9, pc}
 467              		.section	.text.I2C_ITError,"ax",%progbits
 468              		.align	1
 469              		.thumb
 470              		.thumb_func
 472              	I2C_ITError:
 473              		@ args = 0, pretend = 0, frame = 0
 474              		@ frame_needed = 0, uses_anonymous_args = 0
 475 0000 90F83D20 		ldrb	r2, [r0, #61]	@ zero_extendqisi2
 476 0004 90F83E30 		ldrb	r3, [r0, #62]	@ zero_extendqisi2
 477 0008 10B5     		push	{r4, lr}
 478 000a 102B     		cmp	r3, #16
 479 000c 0446     		mov	r4, r0
 480 000e D2B2     		uxtb	r2, r2
 481 0010 0368     		ldr	r3, [r0]
 482 0012 05D1     		bne	.L67
 483 0014 222A     		cmp	r2, #34
 484 0016 02BF     		ittt	eq
 485 0018 1968     		ldreq	r1, [r3]
 486 001a 21F40061 		biceq	r1, r1, #2048
 487 001e 1960     		streq	r1, [r3]
 488              	.L67:
 489 0020 02F02801 		and	r1, r2, #40
 490 0024 2829     		cmp	r1, #40
 491 0026 04D1     		bne	.L68
ARM GAS  /tmp/cctwxent.s 			page 9


 492 0028 0022     		movs	r2, #0
 493 002a 2263     		str	r2, [r4, #48]
 494 002c 84F83D10 		strb	r1, [r4, #61]
 495 0030 0BE0     		b	.L69
 496              	.L68:
 497 0032 5968     		ldr	r1, [r3, #4]
 498 0034 0905     		lsls	r1, r1, #20
 499 0036 04D4     		bmi	.L70
 500 0038 602A     		cmp	r2, #96
 501 003a 1CBF     		itt	ne
 502 003c 2022     		movne	r2, #32
 503 003e 84F83D20 		strbne	r2, [r4, #61]
 504              	.L70:
 505 0042 0022     		movs	r2, #0
 506 0044 2263     		str	r2, [r4, #48]
 507 0046 84F83E20 		strb	r2, [r4, #62]
 508              	.L69:
 509 004a 5A68     		ldr	r2, [r3, #4]
 510 004c 12F40062 		ands	r2, r2, #2048
 511 0050 34D0     		beq	.L71
 512 0052 5A68     		ldr	r2, [r3, #4]
 513 0054 606B     		ldr	r0, [r4, #52]
 514 0056 22F40062 		bic	r2, r2, #2048
 515 005a 5A60     		str	r2, [r3, #4]
 516 005c 90F82130 		ldrb	r3, [r0, #33]	@ zero_extendqisi2
 517 0060 012B     		cmp	r3, #1
 518 0062 374B     		ldr	r3, .L102
 519 0064 0ED0     		beq	.L72
 520 0066 4363     		str	r3, [r0, #52]
 521 0068 FFF7FEFF 		bl	HAL_DMA_Abort_IT
 522 006c 0028     		cmp	r0, #0
 523 006e 4BD0     		beq	.L74
 524 0070 2268     		ldr	r2, [r4]
 525 0072 606B     		ldr	r0, [r4, #52]
 526 0074 1368     		ldr	r3, [r2]
 527 0076 23F00103 		bic	r3, r3, #1
 528 007a 1360     		str	r3, [r2]
 529 007c 2023     		movs	r3, #32
 530 007e 84F83D30 		strb	r3, [r4, #61]
 531 0082 19E0     		b	.L101
 532              	.L72:
 533 0084 A06B     		ldr	r0, [r4, #56]
 534 0086 4363     		str	r3, [r0, #52]
 535 0088 FFF7FEFF 		bl	HAL_DMA_Abort_IT
 536 008c 0028     		cmp	r0, #0
 537 008e 3BD0     		beq	.L74
 538 0090 2368     		ldr	r3, [r4]
 539 0092 5A69     		ldr	r2, [r3, #20]
 540 0094 5206     		lsls	r2, r2, #25
 541 0096 41BF     		itttt	mi
 542 0098 1B69     		ldrmi	r3, [r3, #16]
 543 009a 626A     		ldrmi	r2, [r4, #36]
 544 009c 1370     		strbmi	r3, [r2]
 545 009e 636A     		ldrmi	r3, [r4, #36]
 546 00a0 2268     		ldr	r2, [r4]
 547 00a2 44BF     		itt	mi
 548 00a4 0133     		addmi	r3, r3, #1
ARM GAS  /tmp/cctwxent.s 			page 10


 549 00a6 6362     		strmi	r3, [r4, #36]
 550 00a8 1368     		ldr	r3, [r2]
 551 00aa A06B     		ldr	r0, [r4, #56]
 552 00ac 23F00103 		bic	r3, r3, #1
 553 00b0 1360     		str	r3, [r2]
 554 00b2 2023     		movs	r3, #32
 555 00b4 84F83D30 		strb	r3, [r4, #61]
 556              	.L101:
 557 00b8 436B     		ldr	r3, [r0, #52]
 558 00ba 24E0     		b	.L99
 559              	.L71:
 560 00bc 94F83D10 		ldrb	r1, [r4, #61]	@ zero_extendqisi2
 561 00c0 6029     		cmp	r1, #96
 562 00c2 14D1     		bne	.L77
 563 00c4 2021     		movs	r1, #32
 564 00c6 84F83D10 		strb	r1, [r4, #61]
 565 00ca 2264     		str	r2, [r4, #64]
 566 00cc 5A69     		ldr	r2, [r3, #20]
 567 00ce 5006     		lsls	r0, r2, #25
 568 00d0 41BF     		itttt	mi
 569 00d2 1B69     		ldrmi	r3, [r3, #16]
 570 00d4 626A     		ldrmi	r2, [r4, #36]
 571 00d6 1370     		strbmi	r3, [r2]
 572 00d8 636A     		ldrmi	r3, [r4, #36]
 573 00da 2268     		ldr	r2, [r4]
 574 00dc 44BF     		itt	mi
 575 00de 0133     		addmi	r3, r3, #1
 576 00e0 6362     		strmi	r3, [r4, #36]
 577 00e2 1368     		ldr	r3, [r2]
 578 00e4 23F00103 		bic	r3, r3, #1
 579 00e8 1360     		str	r3, [r2]
 580 00ea 636F     		ldr	r3, [r4, #116]
 581 00ec 0AE0     		b	.L100
 582              	.L77:
 583 00ee 5A69     		ldr	r2, [r3, #20]
 584 00f0 5106     		lsls	r1, r2, #25
 585 00f2 41BF     		itttt	mi
 586 00f4 1B69     		ldrmi	r3, [r3, #16]
 587 00f6 626A     		ldrmi	r2, [r4, #36]
 588 00f8 1370     		strbmi	r3, [r2]
 589 00fa 636A     		ldrmi	r3, [r4, #36]
 590 00fc 44BF     		itt	mi
 591 00fe 0133     		addmi	r3, r3, #1
 592 0100 6362     		strmi	r3, [r4, #36]
 593 0102 236F     		ldr	r3, [r4, #112]
 594              	.L100:
 595 0104 2046     		mov	r0, r4
 596              	.L99:
 597 0106 9847     		blx	r3
 598              	.L74:
 599 0108 94F83D30 		ldrb	r3, [r4, #61]	@ zero_extendqisi2
 600 010c 226C     		ldr	r2, [r4, #64]
 601 010e DBB2     		uxtb	r3, r3
 602 0110 5207     		lsls	r2, r2, #29
 603 0112 14D5     		bpl	.L66
 604 0114 282B     		cmp	r3, #40
 605 0116 12D1     		bne	.L66
ARM GAS  /tmp/cctwxent.s 			page 11


 606 0118 2268     		ldr	r2, [r4]
 607 011a 2046     		mov	r0, r4
 608 011c 5368     		ldr	r3, [r2, #4]
 609 011e 23F4E063 		bic	r3, r3, #1792
 610 0122 5360     		str	r3, [r2, #4]
 611 0124 074B     		ldr	r3, .L102+4
 612 0126 2022     		movs	r2, #32
 613 0128 E362     		str	r3, [r4, #44]
 614 012a 0023     		movs	r3, #0
 615 012c 2363     		str	r3, [r4, #48]
 616 012e 84F83D20 		strb	r2, [r4, #61]
 617 0132 84F83E30 		strb	r3, [r4, #62]
 618 0136 636E     		ldr	r3, [r4, #100]
 619 0138 BDE81040 		pop	{r4, lr}
 620 013c 1847     		bx	r3	@ indirect register sibling call
 621              	.L66:
 622 013e 10BD     		pop	{r4, pc}
 623              	.L103:
 624              		.align	2
 625              	.L102:
 626 0140 00000000 		.word	I2C_DMAAbort
 627 0144 0000FFFF 		.word	-65536
 629              		.section	.text.I2C_WaitOnFlagUntilTimeout,"ax",%progbits
 630              		.align	1
 631              		.thumb
 632              		.thumb_func
 634              	I2C_WaitOnFlagUntilTimeout:
 635              		@ args = 4, pretend = 0, frame = 0
 636              		@ frame_needed = 0, uses_anonymous_args = 0
 637 0000 2DE9F843 		push	{r3, r4, r5, r6, r7, r8, r9, lr}
 638 0004 0446     		mov	r4, r0
 639 0006 0E46     		mov	r6, r1
 640 0008 9046     		mov	r8, r2
 641 000a 1F46     		mov	r7, r3
 642 000c 089D     		ldr	r5, [sp, #32]
 643 000e C1F30749 		ubfx	r9, r1, #16, #8
 644              	.L106:
 645 0012 2368     		ldr	r3, [r4]
 646 0014 B9F1010F 		cmp	r9, #1
 647 0018 0CBF     		ite	eq
 648 001a 5869     		ldreq	r0, [r3, #20]
 649 001c 9869     		ldrne	r0, [r3, #24]
 650 001e C043     		mvns	r0, r0
 651 0020 80B2     		uxth	r0, r0
 652 0022 3042     		tst	r0, r6
 653 0024 0CBF     		ite	eq
 654 0026 0123     		moveq	r3, #1
 655 0028 0023     		movne	r3, #0
 656 002a 4345     		cmp	r3, r8
 657 002c 18D1     		bne	.L116
 658 002e 7B1C     		adds	r3, r7, #1
 659 0030 EFD0     		beq	.L106
 660 0032 FFF7FEFF 		bl	HAL_GetTick
 661 0036 401B     		subs	r0, r0, r5
 662 0038 B842     		cmp	r0, r7
 663 003a 01D8     		bhi	.L107
 664 003c 002F     		cmp	r7, #0
ARM GAS  /tmp/cctwxent.s 			page 12


 665 003e E8D1     		bne	.L106
 666              	.L107:
 667 0040 0023     		movs	r3, #0
 668 0042 2022     		movs	r2, #32
 669 0044 2363     		str	r3, [r4, #48]
 670 0046 84F83D20 		strb	r2, [r4, #61]
 671 004a 84F83E30 		strb	r3, [r4, #62]
 672 004e 226C     		ldr	r2, [r4, #64]
 673 0050 84F83C30 		strb	r3, [r4, #60]
 674 0054 42F02002 		orr	r2, r2, #32
 675 0058 2264     		str	r2, [r4, #64]
 676 005a 0120     		movs	r0, #1
 677 005c BDE8F883 		pop	{r3, r4, r5, r6, r7, r8, r9, pc}
 678              	.L116:
 679 0060 0020     		movs	r0, #0
 680 0062 BDE8F883 		pop	{r3, r4, r5, r6, r7, r8, r9, pc}
 682              		.section	.text.I2C_WaitOnTXEFlagUntilTimeout,"ax",%progbits
 683              		.align	1
 684              		.thumb
 685              		.thumb_func
 687              	I2C_WaitOnTXEFlagUntilTimeout:
 688              		@ args = 0, pretend = 0, frame = 0
 689              		@ frame_needed = 0, uses_anonymous_args = 0
 690 0000 70B5     		push	{r4, r5, r6, lr}
 691 0002 0446     		mov	r4, r0
 692 0004 0D46     		mov	r5, r1
 693 0006 1646     		mov	r6, r2
 694              	.L120:
 695 0008 2368     		ldr	r3, [r4]
 696 000a 5B69     		ldr	r3, [r3, #20]
 697 000c 1B06     		lsls	r3, r3, #24
 698 000e 1AD4     		bmi	.L127
 699 0010 2046     		mov	r0, r4
 700 0012 FFF7FEFF 		bl	I2C_IsAcknowledgeFailed
 701 0016 C0B9     		cbnz	r0, .L123
 702 0018 6A1C     		adds	r2, r5, #1
 703 001a F5D0     		beq	.L120
 704 001c FFF7FEFF 		bl	HAL_GetTick
 705 0020 801B     		subs	r0, r0, r6
 706 0022 A842     		cmp	r0, r5
 707 0024 01D8     		bhi	.L121
 708 0026 002D     		cmp	r5, #0
 709 0028 EED1     		bne	.L120
 710              	.L121:
 711 002a 0023     		movs	r3, #0
 712 002c 2022     		movs	r2, #32
 713 002e 2363     		str	r3, [r4, #48]
 714 0030 84F83D20 		strb	r2, [r4, #61]
 715 0034 84F83E30 		strb	r3, [r4, #62]
 716 0038 226C     		ldr	r2, [r4, #64]
 717 003a 84F83C30 		strb	r3, [r4, #60]
 718 003e 42F02002 		orr	r2, r2, #32
 719 0042 2264     		str	r2, [r4, #64]
 720 0044 01E0     		b	.L123
 721              	.L127:
 722 0046 0020     		movs	r0, #0
 723 0048 70BD     		pop	{r4, r5, r6, pc}
ARM GAS  /tmp/cctwxent.s 			page 13


 724              	.L123:
 725 004a 0120     		movs	r0, #1
 726 004c 70BD     		pop	{r4, r5, r6, pc}
 728              		.section	.text.I2C_RequestMemoryWrite,"ax",%progbits
 729              		.align	1
 730              		.thumb
 731              		.thumb_func
 733              	I2C_RequestMemoryWrite:
 734              		@ args = 8, pretend = 0, frame = 8
 735              		@ frame_needed = 0, uses_anonymous_args = 0
 736 0000 2DE9FF41 		push	{r0, r1, r2, r3, r4, r5, r6, r7, r8, lr}
 737 0004 1546     		mov	r5, r2
 738 0006 0268     		ldr	r2, [r0]
 739 0008 9846     		mov	r8, r3
 740 000a 1368     		ldr	r3, [r2]
 741 000c 0B9E     		ldr	r6, [sp, #44]
 742 000e 43F48073 		orr	r3, r3, #256
 743 0012 1360     		str	r3, [r2]
 744 0014 0F46     		mov	r7, r1
 745 0016 0096     		str	r6, [sp]
 746 0018 4FF00111 		mov	r1, #65537
 747 001c 0022     		movs	r2, #0
 748 001e 0A9B     		ldr	r3, [sp, #40]
 749 0020 0446     		mov	r4, r0
 750 0022 FFF7FEFF 		bl	I2C_WaitOnFlagUntilTimeout
 751 0026 0028     		cmp	r0, #0
 752 0028 2BD1     		bne	.L136
 753 002a 2368     		ldr	r3, [r4]
 754 002c 07F0FE07 		and	r7, r7, #254
 755 0030 1F61     		str	r7, [r3, #16]
 756 0032 2046     		mov	r0, r4
 757 0034 1749     		ldr	r1, .L140
 758 0036 0A9A     		ldr	r2, [sp, #40]
 759 0038 3346     		mov	r3, r6
 760 003a FFF7FEFF 		bl	I2C_WaitOnMasterAddressFlagUntilTimeout
 761 003e 00BB     		cbnz	r0, .L136
 762 0040 2368     		ldr	r3, [r4]
 763 0042 0390     		str	r0, [sp, #12]
 764 0044 5A69     		ldr	r2, [r3, #20]
 765 0046 2046     		mov	r0, r4
 766 0048 0392     		str	r2, [sp, #12]
 767 004a 9B69     		ldr	r3, [r3, #24]
 768 004c 0A99     		ldr	r1, [sp, #40]
 769 004e 0393     		str	r3, [sp, #12]
 770 0050 3246     		mov	r2, r6
 771 0052 039B     		ldr	r3, [sp, #12]
 772 0054 FFF7FEFF 		bl	I2C_WaitOnTXEFlagUntilTimeout
 773 0058 58B9     		cbnz	r0, .L139
 774 005a B8F1010F 		cmp	r8, #1
 775 005e 2368     		ldr	r3, [r4]
 776 0060 12D0     		beq	.L137
 777 0062 2A0A     		lsrs	r2, r5, #8
 778 0064 1A61     		str	r2, [r3, #16]
 779 0066 2046     		mov	r0, r4
 780 0068 0A99     		ldr	r1, [sp, #40]
 781 006a 3246     		mov	r2, r6
 782 006c FFF7FEFF 		bl	I2C_WaitOnTXEFlagUntilTimeout
ARM GAS  /tmp/cctwxent.s 			page 14


 783 0070 48B1     		cbz	r0, .L134
 784              	.L139:
 785 0072 236C     		ldr	r3, [r4, #64]
 786 0074 042B     		cmp	r3, #4
 787 0076 01BF     		itttt	eq
 788 0078 2268     		ldreq	r2, [r4]
 789 007a 1368     		ldreq	r3, [r2]
 790 007c 43F40073 		orreq	r3, r3, #512
 791 0080 1360     		streq	r3, [r2]
 792              	.L136:
 793 0082 0120     		movs	r0, #1
 794 0084 02E0     		b	.L130
 795              	.L134:
 796 0086 2368     		ldr	r3, [r4]
 797              	.L137:
 798 0088 EDB2     		uxtb	r5, r5
 799 008a 1D61     		str	r5, [r3, #16]
 800              	.L130:
 801 008c 04B0     		add	sp, sp, #16
 802              		@ sp needed
 803 008e BDE8F081 		pop	{r4, r5, r6, r7, r8, pc}
 804              	.L141:
 805 0092 00BF     		.align	2
 806              	.L140:
 807 0094 02000100 		.word	65538
 809              		.section	.text.I2C_RequestMemoryRead,"ax",%progbits
 810              		.align	1
 811              		.thumb
 812              		.thumb_func
 814              	I2C_RequestMemoryRead:
 815              		@ args = 8, pretend = 0, frame = 8
 816              		@ frame_needed = 0, uses_anonymous_args = 0
 817 0000 2DE9FF41 		push	{r0, r1, r2, r3, r4, r5, r6, r7, r8, lr}
 818 0004 9846     		mov	r8, r3
 819 0006 0368     		ldr	r3, [r0]
 820 0008 1646     		mov	r6, r2
 821 000a 1A68     		ldr	r2, [r3]
 822 000c 0B9D     		ldr	r5, [sp, #44]
 823 000e 42F48062 		orr	r2, r2, #1024
 824 0012 1A60     		str	r2, [r3]
 825 0014 1A68     		ldr	r2, [r3]
 826 0016 0F46     		mov	r7, r1
 827 0018 42F48072 		orr	r2, r2, #256
 828 001c 1A60     		str	r2, [r3]
 829 001e 4FF00111 		mov	r1, #65537
 830 0022 0095     		str	r5, [sp]
 831 0024 0022     		movs	r2, #0
 832 0026 0A9B     		ldr	r3, [sp, #40]
 833 0028 0446     		mov	r4, r0
 834 002a FFF7FEFF 		bl	I2C_WaitOnFlagUntilTimeout
 835 002e 0028     		cmp	r0, #0
 836 0030 37D1     		bne	.L154
 837 0032 2368     		ldr	r3, [r4]
 838 0034 FFB2     		uxtb	r7, r7
 839 0036 07F0FE02 		and	r2, r7, #254
 840 003a 1A61     		str	r2, [r3, #16]
 841 003c 2046     		mov	r0, r4
ARM GAS  /tmp/cctwxent.s 			page 15


 842 003e 2949     		ldr	r1, .L158
 843 0040 0A9A     		ldr	r2, [sp, #40]
 844 0042 2B46     		mov	r3, r5
 845 0044 FFF7FEFF 		bl	I2C_WaitOnMasterAddressFlagUntilTimeout
 846 0048 0028     		cmp	r0, #0
 847 004a 2AD1     		bne	.L154
 848 004c 2368     		ldr	r3, [r4]
 849 004e 0390     		str	r0, [sp, #12]
 850 0050 5A69     		ldr	r2, [r3, #20]
 851 0052 2046     		mov	r0, r4
 852 0054 0392     		str	r2, [sp, #12]
 853 0056 9B69     		ldr	r3, [r3, #24]
 854 0058 0A99     		ldr	r1, [sp, #40]
 855 005a 0393     		str	r3, [sp, #12]
 856 005c 2A46     		mov	r2, r5
 857 005e 039B     		ldr	r3, [sp, #12]
 858 0060 FFF7FEFF 		bl	I2C_WaitOnTXEFlagUntilTimeout
 859 0064 A8B9     		cbnz	r0, .L156
 860 0066 B8F1010F 		cmp	r8, #1
 861 006a 2368     		ldr	r3, [r4]
 862 006c 08D0     		beq	.L151
 863 006e 320A     		lsrs	r2, r6, #8
 864 0070 1A61     		str	r2, [r3, #16]
 865 0072 2046     		mov	r0, r4
 866 0074 0A99     		ldr	r1, [sp, #40]
 867 0076 2A46     		mov	r2, r5
 868 0078 FFF7FEFF 		bl	I2C_WaitOnTXEFlagUntilTimeout
 869 007c 48B9     		cbnz	r0, .L156
 870 007e 2368     		ldr	r3, [r4]
 871              	.L151:
 872 0080 F6B2     		uxtb	r6, r6
 873 0082 1E61     		str	r6, [r3, #16]
 874 0084 2A46     		mov	r2, r5
 875 0086 2046     		mov	r0, r4
 876 0088 0A99     		ldr	r1, [sp, #40]
 877 008a FFF7FEFF 		bl	I2C_WaitOnTXEFlagUntilTimeout
 878 008e 0246     		mov	r2, r0
 879 0090 48B1     		cbz	r0, .L150
 880              	.L156:
 881 0092 236C     		ldr	r3, [r4, #64]
 882 0094 042B     		cmp	r3, #4
 883 0096 01BF     		itttt	eq
 884 0098 2268     		ldreq	r2, [r4]
 885 009a 1368     		ldreq	r3, [r2]
 886 009c 43F40073 		orreq	r3, r3, #512
 887 00a0 1360     		streq	r3, [r2]
 888              	.L154:
 889 00a2 0120     		movs	r0, #1
 890 00a4 1AE0     		b	.L144
 891              	.L150:
 892 00a6 2168     		ldr	r1, [r4]
 893 00a8 2046     		mov	r0, r4
 894 00aa 0B68     		ldr	r3, [r1]
 895 00ac 43F48073 		orr	r3, r3, #256
 896 00b0 0B60     		str	r3, [r1]
 897 00b2 0095     		str	r5, [sp]
 898 00b4 4FF00111 		mov	r1, #65537
ARM GAS  /tmp/cctwxent.s 			page 16


 899 00b8 0A9B     		ldr	r3, [sp, #40]
 900 00ba FFF7FEFF 		bl	I2C_WaitOnFlagUntilTimeout
 901 00be 0028     		cmp	r0, #0
 902 00c0 EFD1     		bne	.L154
 903 00c2 2368     		ldr	r3, [r4]
 904 00c4 47F00107 		orr	r7, r7, #1
 905 00c8 1F61     		str	r7, [r3, #16]
 906 00ca 2046     		mov	r0, r4
 907 00cc 0549     		ldr	r1, .L158
 908 00ce 0A9A     		ldr	r2, [sp, #40]
 909 00d0 2B46     		mov	r3, r5
 910 00d2 FFF7FEFF 		bl	I2C_WaitOnMasterAddressFlagUntilTimeout
 911 00d6 0030     		adds	r0, r0, #0
 912 00d8 18BF     		it	ne
 913 00da 0120     		movne	r0, #1
 914              	.L144:
 915 00dc 04B0     		add	sp, sp, #16
 916              		@ sp needed
 917 00de BDE8F081 		pop	{r4, r5, r6, r7, r8, pc}
 918              	.L159:
 919 00e2 00BF     		.align	2
 920              	.L158:
 921 00e4 02000100 		.word	65538
 923              		.section	.text.I2C_WaitOnBTFFlagUntilTimeout,"ax",%progbits
 924              		.align	1
 925              		.thumb
 926              		.thumb_func
 928              	I2C_WaitOnBTFFlagUntilTimeout:
 929              		@ args = 0, pretend = 0, frame = 0
 930              		@ frame_needed = 0, uses_anonymous_args = 0
 931 0000 70B5     		push	{r4, r5, r6, lr}
 932 0002 0446     		mov	r4, r0
 933 0004 0D46     		mov	r5, r1
 934 0006 1646     		mov	r6, r2
 935              	.L163:
 936 0008 2368     		ldr	r3, [r4]
 937 000a 5B69     		ldr	r3, [r3, #20]
 938 000c 5B07     		lsls	r3, r3, #29
 939 000e 1AD4     		bmi	.L170
 940 0010 2046     		mov	r0, r4
 941 0012 FFF7FEFF 		bl	I2C_IsAcknowledgeFailed
 942 0016 C0B9     		cbnz	r0, .L166
 943 0018 6A1C     		adds	r2, r5, #1
 944 001a F5D0     		beq	.L163
 945 001c FFF7FEFF 		bl	HAL_GetTick
 946 0020 801B     		subs	r0, r0, r6
 947 0022 A842     		cmp	r0, r5
 948 0024 01D8     		bhi	.L164
 949 0026 002D     		cmp	r5, #0
 950 0028 EED1     		bne	.L163
 951              	.L164:
 952 002a 0023     		movs	r3, #0
 953 002c 2022     		movs	r2, #32
 954 002e 2363     		str	r3, [r4, #48]
 955 0030 84F83D20 		strb	r2, [r4, #61]
 956 0034 84F83E30 		strb	r3, [r4, #62]
 957 0038 226C     		ldr	r2, [r4, #64]
ARM GAS  /tmp/cctwxent.s 			page 17


 958 003a 84F83C30 		strb	r3, [r4, #60]
 959 003e 42F02002 		orr	r2, r2, #32
 960 0042 2264     		str	r2, [r4, #64]
 961 0044 01E0     		b	.L166
 962              	.L170:
 963 0046 0020     		movs	r0, #0
 964 0048 70BD     		pop	{r4, r5, r6, pc}
 965              	.L166:
 966 004a 0120     		movs	r0, #1
 967 004c 70BD     		pop	{r4, r5, r6, pc}
 969              		.section	.text.I2C_WaitOnRXNEFlagUntilTimeout,"ax",%progbits
 970              		.align	1
 971              		.thumb
 972              		.thumb_func
 974              	I2C_WaitOnRXNEFlagUntilTimeout:
 975              		@ args = 0, pretend = 0, frame = 0
 976              		@ frame_needed = 0, uses_anonymous_args = 0
 977 0000 70B5     		push	{r4, r5, r6, lr}
 978 0002 0446     		mov	r4, r0
 979 0004 0D46     		mov	r5, r1
 980 0006 1646     		mov	r6, r2
 981              	.L172:
 982 0008 2068     		ldr	r0, [r4]
 983 000a 4369     		ldr	r3, [r0, #20]
 984 000c 13F04003 		ands	r3, r3, #64
 985 0010 23D1     		bne	.L179
 986 0012 4269     		ldr	r2, [r0, #20]
 987 0014 D206     		lsls	r2, r2, #27
 988 0016 0AD5     		bpl	.L173
 989 0018 6FF01002 		mvn	r2, #16
 990 001c 4261     		str	r2, [r0, #20]
 991 001e 2022     		movs	r2, #32
 992 0020 2363     		str	r3, [r4, #48]
 993 0022 84F83D20 		strb	r2, [r4, #61]
 994 0026 84F83E30 		strb	r3, [r4, #62]
 995 002a 226C     		ldr	r2, [r4, #64]
 996 002c 10E0     		b	.L178
 997              	.L173:
 998 002e FFF7FEFF 		bl	HAL_GetTick
 999 0032 801B     		subs	r0, r0, r6
 1000 0034 A842     		cmp	r0, r5
 1001 0036 01D8     		bhi	.L175
 1002 0038 002D     		cmp	r5, #0
 1003 003a E5D1     		bne	.L172
 1004              	.L175:
 1005 003c 0023     		movs	r3, #0
 1006 003e 2022     		movs	r2, #32
 1007 0040 2363     		str	r3, [r4, #48]
 1008 0042 84F83D20 		strb	r2, [r4, #61]
 1009 0046 84F83E30 		strb	r3, [r4, #62]
 1010 004a 226C     		ldr	r2, [r4, #64]
 1011 004c 42F02002 		orr	r2, r2, #32
 1012              	.L178:
 1013 0050 2264     		str	r2, [r4, #64]
 1014 0052 84F83C30 		strb	r3, [r4, #60]
 1015 0056 0120     		movs	r0, #1
 1016 0058 70BD     		pop	{r4, r5, r6, pc}
ARM GAS  /tmp/cctwxent.s 			page 18


 1017              	.L179:
 1018 005a 0020     		movs	r0, #0
 1019 005c 70BD     		pop	{r4, r5, r6, pc}
 1021              		.section	.text.HAL_I2C_Init,"ax",%progbits
 1022              		.align	1
 1023              		.global	HAL_I2C_Init
 1024              		.thumb
 1025              		.thumb_func
 1027              	HAL_I2C_Init:
 1028              		@ args = 0, pretend = 0, frame = 0
 1029              		@ frame_needed = 0, uses_anonymous_args = 0
 1030 0000 70B5     		push	{r4, r5, r6, lr}
 1031 0002 0446     		mov	r4, r0
 1032 0004 08B9     		cbnz	r0, .L181
 1033              	.L186:
 1034 0006 0120     		movs	r0, #1
 1035 0008 70BD     		pop	{r4, r5, r6, pc}
 1036              	.L181:
 1037 000a 90F83D30 		ldrb	r3, [r0, #61]	@ zero_extendqisi2
 1038 000e 03F0FF02 		and	r2, r3, #255
 1039 0012 E3B9     		cbnz	r3, .L183
 1040 0014 544B     		ldr	r3, .L203
 1041 0016 80F83C20 		strb	r2, [r0, #60]
 1042 001a 4365     		str	r3, [r0, #84]
 1043 001c 534B     		ldr	r3, .L203+4
 1044 001e 8365     		str	r3, [r0, #88]
 1045 0020 534B     		ldr	r3, .L203+8
 1046 0022 C365     		str	r3, [r0, #92]
 1047 0024 534B     		ldr	r3, .L203+12
 1048 0026 0366     		str	r3, [r0, #96]
 1049 0028 534B     		ldr	r3, .L203+16
 1050 002a 4366     		str	r3, [r0, #100]
 1051 002c 534B     		ldr	r3, .L203+20
 1052 002e 8366     		str	r3, [r0, #104]
 1053 0030 534B     		ldr	r3, .L203+24
 1054 0032 C366     		str	r3, [r0, #108]
 1055 0034 534B     		ldr	r3, .L203+28
 1056 0036 0367     		str	r3, [r0, #112]
 1057 0038 534B     		ldr	r3, .L203+32
 1058 003a 4367     		str	r3, [r0, #116]
 1059 003c 534B     		ldr	r3, .L203+36
 1060 003e 8367     		str	r3, [r0, #120]
 1061 0040 C36F     		ldr	r3, [r0, #124]
 1062 0042 0BB9     		cbnz	r3, .L184
 1063 0044 524B     		ldr	r3, .L203+40
 1064 0046 C367     		str	r3, [r0, #124]
 1065              	.L184:
 1066 0048 E36F     		ldr	r3, [r4, #124]
 1067 004a 2046     		mov	r0, r4
 1068 004c 9847     		blx	r3
 1069              	.L183:
 1070 004e 2268     		ldr	r2, [r4]
 1071 0050 2423     		movs	r3, #36
 1072 0052 84F83D30 		strb	r3, [r4, #61]
 1073 0056 1368     		ldr	r3, [r2]
 1074 0058 23F00103 		bic	r3, r3, #1
 1075 005c 1360     		str	r3, [r2]
ARM GAS  /tmp/cctwxent.s 			page 19


 1076 005e FFF7FEFF 		bl	HAL_RCC_GetPCLK1Freq
 1077 0062 6368     		ldr	r3, [r4, #4]
 1078 0064 4B4A     		ldr	r2, .L203+44
 1079 0066 9342     		cmp	r3, r2
 1080 0068 0FD8     		bhi	.L185
 1081 006a 4B4A     		ldr	r2, .L203+48
 1082 006c 9042     		cmp	r0, r2
 1083 006e CAD9     		bls	.L186
 1084 0070 4A49     		ldr	r1, .L203+52
 1085 0072 2268     		ldr	r2, [r4]
 1086 0074 B0FBF1F1 		udiv	r1, r0, r1
 1087 0078 5568     		ldr	r5, [r2, #4]
 1088 007a 25F03F05 		bic	r5, r5, #63
 1089 007e 0D43     		orrs	r5, r5, r1
 1090 0080 5560     		str	r5, [r2, #4]
 1091 0082 166A     		ldr	r6, [r2, #32]
 1092 0084 26F03F06 		bic	r6, r6, #63
 1093 0088 15E0     		b	.L202
 1094              	.L185:
 1095 008a 454A     		ldr	r2, .L203+56
 1096 008c 9042     		cmp	r0, r2
 1097 008e BAD9     		bls	.L186
 1098 0090 4249     		ldr	r1, .L203+52
 1099 0092 2268     		ldr	r2, [r4]
 1100 0094 B0FBF1F1 		udiv	r1, r0, r1
 1101 0098 4FF49675 		mov	r5, #300
 1102 009c 5668     		ldr	r6, [r2, #4]
 1103 009e 4D43     		muls	r5, r1, r5
 1104 00a0 26F03F06 		bic	r6, r6, #63
 1105 00a4 0E43     		orrs	r6, r6, r1
 1106 00a6 4FF47A71 		mov	r1, #1000
 1107 00aa B5FBF1F1 		udiv	r1, r5, r1
 1108 00ae 5660     		str	r6, [r2, #4]
 1109 00b0 166A     		ldr	r6, [r2, #32]
 1110 00b2 26F03F06 		bic	r6, r6, #63
 1111              	.L202:
 1112 00b6 0131     		adds	r1, r1, #1
 1113 00b8 3143     		orrs	r1, r1, r6
 1114 00ba 1162     		str	r1, [r2, #32]
 1115 00bc D169     		ldr	r1, [r2, #28]
 1116 00be 354D     		ldr	r5, .L203+44
 1117 00c0 21F44F41 		bic	r1, r1, #52992
 1118 00c4 AB42     		cmp	r3, r5
 1119 00c6 21F0FF01 		bic	r1, r1, #255
 1120 00ca 00F1FF30 		add	r0, r0, #-1
 1121 00ce 09D8     		bhi	.L189
 1122 00d0 5B00     		lsls	r3, r3, #1
 1123 00d2 B0FBF3F0 		udiv	r0, r0, r3
 1124 00d6 431C     		adds	r3, r0, #1
 1125 00d8 C3F30B03 		ubfx	r3, r3, #0, #12
 1126 00dc 042B     		cmp	r3, #4
 1127 00de 38BF     		it	cc
 1128 00e0 0423     		movcc	r3, #4
 1129 00e2 18E0     		b	.L190
 1130              	.L189:
 1131 00e4 A568     		ldr	r5, [r4, #8]
 1132 00e6 55B9     		cbnz	r5, .L191
ARM GAS  /tmp/cctwxent.s 			page 20


 1133 00e8 03EB4303 		add	r3, r3, r3, lsl #1
 1134 00ec B0FBF3F0 		udiv	r0, r0, r3
 1135 00f0 431C     		adds	r3, r0, #1
 1136 00f2 C3F30B03 		ubfx	r3, r3, #0, #12
 1137 00f6 6BB1     		cbz	r3, .L196
 1138 00f8 43F40043 		orr	r3, r3, #32768
 1139 00fc 0BE0     		b	.L190
 1140              	.L191:
 1141 00fe 1925     		movs	r5, #25
 1142 0100 6B43     		muls	r3, r5, r3
 1143 0102 B0FBF3F0 		udiv	r0, r0, r3
 1144 0106 431C     		adds	r3, r0, #1
 1145 0108 C3F30B03 		ubfx	r3, r3, #0, #12
 1146 010c 13B1     		cbz	r3, .L196
 1147 010e 43F44043 		orr	r3, r3, #49152
 1148 0112 00E0     		b	.L190
 1149              	.L196:
 1150 0114 0123     		movs	r3, #1
 1151              	.L190:
 1152 0116 0B43     		orrs	r3, r3, r1
 1153 0118 D361     		str	r3, [r2, #28]
 1154 011a 1368     		ldr	r3, [r2]
 1155 011c 206A     		ldr	r0, [r4, #32]
 1156 011e E169     		ldr	r1, [r4, #28]
 1157 0120 23F0C003 		bic	r3, r3, #192
 1158 0124 0143     		orrs	r1, r1, r0
 1159 0126 0B43     		orrs	r3, r3, r1
 1160 0128 1360     		str	r3, [r2]
 1161 012a 9168     		ldr	r1, [r2, #8]
 1162 012c 2369     		ldr	r3, [r4, #16]
 1163 012e E068     		ldr	r0, [r4, #12]
 1164 0130 1843     		orrs	r0, r0, r3
 1165 0132 21F40343 		bic	r3, r1, #33536
 1166 0136 23F0FF03 		bic	r3, r3, #255
 1167 013a 0343     		orrs	r3, r3, r0
 1168 013c 9360     		str	r3, [r2, #8]
 1169 013e D368     		ldr	r3, [r2, #12]
 1170 0140 A069     		ldr	r0, [r4, #24]
 1171 0142 6169     		ldr	r1, [r4, #20]
 1172 0144 23F0FF03 		bic	r3, r3, #255
 1173 0148 0143     		orrs	r1, r1, r0
 1174 014a 0B43     		orrs	r3, r3, r1
 1175 014c D360     		str	r3, [r2, #12]
 1176 014e 1368     		ldr	r3, [r2]
 1177 0150 0020     		movs	r0, #0
 1178 0152 43F00103 		orr	r3, r3, #1
 1179 0156 1360     		str	r3, [r2]
 1180 0158 2023     		movs	r3, #32
 1181 015a 2064     		str	r0, [r4, #64]
 1182 015c 84F83D30 		strb	r3, [r4, #61]
 1183 0160 2063     		str	r0, [r4, #48]
 1184 0162 84F83E00 		strb	r0, [r4, #62]
 1185 0166 70BD     		pop	{r4, r5, r6, pc}
 1186              	.L204:
 1187              		.align	2
 1188              	.L203:
 1189 0168 00000000 		.word	HAL_I2C_MasterTxCpltCallback
ARM GAS  /tmp/cctwxent.s 			page 21


 1190 016c 00000000 		.word	HAL_I2C_MasterRxCpltCallback
 1191 0170 00000000 		.word	HAL_I2C_SlaveTxCpltCallback
 1192 0174 00000000 		.word	HAL_I2C_SlaveRxCpltCallback
 1193 0178 00000000 		.word	HAL_I2C_ListenCpltCallback
 1194 017c 00000000 		.word	HAL_I2C_MemTxCpltCallback
 1195 0180 00000000 		.word	HAL_I2C_MemRxCpltCallback
 1196 0184 00000000 		.word	HAL_I2C_ErrorCallback
 1197 0188 00000000 		.word	HAL_I2C_AbortCpltCallback
 1198 018c 00000000 		.word	HAL_I2C_AddrCallback
 1199 0190 00000000 		.word	HAL_I2C_MspInit
 1200 0194 A0860100 		.word	100000
 1201 0198 7F841E00 		.word	1999999
 1202 019c 40420F00 		.word	1000000
 1203 01a0 FF083D00 		.word	3999999
 1205              		.section	.text.HAL_I2C_DeInit,"ax",%progbits
 1206              		.align	1
 1207              		.global	HAL_I2C_DeInit
 1208              		.thumb
 1209              		.thumb_func
 1211              	HAL_I2C_DeInit:
 1212              		@ args = 0, pretend = 0, frame = 0
 1213              		@ frame_needed = 0, uses_anonymous_args = 0
 1214 0000 10B5     		push	{r4, lr}
 1215 0002 0446     		mov	r4, r0
 1216 0004 D8B1     		cbz	r0, .L208
 1217 0006 2423     		movs	r3, #36
 1218 0008 0268     		ldr	r2, [r0]
 1219 000a 80F83D30 		strb	r3, [r0, #61]
 1220 000e 1368     		ldr	r3, [r2]
 1221 0010 23F00103 		bic	r3, r3, #1
 1222 0014 1360     		str	r3, [r2]
 1223 0016 D0F88030 		ldr	r3, [r0, #128]
 1224 001a 13B9     		cbnz	r3, .L207
 1225 001c 094B     		ldr	r3, .L209
 1226 001e C0F88030 		str	r3, [r0, #128]
 1227              	.L207:
 1228 0022 2046     		mov	r0, r4
 1229 0024 D4F88030 		ldr	r3, [r4, #128]
 1230 0028 9847     		blx	r3
 1231 002a 0020     		movs	r0, #0
 1232 002c 2064     		str	r0, [r4, #64]
 1233 002e 84F83C00 		strb	r0, [r4, #60]
 1234 0032 84F83D00 		strb	r0, [r4, #61]
 1235 0036 2063     		str	r0, [r4, #48]
 1236 0038 84F83E00 		strb	r0, [r4, #62]
 1237 003c 10BD     		pop	{r4, pc}
 1238              	.L208:
 1239 003e 0120     		movs	r0, #1
 1240 0040 10BD     		pop	{r4, pc}
 1241              	.L210:
 1242 0042 00BF     		.align	2
 1243              	.L209:
 1244 0044 00000000 		.word	HAL_I2C_MspDeInit
 1246              		.section	.text.HAL_I2C_RegisterCallback,"ax",%progbits
 1247              		.align	1
 1248              		.global	HAL_I2C_RegisterCallback
 1249              		.thumb
ARM GAS  /tmp/cctwxent.s 			page 22


 1250              		.thumb_func
 1252              	HAL_I2C_RegisterCallback:
 1253              		@ args = 0, pretend = 0, frame = 0
 1254              		@ frame_needed = 0, uses_anonymous_args = 0
 1255 0000 30B5     		push	{r4, r5, lr}
 1256 0002 2AB9     		cbnz	r2, .L212
 1257 0004 036C     		ldr	r3, [r0, #64]
 1258 0006 43F48073 		orr	r3, r3, #256
 1259 000a 0364     		str	r3, [r0, #64]
 1260 000c 0120     		movs	r0, #1
 1261 000e 30BD     		pop	{r4, r5, pc}
 1262              	.L212:
 1263 0010 90F83C30 		ldrb	r3, [r0, #60]	@ zero_extendqisi2
 1264 0014 012B     		cmp	r3, #1
 1265 0016 3FD0     		beq	.L233
 1266 0018 90F83D40 		ldrb	r4, [r0, #61]	@ zero_extendqisi2
 1267 001c 0123     		movs	r3, #1
 1268 001e 202C     		cmp	r4, #32
 1269 0020 80F83C30 		strb	r3, [r0, #60]
 1270 0024 22D1     		bne	.L214
 1271 0026 0A29     		cmp	r1, #10
 1272 0028 1AD8     		bhi	.L215
 1273 002a DFE801F0 		tbb	[pc, r1]
 1274              	.L217:
 1275 002e 06       		.byte	(.L216-.L217)/2
 1276 002f 09       		.byte	(.L218-.L217)/2
 1277 0030 0B       		.byte	(.L219-.L217)/2
 1278 0031 0D       		.byte	(.L220-.L217)/2
 1279 0032 0F       		.byte	(.L221-.L217)/2
 1280 0033 11       		.byte	(.L222-.L217)/2
 1281 0034 13       		.byte	(.L223-.L217)/2
 1282 0035 15       		.byte	(.L224-.L217)/2
 1283 0036 17       		.byte	(.L225-.L217)/2
 1284 0037 27       		.byte	(.L231-.L217)/2
 1285 0038 29       		.byte	(.L232-.L217)/2
 1286 0039 00       		.p2align 1
 1287              	.L216:
 1288 003a 4265     		str	r2, [r0, #84]
 1289              	.L235:
 1290 003c 0023     		movs	r3, #0
 1291 003e 26E0     		b	.L228
 1292              	.L218:
 1293 0040 8265     		str	r2, [r0, #88]
 1294 0042 FBE7     		b	.L235
 1295              	.L219:
 1296 0044 C265     		str	r2, [r0, #92]
 1297 0046 F9E7     		b	.L235
 1298              	.L220:
 1299 0048 0266     		str	r2, [r0, #96]
 1300 004a F7E7     		b	.L235
 1301              	.L221:
 1302 004c 4266     		str	r2, [r0, #100]
 1303 004e F5E7     		b	.L235
 1304              	.L222:
 1305 0050 8266     		str	r2, [r0, #104]
 1306 0052 F3E7     		b	.L235
 1307              	.L223:
ARM GAS  /tmp/cctwxent.s 			page 23


 1308 0054 C266     		str	r2, [r0, #108]
 1309 0056 F1E7     		b	.L235
 1310              	.L224:
 1311 0058 0267     		str	r2, [r0, #112]
 1312 005a EFE7     		b	.L235
 1313              	.L225:
 1314 005c 4267     		str	r2, [r0, #116]
 1315 005e EDE7     		b	.L235
 1316              	.L215:
 1317 0060 036C     		ldr	r3, [r0, #64]
 1318 0062 43F48073 		orr	r3, r3, #256
 1319 0066 0364     		str	r3, [r0, #64]
 1320 0068 0123     		movs	r3, #1
 1321 006a 10E0     		b	.L228
 1322              	.L214:
 1323 006c 90F83D50 		ldrb	r5, [r0, #61]	@ zero_extendqisi2
 1324 0070 4DB9     		cbnz	r5, .L229
 1325 0072 0929     		cmp	r1, #9
 1326 0074 02D0     		beq	.L231
 1327 0076 0A29     		cmp	r1, #10
 1328 0078 02D0     		beq	.L232
 1329 007a 04E0     		b	.L229
 1330              	.L231:
 1331 007c C267     		str	r2, [r0, #124]
 1332 007e DDE7     		b	.L235
 1333              	.L232:
 1334 0080 C0F88020 		str	r2, [r0, #128]
 1335 0084 DAE7     		b	.L235
 1336              	.L229:
 1337 0086 026C     		ldr	r2, [r0, #64]
 1338 0088 42F48072 		orr	r2, r2, #256
 1339 008c 0264     		str	r2, [r0, #64]
 1340              	.L228:
 1341 008e 0022     		movs	r2, #0
 1342 0090 80F83C20 		strb	r2, [r0, #60]
 1343 0094 1846     		mov	r0, r3
 1344 0096 30BD     		pop	{r4, r5, pc}
 1345              	.L233:
 1346 0098 0220     		movs	r0, #2
 1347 009a 30BD     		pop	{r4, r5, pc}
 1349              		.section	.text.HAL_I2C_UnRegisterCallback,"ax",%progbits
 1350              		.align	1
 1351              		.global	HAL_I2C_UnRegisterCallback
 1352              		.thumb
 1353              		.thumb_func
 1355              	HAL_I2C_UnRegisterCallback:
 1356              		@ args = 0, pretend = 0, frame = 0
 1357              		@ frame_needed = 0, uses_anonymous_args = 0
 1358 0000 90F83C30 		ldrb	r3, [r0, #60]	@ zero_extendqisi2
 1359 0004 10B5     		push	{r4, lr}
 1360 0006 012B     		cmp	r3, #1
 1361 0008 4AD0     		beq	.L257
 1362 000a 90F83D20 		ldrb	r2, [r0, #61]	@ zero_extendqisi2
 1363 000e 0123     		movs	r3, #1
 1364 0010 202A     		cmp	r2, #32
 1365 0012 80F83C30 		strb	r3, [r0, #60]
 1366 0016 2BD1     		bne	.L238
ARM GAS  /tmp/cctwxent.s 			page 24


 1367 0018 0A29     		cmp	r1, #10
 1368 001a 23D8     		bhi	.L239
 1369 001c DFE801F0 		tbb	[pc, r1]
 1370              	.L241:
 1371 0020 06       		.byte	(.L240-.L241)/2
 1372 0021 0A       		.byte	(.L242-.L241)/2
 1373 0022 0D       		.byte	(.L243-.L241)/2
 1374 0023 10       		.byte	(.L244-.L241)/2
 1375 0024 13       		.byte	(.L245-.L241)/2
 1376 0025 16       		.byte	(.L246-.L241)/2
 1377 0026 19       		.byte	(.L247-.L241)/2
 1378 0027 1C       		.byte	(.L248-.L241)/2
 1379 0028 1F       		.byte	(.L249-.L241)/2
 1380 0029 30       		.byte	(.L255-.L241)/2
 1381 002a 33       		.byte	(.L256-.L241)/2
 1382 002b 00       		.p2align 1
 1383              	.L240:
 1384 002c 1D4B     		ldr	r3, .L260
 1385 002e 4365     		str	r3, [r0, #84]
 1386              	.L259:
 1387 0030 0023     		movs	r3, #0
 1388 0032 30E0     		b	.L252
 1389              	.L242:
 1390 0034 1C4B     		ldr	r3, .L260+4
 1391 0036 8365     		str	r3, [r0, #88]
 1392 0038 FAE7     		b	.L259
 1393              	.L243:
 1394 003a 1C4B     		ldr	r3, .L260+8
 1395 003c C365     		str	r3, [r0, #92]
 1396 003e F7E7     		b	.L259
 1397              	.L244:
 1398 0040 1B4B     		ldr	r3, .L260+12
 1399 0042 0366     		str	r3, [r0, #96]
 1400 0044 F4E7     		b	.L259
 1401              	.L245:
 1402 0046 1B4B     		ldr	r3, .L260+16
 1403 0048 4366     		str	r3, [r0, #100]
 1404 004a F1E7     		b	.L259
 1405              	.L246:
 1406 004c 1A4B     		ldr	r3, .L260+20
 1407 004e 8366     		str	r3, [r0, #104]
 1408 0050 EEE7     		b	.L259
 1409              	.L247:
 1410 0052 1A4B     		ldr	r3, .L260+24
 1411 0054 C366     		str	r3, [r0, #108]
 1412 0056 EBE7     		b	.L259
 1413              	.L248:
 1414 0058 194B     		ldr	r3, .L260+28
 1415 005a 0367     		str	r3, [r0, #112]
 1416 005c E8E7     		b	.L259
 1417              	.L249:
 1418 005e 194B     		ldr	r3, .L260+32
 1419 0060 4367     		str	r3, [r0, #116]
 1420 0062 E5E7     		b	.L259
 1421              	.L239:
 1422 0064 036C     		ldr	r3, [r0, #64]
 1423 0066 43F48073 		orr	r3, r3, #256
ARM GAS  /tmp/cctwxent.s 			page 25


 1424 006a 0364     		str	r3, [r0, #64]
 1425 006c 0123     		movs	r3, #1
 1426 006e 12E0     		b	.L252
 1427              	.L238:
 1428 0070 90F83D40 		ldrb	r4, [r0, #61]	@ zero_extendqisi2
 1429 0074 5CB9     		cbnz	r4, .L253
 1430 0076 0929     		cmp	r1, #9
 1431 0078 02D0     		beq	.L255
 1432 007a 0A29     		cmp	r1, #10
 1433 007c 03D0     		beq	.L256
 1434 007e 06E0     		b	.L253
 1435              	.L255:
 1436 0080 114B     		ldr	r3, .L260+36
 1437 0082 C367     		str	r3, [r0, #124]
 1438 0084 D4E7     		b	.L259
 1439              	.L256:
 1440 0086 114B     		ldr	r3, .L260+40
 1441 0088 C0F88030 		str	r3, [r0, #128]
 1442 008c D0E7     		b	.L259
 1443              	.L253:
 1444 008e 026C     		ldr	r2, [r0, #64]
 1445 0090 42F48072 		orr	r2, r2, #256
 1446 0094 0264     		str	r2, [r0, #64]
 1447              	.L252:
 1448 0096 0022     		movs	r2, #0
 1449 0098 80F83C20 		strb	r2, [r0, #60]
 1450 009c 1846     		mov	r0, r3
 1451 009e 10BD     		pop	{r4, pc}
 1452              	.L257:
 1453 00a0 0220     		movs	r0, #2
 1454 00a2 10BD     		pop	{r4, pc}
 1455              	.L261:
 1456              		.align	2
 1457              	.L260:
 1458 00a4 00000000 		.word	HAL_I2C_MasterTxCpltCallback
 1459 00a8 00000000 		.word	HAL_I2C_MasterRxCpltCallback
 1460 00ac 00000000 		.word	HAL_I2C_SlaveTxCpltCallback
 1461 00b0 00000000 		.word	HAL_I2C_SlaveRxCpltCallback
 1462 00b4 00000000 		.word	HAL_I2C_ListenCpltCallback
 1463 00b8 00000000 		.word	HAL_I2C_MemTxCpltCallback
 1464 00bc 00000000 		.word	HAL_I2C_MemRxCpltCallback
 1465 00c0 00000000 		.word	HAL_I2C_ErrorCallback
 1466 00c4 00000000 		.word	HAL_I2C_AbortCpltCallback
 1467 00c8 00000000 		.word	HAL_I2C_MspInit
 1468 00cc 00000000 		.word	HAL_I2C_MspDeInit
 1470              		.section	.text.HAL_I2C_RegisterAddrCallback,"ax",%progbits
 1471              		.align	1
 1472              		.global	HAL_I2C_RegisterAddrCallback
 1473              		.thumb
 1474              		.thumb_func
 1476              	HAL_I2C_RegisterAddrCallback:
 1477              		@ args = 0, pretend = 0, frame = 0
 1478              		@ frame_needed = 0, uses_anonymous_args = 0
 1479              		@ link register save eliminated.
 1480 0000 29B9     		cbnz	r1, .L263
 1481 0002 036C     		ldr	r3, [r0, #64]
 1482 0004 43F48073 		orr	r3, r3, #256
ARM GAS  /tmp/cctwxent.s 			page 26


 1483 0008 0364     		str	r3, [r0, #64]
 1484 000a 0120     		movs	r0, #1
 1485 000c 7047     		bx	lr
 1486              	.L263:
 1487 000e 90F83C30 		ldrb	r3, [r0, #60]	@ zero_extendqisi2
 1488 0012 012B     		cmp	r3, #1
 1489 0014 14D0     		beq	.L267
 1490 0016 90F83D20 		ldrb	r2, [r0, #61]	@ zero_extendqisi2
 1491 001a 0123     		movs	r3, #1
 1492 001c 202A     		cmp	r2, #32
 1493 001e 18BF     		it	ne
 1494 0020 026C     		ldrne	r2, [r0, #64]
 1495 0022 80F83C30 		strb	r3, [r0, #60]
 1496 0026 1ABF     		itte	ne
 1497 0028 42F48072 		orrne	r2, r2, #256
 1498 002c 0264     		strne	r2, [r0, #64]
 1499 002e 0023     		moveq	r3, #0
 1500 0030 4FF00002 		mov	r2, #0
 1501 0034 08BF     		it	eq
 1502 0036 8167     		streq	r1, [r0, #120]
 1503 0038 80F83C20 		strb	r2, [r0, #60]
 1504 003c 1846     		mov	r0, r3
 1505 003e 7047     		bx	lr
 1506              	.L267:
 1507 0040 0220     		movs	r0, #2
 1508 0042 7047     		bx	lr
 1510              		.section	.text.HAL_I2C_UnRegisterAddrCallback,"ax",%progbits
 1511              		.align	1
 1512              		.global	HAL_I2C_UnRegisterAddrCallback
 1513              		.thumb
 1514              		.thumb_func
 1516              	HAL_I2C_UnRegisterAddrCallback:
 1517              		@ args = 0, pretend = 0, frame = 0
 1518              		@ frame_needed = 0, uses_anonymous_args = 0
 1519              		@ link register save eliminated.
 1520 0000 90F83C30 		ldrb	r3, [r0, #60]	@ zero_extendqisi2
 1521 0004 012B     		cmp	r3, #1
 1522 0006 14D0     		beq	.L272
 1523 0008 90F83D20 		ldrb	r2, [r0, #61]	@ zero_extendqisi2
 1524 000c 0123     		movs	r3, #1
 1525 000e 202A     		cmp	r2, #32
 1526 0010 18BF     		it	ne
 1527 0012 026C     		ldrne	r2, [r0, #64]
 1528 0014 80F83C30 		strb	r3, [r0, #60]
 1529 0018 0BBF     		itete	eq
 1530 001a 074B     		ldreq	r3, .L273
 1531 001c 42F48072 		orrne	r2, r2, #256
 1532 0020 8367     		streq	r3, [r0, #120]
 1533 0022 0264     		strne	r2, [r0, #64]
 1534 0024 08BF     		it	eq
 1535 0026 0023     		moveq	r3, #0
 1536 0028 0022     		movs	r2, #0
 1537 002a 80F83C20 		strb	r2, [r0, #60]
 1538 002e 1846     		mov	r0, r3
 1539 0030 7047     		bx	lr
 1540              	.L272:
 1541 0032 0220     		movs	r0, #2
ARM GAS  /tmp/cctwxent.s 			page 27


 1542 0034 7047     		bx	lr
 1543              	.L274:
 1544 0036 00BF     		.align	2
 1545              	.L273:
 1546 0038 00000000 		.word	HAL_I2C_AddrCallback
 1548              		.section	.text.HAL_I2C_Master_Transmit,"ax",%progbits
 1549              		.align	1
 1550              		.global	HAL_I2C_Master_Transmit
 1551              		.thumb
 1552              		.thumb_func
 1554              	HAL_I2C_Master_Transmit:
 1555              		@ args = 4, pretend = 0, frame = 8
 1556              		@ frame_needed = 0, uses_anonymous_args = 0
 1557 0000 2DE9FF41 		push	{r0, r1, r2, r3, r4, r5, r6, r7, r8, lr}
 1558 0004 0446     		mov	r4, r0
 1559 0006 1F46     		mov	r7, r3
 1560 0008 0D46     		mov	r5, r1
 1561 000a 9046     		mov	r8, r2
 1562 000c FFF7FEFF 		bl	HAL_GetTick
 1563 0010 94F83D30 		ldrb	r3, [r4, #61]	@ zero_extendqisi2
 1564 0014 0646     		mov	r6, r0
 1565 0016 202B     		cmp	r3, #32
 1566 0018 01D0     		beq	.L276
 1567              	.L278:
 1568 001a 0225     		movs	r5, #2
 1569 001c B1E0     		b	.L310
 1570              	.L276:
 1571 001e 0090     		str	r0, [sp]
 1572 0020 5A49     		ldr	r1, .L316
 1573 0022 2046     		mov	r0, r4
 1574 0024 0122     		movs	r2, #1
 1575 0026 1923     		movs	r3, #25
 1576 0028 FFF7FEFF 		bl	I2C_WaitOnFlagUntilTimeout
 1577 002c 0028     		cmp	r0, #0
 1578 002e F4D1     		bne	.L278
 1579 0030 94F83C30 		ldrb	r3, [r4, #60]	@ zero_extendqisi2
 1580 0034 012B     		cmp	r3, #1
 1581 0036 F0D0     		beq	.L278
 1582 0038 0123     		movs	r3, #1
 1583 003a 84F83C30 		strb	r3, [r4, #60]
 1584 003e 2368     		ldr	r3, [r4]
 1585 0040 1A68     		ldr	r2, [r3]
 1586 0042 D207     		lsls	r2, r2, #31
 1587 0044 5EBF     		ittt	pl
 1588 0046 1A68     		ldrpl	r2, [r3]
 1589 0048 42F00102 		orrpl	r2, r2, #1
 1590 004c 1A60     		strpl	r2, [r3]
 1591 004e 1A68     		ldr	r2, [r3]
 1592 0050 22F40062 		bic	r2, r2, #2048
 1593 0054 1A60     		str	r2, [r3]
 1594 0056 2122     		movs	r2, #33
 1595 0058 84F83D20 		strb	r2, [r4, #61]
 1596 005c 1022     		movs	r2, #16
 1597 005e 84F83E20 		strb	r2, [r4, #62]
 1598 0062 0022     		movs	r2, #0
 1599 0064 2264     		str	r2, [r4, #64]
 1600 0066 6785     		strh	r7, [r4, #42]	@ movhi
ARM GAS  /tmp/cctwxent.s 			page 28


 1601 0068 628D     		ldrh	r2, [r4, #42]
 1602 006a C4F82480 		str	r8, [r4, #36]
 1603 006e 2285     		strh	r2, [r4, #40]	@ movhi
 1604 0070 474A     		ldr	r2, .L316+4
 1605 0072 E262     		str	r2, [r4, #44]
 1606 0074 E26A     		ldr	r2, [r4, #44]
 1607 0076 082A     		cmp	r2, #8
 1608 0078 07D0     		beq	.L312
 1609 007a 012A     		cmp	r2, #1
 1610 007c 05D0     		beq	.L312
 1611 007e 12F5803F 		cmn	r2, #65536
 1612 0082 02D0     		beq	.L312
 1613 0084 226B     		ldr	r2, [r4, #48]
 1614 0086 122A     		cmp	r2, #18
 1615 0088 03D1     		bne	.L282
 1616              	.L312:
 1617 008a 1A68     		ldr	r2, [r3]
 1618 008c 42F48072 		orr	r2, r2, #256
 1619 0090 1A60     		str	r2, [r3]
 1620              	.L282:
 1621 0092 0096     		str	r6, [sp]
 1622 0094 2046     		mov	r0, r4
 1623 0096 4FF00111 		mov	r1, #65537
 1624 009a 0022     		movs	r2, #0
 1625 009c 0A9B     		ldr	r3, [sp, #40]
 1626 009e FFF7FEFF 		bl	I2C_WaitOnFlagUntilTimeout
 1627 00a2 0028     		cmp	r0, #0
 1628 00a4 6CD1     		bne	.L283
 1629 00a6 2369     		ldr	r3, [r4, #16]
 1630 00a8 2268     		ldr	r2, [r4]
 1631 00aa B3F5804F 		cmp	r3, #16384
 1632 00ae 03D1     		bne	.L284
 1633 00b0 05F0FE05 		and	r5, r5, #254
 1634 00b4 1561     		str	r5, [r2, #16]
 1635 00b6 10E0     		b	.L285
 1636              	.L284:
 1637 00b8 05F44073 		and	r3, r5, #768
 1638 00bc DB11     		asrs	r3, r3, #7
 1639 00be 43F0F003 		orr	r3, r3, #240
 1640 00c2 1361     		str	r3, [r2, #16]
 1641 00c4 2046     		mov	r0, r4
 1642 00c6 3349     		ldr	r1, .L316+8
 1643 00c8 0A9A     		ldr	r2, [sp, #40]
 1644 00ca 3346     		mov	r3, r6
 1645 00cc FFF7FEFF 		bl	I2C_WaitOnMasterAddressFlagUntilTimeout
 1646 00d0 0028     		cmp	r0, #0
 1647 00d2 55D1     		bne	.L283
 1648 00d4 2368     		ldr	r3, [r4]
 1649 00d6 EDB2     		uxtb	r5, r5
 1650 00d8 1D61     		str	r5, [r3, #16]
 1651              	.L285:
 1652 00da 2046     		mov	r0, r4
 1653 00dc 2E49     		ldr	r1, .L316+12
 1654 00de 0A9A     		ldr	r2, [sp, #40]
 1655 00e0 3346     		mov	r3, r6
 1656 00e2 FFF7FEFF 		bl	I2C_WaitOnMasterAddressFlagUntilTimeout
 1657 00e6 0546     		mov	r5, r0
ARM GAS  /tmp/cctwxent.s 			page 29


 1658 00e8 0028     		cmp	r0, #0
 1659 00ea 49D1     		bne	.L283
 1660 00ec 2368     		ldr	r3, [r4]
 1661 00ee 0390     		str	r0, [sp, #12]
 1662 00f0 5A69     		ldr	r2, [r3, #20]
 1663 00f2 0392     		str	r2, [sp, #12]
 1664 00f4 9B69     		ldr	r3, [r3, #24]
 1665 00f6 0393     		str	r3, [sp, #12]
 1666 00f8 039B     		ldr	r3, [sp, #12]
 1667              	.L290:
 1668 00fa 238D     		ldrh	r3, [r4, #40]
 1669 00fc 002B     		cmp	r3, #0
 1670 00fe 32D0     		beq	.L315
 1671 0100 2046     		mov	r0, r4
 1672 0102 0A99     		ldr	r1, [sp, #40]
 1673 0104 3246     		mov	r2, r6
 1674 0106 FFF7FEFF 		bl	I2C_WaitOnTXEFlagUntilTimeout
 1675 010a 18BB     		cbnz	r0, .L314
 1676 010c 636A     		ldr	r3, [r4, #36]
 1677 010e 2068     		ldr	r0, [r4]
 1678 0110 1A46     		mov	r2, r3
 1679 0112 12F8011B 		ldrb	r1, [r2], #1	@ zero_extendqisi2
 1680 0116 0161     		str	r1, [r0, #16]
 1681 0118 6262     		str	r2, [r4, #36]
 1682 011a 628D     		ldrh	r2, [r4, #42]
 1683 011c 013A     		subs	r2, r2, #1
 1684 011e 92B2     		uxth	r2, r2
 1685 0120 6285     		strh	r2, [r4, #42]	@ movhi
 1686 0122 228D     		ldrh	r2, [r4, #40]
 1687 0124 4769     		ldr	r7, [r0, #20]
 1688 0126 511E     		subs	r1, r2, #1
 1689 0128 89B2     		uxth	r1, r1
 1690 012a 7F07     		lsls	r7, r7, #29
 1691 012c 2185     		strh	r1, [r4, #40]	@ movhi
 1692 012e 0AD5     		bpl	.L289
 1693 0130 49B1     		cbz	r1, .L289
 1694 0132 5978     		ldrb	r1, [r3, #1]	@ zero_extendqisi2
 1695 0134 0233     		adds	r3, r3, #2
 1696 0136 0161     		str	r1, [r0, #16]
 1697 0138 6362     		str	r3, [r4, #36]
 1698 013a 638D     		ldrh	r3, [r4, #42]
 1699 013c 023A     		subs	r2, r2, #2
 1700 013e 013B     		subs	r3, r3, #1
 1701 0140 9BB2     		uxth	r3, r3
 1702 0142 6385     		strh	r3, [r4, #42]	@ movhi
 1703 0144 2285     		strh	r2, [r4, #40]	@ movhi
 1704              	.L289:
 1705 0146 2046     		mov	r0, r4
 1706 0148 0A99     		ldr	r1, [sp, #40]
 1707 014a 3246     		mov	r2, r6
 1708 014c FFF7FEFF 		bl	I2C_WaitOnBTFFlagUntilTimeout
 1709 0150 0028     		cmp	r0, #0
 1710 0152 D2D0     		beq	.L290
 1711              	.L314:
 1712 0154 236C     		ldr	r3, [r4, #64]
 1713 0156 042B     		cmp	r3, #4
 1714 0158 12D1     		bne	.L283
ARM GAS  /tmp/cctwxent.s 			page 30


 1715 015a 2268     		ldr	r2, [r4]
 1716 015c 1368     		ldr	r3, [r2]
 1717 015e 43F40073 		orr	r3, r3, #512
 1718 0162 1360     		str	r3, [r2]
 1719 0164 0CE0     		b	.L283
 1720              	.L315:
 1721 0166 2168     		ldr	r1, [r4]
 1722 0168 0A68     		ldr	r2, [r1]
 1723 016a 42F40072 		orr	r2, r2, #512
 1724 016e 0A60     		str	r2, [r1]
 1725 0170 2022     		movs	r2, #32
 1726 0172 84F83D20 		strb	r2, [r4, #61]
 1727 0176 84F83C30 		strb	r3, [r4, #60]
 1728 017a 84F83E30 		strb	r3, [r4, #62]
 1729 017e 00E0     		b	.L310
 1730              	.L283:
 1731 0180 0125     		movs	r5, #1
 1732              	.L310:
 1733 0182 2846     		mov	r0, r5
 1734 0184 04B0     		add	sp, sp, #16
 1735              		@ sp needed
 1736 0186 BDE8F081 		pop	{r4, r5, r6, r7, r8, pc}
 1737              	.L317:
 1738 018a 00BF     		.align	2
 1739              	.L316:
 1740 018c 02001000 		.word	1048578
 1741 0190 0000FFFF 		.word	-65536
 1742 0194 08000100 		.word	65544
 1743 0198 02000100 		.word	65538
 1745              		.section	.text.HAL_I2C_Master_Receive,"ax",%progbits
 1746              		.align	1
 1747              		.global	HAL_I2C_Master_Receive
 1748              		.thumb
 1749              		.thumb_func
 1751              	HAL_I2C_Master_Receive:
 1752              		@ args = 4, pretend = 0, frame = 24
 1753              		@ frame_needed = 0, uses_anonymous_args = 0
 1754 0000 2DE9F043 		push	{r4, r5, r6, r7, r8, r9, lr}
 1755 0004 0446     		mov	r4, r0
 1756 0006 89B0     		sub	sp, sp, #36
 1757 0008 9846     		mov	r8, r3
 1758 000a 0F46     		mov	r7, r1
 1759 000c 9146     		mov	r9, r2
 1760 000e 109E     		ldr	r6, [sp, #64]
 1761 0010 FFF7FEFF 		bl	HAL_GetTick
 1762 0014 94F83D30 		ldrb	r3, [r4, #61]	@ zero_extendqisi2
 1763 0018 0546     		mov	r5, r0
 1764 001a 202B     		cmp	r3, #32
 1765 001c 01D0     		beq	.L319
 1766              	.L321:
 1767 001e 0227     		movs	r7, #2
 1768 0020 60E1     		b	.L355
 1769              	.L319:
 1770 0022 0090     		str	r0, [sp]
 1771 0024 9849     		ldr	r1, .L365
 1772 0026 2046     		mov	r0, r4
 1773 0028 0122     		movs	r2, #1
ARM GAS  /tmp/cctwxent.s 			page 31


 1774 002a 1923     		movs	r3, #25
 1775 002c FFF7FEFF 		bl	I2C_WaitOnFlagUntilTimeout
 1776 0030 0028     		cmp	r0, #0
 1777 0032 F4D1     		bne	.L321
 1778 0034 94F83C30 		ldrb	r3, [r4, #60]	@ zero_extendqisi2
 1779 0038 012B     		cmp	r3, #1
 1780 003a F0D0     		beq	.L321
 1781 003c 0123     		movs	r3, #1
 1782 003e 84F83C30 		strb	r3, [r4, #60]
 1783 0042 2368     		ldr	r3, [r4]
 1784 0044 1A68     		ldr	r2, [r3]
 1785 0046 D007     		lsls	r0, r2, #31
 1786 0048 5EBF     		ittt	pl
 1787 004a 1A68     		ldrpl	r2, [r3]
 1788 004c 42F00102 		orrpl	r2, r2, #1
 1789 0050 1A60     		strpl	r2, [r3]
 1790 0052 1A68     		ldr	r2, [r3]
 1791 0054 22F40062 		bic	r2, r2, #2048
 1792 0058 1A60     		str	r2, [r3]
 1793 005a 2222     		movs	r2, #34
 1794 005c 84F83D20 		strb	r2, [r4, #61]
 1795 0060 1022     		movs	r2, #16
 1796 0062 84F83E20 		strb	r2, [r4, #62]
 1797 0066 0022     		movs	r2, #0
 1798 0068 2264     		str	r2, [r4, #64]
 1799 006a A4F82A80 		strh	r8, [r4, #42]	@ movhi
 1800 006e 628D     		ldrh	r2, [r4, #42]
 1801 0070 C4F82490 		str	r9, [r4, #36]
 1802 0074 2285     		strh	r2, [r4, #40]	@ movhi
 1803 0076 854A     		ldr	r2, .L365+4
 1804 0078 E262     		str	r2, [r4, #44]
 1805 007a E26A     		ldr	r2, [r4, #44]
 1806 007c 1968     		ldr	r1, [r3]
 1807 007e 082A     		cmp	r2, #8
 1808 0080 41F48061 		orr	r1, r1, #1024
 1809 0084 1960     		str	r1, [r3]
 1810 0086 07D0     		beq	.L358
 1811 0088 012A     		cmp	r2, #1
 1812 008a 05D0     		beq	.L358
 1813 008c 12F5803F 		cmn	r2, #65536
 1814 0090 02D0     		beq	.L358
 1815 0092 226B     		ldr	r2, [r4, #48]
 1816 0094 112A     		cmp	r2, #17
 1817 0096 03D1     		bne	.L325
 1818              	.L358:
 1819 0098 1A68     		ldr	r2, [r3]
 1820 009a 42F48072 		orr	r2, r2, #256
 1821 009e 1A60     		str	r2, [r3]
 1822              	.L325:
 1823 00a0 0095     		str	r5, [sp]
 1824 00a2 2046     		mov	r0, r4
 1825 00a4 4FF00111 		mov	r1, #65537
 1826 00a8 0022     		movs	r2, #0
 1827 00aa 3346     		mov	r3, r6
 1828 00ac FFF7FEFF 		bl	I2C_WaitOnFlagUntilTimeout
 1829 00b0 0028     		cmp	r0, #0
 1830 00b2 40F01681 		bne	.L326
ARM GAS  /tmp/cctwxent.s 			page 32


 1831 00b6 2369     		ldr	r3, [r4, #16]
 1832 00b8 B3F5804F 		cmp	r3, #16384
 1833 00bc 2368     		ldr	r3, [r4]
 1834 00be 04D1     		bne	.L327
 1835 00c0 47F00107 		orr	r7, r7, #1
 1836 00c4 FFB2     		uxtb	r7, r7
 1837 00c6 1F61     		str	r7, [r3, #16]
 1838 00c8 35E0     		b	.L328
 1839              	.L327:
 1840 00ca 07F44078 		and	r8, r7, #768
 1841 00ce 4FEAD818 		lsr	r8, r8, #7
 1842 00d2 48F0F002 		orr	r2, r8, #240
 1843 00d6 1A61     		str	r2, [r3, #16]
 1844 00d8 2046     		mov	r0, r4
 1845 00da 6D49     		ldr	r1, .L365+8
 1846 00dc 3246     		mov	r2, r6
 1847 00de 2B46     		mov	r3, r5
 1848 00e0 FFF7FEFF 		bl	I2C_WaitOnMasterAddressFlagUntilTimeout
 1849 00e4 0028     		cmp	r0, #0
 1850 00e6 40F0FC80 		bne	.L326
 1851 00ea 2368     		ldr	r3, [r4]
 1852 00ec FFB2     		uxtb	r7, r7
 1853 00ee 1F61     		str	r7, [r3, #16]
 1854 00f0 3246     		mov	r2, r6
 1855 00f2 2046     		mov	r0, r4
 1856 00f4 6749     		ldr	r1, .L365+12
 1857 00f6 2B46     		mov	r3, r5
 1858 00f8 FFF7FEFF 		bl	I2C_WaitOnMasterAddressFlagUntilTimeout
 1859 00fc 0246     		mov	r2, r0
 1860 00fe 0028     		cmp	r0, #0
 1861 0100 40F0EF80 		bne	.L326
 1862 0104 2368     		ldr	r3, [r4]
 1863 0106 0790     		str	r0, [sp, #28]
 1864 0108 5969     		ldr	r1, [r3, #20]
 1865 010a 2046     		mov	r0, r4
 1866 010c 0791     		str	r1, [sp, #28]
 1867 010e 9969     		ldr	r1, [r3, #24]
 1868 0110 0791     		str	r1, [sp, #28]
 1869 0112 0799     		ldr	r1, [sp, #28]
 1870 0114 1968     		ldr	r1, [r3]
 1871 0116 41F48071 		orr	r1, r1, #256
 1872 011a 1960     		str	r1, [r3]
 1873 011c 0095     		str	r5, [sp]
 1874 011e 4FF00111 		mov	r1, #65537
 1875 0122 3346     		mov	r3, r6
 1876 0124 FFF7FEFF 		bl	I2C_WaitOnFlagUntilTimeout
 1877 0128 0028     		cmp	r0, #0
 1878 012a 40F0DA80 		bne	.L326
 1879 012e 2268     		ldr	r2, [r4]
 1880 0130 48F0F103 		orr	r3, r8, #241
 1881 0134 1361     		str	r3, [r2, #16]
 1882              	.L328:
 1883 0136 2046     		mov	r0, r4
 1884 0138 5649     		ldr	r1, .L365+12
 1885 013a 3246     		mov	r2, r6
 1886 013c 2B46     		mov	r3, r5
 1887 013e FFF7FEFF 		bl	I2C_WaitOnMasterAddressFlagUntilTimeout
ARM GAS  /tmp/cctwxent.s 			page 33


 1888 0142 0746     		mov	r7, r0
 1889 0144 0028     		cmp	r0, #0
 1890 0146 40F0CC80 		bne	.L326
 1891 014a 228D     		ldrh	r2, [r4, #40]
 1892 014c 2368     		ldr	r3, [r4]
 1893 014e 52B9     		cbnz	r2, .L363
 1894 0150 0397     		str	r7, [sp, #12]
 1895 0152 5A69     		ldr	r2, [r3, #20]
 1896 0154 0392     		str	r2, [sp, #12]
 1897 0156 9A69     		ldr	r2, [r3, #24]
 1898 0158 0392     		str	r2, [sp, #12]
 1899 015a 039A     		ldr	r2, [sp, #12]
 1900 015c 1A68     		ldr	r2, [r3]
 1901 015e 42F40072 		orr	r2, r2, #512
 1902 0162 1A60     		str	r2, [r3]
 1903 0164 49E0     		b	.L333
 1904              	.L363:
 1905 0166 012A     		cmp	r2, #1
 1906 0168 0FD1     		bne	.L331
 1907 016a 1A68     		ldr	r2, [r3]
 1908 016c 22F48062 		bic	r2, r2, #1024
 1909 0170 1A60     		str	r2, [r3]
 1910              	@ 142 "./cmsis/inc/cmsis_gcc.h" 1
 1911 0172 72B6     		cpsid i
 1912              	@ 0 "" 2
 1913              		.thumb
 1914 0174 2368     		ldr	r3, [r4]
 1915 0176 0497     		str	r7, [sp, #16]
 1916 0178 5A69     		ldr	r2, [r3, #20]
 1917 017a 0492     		str	r2, [sp, #16]
 1918 017c 9A69     		ldr	r2, [r3, #24]
 1919 017e 0492     		str	r2, [sp, #16]
 1920 0180 049A     		ldr	r2, [sp, #16]
 1921 0182 1A68     		ldr	r2, [r3]
 1922 0184 42F40072 		orr	r2, r2, #512
 1923 0188 10E0     		b	.L359
 1924              	.L331:
 1925 018a 022A     		cmp	r2, #2
 1926 018c 1A68     		ldr	r2, [r3]
 1927 018e 10D1     		bne	.L332
 1928 0190 42F40062 		orr	r2, r2, #2048
 1929 0194 1A60     		str	r2, [r3]
 1930              	@ 142 "./cmsis/inc/cmsis_gcc.h" 1
 1931 0196 72B6     		cpsid i
 1932              	@ 0 "" 2
 1933              		.thumb
 1934 0198 2368     		ldr	r3, [r4]
 1935 019a 0597     		str	r7, [sp, #20]
 1936 019c 5A69     		ldr	r2, [r3, #20]
 1937 019e 0592     		str	r2, [sp, #20]
 1938 01a0 9A69     		ldr	r2, [r3, #24]
 1939 01a2 0592     		str	r2, [sp, #20]
 1940 01a4 059A     		ldr	r2, [sp, #20]
 1941 01a6 1A68     		ldr	r2, [r3]
 1942 01a8 22F48062 		bic	r2, r2, #1024
 1943              	.L359:
 1944 01ac 1A60     		str	r2, [r3]
ARM GAS  /tmp/cctwxent.s 			page 34


 1945              	@ 131 "./cmsis/inc/cmsis_gcc.h" 1
 1946 01ae 62B6     		cpsie i
 1947              	@ 0 "" 2
 1948              		.thumb
 1949 01b0 23E0     		b	.L333
 1950              	.L332:
 1951 01b2 42F48062 		orr	r2, r2, #1024
 1952 01b6 1A60     		str	r2, [r3]
 1953 01b8 0697     		str	r7, [sp, #24]
 1954 01ba 5A69     		ldr	r2, [r3, #20]
 1955 01bc 0692     		str	r2, [sp, #24]
 1956 01be 9B69     		ldr	r3, [r3, #24]
 1957 01c0 0693     		str	r3, [sp, #24]
 1958 01c2 069B     		ldr	r3, [sp, #24]
 1959 01c4 19E0     		b	.L333
 1960              	.L340:
 1961 01c6 032B     		cmp	r3, #3
 1962 01c8 68D8     		bhi	.L334
 1963 01ca 012B     		cmp	r3, #1
 1964 01cc 19D1     		bne	.L335
 1965 01ce 2046     		mov	r0, r4
 1966 01d0 3146     		mov	r1, r6
 1967 01d2 2A46     		mov	r2, r5
 1968 01d4 FFF7FEFF 		bl	I2C_WaitOnRXNEFlagUntilTimeout
 1969 01d8 0028     		cmp	r0, #0
 1970 01da 40F08280 		bne	.L326
 1971              	.L362:
 1972 01de 2268     		ldr	r2, [r4]
 1973 01e0 636A     		ldr	r3, [r4, #36]
 1974 01e2 1269     		ldr	r2, [r2, #16]
 1975 01e4 1A70     		strb	r2, [r3]
 1976              	.L360:
 1977 01e6 636A     		ldr	r3, [r4, #36]
 1978 01e8 0133     		adds	r3, r3, #1
 1979 01ea 6362     		str	r3, [r4, #36]
 1980 01ec 238D     		ldrh	r3, [r4, #40]
 1981 01ee 013B     		subs	r3, r3, #1
 1982 01f0 2385     		strh	r3, [r4, #40]	@ movhi
 1983 01f2 638D     		ldrh	r3, [r4, #42]
 1984 01f4 013B     		subs	r3, r3, #1
 1985 01f6 9BB2     		uxth	r3, r3
 1986 01f8 6385     		strh	r3, [r4, #42]	@ movhi
 1987              	.L333:
 1988 01fa 238D     		ldrh	r3, [r4, #40]
 1989 01fc 002B     		cmp	r3, #0
 1990 01fe E2D1     		bne	.L340
 1991 0200 67E0     		b	.L364
 1992              	.L335:
 1993 0202 022B     		cmp	r3, #2
 1994 0204 0095     		str	r5, [sp]
 1995 0206 2046     		mov	r0, r4
 1996 0208 2349     		ldr	r1, .L365+16
 1997 020a 4FF00002 		mov	r2, #0
 1998 020e 3346     		mov	r3, r6
 1999 0210 05D1     		bne	.L338
 2000 0212 FFF7FEFF 		bl	I2C_WaitOnFlagUntilTimeout
 2001 0216 0028     		cmp	r0, #0
ARM GAS  /tmp/cctwxent.s 			page 35


 2002 0218 63D1     		bne	.L326
 2003              	@ 142 "./cmsis/inc/cmsis_gcc.h" 1
 2004 021a 72B6     		cpsid i
 2005              	@ 0 "" 2
 2006              		.thumb
 2007 021c 20E0     		b	.L361
 2008              	.L338:
 2009 021e FFF7FEFF 		bl	I2C_WaitOnFlagUntilTimeout
 2010 0222 0246     		mov	r2, r0
 2011 0224 0028     		cmp	r0, #0
 2012 0226 5CD1     		bne	.L326
 2013 0228 2168     		ldr	r1, [r4]
 2014 022a 0B68     		ldr	r3, [r1]
 2015 022c 23F48063 		bic	r3, r3, #1024
 2016 0230 0B60     		str	r3, [r1]
 2017              	@ 142 "./cmsis/inc/cmsis_gcc.h" 1
 2018 0232 72B6     		cpsid i
 2019              	@ 0 "" 2
 2020              		.thumb
 2021 0234 2168     		ldr	r1, [r4]
 2022 0236 636A     		ldr	r3, [r4, #36]
 2023 0238 0969     		ldr	r1, [r1, #16]
 2024 023a 2046     		mov	r0, r4
 2025 023c 1970     		strb	r1, [r3]
 2026 023e 636A     		ldr	r3, [r4, #36]
 2027 0240 0095     		str	r5, [sp]
 2028 0242 0133     		adds	r3, r3, #1
 2029 0244 6362     		str	r3, [r4, #36]
 2030 0246 238D     		ldrh	r3, [r4, #40]
 2031 0248 1349     		ldr	r1, .L365+16
 2032 024a 013B     		subs	r3, r3, #1
 2033 024c 2385     		strh	r3, [r4, #40]	@ movhi
 2034 024e 638D     		ldrh	r3, [r4, #42]
 2035 0250 013B     		subs	r3, r3, #1
 2036 0252 9BB2     		uxth	r3, r3
 2037 0254 6385     		strh	r3, [r4, #42]	@ movhi
 2038 0256 3346     		mov	r3, r6
 2039 0258 FFF7FEFF 		bl	I2C_WaitOnFlagUntilTimeout
 2040 025c 0028     		cmp	r0, #0
 2041 025e 40D1     		bne	.L326
 2042              	.L361:
 2043 0260 2368     		ldr	r3, [r4]
 2044 0262 1A68     		ldr	r2, [r3]
 2045 0264 42F40072 		orr	r2, r2, #512
 2046 0268 1A60     		str	r2, [r3]
 2047 026a 1B69     		ldr	r3, [r3, #16]
 2048 026c 626A     		ldr	r2, [r4, #36]
 2049 026e 1370     		strb	r3, [r2]
 2050 0270 636A     		ldr	r3, [r4, #36]
 2051 0272 0133     		adds	r3, r3, #1
 2052 0274 6362     		str	r3, [r4, #36]
 2053 0276 238D     		ldrh	r3, [r4, #40]
 2054 0278 013B     		subs	r3, r3, #1
 2055 027a 2385     		strh	r3, [r4, #40]	@ movhi
 2056 027c 638D     		ldrh	r3, [r4, #42]
 2057 027e 013B     		subs	r3, r3, #1
 2058 0280 9BB2     		uxth	r3, r3
ARM GAS  /tmp/cctwxent.s 			page 36


 2059 0282 6385     		strh	r3, [r4, #42]	@ movhi
 2060              	@ 131 "./cmsis/inc/cmsis_gcc.h" 1
 2061 0284 62B6     		cpsie i
 2062              	@ 0 "" 2
 2063              		.thumb
 2064 0286 AAE7     		b	.L362
 2065              	.L366:
 2066              		.align	2
 2067              	.L365:
 2068 0288 02001000 		.word	1048578
 2069 028c 0000FFFF 		.word	-65536
 2070 0290 08000100 		.word	65544
 2071 0294 02000100 		.word	65538
 2072 0298 04000100 		.word	65540
 2073              	.L334:
 2074 029c 2046     		mov	r0, r4
 2075 029e 3146     		mov	r1, r6
 2076 02a0 2A46     		mov	r2, r5
 2077 02a2 FFF7FEFF 		bl	I2C_WaitOnRXNEFlagUntilTimeout
 2078 02a6 E0B9     		cbnz	r0, .L326
 2079 02a8 2268     		ldr	r2, [r4]
 2080 02aa 636A     		ldr	r3, [r4, #36]
 2081 02ac 1269     		ldr	r2, [r2, #16]
 2082 02ae 1A70     		strb	r2, [r3]
 2083 02b0 626A     		ldr	r2, [r4, #36]
 2084 02b2 531C     		adds	r3, r2, #1
 2085 02b4 6362     		str	r3, [r4, #36]
 2086 02b6 238D     		ldrh	r3, [r4, #40]
 2087 02b8 013B     		subs	r3, r3, #1
 2088 02ba 2385     		strh	r3, [r4, #40]	@ movhi
 2089 02bc 638D     		ldrh	r3, [r4, #42]
 2090 02be 013B     		subs	r3, r3, #1
 2091 02c0 9BB2     		uxth	r3, r3
 2092 02c2 6385     		strh	r3, [r4, #42]	@ movhi
 2093 02c4 2368     		ldr	r3, [r4]
 2094 02c6 5969     		ldr	r1, [r3, #20]
 2095 02c8 4907     		lsls	r1, r1, #29
 2096 02ca 96D5     		bpl	.L333
 2097 02cc 1B69     		ldr	r3, [r3, #16]
 2098 02ce 5370     		strb	r3, [r2, #1]
 2099 02d0 89E7     		b	.L360
 2100              	.L364:
 2101 02d2 2022     		movs	r2, #32
 2102 02d4 84F83D20 		strb	r2, [r4, #61]
 2103 02d8 84F83C30 		strb	r3, [r4, #60]
 2104 02dc 84F83E30 		strb	r3, [r4, #62]
 2105 02e0 00E0     		b	.L355
 2106              	.L326:
 2107 02e2 0127     		movs	r7, #1
 2108              	.L355:
 2109 02e4 3846     		mov	r0, r7
 2110 02e6 09B0     		add	sp, sp, #36
 2111              		@ sp needed
 2112 02e8 BDE8F083 		pop	{r4, r5, r6, r7, r8, r9, pc}
 2114              		.section	.text.HAL_I2C_Slave_Transmit,"ax",%progbits
 2115              		.align	1
 2116              		.global	HAL_I2C_Slave_Transmit
ARM GAS  /tmp/cctwxent.s 			page 37


 2117              		.thumb
 2118              		.thumb_func
 2120              	HAL_I2C_Slave_Transmit:
 2121              		@ args = 0, pretend = 0, frame = 8
 2122              		@ frame_needed = 0, uses_anonymous_args = 0
 2123 0000 2DE9FF41 		push	{r0, r1, r2, r3, r4, r5, r6, r7, r8, lr}
 2124 0004 0446     		mov	r4, r0
 2125 0006 1D46     		mov	r5, r3
 2126 0008 0F46     		mov	r7, r1
 2127 000a 9046     		mov	r8, r2
 2128 000c FFF7FEFF 		bl	HAL_GetTick
 2129 0010 94F83D30 		ldrb	r3, [r4, #61]	@ zero_extendqisi2
 2130 0014 0646     		mov	r6, r0
 2131 0016 202B     		cmp	r3, #32
 2132 0018 40F09880 		bne	.L378
 2133 001c 002F     		cmp	r7, #0
 2134 001e 6DD0     		beq	.L388
 2135 0020 B8F1000F 		cmp	r8, #0
 2136 0024 6AD0     		beq	.L388
 2137 0026 94F83C30 		ldrb	r3, [r4, #60]	@ zero_extendqisi2
 2138 002a 012B     		cmp	r3, #1
 2139 002c 00F08E80 		beq	.L378
 2140 0030 0123     		movs	r3, #1
 2141 0032 84F83C30 		strb	r3, [r4, #60]
 2142 0036 2368     		ldr	r3, [r4]
 2143 0038 1A68     		ldr	r2, [r3]
 2144 003a D207     		lsls	r2, r2, #31
 2145 003c 58BF     		it	pl
 2146 003e 1868     		ldrpl	r0, [r3]
 2147 0040 4FF02102 		mov	r2, #33
 2148 0044 5CBF     		itt	pl
 2149 0046 40F00100 		orrpl	r0, r0, #1
 2150 004a 1860     		strpl	r0, [r3]
 2151 004c 1868     		ldr	r0, [r3]
 2152 004e 20F40060 		bic	r0, r0, #2048
 2153 0052 1860     		str	r0, [r3]
 2154 0054 84F83D20 		strb	r2, [r4, #61]
 2155 0058 2022     		movs	r2, #32
 2156 005a 84F83E20 		strb	r2, [r4, #62]
 2157 005e 0022     		movs	r2, #0
 2158 0060 2264     		str	r2, [r4, #64]
 2159 0062 A4F82A80 		strh	r8, [r4, #42]	@ movhi
 2160 0066 618D     		ldrh	r1, [r4, #42]
 2161 0068 6762     		str	r7, [r4, #36]
 2162 006a 2185     		strh	r1, [r4, #40]	@ movhi
 2163 006c 3949     		ldr	r1, .L391
 2164 006e 2046     		mov	r0, r4
 2165 0070 E162     		str	r1, [r4, #44]
 2166 0072 1968     		ldr	r1, [r3]
 2167 0074 41F48061 		orr	r1, r1, #1024
 2168 0078 1960     		str	r1, [r3]
 2169 007a 0096     		str	r6, [sp]
 2170 007c 3649     		ldr	r1, .L391+4
 2171 007e 2B46     		mov	r3, r5
 2172 0080 FFF7FEFF 		bl	I2C_WaitOnFlagUntilTimeout
 2173 0084 0246     		mov	r2, r0
 2174 0086 0028     		cmp	r0, #0
ARM GAS  /tmp/cctwxent.s 			page 38


 2175 0088 38D1     		bne	.L388
 2176 008a 2368     		ldr	r3, [r4]
 2177 008c 0290     		str	r0, [sp, #8]
 2178 008e 5969     		ldr	r1, [r3, #20]
 2179 0090 0291     		str	r1, [sp, #8]
 2180 0092 9B69     		ldr	r3, [r3, #24]
 2181 0094 0293     		str	r3, [sp, #8]
 2182 0096 029B     		ldr	r3, [sp, #8]
 2183 0098 2369     		ldr	r3, [r4, #16]
 2184 009a B3F5404F 		cmp	r3, #49152
 2185 009e 1FD1     		bne	.L373
 2186 00a0 0096     		str	r6, [sp]
 2187 00a2 2046     		mov	r0, r4
 2188 00a4 2C49     		ldr	r1, .L391+4
 2189 00a6 2B46     		mov	r3, r5
 2190 00a8 FFF7FEFF 		bl	I2C_WaitOnFlagUntilTimeout
 2191 00ac 30BB     		cbnz	r0, .L388
 2192 00ae 2368     		ldr	r3, [r4]
 2193 00b0 0390     		str	r0, [sp, #12]
 2194 00b2 5A69     		ldr	r2, [r3, #20]
 2195 00b4 0392     		str	r2, [sp, #12]
 2196 00b6 9B69     		ldr	r3, [r3, #24]
 2197 00b8 0393     		str	r3, [sp, #12]
 2198 00ba 039B     		ldr	r3, [sp, #12]
 2199 00bc 10E0     		b	.L373
 2200              	.L374:
 2201 00be 636A     		ldr	r3, [r4, #36]
 2202 00c0 1946     		mov	r1, r3
 2203 00c2 11F8010B 		ldrb	r0, [r1], #1	@ zero_extendqisi2
 2204 00c6 1061     		str	r0, [r2, #16]
 2205 00c8 6162     		str	r1, [r4, #36]
 2206 00ca 618D     		ldrh	r1, [r4, #42]
 2207 00cc 0139     		subs	r1, r1, #1
 2208 00ce 89B2     		uxth	r1, r1
 2209 00d0 6185     		strh	r1, [r4, #42]	@ movhi
 2210 00d2 218D     		ldrh	r1, [r4, #40]
 2211 00d4 5769     		ldr	r7, [r2, #20]
 2212 00d6 481E     		subs	r0, r1, #1
 2213 00d8 80B2     		uxth	r0, r0
 2214 00da 7F07     		lsls	r7, r7, #29
 2215 00dc 2085     		strh	r0, [r4, #40]	@ movhi
 2216 00de 0FD4     		bmi	.L389
 2217              	.L373:
 2218 00e0 228D     		ldrh	r2, [r4, #40]
 2219 00e2 D2B1     		cbz	r2, .L390
 2220 00e4 3246     		mov	r2, r6
 2221 00e6 2046     		mov	r0, r4
 2222 00e8 2946     		mov	r1, r5
 2223 00ea FFF7FEFF 		bl	I2C_WaitOnTXEFlagUntilTimeout
 2224 00ee 2268     		ldr	r2, [r4]
 2225 00f0 0028     		cmp	r0, #0
 2226 00f2 E4D0     		beq	.L374
 2227 00f4 1368     		ldr	r3, [r2]
 2228 00f6 23F48063 		bic	r3, r3, #1024
 2229 00fa 1360     		str	r3, [r2]
 2230              	.L388:
 2231 00fc 0120     		movs	r0, #1
ARM GAS  /tmp/cctwxent.s 			page 39


 2232 00fe 26E0     		b	.L368
 2233              	.L389:
 2234 0100 0028     		cmp	r0, #0
 2235 0102 EDD0     		beq	.L373
 2236 0104 5878     		ldrb	r0, [r3, #1]	@ zero_extendqisi2
 2237 0106 0233     		adds	r3, r3, #2
 2238 0108 1061     		str	r0, [r2, #16]
 2239 010a 6362     		str	r3, [r4, #36]
 2240 010c 638D     		ldrh	r3, [r4, #42]
 2241 010e 0239     		subs	r1, r1, #2
 2242 0110 013B     		subs	r3, r3, #1
 2243 0112 9BB2     		uxth	r3, r3
 2244 0114 6385     		strh	r3, [r4, #42]	@ movhi
 2245 0116 2185     		strh	r1, [r4, #40]	@ movhi
 2246 0118 E2E7     		b	.L373
 2247              	.L390:
 2248 011a 0096     		str	r6, [sp]
 2249 011c 2046     		mov	r0, r4
 2250 011e 4FF48231 		mov	r1, #66560
 2251 0122 2B46     		mov	r3, r5
 2252 0124 FFF7FEFF 		bl	I2C_WaitOnFlagUntilTimeout
 2253 0128 0028     		cmp	r0, #0
 2254 012a E7D1     		bne	.L388
 2255 012c 2368     		ldr	r3, [r4]
 2256 012e 6FF48062 		mvn	r2, #1024
 2257 0132 5A61     		str	r2, [r3, #20]
 2258 0134 1A68     		ldr	r2, [r3]
 2259 0136 22F48062 		bic	r2, r2, #1024
 2260 013a 1A60     		str	r2, [r3]
 2261 013c 2023     		movs	r3, #32
 2262 013e 84F83D30 		strb	r3, [r4, #61]
 2263 0142 84F83C00 		strb	r0, [r4, #60]
 2264 0146 84F83E00 		strb	r0, [r4, #62]
 2265 014a 00E0     		b	.L368
 2266              	.L378:
 2267 014c 0220     		movs	r0, #2
 2268              	.L368:
 2269 014e 04B0     		add	sp, sp, #16
 2270              		@ sp needed
 2271 0150 BDE8F081 		pop	{r4, r5, r6, r7, r8, pc}
 2272              	.L392:
 2273              		.align	2
 2274              	.L391:
 2275 0154 0000FFFF 		.word	-65536
 2276 0158 02000100 		.word	65538
 2278              		.section	.text.HAL_I2C_Slave_Receive,"ax",%progbits
 2279              		.align	1
 2280              		.global	HAL_I2C_Slave_Receive
 2281              		.thumb
 2282              		.thumb_func
 2284              	HAL_I2C_Slave_Receive:
 2285              		@ args = 0, pretend = 0, frame = 8
 2286              		@ frame_needed = 0, uses_anonymous_args = 0
 2287 0000 2DE9FF41 		push	{r0, r1, r2, r3, r4, r5, r6, r7, r8, lr}
 2288 0004 0446     		mov	r4, r0
 2289 0006 1E46     		mov	r6, r3
 2290 0008 0D46     		mov	r5, r1
ARM GAS  /tmp/cctwxent.s 			page 40


 2291 000a 9046     		mov	r8, r2
 2292 000c FFF7FEFF 		bl	HAL_GetTick
 2293 0010 94F83D30 		ldrb	r3, [r4, #61]	@ zero_extendqisi2
 2294 0014 0746     		mov	r7, r0
 2295 0016 202B     		cmp	r3, #32
 2296 0018 40F08D80 		bne	.L408
 2297 001c 002D     		cmp	r5, #0
 2298 001e 5CD0     		beq	.L421
 2299 0020 B8F1000F 		cmp	r8, #0
 2300 0024 59D0     		beq	.L421
 2301 0026 94F83C30 		ldrb	r3, [r4, #60]	@ zero_extendqisi2
 2302 002a 012B     		cmp	r3, #1
 2303 002c 00F08380 		beq	.L408
 2304 0030 0123     		movs	r3, #1
 2305 0032 84F83C30 		strb	r3, [r4, #60]
 2306 0036 2368     		ldr	r3, [r4]
 2307 0038 1A68     		ldr	r2, [r3]
 2308 003a D207     		lsls	r2, r2, #31
 2309 003c 58BF     		it	pl
 2310 003e 1868     		ldrpl	r0, [r3]
 2311 0040 4FF02202 		mov	r2, #34
 2312 0044 5CBF     		itt	pl
 2313 0046 40F00100 		orrpl	r0, r0, #1
 2314 004a 1860     		strpl	r0, [r3]
 2315 004c 1868     		ldr	r0, [r3]
 2316 004e 20F40060 		bic	r0, r0, #2048
 2317 0052 1860     		str	r0, [r3]
 2318 0054 84F83D20 		strb	r2, [r4, #61]
 2319 0058 2022     		movs	r2, #32
 2320 005a 84F83E20 		strb	r2, [r4, #62]
 2321 005e 0022     		movs	r2, #0
 2322 0060 2264     		str	r2, [r4, #64]
 2323 0062 A4F82A80 		strh	r8, [r4, #42]	@ movhi
 2324 0066 618D     		ldrh	r1, [r4, #42]
 2325 0068 6562     		str	r5, [r4, #36]
 2326 006a 2185     		strh	r1, [r4, #40]	@ movhi
 2327 006c 4249     		ldr	r1, .L424
 2328 006e 2046     		mov	r0, r4
 2329 0070 E162     		str	r1, [r4, #44]
 2330 0072 1968     		ldr	r1, [r3]
 2331 0074 41F48061 		orr	r1, r1, #1024
 2332 0078 1960     		str	r1, [r3]
 2333 007a 0097     		str	r7, [sp]
 2334 007c 3F49     		ldr	r1, .L424+4
 2335 007e 3346     		mov	r3, r6
 2336 0080 FFF7FEFF 		bl	I2C_WaitOnFlagUntilTimeout
 2337 0084 0546     		mov	r5, r0
 2338 0086 0028     		cmp	r0, #0
 2339 0088 27D1     		bne	.L421
 2340 008a 2368     		ldr	r3, [r4]
 2341 008c 0290     		str	r0, [sp, #8]
 2342 008e 5A69     		ldr	r2, [r3, #20]
 2343 0090 0292     		str	r2, [sp, #8]
 2344 0092 9B69     		ldr	r3, [r3, #24]
 2345 0094 0293     		str	r3, [sp, #8]
 2346 0096 029B     		ldr	r3, [sp, #8]
 2347 0098 11E0     		b	.L398
ARM GAS  /tmp/cctwxent.s 			page 41


 2348              	.L399:
 2349 009a 1B69     		ldr	r3, [r3, #16]
 2350 009c 626A     		ldr	r2, [r4, #36]
 2351 009e 1370     		strb	r3, [r2]
 2352 00a0 628D     		ldrh	r2, [r4, #42]
 2353 00a2 616A     		ldr	r1, [r4, #36]
 2354 00a4 013A     		subs	r2, r2, #1
 2355 00a6 92B2     		uxth	r2, r2
 2356 00a8 4B1C     		adds	r3, r1, #1
 2357 00aa 6285     		strh	r2, [r4, #42]	@ movhi
 2358 00ac 2268     		ldr	r2, [r4]
 2359 00ae 6362     		str	r3, [r4, #36]
 2360 00b0 238D     		ldrh	r3, [r4, #40]
 2361 00b2 5069     		ldr	r0, [r2, #20]
 2362 00b4 013B     		subs	r3, r3, #1
 2363 00b6 9BB2     		uxth	r3, r3
 2364 00b8 4007     		lsls	r0, r0, #29
 2365 00ba 2385     		strh	r3, [r4, #40]	@ movhi
 2366 00bc 0FD4     		bmi	.L422
 2367              	.L398:
 2368 00be 238D     		ldrh	r3, [r4, #40]
 2369 00c0 33B3     		cbz	r3, .L402
 2370 00c2 2046     		mov	r0, r4
 2371 00c4 3146     		mov	r1, r6
 2372 00c6 3A46     		mov	r2, r7
 2373 00c8 FFF7FEFF 		bl	I2C_WaitOnRXNEFlagUntilTimeout
 2374 00cc 2368     		ldr	r3, [r4]
 2375 00ce 0028     		cmp	r0, #0
 2376 00d0 E3D0     		beq	.L399
 2377 00d2 1A68     		ldr	r2, [r3]
 2378 00d4 22F48062 		bic	r2, r2, #1024
 2379 00d8 1A60     		str	r2, [r3]
 2380              	.L421:
 2381 00da 0125     		movs	r5, #1
 2382 00dc 47E0     		b	.L419
 2383              	.L422:
 2384 00de 002B     		cmp	r3, #0
 2385 00e0 EDD0     		beq	.L398
 2386 00e2 1369     		ldr	r3, [r2, #16]
 2387 00e4 4B70     		strb	r3, [r1, #1]
 2388 00e6 636A     		ldr	r3, [r4, #36]
 2389 00e8 0133     		adds	r3, r3, #1
 2390 00ea 6362     		str	r3, [r4, #36]
 2391 00ec 238D     		ldrh	r3, [r4, #40]
 2392 00ee 013B     		subs	r3, r3, #1
 2393 00f0 2385     		strh	r3, [r4, #40]	@ movhi
 2394 00f2 638D     		ldrh	r3, [r4, #42]
 2395 00f4 013B     		subs	r3, r3, #1
 2396 00f6 9BB2     		uxth	r3, r3
 2397 00f8 6385     		strh	r3, [r4, #42]	@ movhi
 2398 00fa E0E7     		b	.L398
 2399              	.L405:
 2400 00fc 2046     		mov	r0, r4
 2401 00fe FFF7FEFF 		bl	I2C_IsAcknowledgeFailed
 2402 0102 D0B9     		cbnz	r0, .L403
 2403 0104 FFF7FEFF 		bl	HAL_GetTick
 2404 0108 C01B     		subs	r0, r0, r7
ARM GAS  /tmp/cctwxent.s 			page 42


 2405 010a B042     		cmp	r0, r6
 2406 010c 05D8     		bhi	.L404
 2407 010e 26B1     		cbz	r6, .L404
 2408              	.L402:
 2409 0110 2368     		ldr	r3, [r4]
 2410 0112 5A69     		ldr	r2, [r3, #20]
 2411 0114 D206     		lsls	r2, r2, #27
 2412 0116 F1D5     		bpl	.L405
 2413 0118 15E0     		b	.L423
 2414              	.L404:
 2415 011a 0023     		movs	r3, #0
 2416 011c 2022     		movs	r2, #32
 2417 011e 2363     		str	r3, [r4, #48]
 2418 0120 84F83D20 		strb	r2, [r4, #61]
 2419 0124 84F83E30 		strb	r3, [r4, #62]
 2420 0128 226C     		ldr	r2, [r4, #64]
 2421 012a 84F83C30 		strb	r3, [r4, #60]
 2422 012e 42F02002 		orr	r2, r2, #32
 2423 0132 2264     		str	r2, [r4, #64]
 2424 0134 01E0     		b	.L403
 2425              	.L408:
 2426 0136 0225     		movs	r5, #2
 2427 0138 19E0     		b	.L419
 2428              	.L403:
 2429 013a 2268     		ldr	r2, [r4]
 2430 013c 1368     		ldr	r3, [r2]
 2431 013e 23F48063 		bic	r3, r3, #1024
 2432 0142 1360     		str	r3, [r2]
 2433 0144 C9E7     		b	.L421
 2434              	.L423:
 2435 0146 0022     		movs	r2, #0
 2436 0148 0392     		str	r2, [sp, #12]
 2437 014a 5969     		ldr	r1, [r3, #20]
 2438 014c 0391     		str	r1, [sp, #12]
 2439 014e 1968     		ldr	r1, [r3]
 2440 0150 41F00101 		orr	r1, r1, #1
 2441 0154 1960     		str	r1, [r3]
 2442 0156 0399     		ldr	r1, [sp, #12]
 2443 0158 1968     		ldr	r1, [r3]
 2444 015a 21F48061 		bic	r1, r1, #1024
 2445 015e 1960     		str	r1, [r3]
 2446 0160 2023     		movs	r3, #32
 2447 0162 84F83D30 		strb	r3, [r4, #61]
 2448 0166 84F83C20 		strb	r2, [r4, #60]
 2449 016a 84F83E20 		strb	r2, [r4, #62]
 2450              	.L419:
 2451 016e 2846     		mov	r0, r5
 2452 0170 04B0     		add	sp, sp, #16
 2453              		@ sp needed
 2454 0172 BDE8F081 		pop	{r4, r5, r6, r7, r8, pc}
 2455              	.L425:
 2456 0176 00BF     		.align	2
 2457              	.L424:
 2458 0178 0000FFFF 		.word	-65536
 2459 017c 02000100 		.word	65538
 2461              		.section	.text.HAL_I2C_Master_Transmit_IT,"ax",%progbits
 2462              		.align	1
ARM GAS  /tmp/cctwxent.s 			page 43


 2463              		.global	HAL_I2C_Master_Transmit_IT
 2464              		.thumb
 2465              		.thumb_func
 2467              	HAL_I2C_Master_Transmit_IT:
 2468              		@ args = 0, pretend = 0, frame = 8
 2469              		@ frame_needed = 0, uses_anonymous_args = 0
 2470 0000 37B5     		push	{r0, r1, r2, r4, r5, lr}
 2471 0002 0024     		movs	r4, #0
 2472 0004 0194     		str	r4, [sp, #4]
 2473 0006 90F83D40 		ldrb	r4, [r0, #61]	@ zero_extendqisi2
 2474 000a 202C     		cmp	r4, #32
 2475 000c 01D0     		beq	.L427
 2476              	.L431:
 2477 000e 0220     		movs	r0, #2
 2478 0010 4BE0     		b	.L428
 2479              	.L427:
 2480 0012 46F2A815 		movw	r5, #25000
 2481 0016 264C     		ldr	r4, .L437
 2482 0018 2468     		ldr	r4, [r4]
 2483 001a B4FBF5F5 		udiv	r5, r4, r5
 2484 001e 1924     		movs	r4, #25
 2485 0020 6C43     		muls	r4, r5, r4
 2486 0022 0194     		str	r4, [sp, #4]
 2487              	.L430:
 2488 0024 019C     		ldr	r4, [sp, #4]
 2489 0026 013C     		subs	r4, r4, #1
 2490 0028 0194     		str	r4, [sp, #4]
 2491 002a 019C     		ldr	r4, [sp, #4]
 2492 002c 6CB9     		cbnz	r4, .L429
 2493 002e 2023     		movs	r3, #32
 2494 0030 0463     		str	r4, [r0, #48]
 2495 0032 80F83D30 		strb	r3, [r0, #61]
 2496 0036 80F83E40 		strb	r4, [r0, #62]
 2497 003a 036C     		ldr	r3, [r0, #64]
 2498 003c 80F83C40 		strb	r4, [r0, #60]
 2499 0040 43F02003 		orr	r3, r3, #32
 2500 0044 0364     		str	r3, [r0, #64]
 2501 0046 0120     		movs	r0, #1
 2502 0048 2FE0     		b	.L428
 2503              	.L429:
 2504 004a 0468     		ldr	r4, [r0]
 2505 004c A569     		ldr	r5, [r4, #24]
 2506 004e AD07     		lsls	r5, r5, #30
 2507 0050 E8D4     		bmi	.L430
 2508 0052 90F83C50 		ldrb	r5, [r0, #60]	@ zero_extendqisi2
 2509 0056 012D     		cmp	r5, #1
 2510 0058 D9D0     		beq	.L431
 2511 005a 0125     		movs	r5, #1
 2512 005c 80F83C50 		strb	r5, [r0, #60]
 2513 0060 2568     		ldr	r5, [r4]
 2514 0062 ED07     		lsls	r5, r5, #31
 2515 0064 5EBF     		ittt	pl
 2516 0066 2568     		ldrpl	r5, [r4]
 2517 0068 45F00105 		orrpl	r5, r5, #1
 2518 006c 2560     		strpl	r5, [r4]
 2519 006e 2568     		ldr	r5, [r4]
 2520 0070 25F40065 		bic	r5, r5, #2048
ARM GAS  /tmp/cctwxent.s 			page 44


 2521 0074 2560     		str	r5, [r4]
 2522 0076 2125     		movs	r5, #33
 2523 0078 80F83D50 		strb	r5, [r0, #61]
 2524 007c 1025     		movs	r5, #16
 2525 007e 80F83E50 		strb	r5, [r0, #62]
 2526 0082 0025     		movs	r5, #0
 2527 0084 0564     		str	r5, [r0, #64]
 2528 0086 4385     		strh	r3, [r0, #42]	@ movhi
 2529 0088 438D     		ldrh	r3, [r0, #42]
 2530 008a 4262     		str	r2, [r0, #36]
 2531 008c 0385     		strh	r3, [r0, #40]	@ movhi
 2532 008e 094B     		ldr	r3, .L437+4
 2533 0090 C362     		str	r3, [r0, #44]
 2534 0092 4164     		str	r1, [r0, #68]
 2535 0094 2368     		ldr	r3, [r4]
 2536 0096 43F48073 		orr	r3, r3, #256
 2537 009a 2360     		str	r3, [r4]
 2538 009c 80F83C50 		strb	r5, [r0, #60]
 2539 00a0 2846     		mov	r0, r5
 2540 00a2 6368     		ldr	r3, [r4, #4]
 2541 00a4 43F4E063 		orr	r3, r3, #1792
 2542 00a8 6360     		str	r3, [r4, #4]
 2543              	.L428:
 2544 00aa 03B0     		add	sp, sp, #12
 2545              		@ sp needed
 2546 00ac 30BD     		pop	{r4, r5, pc}
 2547              	.L438:
 2548 00ae 00BF     		.align	2
 2549              	.L437:
 2550 00b0 00000000 		.word	SystemCoreClock
 2551 00b4 0000FFFF 		.word	-65536
 2553              		.section	.text.HAL_I2C_Master_Receive_IT,"ax",%progbits
 2554              		.align	1
 2555              		.global	HAL_I2C_Master_Receive_IT
 2556              		.thumb
 2557              		.thumb_func
 2559              	HAL_I2C_Master_Receive_IT:
 2560              		@ args = 0, pretend = 0, frame = 8
 2561              		@ frame_needed = 0, uses_anonymous_args = 0
 2562 0000 37B5     		push	{r0, r1, r2, r4, r5, lr}
 2563 0002 0024     		movs	r4, #0
 2564 0004 0194     		str	r4, [sp, #4]
 2565 0006 90F83D40 		ldrb	r4, [r0, #61]	@ zero_extendqisi2
 2566 000a 202C     		cmp	r4, #32
 2567 000c 01D0     		beq	.L440
 2568              	.L444:
 2569 000e 0220     		movs	r0, #2
 2570 0010 4FE0     		b	.L441
 2571              	.L440:
 2572 0012 46F2A815 		movw	r5, #25000
 2573 0016 284C     		ldr	r4, .L450
 2574 0018 2468     		ldr	r4, [r4]
 2575 001a B4FBF5F5 		udiv	r5, r4, r5
 2576 001e 1924     		movs	r4, #25
 2577 0020 6C43     		muls	r4, r5, r4
 2578 0022 0194     		str	r4, [sp, #4]
 2579              	.L443:
ARM GAS  /tmp/cctwxent.s 			page 45


 2580 0024 019C     		ldr	r4, [sp, #4]
 2581 0026 013C     		subs	r4, r4, #1
 2582 0028 0194     		str	r4, [sp, #4]
 2583 002a 019C     		ldr	r4, [sp, #4]
 2584 002c 6CB9     		cbnz	r4, .L442
 2585 002e 2023     		movs	r3, #32
 2586 0030 0463     		str	r4, [r0, #48]
 2587 0032 80F83D30 		strb	r3, [r0, #61]
 2588 0036 80F83E40 		strb	r4, [r0, #62]
 2589 003a 036C     		ldr	r3, [r0, #64]
 2590 003c 80F83C40 		strb	r4, [r0, #60]
 2591 0040 43F02003 		orr	r3, r3, #32
 2592 0044 0364     		str	r3, [r0, #64]
 2593 0046 0120     		movs	r0, #1
 2594 0048 33E0     		b	.L441
 2595              	.L442:
 2596 004a 0468     		ldr	r4, [r0]
 2597 004c A569     		ldr	r5, [r4, #24]
 2598 004e AD07     		lsls	r5, r5, #30
 2599 0050 E8D4     		bmi	.L443
 2600 0052 90F83C50 		ldrb	r5, [r0, #60]	@ zero_extendqisi2
 2601 0056 012D     		cmp	r5, #1
 2602 0058 D9D0     		beq	.L444
 2603 005a 0125     		movs	r5, #1
 2604 005c 80F83C50 		strb	r5, [r0, #60]
 2605 0060 2568     		ldr	r5, [r4]
 2606 0062 ED07     		lsls	r5, r5, #31
 2607 0064 5EBF     		ittt	pl
 2608 0066 2568     		ldrpl	r5, [r4]
 2609 0068 45F00105 		orrpl	r5, r5, #1
 2610 006c 2560     		strpl	r5, [r4]
 2611 006e 2568     		ldr	r5, [r4]
 2612 0070 25F40065 		bic	r5, r5, #2048
 2613 0074 2560     		str	r5, [r4]
 2614 0076 2225     		movs	r5, #34
 2615 0078 80F83D50 		strb	r5, [r0, #61]
 2616 007c 1025     		movs	r5, #16
 2617 007e 80F83E50 		strb	r5, [r0, #62]
 2618 0082 0025     		movs	r5, #0
 2619 0084 0564     		str	r5, [r0, #64]
 2620 0086 4385     		strh	r3, [r0, #42]	@ movhi
 2621 0088 438D     		ldrh	r3, [r0, #42]
 2622 008a 4262     		str	r2, [r0, #36]
 2623 008c 0385     		strh	r3, [r0, #40]	@ movhi
 2624 008e 0B4B     		ldr	r3, .L450+4
 2625 0090 C362     		str	r3, [r0, #44]
 2626 0092 4164     		str	r1, [r0, #68]
 2627 0094 2368     		ldr	r3, [r4]
 2628 0096 43F48063 		orr	r3, r3, #1024
 2629 009a 2360     		str	r3, [r4]
 2630 009c 2368     		ldr	r3, [r4]
 2631 009e 43F48073 		orr	r3, r3, #256
 2632 00a2 2360     		str	r3, [r4]
 2633 00a4 80F83C50 		strb	r5, [r0, #60]
 2634 00a8 2846     		mov	r0, r5
 2635 00aa 6368     		ldr	r3, [r4, #4]
 2636 00ac 43F4E063 		orr	r3, r3, #1792
ARM GAS  /tmp/cctwxent.s 			page 46


 2637 00b0 6360     		str	r3, [r4, #4]
 2638              	.L441:
 2639 00b2 03B0     		add	sp, sp, #12
 2640              		@ sp needed
 2641 00b4 30BD     		pop	{r4, r5, pc}
 2642              	.L451:
 2643 00b6 00BF     		.align	2
 2644              	.L450:
 2645 00b8 00000000 		.word	SystemCoreClock
 2646 00bc 0000FFFF 		.word	-65536
 2648              		.section	.text.HAL_I2C_Slave_Transmit_IT,"ax",%progbits
 2649              		.align	1
 2650              		.global	HAL_I2C_Slave_Transmit_IT
 2651              		.thumb
 2652              		.thumb_func
 2654              	HAL_I2C_Slave_Transmit_IT:
 2655              		@ args = 0, pretend = 0, frame = 0
 2656              		@ frame_needed = 0, uses_anonymous_args = 0
 2657 0000 90F83D30 		ldrb	r3, [r0, #61]	@ zero_extendqisi2
 2658 0004 10B5     		push	{r4, lr}
 2659 0006 202B     		cmp	r3, #32
 2660 0008 32D1     		bne	.L458
 2661 000a 0029     		cmp	r1, #0
 2662 000c 2ED0     		beq	.L457
 2663 000e 002A     		cmp	r2, #0
 2664 0010 2CD0     		beq	.L457
 2665 0012 90F83C30 		ldrb	r3, [r0, #60]	@ zero_extendqisi2
 2666 0016 012B     		cmp	r3, #1
 2667 0018 2AD0     		beq	.L458
 2668 001a 0468     		ldr	r4, [r0]
 2669 001c 0123     		movs	r3, #1
 2670 001e 80F83C30 		strb	r3, [r0, #60]
 2671 0022 2368     		ldr	r3, [r4]
 2672 0024 DB07     		lsls	r3, r3, #31
 2673 0026 5EBF     		ittt	pl
 2674 0028 2368     		ldrpl	r3, [r4]
 2675 002a 43F00103 		orrpl	r3, r3, #1
 2676 002e 2360     		strpl	r3, [r4]
 2677 0030 2368     		ldr	r3, [r4]
 2678 0032 23F40063 		bic	r3, r3, #2048
 2679 0036 2360     		str	r3, [r4]
 2680 0038 2123     		movs	r3, #33
 2681 003a 80F83D30 		strb	r3, [r0, #61]
 2682 003e 2023     		movs	r3, #32
 2683 0040 80F83E30 		strb	r3, [r0, #62]
 2684 0044 0023     		movs	r3, #0
 2685 0046 0364     		str	r3, [r0, #64]
 2686 0048 4285     		strh	r2, [r0, #42]	@ movhi
 2687 004a 428D     		ldrh	r2, [r0, #42]
 2688 004c 4162     		str	r1, [r0, #36]
 2689 004e 0285     		strh	r2, [r0, #40]	@ movhi
 2690 0050 084A     		ldr	r2, .L459
 2691 0052 C262     		str	r2, [r0, #44]
 2692 0054 2268     		ldr	r2, [r4]
 2693 0056 42F48062 		orr	r2, r2, #1024
 2694 005a 2260     		str	r2, [r4]
 2695 005c 6268     		ldr	r2, [r4, #4]
ARM GAS  /tmp/cctwxent.s 			page 47


 2696 005e 80F83C30 		strb	r3, [r0, #60]
 2697 0062 42F4E062 		orr	r2, r2, #1792
 2698 0066 6260     		str	r2, [r4, #4]
 2699 0068 1846     		mov	r0, r3
 2700 006a 10BD     		pop	{r4, pc}
 2701              	.L457:
 2702 006c 0120     		movs	r0, #1
 2703 006e 10BD     		pop	{r4, pc}
 2704              	.L458:
 2705 0070 0220     		movs	r0, #2
 2706 0072 10BD     		pop	{r4, pc}
 2707              	.L460:
 2708              		.align	2
 2709              	.L459:
 2710 0074 0000FFFF 		.word	-65536
 2712              		.section	.text.HAL_I2C_Slave_Receive_IT,"ax",%progbits
 2713              		.align	1
 2714              		.global	HAL_I2C_Slave_Receive_IT
 2715              		.thumb
 2716              		.thumb_func
 2718              	HAL_I2C_Slave_Receive_IT:
 2719              		@ args = 0, pretend = 0, frame = 0
 2720              		@ frame_needed = 0, uses_anonymous_args = 0
 2721 0000 90F83D30 		ldrb	r3, [r0, #61]	@ zero_extendqisi2
 2722 0004 10B5     		push	{r4, lr}
 2723 0006 202B     		cmp	r3, #32
 2724 0008 32D1     		bne	.L467
 2725 000a 0029     		cmp	r1, #0
 2726 000c 2ED0     		beq	.L466
 2727 000e 002A     		cmp	r2, #0
 2728 0010 2CD0     		beq	.L466
 2729 0012 90F83C30 		ldrb	r3, [r0, #60]	@ zero_extendqisi2
 2730 0016 012B     		cmp	r3, #1
 2731 0018 2AD0     		beq	.L467
 2732 001a 0468     		ldr	r4, [r0]
 2733 001c 0123     		movs	r3, #1
 2734 001e 80F83C30 		strb	r3, [r0, #60]
 2735 0022 2368     		ldr	r3, [r4]
 2736 0024 DB07     		lsls	r3, r3, #31
 2737 0026 5EBF     		ittt	pl
 2738 0028 2368     		ldrpl	r3, [r4]
 2739 002a 43F00103 		orrpl	r3, r3, #1
 2740 002e 2360     		strpl	r3, [r4]
 2741 0030 2368     		ldr	r3, [r4]
 2742 0032 23F40063 		bic	r3, r3, #2048
 2743 0036 2360     		str	r3, [r4]
 2744 0038 2223     		movs	r3, #34
 2745 003a 80F83D30 		strb	r3, [r0, #61]
 2746 003e 2023     		movs	r3, #32
 2747 0040 80F83E30 		strb	r3, [r0, #62]
 2748 0044 0023     		movs	r3, #0
 2749 0046 0364     		str	r3, [r0, #64]
 2750 0048 4285     		strh	r2, [r0, #42]	@ movhi
 2751 004a 428D     		ldrh	r2, [r0, #42]
 2752 004c 4162     		str	r1, [r0, #36]
 2753 004e 0285     		strh	r2, [r0, #40]	@ movhi
 2754 0050 084A     		ldr	r2, .L468
ARM GAS  /tmp/cctwxent.s 			page 48


 2755 0052 C262     		str	r2, [r0, #44]
 2756 0054 2268     		ldr	r2, [r4]
 2757 0056 42F48062 		orr	r2, r2, #1024
 2758 005a 2260     		str	r2, [r4]
 2759 005c 6268     		ldr	r2, [r4, #4]
 2760 005e 80F83C30 		strb	r3, [r0, #60]
 2761 0062 42F4E062 		orr	r2, r2, #1792
 2762 0066 6260     		str	r2, [r4, #4]
 2763 0068 1846     		mov	r0, r3
 2764 006a 10BD     		pop	{r4, pc}
 2765              	.L466:
 2766 006c 0120     		movs	r0, #1
 2767 006e 10BD     		pop	{r4, pc}
 2768              	.L467:
 2769 0070 0220     		movs	r0, #2
 2770 0072 10BD     		pop	{r4, pc}
 2771              	.L469:
 2772              		.align	2
 2773              	.L468:
 2774 0074 0000FFFF 		.word	-65536
 2776              		.section	.text.HAL_I2C_Master_Transmit_DMA,"ax",%progbits
 2777              		.align	1
 2778              		.global	HAL_I2C_Master_Transmit_DMA
 2779              		.thumb
 2780              		.thumb_func
 2782              	HAL_I2C_Master_Transmit_DMA:
 2783              		@ args = 0, pretend = 0, frame = 8
 2784              		@ frame_needed = 0, uses_anonymous_args = 0
 2785 0000 73B5     		push	{r0, r1, r4, r5, r6, lr}
 2786 0002 0446     		mov	r4, r0
 2787 0004 0020     		movs	r0, #0
 2788 0006 0190     		str	r0, [sp, #4]
 2789 0008 94F83D00 		ldrb	r0, [r4, #61]	@ zero_extendqisi2
 2790 000c 2028     		cmp	r0, #32
 2791 000e 01D0     		beq	.L471
 2792              	.L475:
 2793 0010 0220     		movs	r0, #2
 2794 0012 7EE0     		b	.L472
 2795              	.L471:
 2796 0014 46F2A815 		movw	r5, #25000
 2797 0018 3F48     		ldr	r0, .L484
 2798 001a 0068     		ldr	r0, [r0]
 2799 001c B0FBF5F5 		udiv	r5, r0, r5
 2800 0020 1920     		movs	r0, #25
 2801 0022 6843     		muls	r0, r5, r0
 2802 0024 0190     		str	r0, [sp, #4]
 2803              	.L474:
 2804 0026 0198     		ldr	r0, [sp, #4]
 2805 0028 0138     		subs	r0, r0, #1
 2806 002a 0190     		str	r0, [sp, #4]
 2807 002c 0198     		ldr	r0, [sp, #4]
 2808 002e 60B9     		cbnz	r0, .L473
 2809 0030 2023     		movs	r3, #32
 2810 0032 2063     		str	r0, [r4, #48]
 2811 0034 84F83D30 		strb	r3, [r4, #61]
 2812 0038 84F83E00 		strb	r0, [r4, #62]
 2813 003c 236C     		ldr	r3, [r4, #64]
ARM GAS  /tmp/cctwxent.s 			page 49


 2814 003e 84F83C00 		strb	r0, [r4, #60]
 2815 0042 43F02003 		orr	r3, r3, #32
 2816 0046 2364     		str	r3, [r4, #64]
 2817 0048 53E0     		b	.L483
 2818              	.L473:
 2819 004a 2568     		ldr	r5, [r4]
 2820 004c A869     		ldr	r0, [r5, #24]
 2821 004e 8607     		lsls	r6, r0, #30
 2822 0050 E9D4     		bmi	.L474
 2823 0052 94F83C00 		ldrb	r0, [r4, #60]	@ zero_extendqisi2
 2824 0056 0128     		cmp	r0, #1
 2825 0058 DAD0     		beq	.L475
 2826 005a 0120     		movs	r0, #1
 2827 005c 84F83C00 		strb	r0, [r4, #60]
 2828 0060 2868     		ldr	r0, [r5]
 2829 0062 0026     		movs	r6, #0
 2830 0064 C007     		lsls	r0, r0, #31
 2831 0066 5EBF     		ittt	pl
 2832 0068 2868     		ldrpl	r0, [r5]
 2833 006a 40F00100 		orrpl	r0, r0, #1
 2834 006e 2860     		strpl	r0, [r5]
 2835 0070 2868     		ldr	r0, [r5]
 2836 0072 20F40060 		bic	r0, r0, #2048
 2837 0076 2860     		str	r0, [r5]
 2838 0078 2120     		movs	r0, #33
 2839 007a 84F83D00 		strb	r0, [r4, #61]
 2840 007e 1020     		movs	r0, #16
 2841 0080 84F83E00 		strb	r0, [r4, #62]
 2842 0084 2664     		str	r6, [r4, #64]
 2843 0086 6385     		strh	r3, [r4, #42]	@ movhi
 2844 0088 608D     		ldrh	r0, [r4, #42]
 2845 008a 244B     		ldr	r3, .L484+4
 2846 008c 80B2     		uxth	r0, r0
 2847 008e E362     		str	r3, [r4, #44]
 2848 0090 6262     		str	r2, [r4, #36]
 2849 0092 2085     		strh	r0, [r4, #40]	@ movhi
 2850 0094 6164     		str	r1, [r4, #68]
 2851 0096 0346     		mov	r3, r0
 2852 0098 68B3     		cbz	r0, .L477
 2853 009a 606B     		ldr	r0, [r4, #52]
 2854 009c 2049     		ldr	r1, .L484+8
 2855 009e C662     		str	r6, [r0, #44]
 2856 00a0 8162     		str	r1, [r0, #40]
 2857 00a2 2049     		ldr	r1, .L484+12
 2858 00a4 4663     		str	r6, [r0, #52]
 2859 00a6 0163     		str	r1, [r0, #48]
 2860 00a8 1146     		mov	r1, r2
 2861 00aa 05F11002 		add	r2, r5, #16
 2862 00ae FFF7FEFF 		bl	HAL_DMA_Start_IT
 2863 00b2 98B9     		cbnz	r0, .L478
 2864 00b4 2368     		ldr	r3, [r4]
 2865 00b6 1A68     		ldr	r2, [r3]
 2866 00b8 42F48062 		orr	r2, r2, #1024
 2867 00bc 1A60     		str	r2, [r3]
 2868 00be 1A68     		ldr	r2, [r3]
 2869 00c0 42F48072 		orr	r2, r2, #256
 2870 00c4 1A60     		str	r2, [r3]
ARM GAS  /tmp/cctwxent.s 			page 50


 2871 00c6 5A68     		ldr	r2, [r3, #4]
 2872 00c8 84F83C00 		strb	r0, [r4, #60]
 2873 00cc 42F44072 		orr	r2, r2, #768
 2874 00d0 5A60     		str	r2, [r3, #4]
 2875 00d2 5A68     		ldr	r2, [r3, #4]
 2876 00d4 42F40062 		orr	r2, r2, #2048
 2877 00d8 5A60     		str	r2, [r3, #4]
 2878 00da 1AE0     		b	.L472
 2879              	.L478:
 2880 00dc 2023     		movs	r3, #32
 2881 00de 84F83D30 		strb	r3, [r4, #61]
 2882 00e2 84F83E60 		strb	r6, [r4, #62]
 2883 00e6 236C     		ldr	r3, [r4, #64]
 2884 00e8 84F83C60 		strb	r6, [r4, #60]
 2885 00ec 43F01003 		orr	r3, r3, #16
 2886 00f0 2364     		str	r3, [r4, #64]
 2887              	.L483:
 2888 00f2 0120     		movs	r0, #1
 2889 00f4 0DE0     		b	.L472
 2890              	.L477:
 2891 00f6 2A68     		ldr	r2, [r5]
 2892 00f8 42F48062 		orr	r2, r2, #1024
 2893 00fc 2A60     		str	r2, [r5]
 2894 00fe 2A68     		ldr	r2, [r5]
 2895 0100 42F48072 		orr	r2, r2, #256
 2896 0104 2A60     		str	r2, [r5]
 2897 0106 6A68     		ldr	r2, [r5, #4]
 2898 0108 84F83C00 		strb	r0, [r4, #60]
 2899 010c 42F4E062 		orr	r2, r2, #1792
 2900 0110 6A60     		str	r2, [r5, #4]
 2901              	.L472:
 2902 0112 02B0     		add	sp, sp, #8
 2903              		@ sp needed
 2904 0114 70BD     		pop	{r4, r5, r6, pc}
 2905              	.L485:
 2906 0116 00BF     		.align	2
 2907              	.L484:
 2908 0118 00000000 		.word	SystemCoreClock
 2909 011c 0000FFFF 		.word	-65536
 2910 0120 00000000 		.word	I2C_DMAXferCplt
 2911 0124 00000000 		.word	I2C_DMAError
 2913              		.section	.text.HAL_I2C_Master_Receive_DMA,"ax",%progbits
 2914              		.align	1
 2915              		.global	HAL_I2C_Master_Receive_DMA
 2916              		.thumb
 2917              		.thumb_func
 2919              	HAL_I2C_Master_Receive_DMA:
 2920              		@ args = 0, pretend = 0, frame = 8
 2921              		@ frame_needed = 0, uses_anonymous_args = 0
 2922 0000 73B5     		push	{r0, r1, r4, r5, r6, lr}
 2923 0002 0446     		mov	r4, r0
 2924 0004 0020     		movs	r0, #0
 2925 0006 0190     		str	r0, [sp, #4]
 2926 0008 94F83D00 		ldrb	r0, [r4, #61]	@ zero_extendqisi2
 2927 000c 2028     		cmp	r0, #32
 2928 000e 01D0     		beq	.L487
 2929              	.L491:
ARM GAS  /tmp/cctwxent.s 			page 51


 2930 0010 0220     		movs	r0, #2
 2931 0012 7DE0     		b	.L488
 2932              	.L487:
 2933 0014 46F2A815 		movw	r5, #25000
 2934 0018 3E48     		ldr	r0, .L500
 2935 001a 0068     		ldr	r0, [r0]
 2936 001c B0FBF5F5 		udiv	r5, r0, r5
 2937 0020 1920     		movs	r0, #25
 2938 0022 6843     		muls	r0, r5, r0
 2939 0024 0190     		str	r0, [sp, #4]
 2940              	.L490:
 2941 0026 0198     		ldr	r0, [sp, #4]
 2942 0028 0138     		subs	r0, r0, #1
 2943 002a 0190     		str	r0, [sp, #4]
 2944 002c 0198     		ldr	r0, [sp, #4]
 2945 002e 60B9     		cbnz	r0, .L489
 2946 0030 2023     		movs	r3, #32
 2947 0032 2063     		str	r0, [r4, #48]
 2948 0034 84F83D30 		strb	r3, [r4, #61]
 2949 0038 84F83E00 		strb	r0, [r4, #62]
 2950 003c 236C     		ldr	r3, [r4, #64]
 2951 003e 84F83C00 		strb	r0, [r4, #60]
 2952 0042 43F02003 		orr	r3, r3, #32
 2953 0046 2364     		str	r3, [r4, #64]
 2954 0048 52E0     		b	.L499
 2955              	.L489:
 2956 004a 2568     		ldr	r5, [r4]
 2957 004c A869     		ldr	r0, [r5, #24]
 2958 004e 8607     		lsls	r6, r0, #30
 2959 0050 E9D4     		bmi	.L490
 2960 0052 94F83C00 		ldrb	r0, [r4, #60]	@ zero_extendqisi2
 2961 0056 0128     		cmp	r0, #1
 2962 0058 DAD0     		beq	.L491
 2963 005a 0120     		movs	r0, #1
 2964 005c 84F83C00 		strb	r0, [r4, #60]
 2965 0060 2868     		ldr	r0, [r5]
 2966 0062 0026     		movs	r6, #0
 2967 0064 C007     		lsls	r0, r0, #31
 2968 0066 5EBF     		ittt	pl
 2969 0068 2868     		ldrpl	r0, [r5]
 2970 006a 40F00100 		orrpl	r0, r0, #1
 2971 006e 2860     		strpl	r0, [r5]
 2972 0070 2868     		ldr	r0, [r5]
 2973 0072 20F40060 		bic	r0, r0, #2048
 2974 0076 2860     		str	r0, [r5]
 2975 0078 2220     		movs	r0, #34
 2976 007a 84F83D00 		strb	r0, [r4, #61]
 2977 007e 1020     		movs	r0, #16
 2978 0080 84F83E00 		strb	r0, [r4, #62]
 2979 0084 2664     		str	r6, [r4, #64]
 2980 0086 6385     		strh	r3, [r4, #42]	@ movhi
 2981 0088 608D     		ldrh	r0, [r4, #42]
 2982 008a 234B     		ldr	r3, .L500+4
 2983 008c 80B2     		uxth	r0, r0
 2984 008e E362     		str	r3, [r4, #44]
 2985 0090 6262     		str	r2, [r4, #36]
 2986 0092 2085     		strh	r0, [r4, #40]	@ movhi
ARM GAS  /tmp/cctwxent.s 			page 52


 2987 0094 6164     		str	r1, [r4, #68]
 2988 0096 0346     		mov	r3, r0
 2989 0098 60B3     		cbz	r0, .L493
 2990 009a A06B     		ldr	r0, [r4, #56]
 2991 009c 1F49     		ldr	r1, .L500+8
 2992 009e C662     		str	r6, [r0, #44]
 2993 00a0 8162     		str	r1, [r0, #40]
 2994 00a2 1F49     		ldr	r1, .L500+12
 2995 00a4 4663     		str	r6, [r0, #52]
 2996 00a6 0163     		str	r1, [r0, #48]
 2997 00a8 05F11001 		add	r1, r5, #16
 2998 00ac FFF7FEFF 		bl	HAL_DMA_Start_IT
 2999 00b0 98B9     		cbnz	r0, .L494
 3000 00b2 2368     		ldr	r3, [r4]
 3001 00b4 1A68     		ldr	r2, [r3]
 3002 00b6 42F48062 		orr	r2, r2, #1024
 3003 00ba 1A60     		str	r2, [r3]
 3004 00bc 1A68     		ldr	r2, [r3]
 3005 00be 42F48072 		orr	r2, r2, #256
 3006 00c2 1A60     		str	r2, [r3]
 3007 00c4 5A68     		ldr	r2, [r3, #4]
 3008 00c6 84F83C00 		strb	r0, [r4, #60]
 3009 00ca 42F44072 		orr	r2, r2, #768
 3010 00ce 5A60     		str	r2, [r3, #4]
 3011 00d0 5A68     		ldr	r2, [r3, #4]
 3012 00d2 42F40062 		orr	r2, r2, #2048
 3013 00d6 5A60     		str	r2, [r3, #4]
 3014 00d8 1AE0     		b	.L488
 3015              	.L494:
 3016 00da 2023     		movs	r3, #32
 3017 00dc 84F83D30 		strb	r3, [r4, #61]
 3018 00e0 84F83E60 		strb	r6, [r4, #62]
 3019 00e4 236C     		ldr	r3, [r4, #64]
 3020 00e6 84F83C60 		strb	r6, [r4, #60]
 3021 00ea 43F01003 		orr	r3, r3, #16
 3022 00ee 2364     		str	r3, [r4, #64]
 3023              	.L499:
 3024 00f0 0120     		movs	r0, #1
 3025 00f2 0DE0     		b	.L488
 3026              	.L493:
 3027 00f4 2A68     		ldr	r2, [r5]
 3028 00f6 42F48062 		orr	r2, r2, #1024
 3029 00fa 2A60     		str	r2, [r5]
 3030 00fc 2A68     		ldr	r2, [r5]
 3031 00fe 42F48072 		orr	r2, r2, #256
 3032 0102 2A60     		str	r2, [r5]
 3033 0104 6A68     		ldr	r2, [r5, #4]
 3034 0106 84F83C00 		strb	r0, [r4, #60]
 3035 010a 42F4E062 		orr	r2, r2, #1792
 3036 010e 6A60     		str	r2, [r5, #4]
 3037              	.L488:
 3038 0110 02B0     		add	sp, sp, #8
 3039              		@ sp needed
 3040 0112 70BD     		pop	{r4, r5, r6, pc}
 3041              	.L501:
 3042              		.align	2
 3043              	.L500:
ARM GAS  /tmp/cctwxent.s 			page 53


 3044 0114 00000000 		.word	SystemCoreClock
 3045 0118 0000FFFF 		.word	-65536
 3046 011c 00000000 		.word	I2C_DMAXferCplt
 3047 0120 00000000 		.word	I2C_DMAError
 3049              		.section	.text.HAL_I2C_Slave_Transmit_DMA,"ax",%progbits
 3050              		.align	1
 3051              		.global	HAL_I2C_Slave_Transmit_DMA
 3052              		.thumb
 3053              		.thumb_func
 3055              	HAL_I2C_Slave_Transmit_DMA:
 3056              		@ args = 0, pretend = 0, frame = 0
 3057              		@ frame_needed = 0, uses_anonymous_args = 0
 3058 0000 F8B5     		push	{r3, r4, r5, r6, r7, lr}
 3059 0002 90F83D30 		ldrb	r3, [r0, #61]	@ zero_extendqisi2
 3060 0006 0446     		mov	r4, r0
 3061 0008 202B     		cmp	r3, #32
 3062 000a 1746     		mov	r7, r2
 3063 000c 4DD1     		bne	.L509
 3064 000e 0029     		cmp	r1, #0
 3065 0010 49D0     		beq	.L508
 3066 0012 002A     		cmp	r2, #0
 3067 0014 47D0     		beq	.L508
 3068 0016 90F83C30 		ldrb	r3, [r0, #60]	@ zero_extendqisi2
 3069 001a 012B     		cmp	r3, #1
 3070 001c 45D0     		beq	.L509
 3071 001e 0123     		movs	r3, #1
 3072 0020 80F83C30 		strb	r3, [r0, #60]
 3073 0024 0368     		ldr	r3, [r0]
 3074 0026 0025     		movs	r5, #0
 3075 0028 1A68     		ldr	r2, [r3]
 3076 002a 2026     		movs	r6, #32
 3077 002c D207     		lsls	r2, r2, #31
 3078 002e 1A46     		mov	r2, r3
 3079 0030 5EBF     		ittt	pl
 3080 0032 1868     		ldrpl	r0, [r3]
 3081 0034 40F00100 		orrpl	r0, r0, #1
 3082 0038 1860     		strpl	r0, [r3]
 3083 003a 1868     		ldr	r0, [r3]
 3084 003c 2123     		movs	r3, #33
 3085 003e 20F40060 		bic	r0, r0, #2048
 3086 0042 42F8100B 		str	r0, [r2], #16
 3087 0046 84F83D30 		strb	r3, [r4, #61]
 3088 004a 1948     		ldr	r0, .L510
 3089 004c 84F83E60 		strb	r6, [r4, #62]
 3090 0050 2564     		str	r5, [r4, #64]
 3091 0052 6785     		strh	r7, [r4, #42]	@ movhi
 3092 0054 638D     		ldrh	r3, [r4, #42]
 3093 0056 174F     		ldr	r7, .L510+4
 3094 0058 E062     		str	r0, [r4, #44]
 3095 005a 606B     		ldr	r0, [r4, #52]
 3096 005c 9BB2     		uxth	r3, r3
 3097 005e 6162     		str	r1, [r4, #36]
 3098 0060 2385     		strh	r3, [r4, #40]	@ movhi
 3099 0062 8762     		str	r7, [r0, #40]
 3100 0064 144F     		ldr	r7, .L510+8
 3101 0066 C562     		str	r5, [r0, #44]
 3102 0068 0763     		str	r7, [r0, #48]
ARM GAS  /tmp/cctwxent.s 			page 54


 3103 006a 4563     		str	r5, [r0, #52]
 3104 006c FFF7FEFF 		bl	HAL_DMA_Start_IT
 3105 0070 78B9     		cbnz	r0, .L505
 3106 0072 2368     		ldr	r3, [r4]
 3107 0074 1A68     		ldr	r2, [r3]
 3108 0076 42F48062 		orr	r2, r2, #1024
 3109 007a 1A60     		str	r2, [r3]
 3110 007c 5A68     		ldr	r2, [r3, #4]
 3111 007e 84F83C00 		strb	r0, [r4, #60]
 3112 0082 42F44072 		orr	r2, r2, #768
 3113 0086 5A60     		str	r2, [r3, #4]
 3114 0088 5A68     		ldr	r2, [r3, #4]
 3115 008a 42F40062 		orr	r2, r2, #2048
 3116 008e 5A60     		str	r2, [r3, #4]
 3117 0090 F8BD     		pop	{r3, r4, r5, r6, r7, pc}
 3118              	.L505:
 3119 0092 84F83D60 		strb	r6, [r4, #61]
 3120 0096 84F83E50 		strb	r5, [r4, #62]
 3121 009a 236C     		ldr	r3, [r4, #64]
 3122 009c 84F83C50 		strb	r5, [r4, #60]
 3123 00a0 43F01003 		orr	r3, r3, #16
 3124 00a4 2364     		str	r3, [r4, #64]
 3125              	.L508:
 3126 00a6 0120     		movs	r0, #1
 3127 00a8 F8BD     		pop	{r3, r4, r5, r6, r7, pc}
 3128              	.L509:
 3129 00aa 0220     		movs	r0, #2
 3130 00ac F8BD     		pop	{r3, r4, r5, r6, r7, pc}
 3131              	.L511:
 3132 00ae 00BF     		.align	2
 3133              	.L510:
 3134 00b0 0000FFFF 		.word	-65536
 3135 00b4 00000000 		.word	I2C_DMAXferCplt
 3136 00b8 00000000 		.word	I2C_DMAError
 3138              		.section	.text.HAL_I2C_Slave_Receive_DMA,"ax",%progbits
 3139              		.align	1
 3140              		.global	HAL_I2C_Slave_Receive_DMA
 3141              		.thumb
 3142              		.thumb_func
 3144              	HAL_I2C_Slave_Receive_DMA:
 3145              		@ args = 0, pretend = 0, frame = 0
 3146              		@ frame_needed = 0, uses_anonymous_args = 0
 3147 0000 F8B5     		push	{r3, r4, r5, r6, r7, lr}
 3148 0002 90F83D30 		ldrb	r3, [r0, #61]	@ zero_extendqisi2
 3149 0006 0446     		mov	r4, r0
 3150 0008 202B     		cmp	r3, #32
 3151 000a 0E46     		mov	r6, r1
 3152 000c 4FD1     		bne	.L519
 3153 000e 0029     		cmp	r1, #0
 3154 0010 4BD0     		beq	.L518
 3155 0012 002A     		cmp	r2, #0
 3156 0014 49D0     		beq	.L518
 3157 0016 90F83C30 		ldrb	r3, [r0, #60]	@ zero_extendqisi2
 3158 001a 012B     		cmp	r3, #1
 3159 001c 47D0     		beq	.L519
 3160 001e 0168     		ldr	r1, [r0]
 3161 0020 0123     		movs	r3, #1
ARM GAS  /tmp/cctwxent.s 			page 55


 3162 0022 80F83C30 		strb	r3, [r0, #60]
 3163 0026 0B68     		ldr	r3, [r1]
 3164 0028 0025     		movs	r5, #0
 3165 002a DB07     		lsls	r3, r3, #31
 3166 002c 58BF     		it	pl
 3167 002e 0B68     		ldrpl	r3, [r1]
 3168 0030 4FF02007 		mov	r7, #32
 3169 0034 5CBF     		itt	pl
 3170 0036 43F00103 		orrpl	r3, r3, #1
 3171 003a 0B60     		strpl	r3, [r1]
 3172 003c 0B68     		ldr	r3, [r1]
 3173 003e 23F40063 		bic	r3, r3, #2048
 3174 0042 41F8103B 		str	r3, [r1], #16
 3175 0046 2223     		movs	r3, #34
 3176 0048 80F83D30 		strb	r3, [r0, #61]
 3177 004c 80F83E70 		strb	r7, [r0, #62]
 3178 0050 0564     		str	r5, [r0, #64]
 3179 0052 4285     		strh	r2, [r0, #42]	@ movhi
 3180 0054 438D     		ldrh	r3, [r0, #42]
 3181 0056 174A     		ldr	r2, .L520
 3182 0058 9BB2     		uxth	r3, r3
 3183 005a C262     		str	r2, [r0, #44]
 3184 005c 0385     		strh	r3, [r0, #40]	@ movhi
 3185 005e 164A     		ldr	r2, .L520+4
 3186 0060 4662     		str	r6, [r0, #36]
 3187 0062 806B     		ldr	r0, [r0, #56]
 3188 0064 8262     		str	r2, [r0, #40]
 3189 0066 154A     		ldr	r2, .L520+8
 3190 0068 C562     		str	r5, [r0, #44]
 3191 006a 0263     		str	r2, [r0, #48]
 3192 006c 4563     		str	r5, [r0, #52]
 3193 006e 3246     		mov	r2, r6
 3194 0070 FFF7FEFF 		bl	HAL_DMA_Start_IT
 3195 0074 78B9     		cbnz	r0, .L515
 3196 0076 2368     		ldr	r3, [r4]
 3197 0078 1A68     		ldr	r2, [r3]
 3198 007a 42F48062 		orr	r2, r2, #1024
 3199 007e 1A60     		str	r2, [r3]
 3200 0080 5A68     		ldr	r2, [r3, #4]
 3201 0082 84F83C00 		strb	r0, [r4, #60]
 3202 0086 42F44072 		orr	r2, r2, #768
 3203 008a 5A60     		str	r2, [r3, #4]
 3204 008c 5A68     		ldr	r2, [r3, #4]
 3205 008e 42F40062 		orr	r2, r2, #2048
 3206 0092 5A60     		str	r2, [r3, #4]
 3207 0094 F8BD     		pop	{r3, r4, r5, r6, r7, pc}
 3208              	.L515:
 3209 0096 84F83D70 		strb	r7, [r4, #61]
 3210 009a 84F83E50 		strb	r5, [r4, #62]
 3211 009e 236C     		ldr	r3, [r4, #64]
 3212 00a0 84F83C50 		strb	r5, [r4, #60]
 3213 00a4 43F01003 		orr	r3, r3, #16
 3214 00a8 2364     		str	r3, [r4, #64]
 3215              	.L518:
 3216 00aa 0120     		movs	r0, #1
 3217 00ac F8BD     		pop	{r3, r4, r5, r6, r7, pc}
 3218              	.L519:
ARM GAS  /tmp/cctwxent.s 			page 56


 3219 00ae 0220     		movs	r0, #2
 3220 00b0 F8BD     		pop	{r3, r4, r5, r6, r7, pc}
 3221              	.L521:
 3222 00b2 00BF     		.align	2
 3223              	.L520:
 3224 00b4 0000FFFF 		.word	-65536
 3225 00b8 00000000 		.word	I2C_DMAXferCplt
 3226 00bc 00000000 		.word	I2C_DMAError
 3228              		.section	.text.HAL_I2C_Mem_Write,"ax",%progbits
 3229              		.align	1
 3230              		.global	HAL_I2C_Mem_Write
 3231              		.thumb
 3232              		.thumb_func
 3234              	HAL_I2C_Mem_Write:
 3235              		@ args = 12, pretend = 0, frame = 0
 3236              		@ frame_needed = 0, uses_anonymous_args = 0
 3237 0000 2DE9F743 		push	{r0, r1, r2, r4, r5, r6, r7, r8, r9, lr}
 3238 0004 0446     		mov	r4, r0
 3239 0006 1F46     		mov	r7, r3
 3240 0008 8946     		mov	r9, r1
 3241 000a 9046     		mov	r8, r2
 3242 000c 0C9E     		ldr	r6, [sp, #48]
 3243 000e FFF7FEFF 		bl	HAL_GetTick
 3244 0012 94F83D30 		ldrb	r3, [r4, #61]	@ zero_extendqisi2
 3245 0016 0546     		mov	r5, r0
 3246 0018 202B     		cmp	r3, #32
 3247 001a 01D0     		beq	.L523
 3248              	.L525:
 3249 001c 0220     		movs	r0, #2
 3250 001e 77E0     		b	.L524
 3251              	.L523:
 3252 0020 0090     		str	r0, [sp]
 3253 0022 3D49     		ldr	r1, .L549
 3254 0024 2046     		mov	r0, r4
 3255 0026 0122     		movs	r2, #1
 3256 0028 1923     		movs	r3, #25
 3257 002a FFF7FEFF 		bl	I2C_WaitOnFlagUntilTimeout
 3258 002e 0028     		cmp	r0, #0
 3259 0030 F4D1     		bne	.L525
 3260 0032 94F83C30 		ldrb	r3, [r4, #60]	@ zero_extendqisi2
 3261 0036 012B     		cmp	r3, #1
 3262 0038 F0D0     		beq	.L525
 3263 003a 0123     		movs	r3, #1
 3264 003c 84F83C30 		strb	r3, [r4, #60]
 3265 0040 2368     		ldr	r3, [r4]
 3266 0042 2046     		mov	r0, r4
 3267 0044 1A68     		ldr	r2, [r3]
 3268 0046 D107     		lsls	r1, r2, #31
 3269 0048 58BF     		it	pl
 3270 004a 1A68     		ldrpl	r2, [r3]
 3271 004c 4946     		mov	r1, r9
 3272 004e 5CBF     		itt	pl
 3273 0050 42F00102 		orrpl	r2, r2, #1
 3274 0054 1A60     		strpl	r2, [r3]
 3275 0056 1A68     		ldr	r2, [r3]
 3276 0058 22F40062 		bic	r2, r2, #2048
 3277 005c 1A60     		str	r2, [r3]
ARM GAS  /tmp/cctwxent.s 			page 57


 3278 005e 2123     		movs	r3, #33
 3279 0060 84F83D30 		strb	r3, [r4, #61]
 3280 0064 4023     		movs	r3, #64
 3281 0066 84F83E30 		strb	r3, [r4, #62]
 3282 006a 0023     		movs	r3, #0
 3283 006c 2364     		str	r3, [r4, #64]
 3284 006e 0A9B     		ldr	r3, [sp, #40]
 3285 0070 0096     		str	r6, [sp]
 3286 0072 6362     		str	r3, [r4, #36]
 3287 0074 BDF82C30 		ldrh	r3, [sp, #44]
 3288 0078 0195     		str	r5, [sp, #4]
 3289 007a 6385     		strh	r3, [r4, #42]	@ movhi
 3290 007c 638D     		ldrh	r3, [r4, #42]
 3291 007e 4246     		mov	r2, r8
 3292 0080 2385     		strh	r3, [r4, #40]	@ movhi
 3293 0082 264B     		ldr	r3, .L549+4
 3294 0084 E362     		str	r3, [r4, #44]
 3295 0086 3B46     		mov	r3, r7
 3296 0088 FFF7FEFF 		bl	I2C_RequestMemoryWrite
 3297 008c 0028     		cmp	r0, #0
 3298 008e 31D1     		bne	.L545
 3299              	.L527:
 3300 0090 238D     		ldrh	r3, [r4, #40]
 3301 0092 2046     		mov	r0, r4
 3302 0094 3146     		mov	r1, r6
 3303 0096 2A46     		mov	r2, r5
 3304 0098 0BB3     		cbz	r3, .L548
 3305 009a FFF7FEFF 		bl	I2C_WaitOnTXEFlagUntilTimeout
 3306 009e 08BB     		cbnz	r0, .L547
 3307 00a0 636A     		ldr	r3, [r4, #36]
 3308 00a2 2768     		ldr	r7, [r4]
 3309 00a4 1A46     		mov	r2, r3
 3310 00a6 12F8011B 		ldrb	r1, [r2], #1	@ zero_extendqisi2
 3311 00aa 3961     		str	r1, [r7, #16]
 3312 00ac 6262     		str	r2, [r4, #36]
 3313 00ae 628D     		ldrh	r2, [r4, #42]
 3314 00b0 218D     		ldrh	r1, [r4, #40]
 3315 00b2 013A     		subs	r2, r2, #1
 3316 00b4 92B2     		uxth	r2, r2
 3317 00b6 6285     		strh	r2, [r4, #42]	@ movhi
 3318 00b8 7A69     		ldr	r2, [r7, #20]
 3319 00ba 481E     		subs	r0, r1, #1
 3320 00bc 80B2     		uxth	r0, r0
 3321 00be 5207     		lsls	r2, r2, #29
 3322 00c0 2085     		strh	r0, [r4, #40]	@ movhi
 3323 00c2 E5D5     		bpl	.L527
 3324 00c4 0028     		cmp	r0, #0
 3325 00c6 E3D0     		beq	.L527
 3326 00c8 5A78     		ldrb	r2, [r3, #1]	@ zero_extendqisi2
 3327 00ca 0233     		adds	r3, r3, #2
 3328 00cc 3A61     		str	r2, [r7, #16]
 3329 00ce 6362     		str	r3, [r4, #36]
 3330 00d0 638D     		ldrh	r3, [r4, #42]
 3331 00d2 0239     		subs	r1, r1, #2
 3332 00d4 013B     		subs	r3, r3, #1
 3333 00d6 9BB2     		uxth	r3, r3
 3334 00d8 2185     		strh	r1, [r4, #40]	@ movhi
ARM GAS  /tmp/cctwxent.s 			page 58


 3335 00da 6385     		strh	r3, [r4, #42]	@ movhi
 3336 00dc D8E7     		b	.L527
 3337              	.L548:
 3338 00de FFF7FEFF 		bl	I2C_WaitOnBTFFlagUntilTimeout
 3339 00e2 48B1     		cbz	r0, .L532
 3340              	.L547:
 3341 00e4 236C     		ldr	r3, [r4, #64]
 3342 00e6 042B     		cmp	r3, #4
 3343 00e8 01BF     		itttt	eq
 3344 00ea 2268     		ldreq	r2, [r4]
 3345 00ec 1368     		ldreq	r3, [r2]
 3346 00ee 43F40073 		orreq	r3, r3, #512
 3347 00f2 1360     		streq	r3, [r2]
 3348              	.L545:
 3349 00f4 0120     		movs	r0, #1
 3350 00f6 0BE0     		b	.L524
 3351              	.L532:
 3352 00f8 2268     		ldr	r2, [r4]
 3353 00fa 1368     		ldr	r3, [r2]
 3354 00fc 43F40073 		orr	r3, r3, #512
 3355 0100 1360     		str	r3, [r2]
 3356 0102 2023     		movs	r3, #32
 3357 0104 84F83D30 		strb	r3, [r4, #61]
 3358 0108 84F83C00 		strb	r0, [r4, #60]
 3359 010c 84F83E00 		strb	r0, [r4, #62]
 3360              	.L524:
 3361 0110 03B0     		add	sp, sp, #12
 3362              		@ sp needed
 3363 0112 BDE8F083 		pop	{r4, r5, r6, r7, r8, r9, pc}
 3364              	.L550:
 3365 0116 00BF     		.align	2
 3366              	.L549:
 3367 0118 02001000 		.word	1048578
 3368 011c 0000FFFF 		.word	-65536
 3370              		.section	.text.HAL_I2C_Mem_Read,"ax",%progbits
 3371              		.align	1
 3372              		.global	HAL_I2C_Mem_Read
 3373              		.thumb
 3374              		.thumb_func
 3376              	HAL_I2C_Mem_Read:
 3377              		@ args = 12, pretend = 0, frame = 16
 3378              		@ frame_needed = 0, uses_anonymous_args = 0
 3379 0000 2DE9F043 		push	{r4, r5, r6, r7, r8, r9, lr}
 3380 0004 0446     		mov	r4, r0
 3381 0006 87B0     		sub	sp, sp, #28
 3382 0008 1D46     		mov	r5, r3
 3383 000a 8946     		mov	r9, r1
 3384 000c 9046     		mov	r8, r2
 3385 000e 109F     		ldr	r7, [sp, #64]
 3386 0010 FFF7FEFF 		bl	HAL_GetTick
 3387 0014 94F83D30 		ldrb	r3, [r4, #61]	@ zero_extendqisi2
 3388 0018 0646     		mov	r6, r0
 3389 001a 202B     		cmp	r3, #32
 3390 001c 01D0     		beq	.L552
 3391              	.L554:
 3392 001e 0225     		movs	r5, #2
 3393 0020 FCE0     		b	.L553
ARM GAS  /tmp/cctwxent.s 			page 59


 3394              	.L552:
 3395 0022 0090     		str	r0, [sp]
 3396 0024 7F49     		ldr	r1, .L579
 3397 0026 2046     		mov	r0, r4
 3398 0028 0122     		movs	r2, #1
 3399 002a 1923     		movs	r3, #25
 3400 002c FFF7FEFF 		bl	I2C_WaitOnFlagUntilTimeout
 3401 0030 0028     		cmp	r0, #0
 3402 0032 F4D1     		bne	.L554
 3403 0034 94F83C30 		ldrb	r3, [r4, #60]	@ zero_extendqisi2
 3404 0038 012B     		cmp	r3, #1
 3405 003a F0D0     		beq	.L554
 3406 003c 0123     		movs	r3, #1
 3407 003e 84F83C30 		strb	r3, [r4, #60]
 3408 0042 2368     		ldr	r3, [r4]
 3409 0044 4946     		mov	r1, r9
 3410 0046 1A68     		ldr	r2, [r3]
 3411 0048 D007     		lsls	r0, r2, #31
 3412 004a 58BF     		it	pl
 3413 004c 1A68     		ldrpl	r2, [r3]
 3414 004e 2046     		mov	r0, r4
 3415 0050 5CBF     		itt	pl
 3416 0052 42F00102 		orrpl	r2, r2, #1
 3417 0056 1A60     		strpl	r2, [r3]
 3418 0058 1A68     		ldr	r2, [r3]
 3419 005a 22F40062 		bic	r2, r2, #2048
 3420 005e 1A60     		str	r2, [r3]
 3421 0060 2223     		movs	r3, #34
 3422 0062 84F83D30 		strb	r3, [r4, #61]
 3423 0066 4023     		movs	r3, #64
 3424 0068 84F83E30 		strb	r3, [r4, #62]
 3425 006c 0023     		movs	r3, #0
 3426 006e 2364     		str	r3, [r4, #64]
 3427 0070 0E9B     		ldr	r3, [sp, #56]
 3428 0072 0097     		str	r7, [sp]
 3429 0074 6362     		str	r3, [r4, #36]
 3430 0076 BDF83C30 		ldrh	r3, [sp, #60]
 3431 007a 0196     		str	r6, [sp, #4]
 3432 007c 6385     		strh	r3, [r4, #42]	@ movhi
 3433 007e 638D     		ldrh	r3, [r4, #42]
 3434 0080 4246     		mov	r2, r8
 3435 0082 2385     		strh	r3, [r4, #40]	@ movhi
 3436 0084 684B     		ldr	r3, .L579+4
 3437 0086 E362     		str	r3, [r4, #44]
 3438 0088 2B46     		mov	r3, r5
 3439 008a FFF7FEFF 		bl	I2C_RequestMemoryRead
 3440 008e 0546     		mov	r5, r0
 3441 0090 08B1     		cbz	r0, .L556
 3442              	.L564:
 3443 0092 0125     		movs	r5, #1
 3444 0094 C2E0     		b	.L553
 3445              	.L556:
 3446 0096 228D     		ldrh	r2, [r4, #40]
 3447 0098 2368     		ldr	r3, [r4]
 3448 009a 52B9     		cbnz	r2, .L557
 3449 009c 0290     		str	r0, [sp, #8]
 3450 009e 5A69     		ldr	r2, [r3, #20]
ARM GAS  /tmp/cctwxent.s 			page 60


 3451 00a0 0292     		str	r2, [sp, #8]
 3452 00a2 9A69     		ldr	r2, [r3, #24]
 3453 00a4 0292     		str	r2, [sp, #8]
 3454 00a6 029A     		ldr	r2, [sp, #8]
 3455 00a8 1A68     		ldr	r2, [r3]
 3456 00aa 42F40072 		orr	r2, r2, #512
 3457 00ae 1A60     		str	r2, [r3]
 3458 00b0 48E0     		b	.L561
 3459              	.L557:
 3460 00b2 012A     		cmp	r2, #1
 3461 00b4 0FD1     		bne	.L559
 3462 00b6 1A68     		ldr	r2, [r3]
 3463 00b8 22F48062 		bic	r2, r2, #1024
 3464 00bc 1A60     		str	r2, [r3]
 3465              	@ 142 "./cmsis/inc/cmsis_gcc.h" 1
 3466 00be 72B6     		cpsid i
 3467              	@ 0 "" 2
 3468              		.thumb
 3469 00c0 2368     		ldr	r3, [r4]
 3470 00c2 0390     		str	r0, [sp, #12]
 3471 00c4 5A69     		ldr	r2, [r3, #20]
 3472 00c6 0392     		str	r2, [sp, #12]
 3473 00c8 9A69     		ldr	r2, [r3, #24]
 3474 00ca 0392     		str	r2, [sp, #12]
 3475 00cc 039A     		ldr	r2, [sp, #12]
 3476 00ce 1A68     		ldr	r2, [r3]
 3477 00d0 42F40072 		orr	r2, r2, #512
 3478 00d4 10E0     		b	.L574
 3479              	.L559:
 3480 00d6 022A     		cmp	r2, #2
 3481 00d8 1A68     		ldr	r2, [r3]
 3482 00da 10D1     		bne	.L560
 3483 00dc 42F40062 		orr	r2, r2, #2048
 3484 00e0 1A60     		str	r2, [r3]
 3485              	@ 142 "./cmsis/inc/cmsis_gcc.h" 1
 3486 00e2 72B6     		cpsid i
 3487              	@ 0 "" 2
 3488              		.thumb
 3489 00e4 2368     		ldr	r3, [r4]
 3490 00e6 0490     		str	r0, [sp, #16]
 3491 00e8 5A69     		ldr	r2, [r3, #20]
 3492 00ea 0492     		str	r2, [sp, #16]
 3493 00ec 9A69     		ldr	r2, [r3, #24]
 3494 00ee 0492     		str	r2, [sp, #16]
 3495 00f0 049A     		ldr	r2, [sp, #16]
 3496 00f2 1A68     		ldr	r2, [r3]
 3497 00f4 22F48062 		bic	r2, r2, #1024
 3498              	.L574:
 3499 00f8 1A60     		str	r2, [r3]
 3500              	@ 131 "./cmsis/inc/cmsis_gcc.h" 1
 3501 00fa 62B6     		cpsie i
 3502              	@ 0 "" 2
 3503              		.thumb
 3504 00fc 22E0     		b	.L561
 3505              	.L560:
 3506 00fe 42F48062 		orr	r2, r2, #1024
 3507 0102 1A60     		str	r2, [r3]
ARM GAS  /tmp/cctwxent.s 			page 61


 3508 0104 0590     		str	r0, [sp, #20]
 3509 0106 5A69     		ldr	r2, [r3, #20]
 3510 0108 0592     		str	r2, [sp, #20]
 3511 010a 9B69     		ldr	r3, [r3, #24]
 3512 010c 0593     		str	r3, [sp, #20]
 3513 010e 059B     		ldr	r3, [sp, #20]
 3514 0110 18E0     		b	.L561
 3515              	.L567:
 3516 0112 032B     		cmp	r3, #3
 3517 0114 5ED8     		bhi	.L562
 3518 0116 012B     		cmp	r3, #1
 3519 0118 18D1     		bne	.L563
 3520 011a 2046     		mov	r0, r4
 3521 011c 3946     		mov	r1, r7
 3522 011e 3246     		mov	r2, r6
 3523 0120 FFF7FEFF 		bl	I2C_WaitOnRXNEFlagUntilTimeout
 3524 0124 0028     		cmp	r0, #0
 3525 0126 B4D1     		bne	.L564
 3526              	.L577:
 3527 0128 2268     		ldr	r2, [r4]
 3528 012a 636A     		ldr	r3, [r4, #36]
 3529 012c 1269     		ldr	r2, [r2, #16]
 3530 012e 1A70     		strb	r2, [r3]
 3531              	.L575:
 3532 0130 636A     		ldr	r3, [r4, #36]
 3533 0132 0133     		adds	r3, r3, #1
 3534 0134 6362     		str	r3, [r4, #36]
 3535 0136 238D     		ldrh	r3, [r4, #40]
 3536 0138 013B     		subs	r3, r3, #1
 3537 013a 2385     		strh	r3, [r4, #40]	@ movhi
 3538 013c 638D     		ldrh	r3, [r4, #42]
 3539 013e 013B     		subs	r3, r3, #1
 3540 0140 9BB2     		uxth	r3, r3
 3541 0142 6385     		strh	r3, [r4, #42]	@ movhi
 3542              	.L561:
 3543 0144 238D     		ldrh	r3, [r4, #40]
 3544 0146 002B     		cmp	r3, #0
 3545 0148 E3D1     		bne	.L567
 3546 014a 60E0     		b	.L578
 3547              	.L563:
 3548 014c 022B     		cmp	r3, #2
 3549 014e 0096     		str	r6, [sp]
 3550 0150 2046     		mov	r0, r4
 3551 0152 3649     		ldr	r1, .L579+8
 3552 0154 4FF00002 		mov	r2, #0
 3553 0158 3B46     		mov	r3, r7
 3554 015a 05D1     		bne	.L566
 3555 015c FFF7FEFF 		bl	I2C_WaitOnFlagUntilTimeout
 3556 0160 0028     		cmp	r0, #0
 3557 0162 96D1     		bne	.L564
 3558              	@ 142 "./cmsis/inc/cmsis_gcc.h" 1
 3559 0164 72B6     		cpsid i
 3560              	@ 0 "" 2
 3561              		.thumb
 3562 0166 21E0     		b	.L576
 3563              	.L566:
 3564 0168 FFF7FEFF 		bl	I2C_WaitOnFlagUntilTimeout
ARM GAS  /tmp/cctwxent.s 			page 62


 3565 016c 0246     		mov	r2, r0
 3566 016e 0028     		cmp	r0, #0
 3567 0170 8FD1     		bne	.L564
 3568 0172 2168     		ldr	r1, [r4]
 3569 0174 0B68     		ldr	r3, [r1]
 3570 0176 23F48063 		bic	r3, r3, #1024
 3571 017a 0B60     		str	r3, [r1]
 3572              	@ 142 "./cmsis/inc/cmsis_gcc.h" 1
 3573 017c 72B6     		cpsid i
 3574              	@ 0 "" 2
 3575              		.thumb
 3576 017e 2168     		ldr	r1, [r4]
 3577 0180 636A     		ldr	r3, [r4, #36]
 3578 0182 0969     		ldr	r1, [r1, #16]
 3579 0184 2046     		mov	r0, r4
 3580 0186 1970     		strb	r1, [r3]
 3581 0188 636A     		ldr	r3, [r4, #36]
 3582 018a 0096     		str	r6, [sp]
 3583 018c 0133     		adds	r3, r3, #1
 3584 018e 6362     		str	r3, [r4, #36]
 3585 0190 238D     		ldrh	r3, [r4, #40]
 3586 0192 2649     		ldr	r1, .L579+8
 3587 0194 013B     		subs	r3, r3, #1
 3588 0196 2385     		strh	r3, [r4, #40]	@ movhi
 3589 0198 638D     		ldrh	r3, [r4, #42]
 3590 019a 013B     		subs	r3, r3, #1
 3591 019c 9BB2     		uxth	r3, r3
 3592 019e 6385     		strh	r3, [r4, #42]	@ movhi
 3593 01a0 3B46     		mov	r3, r7
 3594 01a2 FFF7FEFF 		bl	I2C_WaitOnFlagUntilTimeout
 3595 01a6 0028     		cmp	r0, #0
 3596 01a8 7FF473AF 		bne	.L564
 3597              	.L576:
 3598 01ac 2368     		ldr	r3, [r4]
 3599 01ae 1A68     		ldr	r2, [r3]
 3600 01b0 42F40072 		orr	r2, r2, #512
 3601 01b4 1A60     		str	r2, [r3]
 3602 01b6 1B69     		ldr	r3, [r3, #16]
 3603 01b8 626A     		ldr	r2, [r4, #36]
 3604 01ba 1370     		strb	r3, [r2]
 3605 01bc 636A     		ldr	r3, [r4, #36]
 3606 01be 0133     		adds	r3, r3, #1
 3607 01c0 6362     		str	r3, [r4, #36]
 3608 01c2 238D     		ldrh	r3, [r4, #40]
 3609 01c4 013B     		subs	r3, r3, #1
 3610 01c6 2385     		strh	r3, [r4, #40]	@ movhi
 3611 01c8 638D     		ldrh	r3, [r4, #42]
 3612 01ca 013B     		subs	r3, r3, #1
 3613 01cc 9BB2     		uxth	r3, r3
 3614 01ce 6385     		strh	r3, [r4, #42]	@ movhi
 3615              	@ 131 "./cmsis/inc/cmsis_gcc.h" 1
 3616 01d0 62B6     		cpsie i
 3617              	@ 0 "" 2
 3618              		.thumb
 3619 01d2 A9E7     		b	.L577
 3620              	.L562:
 3621 01d4 2046     		mov	r0, r4
ARM GAS  /tmp/cctwxent.s 			page 63


 3622 01d6 3946     		mov	r1, r7
 3623 01d8 3246     		mov	r2, r6
 3624 01da FFF7FEFF 		bl	I2C_WaitOnRXNEFlagUntilTimeout
 3625 01de 0028     		cmp	r0, #0
 3626 01e0 7FF457AF 		bne	.L564
 3627 01e4 2268     		ldr	r2, [r4]
 3628 01e6 636A     		ldr	r3, [r4, #36]
 3629 01e8 1269     		ldr	r2, [r2, #16]
 3630 01ea 1A70     		strb	r2, [r3]
 3631 01ec 626A     		ldr	r2, [r4, #36]
 3632 01ee 531C     		adds	r3, r2, #1
 3633 01f0 6362     		str	r3, [r4, #36]
 3634 01f2 238D     		ldrh	r3, [r4, #40]
 3635 01f4 013B     		subs	r3, r3, #1
 3636 01f6 2385     		strh	r3, [r4, #40]	@ movhi
 3637 01f8 638D     		ldrh	r3, [r4, #42]
 3638 01fa 013B     		subs	r3, r3, #1
 3639 01fc 9BB2     		uxth	r3, r3
 3640 01fe 6385     		strh	r3, [r4, #42]	@ movhi
 3641 0200 2368     		ldr	r3, [r4]
 3642 0202 5969     		ldr	r1, [r3, #20]
 3643 0204 4907     		lsls	r1, r1, #29
 3644 0206 9DD5     		bpl	.L561
 3645 0208 1B69     		ldr	r3, [r3, #16]
 3646 020a 5370     		strb	r3, [r2, #1]
 3647 020c 90E7     		b	.L575
 3648              	.L578:
 3649 020e 2022     		movs	r2, #32
 3650 0210 84F83D20 		strb	r2, [r4, #61]
 3651 0214 84F83C30 		strb	r3, [r4, #60]
 3652 0218 84F83E30 		strb	r3, [r4, #62]
 3653              	.L553:
 3654 021c 2846     		mov	r0, r5
 3655 021e 07B0     		add	sp, sp, #28
 3656              		@ sp needed
 3657 0220 BDE8F083 		pop	{r4, r5, r6, r7, r8, r9, pc}
 3658              	.L580:
 3659              		.align	2
 3660              	.L579:
 3661 0224 02001000 		.word	1048578
 3662 0228 0000FFFF 		.word	-65536
 3663 022c 04000100 		.word	65540
 3665              		.section	.text.HAL_I2C_Mem_Write_IT,"ax",%progbits
 3666              		.align	1
 3667              		.global	HAL_I2C_Mem_Write_IT
 3668              		.thumb
 3669              		.thumb_func
 3671              	HAL_I2C_Mem_Write_IT:
 3672              		@ args = 8, pretend = 0, frame = 8
 3673              		@ frame_needed = 0, uses_anonymous_args = 0
 3674 0000 73B5     		push	{r0, r1, r4, r5, r6, lr}
 3675 0002 0024     		movs	r4, #0
 3676 0004 0194     		str	r4, [sp, #4]
 3677 0006 90F83D40 		ldrb	r4, [r0, #61]	@ zero_extendqisi2
 3678 000a 202C     		cmp	r4, #32
 3679 000c 01D0     		beq	.L582
 3680              	.L586:
ARM GAS  /tmp/cctwxent.s 			page 64


 3681 000e 0220     		movs	r0, #2
 3682 0010 51E0     		b	.L583
 3683              	.L582:
 3684 0012 46F2A815 		movw	r5, #25000
 3685 0016 294C     		ldr	r4, .L592
 3686 0018 2468     		ldr	r4, [r4]
 3687 001a B4FBF5F5 		udiv	r5, r4, r5
 3688 001e 1924     		movs	r4, #25
 3689 0020 6C43     		muls	r4, r5, r4
 3690 0022 0194     		str	r4, [sp, #4]
 3691              	.L585:
 3692 0024 019C     		ldr	r4, [sp, #4]
 3693 0026 013C     		subs	r4, r4, #1
 3694 0028 0194     		str	r4, [sp, #4]
 3695 002a 019C     		ldr	r4, [sp, #4]
 3696 002c 6CB9     		cbnz	r4, .L584
 3697 002e 2023     		movs	r3, #32
 3698 0030 0463     		str	r4, [r0, #48]
 3699 0032 80F83D30 		strb	r3, [r0, #61]
 3700 0036 80F83E40 		strb	r4, [r0, #62]
 3701 003a 036C     		ldr	r3, [r0, #64]
 3702 003c 80F83C40 		strb	r4, [r0, #60]
 3703 0040 43F02003 		orr	r3, r3, #32
 3704 0044 0364     		str	r3, [r0, #64]
 3705 0046 0120     		movs	r0, #1
 3706 0048 35E0     		b	.L583
 3707              	.L584:
 3708 004a 0468     		ldr	r4, [r0]
 3709 004c A569     		ldr	r5, [r4, #24]
 3710 004e AE07     		lsls	r6, r5, #30
 3711 0050 E8D4     		bmi	.L585
 3712 0052 90F83C50 		ldrb	r5, [r0, #60]	@ zero_extendqisi2
 3713 0056 012D     		cmp	r5, #1
 3714 0058 D9D0     		beq	.L586
 3715 005a 0125     		movs	r5, #1
 3716 005c 80F83C50 		strb	r5, [r0, #60]
 3717 0060 2568     		ldr	r5, [r4]
 3718 0062 069E     		ldr	r6, [sp, #24]
 3719 0064 ED07     		lsls	r5, r5, #31
 3720 0066 5EBF     		ittt	pl
 3721 0068 2568     		ldrpl	r5, [r4]
 3722 006a 45F00105 		orrpl	r5, r5, #1
 3723 006e 2560     		strpl	r5, [r4]
 3724 0070 2568     		ldr	r5, [r4]
 3725 0072 25F40065 		bic	r5, r5, #2048
 3726 0076 2560     		str	r5, [r4]
 3727 0078 2125     		movs	r5, #33
 3728 007a 80F83D50 		strb	r5, [r0, #61]
 3729 007e 4662     		str	r6, [r0, #36]
 3730 0080 4025     		movs	r5, #64
 3731 0082 BDF81C60 		ldrh	r6, [sp, #28]
 3732 0086 80F83E50 		strb	r5, [r0, #62]
 3733 008a 0025     		movs	r5, #0
 3734 008c 0564     		str	r5, [r0, #64]
 3735 008e 4685     		strh	r6, [r0, #42]	@ movhi
 3736 0090 468D     		ldrh	r6, [r0, #42]
 3737 0092 0685     		strh	r6, [r0, #40]	@ movhi
ARM GAS  /tmp/cctwxent.s 			page 65


 3738 0094 0A4E     		ldr	r6, .L592+4
 3739 0096 C662     		str	r6, [r0, #44]
 3740 0098 4164     		str	r1, [r0, #68]
 3741 009a 8264     		str	r2, [r0, #72]
 3742 009c C364     		str	r3, [r0, #76]
 3743 009e 0565     		str	r5, [r0, #80]
 3744 00a0 2368     		ldr	r3, [r4]
 3745 00a2 43F48073 		orr	r3, r3, #256
 3746 00a6 2360     		str	r3, [r4]
 3747 00a8 80F83C50 		strb	r5, [r0, #60]
 3748 00ac 2846     		mov	r0, r5
 3749 00ae 6368     		ldr	r3, [r4, #4]
 3750 00b0 43F4E063 		orr	r3, r3, #1792
 3751 00b4 6360     		str	r3, [r4, #4]
 3752              	.L583:
 3753 00b6 02B0     		add	sp, sp, #8
 3754              		@ sp needed
 3755 00b8 70BD     		pop	{r4, r5, r6, pc}
 3756              	.L593:
 3757 00ba 00BF     		.align	2
 3758              	.L592:
 3759 00bc 00000000 		.word	SystemCoreClock
 3760 00c0 0000FFFF 		.word	-65536
 3762              		.section	.text.HAL_I2C_Mem_Read_IT,"ax",%progbits
 3763              		.align	1
 3764              		.global	HAL_I2C_Mem_Read_IT
 3765              		.thumb
 3766              		.thumb_func
 3768              	HAL_I2C_Mem_Read_IT:
 3769              		@ args = 8, pretend = 0, frame = 8
 3770              		@ frame_needed = 0, uses_anonymous_args = 0
 3771 0000 73B5     		push	{r0, r1, r4, r5, r6, lr}
 3772 0002 0024     		movs	r4, #0
 3773 0004 0194     		str	r4, [sp, #4]
 3774 0006 90F83D40 		ldrb	r4, [r0, #61]	@ zero_extendqisi2
 3775 000a 202C     		cmp	r4, #32
 3776 000c 01D0     		beq	.L595
 3777              	.L599:
 3778 000e 0220     		movs	r0, #2
 3779 0010 59E0     		b	.L596
 3780              	.L595:
 3781 0012 46F2A815 		movw	r5, #25000
 3782 0016 2D4C     		ldr	r4, .L606
 3783 0018 2468     		ldr	r4, [r4]
 3784 001a B4FBF5F5 		udiv	r5, r4, r5
 3785 001e 1924     		movs	r4, #25
 3786 0020 6C43     		muls	r4, r5, r4
 3787 0022 0194     		str	r4, [sp, #4]
 3788              	.L598:
 3789 0024 019C     		ldr	r4, [sp, #4]
 3790 0026 013C     		subs	r4, r4, #1
 3791 0028 0194     		str	r4, [sp, #4]
 3792 002a 019C     		ldr	r4, [sp, #4]
 3793 002c 6CB9     		cbnz	r4, .L597
 3794 002e 2023     		movs	r3, #32
 3795 0030 0463     		str	r4, [r0, #48]
 3796 0032 80F83D30 		strb	r3, [r0, #61]
ARM GAS  /tmp/cctwxent.s 			page 66


 3797 0036 80F83E40 		strb	r4, [r0, #62]
 3798 003a 036C     		ldr	r3, [r0, #64]
 3799 003c 80F83C40 		strb	r4, [r0, #60]
 3800 0040 43F02003 		orr	r3, r3, #32
 3801 0044 0364     		str	r3, [r0, #64]
 3802 0046 0120     		movs	r0, #1
 3803 0048 3DE0     		b	.L596
 3804              	.L597:
 3805 004a 0468     		ldr	r4, [r0]
 3806 004c A569     		ldr	r5, [r4, #24]
 3807 004e AE07     		lsls	r6, r5, #30
 3808 0050 E8D4     		bmi	.L598
 3809 0052 90F83C50 		ldrb	r5, [r0, #60]	@ zero_extendqisi2
 3810 0056 012D     		cmp	r5, #1
 3811 0058 D9D0     		beq	.L599
 3812 005a 0125     		movs	r5, #1
 3813 005c 80F83C50 		strb	r5, [r0, #60]
 3814 0060 2568     		ldr	r5, [r4]
 3815 0062 069E     		ldr	r6, [sp, #24]
 3816 0064 ED07     		lsls	r5, r5, #31
 3817 0066 5EBF     		ittt	pl
 3818 0068 2568     		ldrpl	r5, [r4]
 3819 006a 45F00105 		orrpl	r5, r5, #1
 3820 006e 2560     		strpl	r5, [r4]
 3821 0070 2568     		ldr	r5, [r4]
 3822 0072 25F40065 		bic	r5, r5, #2048
 3823 0076 2560     		str	r5, [r4]
 3824 0078 2225     		movs	r5, #34
 3825 007a 80F83D50 		strb	r5, [r0, #61]
 3826 007e 4662     		str	r6, [r0, #36]
 3827 0080 4025     		movs	r5, #64
 3828 0082 BDF81C60 		ldrh	r6, [sp, #28]
 3829 0086 80F83E50 		strb	r5, [r0, #62]
 3830 008a 0025     		movs	r5, #0
 3831 008c 0564     		str	r5, [r0, #64]
 3832 008e 4685     		strh	r6, [r0, #42]	@ movhi
 3833 0090 468D     		ldrh	r6, [r0, #42]
 3834 0092 0685     		strh	r6, [r0, #40]	@ movhi
 3835 0094 0E4E     		ldr	r6, .L606+4
 3836 0096 C662     		str	r6, [r0, #44]
 3837 0098 4164     		str	r1, [r0, #68]
 3838 009a 8264     		str	r2, [r0, #72]
 3839 009c C364     		str	r3, [r0, #76]
 3840 009e 0565     		str	r5, [r0, #80]
 3841 00a0 2368     		ldr	r3, [r4]
 3842 00a2 43F48063 		orr	r3, r3, #1024
 3843 00a6 2360     		str	r3, [r4]
 3844 00a8 2368     		ldr	r3, [r4]
 3845 00aa 43F48073 		orr	r3, r3, #256
 3846 00ae 2360     		str	r3, [r4]
 3847 00b0 038D     		ldrh	r3, [r0, #40]
 3848 00b2 80F83C50 		strb	r5, [r0, #60]
 3849 00b6 2BB1     		cbz	r3, .L601
 3850 00b8 6368     		ldr	r3, [r4, #4]
 3851 00ba 2846     		mov	r0, r5
 3852 00bc 43F4E063 		orr	r3, r3, #1792
 3853 00c0 6360     		str	r3, [r4, #4]
ARM GAS  /tmp/cctwxent.s 			page 67


 3854 00c2 00E0     		b	.L596
 3855              	.L601:
 3856 00c4 1846     		mov	r0, r3
 3857              	.L596:
 3858 00c6 02B0     		add	sp, sp, #8
 3859              		@ sp needed
 3860 00c8 70BD     		pop	{r4, r5, r6, pc}
 3861              	.L607:
 3862 00ca 00BF     		.align	2
 3863              	.L606:
 3864 00cc 00000000 		.word	SystemCoreClock
 3865 00d0 0000FFFF 		.word	-65536
 3867              		.section	.text.HAL_I2C_Mem_Write_DMA,"ax",%progbits
 3868              		.align	1
 3869              		.global	HAL_I2C_Mem_Write_DMA
 3870              		.thumb
 3871              		.thumb_func
 3873              	HAL_I2C_Mem_Write_DMA:
 3874              		@ args = 8, pretend = 0, frame = 8
 3875              		@ frame_needed = 0, uses_anonymous_args = 0
 3876 0000 2DE9FF47 		push	{r0, r1, r2, r3, r4, r5, r6, r7, r8, r9, r10, lr}
 3877 0004 0446     		mov	r4, r0
 3878 0006 1E46     		mov	r6, r3
 3879 0008 0023     		movs	r3, #0
 3880 000a 0293     		str	r3, [sp, #8]
 3881 000c 8846     		mov	r8, r1
 3882 000e 1746     		mov	r7, r2
 3883 0010 0C9D     		ldr	r5, [sp, #48]
 3884 0012 FFF7FEFF 		bl	HAL_GetTick
 3885 0016 94F83D30 		ldrb	r3, [r4, #61]	@ zero_extendqisi2
 3886 001a 8146     		mov	r9, r0
 3887 001c 202B     		cmp	r3, #32
 3888 001e 01D0     		beq	.L609
 3889              	.L613:
 3890 0020 0220     		movs	r0, #2
 3891 0022 85E0     		b	.L610
 3892              	.L609:
 3893 0024 46F2A812 		movw	r2, #25000
 3894 0028 434B     		ldr	r3, .L623
 3895 002a 1B68     		ldr	r3, [r3]
 3896 002c B3FBF2F2 		udiv	r2, r3, r2
 3897 0030 1923     		movs	r3, #25
 3898 0032 5343     		muls	r3, r2, r3
 3899 0034 0293     		str	r3, [sp, #8]
 3900              	.L612:
 3901 0036 029B     		ldr	r3, [sp, #8]
 3902 0038 013B     		subs	r3, r3, #1
 3903 003a 0293     		str	r3, [sp, #8]
 3904 003c 029B     		ldr	r3, [sp, #8]
 3905 003e 4BB9     		cbnz	r3, .L611
 3906 0040 2022     		movs	r2, #32
 3907 0042 2363     		str	r3, [r4, #48]
 3908 0044 84F83D20 		strb	r2, [r4, #61]
 3909 0048 84F83E30 		strb	r3, [r4, #62]
 3910 004c 226C     		ldr	r2, [r4, #64]
 3911 004e 42F02002 		orr	r2, r2, #32
 3912 0052 69E0     		b	.L622
ARM GAS  /tmp/cctwxent.s 			page 68


 3913              	.L611:
 3914 0054 2268     		ldr	r2, [r4]
 3915 0056 9369     		ldr	r3, [r2, #24]
 3916 0058 9907     		lsls	r1, r3, #30
 3917 005a ECD4     		bmi	.L612
 3918 005c 94F83C30 		ldrb	r3, [r4, #60]	@ zero_extendqisi2
 3919 0060 012B     		cmp	r3, #1
 3920 0062 DDD0     		beq	.L613
 3921 0064 0123     		movs	r3, #1
 3922 0066 84F83C30 		strb	r3, [r4, #60]
 3923 006a 1368     		ldr	r3, [r2]
 3924 006c 4FF0000A 		mov	r10, #0
 3925 0070 DB07     		lsls	r3, r3, #31
 3926 0072 58BF     		it	pl
 3927 0074 1368     		ldrpl	r3, [r2]
 3928 0076 3149     		ldr	r1, .L623+4
 3929 0078 5CBF     		itt	pl
 3930 007a 43F00103 		orrpl	r3, r3, #1
 3931 007e 1360     		strpl	r3, [r2]
 3932 0080 1368     		ldr	r3, [r2]
 3933 0082 23F40063 		bic	r3, r3, #2048
 3934 0086 1360     		str	r3, [r2]
 3935 0088 2123     		movs	r3, #33
 3936 008a 84F83D30 		strb	r3, [r4, #61]
 3937 008e 4023     		movs	r3, #64
 3938 0090 84F83E30 		strb	r3, [r4, #62]
 3939 0094 BDF83430 		ldrh	r3, [sp, #52]
 3940 0098 C4F840A0 		str	r10, [r4, #64]
 3941 009c 6385     		strh	r3, [r4, #42]	@ movhi
 3942 009e 638D     		ldrh	r3, [r4, #42]
 3943 00a0 6562     		str	r5, [r4, #36]
 3944 00a2 9BB2     		uxth	r3, r3
 3945 00a4 2385     		strh	r3, [r4, #40]	@ movhi
 3946 00a6 E162     		str	r1, [r4, #44]
 3947 00a8 002B     		cmp	r3, #0
 3948 00aa 35D0     		beq	.L615
 3949 00ac 606B     		ldr	r0, [r4, #52]
 3950 00ae 2449     		ldr	r1, .L623+8
 3951 00b0 C0F82CA0 		str	r10, [r0, #44]
 3952 00b4 8162     		str	r1, [r0, #40]
 3953 00b6 2349     		ldr	r1, .L623+12
 3954 00b8 C0F834A0 		str	r10, [r0, #52]
 3955 00bc 0163     		str	r1, [r0, #48]
 3956 00be 1032     		adds	r2, r2, #16
 3957 00c0 2946     		mov	r1, r5
 3958 00c2 FFF7FEFF 		bl	HAL_DMA_Start_IT
 3959 00c6 D8B9     		cbnz	r0, .L616
 3960 00c8 2323     		movs	r3, #35
 3961 00ca 8DE80802 		stmia	sp, {r3, r9}
 3962 00ce 2046     		mov	r0, r4
 3963 00d0 4146     		mov	r1, r8
 3964 00d2 3A46     		mov	r2, r7
 3965 00d4 3346     		mov	r3, r6
 3966 00d6 FFF7FEFF 		bl	I2C_RequestMemoryWrite
 3967 00da 40BB     		cbnz	r0, .L617
 3968 00dc 2368     		ldr	r3, [r4]
 3969 00de 0390     		str	r0, [sp, #12]
ARM GAS  /tmp/cctwxent.s 			page 69


 3970 00e0 5A69     		ldr	r2, [r3, #20]
 3971 00e2 0392     		str	r2, [sp, #12]
 3972 00e4 9A69     		ldr	r2, [r3, #24]
 3973 00e6 84F83C00 		strb	r0, [r4, #60]
 3974 00ea 0392     		str	r2, [sp, #12]
 3975 00ec 039A     		ldr	r2, [sp, #12]
 3976 00ee 5A68     		ldr	r2, [r3, #4]
 3977 00f0 42F48072 		orr	r2, r2, #256
 3978 00f4 5A60     		str	r2, [r3, #4]
 3979 00f6 5A68     		ldr	r2, [r3, #4]
 3980 00f8 42F40062 		orr	r2, r2, #2048
 3981 00fc 5A60     		str	r2, [r3, #4]
 3982 00fe 17E0     		b	.L610
 3983              	.L616:
 3984 0100 2023     		movs	r3, #32
 3985 0102 84F83D30 		strb	r3, [r4, #61]
 3986 0106 84F83EA0 		strb	r10, [r4, #62]
 3987 010a 236C     		ldr	r3, [r4, #64]
 3988 010c 84F83CA0 		strb	r10, [r4, #60]
 3989 0110 43F01003 		orr	r3, r3, #16
 3990 0114 2364     		str	r3, [r4, #64]
 3991 0116 0AE0     		b	.L617
 3992              	.L615:
 3993 0118 2022     		movs	r2, #32
 3994 011a 84F83D20 		strb	r2, [r4, #61]
 3995 011e 84F83E30 		strb	r3, [r4, #62]
 3996 0122 226C     		ldr	r2, [r4, #64]
 3997 0124 42F04002 		orr	r2, r2, #64
 3998              	.L622:
 3999 0128 2264     		str	r2, [r4, #64]
 4000 012a 84F83C30 		strb	r3, [r4, #60]
 4001              	.L617:
 4002 012e 0120     		movs	r0, #1
 4003              	.L610:
 4004 0130 04B0     		add	sp, sp, #16
 4005              		@ sp needed
 4006 0132 BDE8F087 		pop	{r4, r5, r6, r7, r8, r9, r10, pc}
 4007              	.L624:
 4008 0136 00BF     		.align	2
 4009              	.L623:
 4010 0138 00000000 		.word	SystemCoreClock
 4011 013c 0000FFFF 		.word	-65536
 4012 0140 00000000 		.word	I2C_DMAXferCplt
 4013 0144 00000000 		.word	I2C_DMAError
 4015              		.section	.text.HAL_I2C_Mem_Read_DMA,"ax",%progbits
 4016              		.align	1
 4017              		.global	HAL_I2C_Mem_Read_DMA
 4018              		.thumb
 4019              		.thumb_func
 4021              	HAL_I2C_Mem_Read_DMA:
 4022              		@ args = 8, pretend = 0, frame = 16
 4023              		@ frame_needed = 0, uses_anonymous_args = 0
 4024 0000 2DE9F047 		push	{r4, r5, r6, r7, r8, r9, r10, lr}
 4025 0004 0446     		mov	r4, r0
 4026 0006 86B0     		sub	sp, sp, #24
 4027 0008 1E46     		mov	r6, r3
 4028 000a 8846     		mov	r8, r1
ARM GAS  /tmp/cctwxent.s 			page 70


 4029 000c 1746     		mov	r7, r2
 4030 000e DDF83890 		ldr	r9, [sp, #56]
 4031 0012 FFF7FEFF 		bl	HAL_GetTick
 4032 0016 0023     		movs	r3, #0
 4033 0018 0393     		str	r3, [sp, #12]
 4034 001a 94F83D30 		ldrb	r3, [r4, #61]	@ zero_extendqisi2
 4035 001e 8246     		mov	r10, r0
 4036 0020 202B     		cmp	r3, #32
 4037 0022 01D0     		beq	.L626
 4038              	.L630:
 4039 0024 0220     		movs	r0, #2
 4040 0026 A2E0     		b	.L627
 4041              	.L626:
 4042 0028 46F2A812 		movw	r2, #25000
 4043 002c 514B     		ldr	r3, .L643
 4044 002e 1B68     		ldr	r3, [r3]
 4045 0030 B3FBF2F2 		udiv	r2, r3, r2
 4046 0034 1923     		movs	r3, #25
 4047 0036 5343     		muls	r3, r2, r3
 4048 0038 0393     		str	r3, [sp, #12]
 4049              	.L629:
 4050 003a 039B     		ldr	r3, [sp, #12]
 4051 003c 013B     		subs	r3, r3, #1
 4052 003e 0393     		str	r3, [sp, #12]
 4053 0040 039B     		ldr	r3, [sp, #12]
 4054 0042 63B9     		cbnz	r3, .L628
 4055 0044 2022     		movs	r2, #32
 4056 0046 2363     		str	r3, [r4, #48]
 4057 0048 84F83D20 		strb	r2, [r4, #61]
 4058 004c 84F83E30 		strb	r3, [r4, #62]
 4059 0050 226C     		ldr	r2, [r4, #64]
 4060 0052 84F83C30 		strb	r3, [r4, #60]
 4061 0056 42F02002 		orr	r2, r2, #32
 4062 005a 2264     		str	r2, [r4, #64]
 4063 005c 6AE0     		b	.L642
 4064              	.L628:
 4065 005e 2168     		ldr	r1, [r4]
 4066 0060 8B69     		ldr	r3, [r1, #24]
 4067 0062 9A07     		lsls	r2, r3, #30
 4068 0064 E9D4     		bmi	.L629
 4069 0066 94F83C30 		ldrb	r3, [r4, #60]	@ zero_extendqisi2
 4070 006a 012B     		cmp	r3, #1
 4071 006c DAD0     		beq	.L630
 4072 006e 0123     		movs	r3, #1
 4073 0070 84F83C30 		strb	r3, [r4, #60]
 4074 0074 0B68     		ldr	r3, [r1]
 4075 0076 0025     		movs	r5, #0
 4076 0078 DB07     		lsls	r3, r3, #31
 4077 007a 58BF     		it	pl
 4078 007c 0B68     		ldrpl	r3, [r1]
 4079 007e 3E4A     		ldr	r2, .L643+4
 4080 0080 5CBF     		itt	pl
 4081 0082 43F00103 		orrpl	r3, r3, #1
 4082 0086 0B60     		strpl	r3, [r1]
 4083 0088 0B68     		ldr	r3, [r1]
 4084 008a 23F40063 		bic	r3, r3, #2048
 4085 008e 0B60     		str	r3, [r1]
ARM GAS  /tmp/cctwxent.s 			page 71


 4086 0090 2223     		movs	r3, #34
 4087 0092 84F83D30 		strb	r3, [r4, #61]
 4088 0096 4023     		movs	r3, #64
 4089 0098 84F83E30 		strb	r3, [r4, #62]
 4090 009c BDF83C30 		ldrh	r3, [sp, #60]
 4091 00a0 2564     		str	r5, [r4, #64]
 4092 00a2 6385     		strh	r3, [r4, #42]	@ movhi
 4093 00a4 638D     		ldrh	r3, [r4, #42]
 4094 00a6 C4F82490 		str	r9, [r4, #36]
 4095 00aa 9BB2     		uxth	r3, r3
 4096 00ac 2385     		strh	r3, [r4, #40]	@ movhi
 4097 00ae E262     		str	r2, [r4, #44]
 4098 00b0 002B     		cmp	r3, #0
 4099 00b2 41D0     		beq	.L632
 4100 00b4 A06B     		ldr	r0, [r4, #56]
 4101 00b6 314A     		ldr	r2, .L643+8
 4102 00b8 C562     		str	r5, [r0, #44]
 4103 00ba 8262     		str	r2, [r0, #40]
 4104 00bc 304A     		ldr	r2, .L643+12
 4105 00be 4563     		str	r5, [r0, #52]
 4106 00c0 0263     		str	r2, [r0, #48]
 4107 00c2 1031     		adds	r1, r1, #16
 4108 00c4 4A46     		mov	r2, r9
 4109 00c6 FFF7FEFF 		bl	HAL_DMA_Start_IT
 4110 00ca 40BB     		cbnz	r0, .L633
 4111 00cc 2323     		movs	r3, #35
 4112 00ce 8DE80804 		stmia	sp, {r3, r10}
 4113 00d2 2046     		mov	r0, r4
 4114 00d4 4146     		mov	r1, r8
 4115 00d6 3A46     		mov	r2, r7
 4116 00d8 3346     		mov	r3, r6
 4117 00da FFF7FEFF 		bl	I2C_RequestMemoryRead
 4118 00de 48BB     		cbnz	r0, .L642
 4119 00e0 238D     		ldrh	r3, [r4, #40]
 4120 00e2 012B     		cmp	r3, #1
 4121 00e4 2368     		ldr	r3, [r4]
 4122 00e6 0BBF     		itete	eq
 4123 00e8 1A68     		ldreq	r2, [r3]
 4124 00ea 5A68     		ldrne	r2, [r3, #4]
 4125 00ec 22F48062 		biceq	r2, r2, #1024
 4126 00f0 42F48052 		orrne	r2, r2, #4096
 4127 00f4 0CBF     		ite	eq
 4128 00f6 1A60     		streq	r2, [r3]
 4129 00f8 5A60     		strne	r2, [r3, #4]
 4130 00fa 0022     		movs	r2, #0
 4131 00fc 0492     		str	r2, [sp, #16]
 4132 00fe 5969     		ldr	r1, [r3, #20]
 4133 0100 0491     		str	r1, [sp, #16]
 4134 0102 9969     		ldr	r1, [r3, #24]
 4135 0104 84F83C20 		strb	r2, [r4, #60]
 4136 0108 0491     		str	r1, [sp, #16]
 4137 010a 0499     		ldr	r1, [sp, #16]
 4138 010c 5A68     		ldr	r2, [r3, #4]
 4139 010e 42F48072 		orr	r2, r2, #256
 4140 0112 5A60     		str	r2, [r3, #4]
 4141 0114 5A68     		ldr	r2, [r3, #4]
 4142 0116 42F40062 		orr	r2, r2, #2048
ARM GAS  /tmp/cctwxent.s 			page 72


 4143 011a 5A60     		str	r2, [r3, #4]
 4144 011c 27E0     		b	.L627
 4145              	.L633:
 4146 011e 2023     		movs	r3, #32
 4147 0120 84F83D30 		strb	r3, [r4, #61]
 4148 0124 84F83E50 		strb	r5, [r4, #62]
 4149 0128 236C     		ldr	r3, [r4, #64]
 4150 012a 84F83C50 		strb	r5, [r4, #60]
 4151 012e 43F01003 		orr	r3, r3, #16
 4152 0132 2364     		str	r3, [r4, #64]
 4153              	.L642:
 4154 0134 0120     		movs	r0, #1
 4155 0136 1AE0     		b	.L627
 4156              	.L632:
 4157 0138 2323     		movs	r3, #35
 4158 013a 8DE80804 		stmia	sp, {r3, r10}
 4159 013e 2046     		mov	r0, r4
 4160 0140 4146     		mov	r1, r8
 4161 0142 3A46     		mov	r2, r7
 4162 0144 3346     		mov	r3, r6
 4163 0146 FFF7FEFF 		bl	I2C_RequestMemoryRead
 4164 014a 0028     		cmp	r0, #0
 4165 014c F2D1     		bne	.L642
 4166 014e 2368     		ldr	r3, [r4]
 4167 0150 0590     		str	r0, [sp, #20]
 4168 0152 5A69     		ldr	r2, [r3, #20]
 4169 0154 0592     		str	r2, [sp, #20]
 4170 0156 9A69     		ldr	r2, [r3, #24]
 4171 0158 0592     		str	r2, [sp, #20]
 4172 015a 059A     		ldr	r2, [sp, #20]
 4173 015c 1A68     		ldr	r2, [r3]
 4174 015e 42F40072 		orr	r2, r2, #512
 4175 0162 1A60     		str	r2, [r3]
 4176 0164 2023     		movs	r3, #32
 4177 0166 84F83D30 		strb	r3, [r4, #61]
 4178 016a 84F83C00 		strb	r0, [r4, #60]
 4179              	.L627:
 4180 016e 06B0     		add	sp, sp, #24
 4181              		@ sp needed
 4182 0170 BDE8F087 		pop	{r4, r5, r6, r7, r8, r9, r10, pc}
 4183              	.L644:
 4184              		.align	2
 4185              	.L643:
 4186 0174 00000000 		.word	SystemCoreClock
 4187 0178 0000FFFF 		.word	-65536
 4188 017c 00000000 		.word	I2C_DMAXferCplt
 4189 0180 00000000 		.word	I2C_DMAError
 4191              		.section	.text.HAL_I2C_IsDeviceReady,"ax",%progbits
 4192              		.align	1
 4193              		.global	HAL_I2C_IsDeviceReady
 4194              		.thumb
 4195              		.thumb_func
 4197              	HAL_I2C_IsDeviceReady:
 4198              		@ args = 0, pretend = 0, frame = 8
 4199              		@ frame_needed = 0, uses_anonymous_args = 0
 4200 0000 2DE9FF47 		push	{r0, r1, r2, r3, r4, r5, r6, r7, r8, r9, r10, lr}
 4201 0004 0446     		mov	r4, r0
ARM GAS  /tmp/cctwxent.s 			page 73


 4202 0006 1F46     		mov	r7, r3
 4203 0008 8946     		mov	r9, r1
 4204 000a 9046     		mov	r8, r2
 4205 000c FFF7FEFF 		bl	HAL_GetTick
 4206 0010 94F83D30 		ldrb	r3, [r4, #61]	@ zero_extendqisi2
 4207 0014 0546     		mov	r5, r0
 4208 0016 202B     		cmp	r3, #32
 4209 0018 01D0     		beq	.L646
 4210              	.L648:
 4211 001a 0220     		movs	r0, #2
 4212 001c 86E0     		b	.L647
 4213              	.L646:
 4214 001e 0090     		str	r0, [sp]
 4215 0020 4449     		ldr	r1, .L667
 4216 0022 2046     		mov	r0, r4
 4217 0024 0122     		movs	r2, #1
 4218 0026 1923     		movs	r3, #25
 4219 0028 FFF7FEFF 		bl	I2C_WaitOnFlagUntilTimeout
 4220 002c 0028     		cmp	r0, #0
 4221 002e F4D1     		bne	.L648
 4222 0030 94F83C30 		ldrb	r3, [r4, #60]	@ zero_extendqisi2
 4223 0034 012B     		cmp	r3, #1
 4224 0036 F0D0     		beq	.L648
 4225 0038 0123     		movs	r3, #1
 4226 003a 84F83C30 		strb	r3, [r4, #60]
 4227 003e 2368     		ldr	r3, [r4]
 4228 0040 0126     		movs	r6, #1
 4229 0042 1A68     		ldr	r2, [r3]
 4230 0044 D207     		lsls	r2, r2, #31
 4231 0046 5EBF     		ittt	pl
 4232 0048 1A68     		ldrpl	r2, [r3]
 4233 004a 42F00102 		orrpl	r2, r2, #1
 4234 004e 1A60     		strpl	r2, [r3]
 4235 0050 1A68     		ldr	r2, [r3]
 4236 0052 22F40062 		bic	r2, r2, #2048
 4237 0056 1A60     		str	r2, [r3]
 4238 0058 2423     		movs	r3, #36
 4239 005a 84F83D30 		strb	r3, [r4, #61]
 4240 005e 0023     		movs	r3, #0
 4241 0060 2364     		str	r3, [r4, #64]
 4242 0062 A3F58033 		sub	r3, r3, #65536
 4243 0066 E362     		str	r3, [r4, #44]
 4244              	.L658:
 4245 0068 2268     		ldr	r2, [r4]
 4246 006a 2046     		mov	r0, r4
 4247 006c 1368     		ldr	r3, [r2]
 4248 006e 4FF00111 		mov	r1, #65537
 4249 0072 43F48073 		orr	r3, r3, #256
 4250 0076 1360     		str	r3, [r2]
 4251 0078 0095     		str	r5, [sp]
 4252 007a 0022     		movs	r2, #0
 4253 007c 3B46     		mov	r3, r7
 4254 007e FFF7FEFF 		bl	I2C_WaitOnFlagUntilTimeout
 4255 0082 0028     		cmp	r0, #0
 4256 0084 51D1     		bne	.L666
 4257 0086 2368     		ldr	r3, [r4]
 4258 0088 09F0FE02 		and	r2, r9, #254
ARM GAS  /tmp/cctwxent.s 			page 74


 4259 008c 1A61     		str	r2, [r3, #16]
 4260 008e FFF7FEFF 		bl	HAL_GetTick
 4261 0092 0546     		mov	r5, r0
 4262              	.L653:
 4263 0094 2368     		ldr	r3, [r4]
 4264 0096 5A69     		ldr	r2, [r3, #20]
 4265 0098 5B69     		ldr	r3, [r3, #20]
 4266 009a 94F83D10 		ldrb	r1, [r4, #61]	@ zero_extendqisi2
 4267 009e C2F34002 		ubfx	r2, r2, #1, #1
 4268 00a2 A029     		cmp	r1, #160
 4269 00a4 C3F38023 		ubfx	r3, r3, #10, #1
 4270 00a8 0CD0     		beq	.L654
 4271 00aa 5AB9     		cbnz	r2, .L654
 4272 00ac 53B9     		cbnz	r3, .L654
 4273 00ae FFF7FEFF 		bl	HAL_GetTick
 4274 00b2 401B     		subs	r0, r0, r5
 4275 00b4 B842     		cmp	r0, r7
 4276 00b6 01D8     		bhi	.L652
 4277 00b8 002F     		cmp	r7, #0
 4278 00ba EBD1     		bne	.L653
 4279              	.L652:
 4280 00bc A023     		movs	r3, #160
 4281 00be 84F83D30 		strb	r3, [r4, #61]
 4282 00c2 E7E7     		b	.L653
 4283              	.L654:
 4284 00c4 2368     		ldr	r3, [r4]
 4285 00c6 4FF0200A 		mov	r10, #32
 4286 00ca 84F83DA0 		strb	r10, [r4, #61]
 4287 00ce 5A69     		ldr	r2, [r3, #20]
 4288 00d0 12F0020F 		tst	r2, #2
 4289 00d4 1A68     		ldr	r2, [r3]
 4290 00d6 42F40072 		orr	r2, r2, #512
 4291 00da 1A60     		str	r2, [r3]
 4292 00dc 13D0     		beq	.L656
 4293 00de 0022     		movs	r2, #0
 4294 00e0 0392     		str	r2, [sp, #12]
 4295 00e2 5A69     		ldr	r2, [r3, #20]
 4296 00e4 2046     		mov	r0, r4
 4297 00e6 0392     		str	r2, [sp, #12]
 4298 00e8 9B69     		ldr	r3, [r3, #24]
 4299 00ea 1249     		ldr	r1, .L667
 4300 00ec 0393     		str	r3, [sp, #12]
 4301 00ee 039B     		ldr	r3, [sp, #12]
 4302 00f0 0095     		str	r5, [sp]
 4303 00f2 0122     		movs	r2, #1
 4304 00f4 1923     		movs	r3, #25
 4305 00f6 FFF7FEFF 		bl	I2C_WaitOnFlagUntilTimeout
 4306 00fa B0B9     		cbnz	r0, .L666
 4307 00fc 84F83DA0 		strb	r10, [r4, #61]
 4308 0100 84F83C00 		strb	r0, [r4, #60]
 4309 0104 12E0     		b	.L647
 4310              	.L656:
 4311 0106 6FF48062 		mvn	r2, #1024
 4312 010a 5A61     		str	r2, [r3, #20]
 4313 010c 2046     		mov	r0, r4
 4314 010e 0095     		str	r5, [sp]
 4315 0110 0849     		ldr	r1, .L667
ARM GAS  /tmp/cctwxent.s 			page 75


 4316 0112 0122     		movs	r2, #1
 4317 0114 1923     		movs	r3, #25
 4318 0116 FFF7FEFF 		bl	I2C_WaitOnFlagUntilTimeout
 4319 011a 30B9     		cbnz	r0, .L666
 4320 011c 0136     		adds	r6, r6, #1
 4321 011e 4645     		cmp	r6, r8
 4322 0120 A2D3     		bcc	.L658
 4323 0122 84F83DA0 		strb	r10, [r4, #61]
 4324 0126 84F83C00 		strb	r0, [r4, #60]
 4325              	.L666:
 4326 012a 0120     		movs	r0, #1
 4327              	.L647:
 4328 012c 04B0     		add	sp, sp, #16
 4329              		@ sp needed
 4330 012e BDE8F087 		pop	{r4, r5, r6, r7, r8, r9, r10, pc}
 4331              	.L668:
 4332 0132 00BF     		.align	2
 4333              	.L667:
 4334 0134 02001000 		.word	1048578
 4336              		.section	.text.HAL_I2C_Master_Seq_Transmit_IT,"ax",%progbits
 4337              		.align	1
 4338              		.global	HAL_I2C_Master_Seq_Transmit_IT
 4339              		.thumb
 4340              		.thumb_func
 4342              	HAL_I2C_Master_Seq_Transmit_IT:
 4343              		@ args = 4, pretend = 0, frame = 8
 4344              		@ frame_needed = 0, uses_anonymous_args = 0
 4345 0000 73B5     		push	{r0, r1, r4, r5, r6, lr}
 4346 0002 0024     		movs	r4, #0
 4347 0004 0094     		str	r4, [sp]
 4348 0006 0194     		str	r4, [sp, #4]
 4349 0008 90F83D40 		ldrb	r4, [r0, #61]	@ zero_extendqisi2
 4350 000c 069D     		ldr	r5, [sp, #24]
 4351 000e 202C     		cmp	r4, #32
 4352 0010 01D0     		beq	.L670
 4353              	.L673:
 4354 0012 0220     		movs	r0, #2
 4355 0014 5DE0     		b	.L671
 4356              	.L670:
 4357 0016 082D     		cmp	r5, #8
 4358 0018 06D0     		beq	.L672
 4359 001a 012D     		cmp	r5, #1
 4360 001c 04D0     		beq	.L672
 4361              	.L677:
 4362 001e 90F83C40 		ldrb	r4, [r0, #60]	@ zero_extendqisi2
 4363 0022 012C     		cmp	r4, #1
 4364 0024 21D1     		bne	.L694
 4365 0026 F4E7     		b	.L673
 4366              	.L672:
 4367 0028 46F2A816 		movw	r6, #25000
 4368 002c 2A4C     		ldr	r4, .L695
 4369 002e 2468     		ldr	r4, [r4]
 4370 0030 B4FBF6F6 		udiv	r6, r4, r6
 4371 0034 1924     		movs	r4, #25
 4372 0036 7443     		muls	r4, r6, r4
 4373 0038 0194     		str	r4, [sp, #4]
 4374              	.L676:
ARM GAS  /tmp/cctwxent.s 			page 76


 4375 003a 019C     		ldr	r4, [sp, #4]
 4376 003c 013C     		subs	r4, r4, #1
 4377 003e 0194     		str	r4, [sp, #4]
 4378 0040 019C     		ldr	r4, [sp, #4]
 4379 0042 6CB9     		cbnz	r4, .L675
 4380 0044 2023     		movs	r3, #32
 4381 0046 0463     		str	r4, [r0, #48]
 4382 0048 80F83D30 		strb	r3, [r0, #61]
 4383 004c 80F83E40 		strb	r4, [r0, #62]
 4384 0050 036C     		ldr	r3, [r0, #64]
 4385 0052 80F83C40 		strb	r4, [r0, #60]
 4386 0056 43F02003 		orr	r3, r3, #32
 4387 005a 0364     		str	r3, [r0, #64]
 4388 005c 0120     		movs	r0, #1
 4389 005e 38E0     		b	.L671
 4390              	.L675:
 4391 0060 0468     		ldr	r4, [r0]
 4392 0062 A469     		ldr	r4, [r4, #24]
 4393 0064 A407     		lsls	r4, r4, #30
 4394 0066 E8D4     		bmi	.L676
 4395 0068 D9E7     		b	.L677
 4396              	.L694:
 4397 006a 0124     		movs	r4, #1
 4398 006c 80F83C40 		strb	r4, [r0, #60]
 4399 0070 0468     		ldr	r4, [r0]
 4400 0072 2668     		ldr	r6, [r4]
 4401 0074 F607     		lsls	r6, r6, #31
 4402 0076 5EBF     		ittt	pl
 4403 0078 2668     		ldrpl	r6, [r4]
 4404 007a 46F00106 		orrpl	r6, r6, #1
 4405 007e 2660     		strpl	r6, [r4]
 4406 0080 2668     		ldr	r6, [r4]
 4407 0082 26F40066 		bic	r6, r6, #2048
 4408 0086 2660     		str	r6, [r4]
 4409 0088 2126     		movs	r6, #33
 4410 008a 80F83D60 		strb	r6, [r0, #61]
 4411 008e 1026     		movs	r6, #16
 4412 0090 80F83E60 		strb	r6, [r0, #62]
 4413 0094 0026     		movs	r6, #0
 4414 0096 0664     		str	r6, [r0, #64]
 4415 0098 4385     		strh	r3, [r0, #42]	@ movhi
 4416 009a 438D     		ldrh	r3, [r0, #42]
 4417 009c C562     		str	r5, [r0, #44]
 4418 009e 4164     		str	r1, [r0, #68]
 4419 00a0 0385     		strh	r3, [r0, #40]	@ movhi
 4420 00a2 036B     		ldr	r3, [r0, #48]
 4421 00a4 4262     		str	r2, [r0, #36]
 4422 00a6 0093     		str	r3, [sp]
 4423 00a8 009B     		ldr	r3, [sp]
 4424 00aa 112B     		cmp	r3, #17
 4425 00ac 05D1     		bne	.L679
 4426 00ae B5F52A0F 		cmp	r5, #11141120
 4427 00b2 02D0     		beq	.L679
 4428 00b4 B5F12A4F 		cmp	r5, #-1442840576
 4429 00b8 03D1     		bne	.L680
 4430              	.L679:
 4431 00ba 2368     		ldr	r3, [r4]
ARM GAS  /tmp/cctwxent.s 			page 77


 4432 00bc 43F48073 		orr	r3, r3, #256
 4433 00c0 2360     		str	r3, [r4]
 4434              	.L680:
 4435 00c2 0023     		movs	r3, #0
 4436 00c4 80F83C30 		strb	r3, [r0, #60]
 4437 00c8 1846     		mov	r0, r3
 4438 00ca 6268     		ldr	r2, [r4, #4]
 4439 00cc 42F4E062 		orr	r2, r2, #1792
 4440 00d0 6260     		str	r2, [r4, #4]
 4441              	.L671:
 4442 00d2 02B0     		add	sp, sp, #8
 4443              		@ sp needed
 4444 00d4 70BD     		pop	{r4, r5, r6, pc}
 4445              	.L696:
 4446 00d6 00BF     		.align	2
 4447              	.L695:
 4448 00d8 00000000 		.word	SystemCoreClock
 4450              		.section	.text.HAL_I2C_Master_Seq_Transmit_DMA,"ax",%progbits
 4451              		.align	1
 4452              		.global	HAL_I2C_Master_Seq_Transmit_DMA
 4453              		.thumb
 4454              		.thumb_func
 4456              	HAL_I2C_Master_Seq_Transmit_DMA:
 4457              		@ args = 4, pretend = 0, frame = 8
 4458              		@ frame_needed = 0, uses_anonymous_args = 0
 4459 0000 F7B5     		push	{r0, r1, r2, r4, r5, r6, r7, lr}
 4460 0002 0446     		mov	r4, r0
 4461 0004 0020     		movs	r0, #0
 4462 0006 0090     		str	r0, [sp]
 4463 0008 0190     		str	r0, [sp, #4]
 4464 000a 94F83D00 		ldrb	r0, [r4, #61]	@ zero_extendqisi2
 4465 000e 089E     		ldr	r6, [sp, #32]
 4466 0010 2028     		cmp	r0, #32
 4467 0012 01D0     		beq	.L698
 4468              	.L701:
 4469 0014 0220     		movs	r0, #2
 4470 0016 A1E0     		b	.L699
 4471              	.L698:
 4472 0018 082E     		cmp	r6, #8
 4473 001a 06D0     		beq	.L700
 4474 001c 012E     		cmp	r6, #1
 4475 001e 04D0     		beq	.L700
 4476              	.L705:
 4477 0020 94F83C00 		ldrb	r0, [r4, #60]	@ zero_extendqisi2
 4478 0024 0128     		cmp	r0, #1
 4479 0026 20D1     		bne	.L737
 4480 0028 F4E7     		b	.L701
 4481              	.L700:
 4482 002a 46F2A815 		movw	r5, #25000
 4483 002e 4C48     		ldr	r0, .L739
 4484 0030 0068     		ldr	r0, [r0]
 4485 0032 B0FBF5F5 		udiv	r5, r0, r5
 4486 0036 1920     		movs	r0, #25
 4487 0038 6843     		muls	r0, r5, r0
 4488 003a 0190     		str	r0, [sp, #4]
 4489              	.L704:
 4490 003c 0198     		ldr	r0, [sp, #4]
ARM GAS  /tmp/cctwxent.s 			page 78


 4491 003e 0138     		subs	r0, r0, #1
 4492 0040 0190     		str	r0, [sp, #4]
 4493 0042 0198     		ldr	r0, [sp, #4]
 4494 0044 60B9     		cbnz	r0, .L703
 4495 0046 2023     		movs	r3, #32
 4496 0048 2063     		str	r0, [r4, #48]
 4497 004a 84F83D30 		strb	r3, [r4, #61]
 4498 004e 84F83E00 		strb	r0, [r4, #62]
 4499 0052 236C     		ldr	r3, [r4, #64]
 4500 0054 84F83C00 		strb	r0, [r4, #60]
 4501 0058 43F02003 		orr	r3, r3, #32
 4502 005c 2364     		str	r3, [r4, #64]
 4503 005e 63E0     		b	.L738
 4504              	.L703:
 4505 0060 2068     		ldr	r0, [r4]
 4506 0062 8069     		ldr	r0, [r0, #24]
 4507 0064 8507     		lsls	r5, r0, #30
 4508 0066 E9D4     		bmi	.L704
 4509 0068 DAE7     		b	.L705
 4510              	.L737:
 4511 006a 2568     		ldr	r5, [r4]
 4512 006c 0120     		movs	r0, #1
 4513 006e 84F83C00 		strb	r0, [r4, #60]
 4514 0072 2868     		ldr	r0, [r5]
 4515 0074 0027     		movs	r7, #0
 4516 0076 C007     		lsls	r0, r0, #31
 4517 0078 5EBF     		ittt	pl
 4518 007a 2868     		ldrpl	r0, [r5]
 4519 007c 40F00100 		orrpl	r0, r0, #1
 4520 0080 2860     		strpl	r0, [r5]
 4521 0082 2868     		ldr	r0, [r5]
 4522 0084 20F40060 		bic	r0, r0, #2048
 4523 0088 2860     		str	r0, [r5]
 4524 008a 2120     		movs	r0, #33
 4525 008c 84F83D00 		strb	r0, [r4, #61]
 4526 0090 1020     		movs	r0, #16
 4527 0092 84F83E00 		strb	r0, [r4, #62]
 4528 0096 2764     		str	r7, [r4, #64]
 4529 0098 6385     		strh	r3, [r4, #42]	@ movhi
 4530 009a 638D     		ldrh	r3, [r4, #42]
 4531 009c E662     		str	r6, [r4, #44]
 4532 009e 6164     		str	r1, [r4, #68]
 4533 00a0 2385     		strh	r3, [r4, #40]	@ movhi
 4534 00a2 236B     		ldr	r3, [r4, #48]
 4535 00a4 6262     		str	r2, [r4, #36]
 4536 00a6 0093     		str	r3, [sp]
 4537 00a8 238D     		ldrh	r3, [r4, #40]
 4538 00aa 002B     		cmp	r3, #0
 4539 00ac 3ED0     		beq	.L707
 4540 00ae 606B     		ldr	r0, [r4, #52]
 4541 00b0 2C49     		ldr	r1, .L739+4
 4542 00b2 C762     		str	r7, [r0, #44]
 4543 00b4 8162     		str	r1, [r0, #40]
 4544 00b6 2C49     		ldr	r1, .L739+8
 4545 00b8 4763     		str	r7, [r0, #52]
 4546 00ba 0163     		str	r1, [r0, #48]
 4547 00bc 1146     		mov	r1, r2
ARM GAS  /tmp/cctwxent.s 			page 79


 4548 00be 05F11002 		add	r2, r5, #16
 4549 00c2 FFF7FEFF 		bl	HAL_DMA_Start_IT
 4550 00c6 20BB     		cbnz	r0, .L708
 4551 00c8 2368     		ldr	r3, [r4]
 4552 00ca 1A68     		ldr	r2, [r3]
 4553 00cc 42F48062 		orr	r2, r2, #1024
 4554 00d0 1A60     		str	r2, [r3]
 4555 00d2 009A     		ldr	r2, [sp]
 4556 00d4 112A     		cmp	r2, #17
 4557 00d6 05D1     		bne	.L709
 4558 00d8 B6F52A0F 		cmp	r6, #11141120
 4559 00dc 02D0     		beq	.L709
 4560 00de B6F12A4F 		cmp	r6, #-1442840576
 4561 00e2 03D1     		bne	.L710
 4562              	.L709:
 4563 00e4 1A68     		ldr	r2, [r3]
 4564 00e6 42F48072 		orr	r2, r2, #256
 4565 00ea 1A60     		str	r2, [r3]
 4566              	.L710:
 4567 00ec 0022     		movs	r2, #0
 4568 00ee 042E     		cmp	r6, #4
 4569 00f0 84F83C20 		strb	r2, [r4, #60]
 4570 00f4 03D0     		beq	.L711
 4571 00f6 202E     		cmp	r6, #32
 4572 00f8 01D0     		beq	.L711
 4573 00fa 102E     		cmp	r6, #16
 4574 00fc 03D1     		bne	.L712
 4575              	.L711:
 4576 00fe 5A68     		ldr	r2, [r3, #4]
 4577 0100 42F40062 		orr	r2, r2, #2048
 4578 0104 5A60     		str	r2, [r3, #4]
 4579              	.L712:
 4580 0106 5A68     		ldr	r2, [r3, #4]
 4581 0108 0020     		movs	r0, #0
 4582 010a 42F44072 		orr	r2, r2, #768
 4583 010e 5A60     		str	r2, [r3, #4]
 4584 0110 24E0     		b	.L699
 4585              	.L708:
 4586 0112 2023     		movs	r3, #32
 4587 0114 84F83D30 		strb	r3, [r4, #61]
 4588 0118 84F83E70 		strb	r7, [r4, #62]
 4589 011c 236C     		ldr	r3, [r4, #64]
 4590 011e 84F83C70 		strb	r7, [r4, #60]
 4591 0122 43F01003 		orr	r3, r3, #16
 4592 0126 2364     		str	r3, [r4, #64]
 4593              	.L738:
 4594 0128 0120     		movs	r0, #1
 4595 012a 17E0     		b	.L699
 4596              	.L707:
 4597 012c 2B68     		ldr	r3, [r5]
 4598 012e 43F48063 		orr	r3, r3, #1024
 4599 0132 2B60     		str	r3, [r5]
 4600 0134 009B     		ldr	r3, [sp]
 4601 0136 112B     		cmp	r3, #17
 4602 0138 05D1     		bne	.L713
 4603 013a B6F52A0F 		cmp	r6, #11141120
 4604 013e 02D0     		beq	.L713
ARM GAS  /tmp/cctwxent.s 			page 80


 4605 0140 B6F12A4F 		cmp	r6, #-1442840576
 4606 0144 03D1     		bne	.L714
 4607              	.L713:
 4608 0146 2B68     		ldr	r3, [r5]
 4609 0148 43F48073 		orr	r3, r3, #256
 4610 014c 2B60     		str	r3, [r5]
 4611              	.L714:
 4612 014e 6B68     		ldr	r3, [r5, #4]
 4613 0150 0020     		movs	r0, #0
 4614 0152 43F4E063 		orr	r3, r3, #1792
 4615 0156 84F83C00 		strb	r0, [r4, #60]
 4616 015a 6B60     		str	r3, [r5, #4]
 4617              	.L699:
 4618 015c 03B0     		add	sp, sp, #12
 4619              		@ sp needed
 4620 015e F0BD     		pop	{r4, r5, r6, r7, pc}
 4621              	.L740:
 4622              		.align	2
 4623              	.L739:
 4624 0160 00000000 		.word	SystemCoreClock
 4625 0164 00000000 		.word	I2C_DMAXferCplt
 4626 0168 00000000 		.word	I2C_DMAError
 4628              		.section	.text.HAL_I2C_Master_Seq_Receive_IT,"ax",%progbits
 4629              		.align	1
 4630              		.global	HAL_I2C_Master_Seq_Receive_IT
 4631              		.thumb
 4632              		.thumb_func
 4634              	HAL_I2C_Master_Seq_Receive_IT:
 4635              		@ args = 4, pretend = 0, frame = 8
 4636              		@ frame_needed = 0, uses_anonymous_args = 0
 4637 0000 73B5     		push	{r0, r1, r4, r5, r6, lr}
 4638 0002 0024     		movs	r4, #0
 4639 0004 0094     		str	r4, [sp]
 4640 0006 0194     		str	r4, [sp, #4]
 4641 0008 90F83D40 		ldrb	r4, [r0, #61]	@ zero_extendqisi2
 4642 000c 069D     		ldr	r5, [sp, #24]
 4643 000e 202C     		cmp	r4, #32
 4644 0010 01D0     		beq	.L742
 4645              	.L745:
 4646 0012 0220     		movs	r0, #2
 4647 0014 78E0     		b	.L743
 4648              	.L742:
 4649 0016 082D     		cmp	r5, #8
 4650 0018 06D0     		beq	.L744
 4651 001a 012D     		cmp	r5, #1
 4652 001c 04D0     		beq	.L744
 4653              	.L749:
 4654 001e 90F83C40 		ldrb	r4, [r0, #60]	@ zero_extendqisi2
 4655 0022 012C     		cmp	r4, #1
 4656 0024 21D1     		bne	.L773
 4657 0026 F4E7     		b	.L745
 4658              	.L744:
 4659 0028 46F2A816 		movw	r6, #25000
 4660 002c 374C     		ldr	r4, .L775
 4661 002e 2468     		ldr	r4, [r4]
 4662 0030 B4FBF6F6 		udiv	r6, r4, r6
 4663 0034 1924     		movs	r4, #25
ARM GAS  /tmp/cctwxent.s 			page 81


 4664 0036 7443     		muls	r4, r6, r4
 4665 0038 0194     		str	r4, [sp, #4]
 4666              	.L748:
 4667 003a 019C     		ldr	r4, [sp, #4]
 4668 003c 013C     		subs	r4, r4, #1
 4669 003e 0194     		str	r4, [sp, #4]
 4670 0040 019C     		ldr	r4, [sp, #4]
 4671 0042 6CB9     		cbnz	r4, .L747
 4672 0044 2023     		movs	r3, #32
 4673 0046 0463     		str	r4, [r0, #48]
 4674 0048 80F83D30 		strb	r3, [r0, #61]
 4675 004c 80F83E40 		strb	r4, [r0, #62]
 4676 0050 036C     		ldr	r3, [r0, #64]
 4677 0052 80F83C40 		strb	r4, [r0, #60]
 4678 0056 43F02003 		orr	r3, r3, #32
 4679 005a 0364     		str	r3, [r0, #64]
 4680 005c 0120     		movs	r0, #1
 4681 005e 53E0     		b	.L743
 4682              	.L747:
 4683 0060 0468     		ldr	r4, [r0]
 4684 0062 A469     		ldr	r4, [r4, #24]
 4685 0064 A407     		lsls	r4, r4, #30
 4686 0066 E8D4     		bmi	.L748
 4687 0068 D9E7     		b	.L749
 4688              	.L773:
 4689 006a 0124     		movs	r4, #1
 4690 006c 80F83C40 		strb	r4, [r0, #60]
 4691 0070 0468     		ldr	r4, [r0]
 4692 0072 2668     		ldr	r6, [r4]
 4693 0074 F607     		lsls	r6, r6, #31
 4694 0076 5EBF     		ittt	pl
 4695 0078 2668     		ldrpl	r6, [r4]
 4696 007a 46F00106 		orrpl	r6, r6, #1
 4697 007e 2660     		strpl	r6, [r4]
 4698 0080 2668     		ldr	r6, [r4]
 4699 0082 26F40066 		bic	r6, r6, #2048
 4700 0086 2660     		str	r6, [r4]
 4701 0088 2226     		movs	r6, #34
 4702 008a 80F83D60 		strb	r6, [r0, #61]
 4703 008e 1026     		movs	r6, #16
 4704 0090 80F83E60 		strb	r6, [r0, #62]
 4705 0094 0026     		movs	r6, #0
 4706 0096 0664     		str	r6, [r0, #64]
 4707 0098 4385     		strh	r3, [r0, #42]	@ movhi
 4708 009a 438D     		ldrh	r3, [r0, #42]
 4709 009c C562     		str	r5, [r0, #44]
 4710 009e 4164     		str	r1, [r0, #68]
 4711 00a0 0385     		strh	r3, [r0, #40]	@ movhi
 4712 00a2 036B     		ldr	r3, [r0, #48]
 4713 00a4 4262     		str	r2, [r0, #36]
 4714 00a6 0093     		str	r3, [sp]
 4715 00a8 438D     		ldrh	r3, [r0, #42]
 4716 00aa 9BB2     		uxth	r3, r3
 4717 00ac 022B     		cmp	r3, #2
 4718 00ae 11D1     		bne	.L751
 4719 00b0 202D     		cmp	r5, #32
 4720 00b2 01D0     		beq	.L752
ARM GAS  /tmp/cctwxent.s 			page 82


 4721 00b4 102D     		cmp	r5, #16
 4722 00b6 0DD1     		bne	.L751
 4723              	.L752:
 4724 00b8 009B     		ldr	r3, [sp]
 4725 00ba 122B     		cmp	r3, #18
 4726 00bc 2368     		ldr	r3, [r4]
 4727 00be 0AD1     		bne	.L774
 4728 00c0 23F48063 		bic	r3, r3, #1024
 4729 00c4 2360     		str	r3, [r4]
 4730 00c6 2368     		ldr	r3, [r4]
 4731 00c8 4FF44071 		mov	r1, #768
 4732 00cc 43F40063 		orr	r3, r3, #2048
 4733 00d0 2360     		str	r3, [r4]
 4734 00d2 05E0     		b	.L754
 4735              	.L751:
 4736 00d4 2368     		ldr	r3, [r4]
 4737              	.L774:
 4738 00d6 43F48063 		orr	r3, r3, #1024
 4739 00da 2360     		str	r3, [r4]
 4740 00dc 4FF4E061 		mov	r1, #1792
 4741              	.L754:
 4742 00e0 009B     		ldr	r3, [sp]
 4743 00e2 122B     		cmp	r3, #18
 4744 00e4 05D1     		bne	.L755
 4745 00e6 B5F52A0F 		cmp	r5, #11141120
 4746 00ea 02D0     		beq	.L755
 4747 00ec B5F12A4F 		cmp	r5, #-1442840576
 4748 00f0 03D1     		bne	.L756
 4749              	.L755:
 4750 00f2 2368     		ldr	r3, [r4]
 4751 00f4 43F48073 		orr	r3, r3, #256
 4752 00f8 2360     		str	r3, [r4]
 4753              	.L756:
 4754 00fa 0023     		movs	r3, #0
 4755 00fc 80F83C30 		strb	r3, [r0, #60]
 4756 0100 1846     		mov	r0, r3
 4757 0102 6268     		ldr	r2, [r4, #4]
 4758 0104 0A43     		orrs	r2, r2, r1
 4759 0106 6260     		str	r2, [r4, #4]
 4760              	.L743:
 4761 0108 02B0     		add	sp, sp, #8
 4762              		@ sp needed
 4763 010a 70BD     		pop	{r4, r5, r6, pc}
 4764              	.L776:
 4765              		.align	2
 4766              	.L775:
 4767 010c 00000000 		.word	SystemCoreClock
 4769              		.section	.text.HAL_I2C_Master_Seq_Receive_DMA,"ax",%progbits
 4770              		.align	1
 4771              		.global	HAL_I2C_Master_Seq_Receive_DMA
 4772              		.thumb
 4773              		.thumb_func
 4775              	HAL_I2C_Master_Seq_Receive_DMA:
 4776              		@ args = 4, pretend = 0, frame = 8
 4777              		@ frame_needed = 0, uses_anonymous_args = 0
 4778 0000 F7B5     		push	{r0, r1, r2, r4, r5, r6, r7, lr}
 4779 0002 0446     		mov	r4, r0
ARM GAS  /tmp/cctwxent.s 			page 83


 4780 0004 0020     		movs	r0, #0
 4781 0006 0090     		str	r0, [sp]
 4782 0008 0190     		str	r0, [sp, #4]
 4783 000a 94F83D00 		ldrb	r0, [r4, #61]	@ zero_extendqisi2
 4784 000e 089E     		ldr	r6, [sp, #32]
 4785 0010 2028     		cmp	r0, #32
 4786 0012 01D0     		beq	.L778
 4787              	.L781:
 4788 0014 0220     		movs	r0, #2
 4789 0016 CCE0     		b	.L779
 4790              	.L778:
 4791 0018 082E     		cmp	r6, #8
 4792 001a 06D0     		beq	.L780
 4793 001c 012E     		cmp	r6, #1
 4794 001e 04D0     		beq	.L780
 4795              	.L785:
 4796 0020 94F83C00 		ldrb	r0, [r4, #60]	@ zero_extendqisi2
 4797 0024 0128     		cmp	r0, #1
 4798 0026 20D1     		bne	.L832
 4799 0028 F4E7     		b	.L781
 4800              	.L780:
 4801 002a 46F2A815 		movw	r5, #25000
 4802 002e 6248     		ldr	r0, .L834
 4803 0030 0068     		ldr	r0, [r0]
 4804 0032 B0FBF5F5 		udiv	r5, r0, r5
 4805 0036 1920     		movs	r0, #25
 4806 0038 6843     		muls	r0, r5, r0
 4807 003a 0190     		str	r0, [sp, #4]
 4808              	.L784:
 4809 003c 0198     		ldr	r0, [sp, #4]
 4810 003e 0138     		subs	r0, r0, #1
 4811 0040 0190     		str	r0, [sp, #4]
 4812 0042 0198     		ldr	r0, [sp, #4]
 4813 0044 60B9     		cbnz	r0, .L783
 4814 0046 2023     		movs	r3, #32
 4815 0048 2063     		str	r0, [r4, #48]
 4816 004a 84F83D30 		strb	r3, [r4, #61]
 4817 004e 84F83E00 		strb	r0, [r4, #62]
 4818 0052 236C     		ldr	r3, [r4, #64]
 4819 0054 84F83C00 		strb	r0, [r4, #60]
 4820 0058 43F02003 		orr	r3, r3, #32
 4821 005c 2364     		str	r3, [r4, #64]
 4822 005e 8EE0     		b	.L833
 4823              	.L783:
 4824 0060 2068     		ldr	r0, [r4]
 4825 0062 8069     		ldr	r0, [r0, #24]
 4826 0064 8507     		lsls	r5, r0, #30
 4827 0066 E9D4     		bmi	.L784
 4828 0068 DAE7     		b	.L785
 4829              	.L832:
 4830 006a 2568     		ldr	r5, [r4]
 4831 006c 0120     		movs	r0, #1
 4832 006e 84F83C00 		strb	r0, [r4, #60]
 4833 0072 2868     		ldr	r0, [r5]
 4834 0074 C007     		lsls	r0, r0, #31
 4835 0076 5EBF     		ittt	pl
 4836 0078 2868     		ldrpl	r0, [r5]
ARM GAS  /tmp/cctwxent.s 			page 84


 4837 007a 40F00100 		orrpl	r0, r0, #1
 4838 007e 2860     		strpl	r0, [r5]
 4839 0080 2868     		ldr	r0, [r5]
 4840 0082 20F40060 		bic	r0, r0, #2048
 4841 0086 2860     		str	r0, [r5]
 4842 0088 6868     		ldr	r0, [r5, #4]
 4843 008a 20F48050 		bic	r0, r0, #4096
 4844 008e 6860     		str	r0, [r5, #4]
 4845 0090 2220     		movs	r0, #34
 4846 0092 84F83D00 		strb	r0, [r4, #61]
 4847 0096 1020     		movs	r0, #16
 4848 0098 84F83E00 		strb	r0, [r4, #62]
 4849 009c 0020     		movs	r0, #0
 4850 009e 2064     		str	r0, [r4, #64]
 4851 00a0 6385     		strh	r3, [r4, #42]	@ movhi
 4852 00a2 638D     		ldrh	r3, [r4, #42]
 4853 00a4 E662     		str	r6, [r4, #44]
 4854 00a6 6164     		str	r1, [r4, #68]
 4855 00a8 2385     		strh	r3, [r4, #40]	@ movhi
 4856 00aa 236B     		ldr	r3, [r4, #48]
 4857 00ac 6262     		str	r2, [r4, #36]
 4858 00ae 0093     		str	r3, [sp]
 4859 00b0 238D     		ldrh	r3, [r4, #40]
 4860 00b2 002B     		cmp	r3, #0
 4861 00b4 65D0     		beq	.L787
 4862 00b6 618D     		ldrh	r1, [r4, #42]
 4863 00b8 89B2     		uxth	r1, r1
 4864 00ba 0229     		cmp	r1, #2
 4865 00bc 13D1     		bne	.L788
 4866 00be 202E     		cmp	r6, #32
 4867 00c0 01D0     		beq	.L789
 4868 00c2 102E     		cmp	r6, #16
 4869 00c4 0FD1     		bne	.L788
 4870              	.L789:
 4871 00c6 0099     		ldr	r1, [sp]
 4872 00c8 1229     		cmp	r1, #18
 4873 00ca 2968     		ldr	r1, [r5]
 4874 00cc 07D1     		bne	.L790
 4875 00ce 21F48061 		bic	r1, r1, #1024
 4876 00d2 2960     		str	r1, [r5]
 4877 00d4 2968     		ldr	r1, [r5]
 4878 00d6 41F40061 		orr	r1, r1, #2048
 4879 00da 2960     		str	r1, [r5]
 4880 00dc 0EE0     		b	.L792
 4881              	.L790:
 4882 00de 41F48061 		orr	r1, r1, #1024
 4883 00e2 2960     		str	r1, [r5]
 4884 00e4 0EE0     		b	.L791
 4885              	.L788:
 4886 00e6 2968     		ldr	r1, [r5]
 4887 00e8 202E     		cmp	r6, #32
 4888 00ea 41F48061 		orr	r1, r1, #1024
 4889 00ee 2960     		str	r1, [r5]
 4890 00f0 04D0     		beq	.L792
 4891 00f2 B6F12A4F 		cmp	r6, #-1442840576
 4892 00f6 01D0     		beq	.L792
 4893 00f8 102E     		cmp	r6, #16
ARM GAS  /tmp/cctwxent.s 			page 85


 4894 00fa 03D1     		bne	.L791
 4895              	.L792:
 4896 00fc 6968     		ldr	r1, [r5, #4]
 4897 00fe 41F48051 		orr	r1, r1, #4096
 4898 0102 6960     		str	r1, [r5, #4]
 4899              	.L791:
 4900 0104 A06B     		ldr	r0, [r4, #56]
 4901 0106 2D49     		ldr	r1, .L834+4
 4902 0108 0027     		movs	r7, #0
 4903 010a 8162     		str	r1, [r0, #40]
 4904 010c 2C49     		ldr	r1, .L834+8
 4905 010e C762     		str	r7, [r0, #44]
 4906 0110 0163     		str	r1, [r0, #48]
 4907 0112 4763     		str	r7, [r0, #52]
 4908 0114 05F11001 		add	r1, r5, #16
 4909 0118 FFF7FEFF 		bl	HAL_DMA_Start_IT
 4910 011c 20BB     		cbnz	r0, .L793
 4911 011e 009B     		ldr	r3, [sp]
 4912 0120 122B     		cmp	r3, #18
 4913 0122 2368     		ldr	r3, [r4]
 4914 0124 05D1     		bne	.L794
 4915 0126 B6F52A0F 		cmp	r6, #11141120
 4916 012a 02D0     		beq	.L794
 4917 012c B6F12A4F 		cmp	r6, #-1442840576
 4918 0130 06D1     		bne	.L800
 4919              	.L794:
 4920 0132 1A68     		ldr	r2, [r3]
 4921 0134 4FF44070 		mov	r0, #768
 4922 0138 42F48072 		orr	r2, r2, #256
 4923 013c 1A60     		str	r2, [r3]
 4924 013e 01E0     		b	.L795
 4925              	.L800:
 4926 0140 4FF48070 		mov	r0, #256
 4927              	.L795:
 4928 0144 0022     		movs	r2, #0
 4929 0146 042E     		cmp	r6, #4
 4930 0148 84F83C20 		strb	r2, [r4, #60]
 4931 014c 03D0     		beq	.L796
 4932 014e 202E     		cmp	r6, #32
 4933 0150 01D0     		beq	.L796
 4934 0152 102E     		cmp	r6, #16
 4935 0154 03D1     		bne	.L797
 4936              	.L796:
 4937 0156 5968     		ldr	r1, [r3, #4]
 4938 0158 41F40061 		orr	r1, r1, #2048
 4939 015c 5960     		str	r1, [r3, #4]
 4940              	.L797:
 4941 015e 5A68     		ldr	r2, [r3, #4]
 4942 0160 0243     		orrs	r2, r2, r0
 4943 0162 5A60     		str	r2, [r3, #4]
 4944 0164 0020     		movs	r0, #0
 4945 0166 24E0     		b	.L779
 4946              	.L793:
 4947 0168 2023     		movs	r3, #32
 4948 016a 84F83D30 		strb	r3, [r4, #61]
 4949 016e 84F83E70 		strb	r7, [r4, #62]
 4950 0172 236C     		ldr	r3, [r4, #64]
ARM GAS  /tmp/cctwxent.s 			page 86


 4951 0174 84F83C70 		strb	r7, [r4, #60]
 4952 0178 43F01003 		orr	r3, r3, #16
 4953 017c 2364     		str	r3, [r4, #64]
 4954              	.L833:
 4955 017e 0120     		movs	r0, #1
 4956 0180 17E0     		b	.L779
 4957              	.L787:
 4958 0182 2B68     		ldr	r3, [r5]
 4959 0184 43F48063 		orr	r3, r3, #1024
 4960 0188 2B60     		str	r3, [r5]
 4961 018a 009B     		ldr	r3, [sp]
 4962 018c 122B     		cmp	r3, #18
 4963 018e 05D1     		bne	.L798
 4964 0190 B6F52A0F 		cmp	r6, #11141120
 4965 0194 02D0     		beq	.L798
 4966 0196 B6F12A4F 		cmp	r6, #-1442840576
 4967 019a 03D1     		bne	.L799
 4968              	.L798:
 4969 019c 2B68     		ldr	r3, [r5]
 4970 019e 43F48073 		orr	r3, r3, #256
 4971 01a2 2B60     		str	r3, [r5]
 4972              	.L799:
 4973 01a4 6B68     		ldr	r3, [r5, #4]
 4974 01a6 0020     		movs	r0, #0
 4975 01a8 43F4E063 		orr	r3, r3, #1792
 4976 01ac 84F83C00 		strb	r0, [r4, #60]
 4977 01b0 6B60     		str	r3, [r5, #4]
 4978              	.L779:
 4979 01b2 03B0     		add	sp, sp, #12
 4980              		@ sp needed
 4981 01b4 F0BD     		pop	{r4, r5, r6, r7, pc}
 4982              	.L835:
 4983 01b6 00BF     		.align	2
 4984              	.L834:
 4985 01b8 00000000 		.word	SystemCoreClock
 4986 01bc 00000000 		.word	I2C_DMAXferCplt
 4987 01c0 00000000 		.word	I2C_DMAError
 4989              		.section	.text.HAL_I2C_Slave_Seq_Transmit_IT,"ax",%progbits
 4990              		.align	1
 4991              		.global	HAL_I2C_Slave_Seq_Transmit_IT
 4992              		.thumb
 4993              		.thumb_func
 4995              	HAL_I2C_Slave_Seq_Transmit_IT:
 4996              		@ args = 0, pretend = 0, frame = 8
 4997              		@ frame_needed = 0, uses_anonymous_args = 0
 4998 0000 37B5     		push	{r0, r1, r2, r4, r5, lr}
 4999 0002 90F83D40 		ldrb	r4, [r0, #61]	@ zero_extendqisi2
 5000 0006 04F02804 		and	r4, r4, #40
 5001 000a 282C     		cmp	r4, #40
 5002 000c 33D1     		bne	.L842
 5003 000e 0029     		cmp	r1, #0
 5004 0010 2FD0     		beq	.L841
 5005 0012 002A     		cmp	r2, #0
 5006 0014 2DD0     		beq	.L841
 5007 0016 90F83C40 		ldrb	r4, [r0, #60]	@ zero_extendqisi2
 5008 001a 012C     		cmp	r4, #1
 5009 001c 2BD0     		beq	.L842
ARM GAS  /tmp/cctwxent.s 			page 87


 5010 001e 0568     		ldr	r5, [r0]
 5011 0020 0124     		movs	r4, #1
 5012 0022 80F83C40 		strb	r4, [r0, #60]
 5013 0026 2C68     		ldr	r4, [r5]
 5014 0028 E407     		lsls	r4, r4, #31
 5015 002a 5EBF     		ittt	pl
 5016 002c 2C68     		ldrpl	r4, [r5]
 5017 002e 44F00104 		orrpl	r4, r4, #1
 5018 0032 2C60     		strpl	r4, [r5]
 5019 0034 2C68     		ldr	r4, [r5]
 5020 0036 24F40064 		bic	r4, r4, #2048
 5021 003a 2C60     		str	r4, [r5]
 5022 003c 2924     		movs	r4, #41
 5023 003e 80F83D40 		strb	r4, [r0, #61]
 5024 0042 2024     		movs	r4, #32
 5025 0044 80F83E40 		strb	r4, [r0, #62]
 5026 0048 0024     		movs	r4, #0
 5027 004a 0464     		str	r4, [r0, #64]
 5028 004c 4285     		strh	r2, [r0, #42]	@ movhi
 5029 004e 428D     		ldrh	r2, [r0, #42]
 5030 0050 C362     		str	r3, [r0, #44]
 5031 0052 0194     		str	r4, [sp, #4]
 5032 0054 6B69     		ldr	r3, [r5, #20]
 5033 0056 4162     		str	r1, [r0, #36]
 5034 0058 0193     		str	r3, [sp, #4]
 5035 005a AB69     		ldr	r3, [r5, #24]
 5036 005c 0285     		strh	r2, [r0, #40]	@ movhi
 5037 005e 0193     		str	r3, [sp, #4]
 5038 0060 019B     		ldr	r3, [sp, #4]
 5039 0062 6B68     		ldr	r3, [r5, #4]
 5040 0064 80F83C40 		strb	r4, [r0, #60]
 5041 0068 43F4E063 		orr	r3, r3, #1792
 5042 006c 6B60     		str	r3, [r5, #4]
 5043 006e 2046     		mov	r0, r4
 5044 0070 02E0     		b	.L837
 5045              	.L841:
 5046 0072 0120     		movs	r0, #1
 5047 0074 00E0     		b	.L837
 5048              	.L842:
 5049 0076 0220     		movs	r0, #2
 5050              	.L837:
 5051 0078 03B0     		add	sp, sp, #12
 5052              		@ sp needed
 5053 007a 30BD     		pop	{r4, r5, pc}
 5055              		.section	.text.HAL_I2C_Slave_Seq_Transmit_DMA,"ax",%progbits
 5056              		.align	1
 5057              		.global	HAL_I2C_Slave_Seq_Transmit_DMA
 5058              		.thumb
 5059              		.thumb_func
 5061              	HAL_I2C_Slave_Seq_Transmit_DMA:
 5062              		@ args = 0, pretend = 0, frame = 8
 5063              		@ frame_needed = 0, uses_anonymous_args = 0
 5064 0000 2DE9F743 		push	{r0, r1, r2, r4, r5, r6, r7, r8, r9, lr}
 5065 0004 9846     		mov	r8, r3
 5066 0006 90F83D30 		ldrb	r3, [r0, #61]	@ zero_extendqisi2
 5067 000a 0446     		mov	r4, r0
 5068 000c 03F02803 		and	r3, r3, #40
ARM GAS  /tmp/cctwxent.s 			page 88


 5069 0010 282B     		cmp	r3, #40
 5070 0012 0E46     		mov	r6, r1
 5071 0014 1746     		mov	r7, r2
 5072 0016 40F08480 		bne	.L854
 5073 001a 0029     		cmp	r1, #0
 5074 001c 7FD0     		beq	.L853
 5075 001e 002A     		cmp	r2, #0
 5076 0020 7DD0     		beq	.L853
 5077 0022 90F83C30 		ldrb	r3, [r0, #60]	@ zero_extendqisi2
 5078 0026 012B     		cmp	r3, #1
 5079 0028 7BD0     		beq	.L854
 5080 002a 0123     		movs	r3, #1
 5081 002c 80F83C30 		strb	r3, [r0, #60]
 5082 0030 0368     		ldr	r3, [r0]
 5083 0032 5A68     		ldr	r2, [r3, #4]
 5084 0034 22F44072 		bic	r2, r2, #768
 5085 0038 5A60     		str	r2, [r3, #4]
 5086 003a 90F83D20 		ldrb	r2, [r0, #61]	@ zero_extendqisi2
 5087 003e 2A2A     		cmp	r2, #42
 5088 0040 0FD1     		bne	.L845
 5089 0042 5A68     		ldr	r2, [r3, #4]
 5090 0044 1105     		lsls	r1, r2, #20
 5091 0046 21D5     		bpl	.L847
 5092 0048 806B     		ldr	r0, [r0, #56]
 5093 004a F8B1     		cbz	r0, .L847
 5094 004c 5A68     		ldr	r2, [r3, #4]
 5095 004e 22F40062 		bic	r2, r2, #2048
 5096 0052 5A60     		str	r2, [r3, #4]
 5097 0054 354B     		ldr	r3, .L871
 5098 0056 4363     		str	r3, [r0, #52]
 5099 0058 FFF7FEFF 		bl	HAL_DMA_Abort_IT
 5100 005c B0B1     		cbz	r0, .L847
 5101 005e A06B     		ldr	r0, [r4, #56]
 5102 0060 12E0     		b	.L870
 5103              	.L845:
 5104 0062 90F83D20 		ldrb	r2, [r0, #61]	@ zero_extendqisi2
 5105 0066 292A     		cmp	r2, #41
 5106 0068 10D1     		bne	.L847
 5107 006a 5A68     		ldr	r2, [r3, #4]
 5108 006c 1205     		lsls	r2, r2, #20
 5109 006e 0DD5     		bpl	.L847
 5110 0070 5A68     		ldr	r2, [r3, #4]
 5111 0072 406B     		ldr	r0, [r0, #52]
 5112 0074 22F40062 		bic	r2, r2, #2048
 5113 0078 5A60     		str	r2, [r3, #4]
 5114 007a 38B1     		cbz	r0, .L847
 5115 007c 2B4B     		ldr	r3, .L871
 5116 007e 4363     		str	r3, [r0, #52]
 5117 0080 FFF7FEFF 		bl	HAL_DMA_Abort_IT
 5118 0084 10B1     		cbz	r0, .L847
 5119 0086 606B     		ldr	r0, [r4, #52]
 5120              	.L870:
 5121 0088 436B     		ldr	r3, [r0, #52]
 5122 008a 9847     		blx	r3
 5123              	.L847:
 5124 008c 2268     		ldr	r2, [r4]
 5125 008e 0025     		movs	r5, #0
ARM GAS  /tmp/cctwxent.s 			page 89


 5126 0090 1368     		ldr	r3, [r2]
 5127 0092 4FF02009 		mov	r9, #32
 5128 0096 DB07     		lsls	r3, r3, #31
 5129 0098 58BF     		it	pl
 5130 009a 1368     		ldrpl	r3, [r2]
 5131 009c 606B     		ldr	r0, [r4, #52]
 5132 009e 5CBF     		itt	pl
 5133 00a0 43F00103 		orrpl	r3, r3, #1
 5134 00a4 1360     		strpl	r3, [r2]
 5135 00a6 1368     		ldr	r3, [r2]
 5136 00a8 2149     		ldr	r1, .L871+4
 5137 00aa 23F40063 		bic	r3, r3, #2048
 5138 00ae 42F8103B 		str	r3, [r2], #16
 5139 00b2 2923     		movs	r3, #41
 5140 00b4 84F83D30 		strb	r3, [r4, #61]
 5141 00b8 84F83E90 		strb	r9, [r4, #62]
 5142 00bc 2564     		str	r5, [r4, #64]
 5143 00be 6785     		strh	r7, [r4, #42]	@ movhi
 5144 00c0 638D     		ldrh	r3, [r4, #42]
 5145 00c2 6662     		str	r6, [r4, #36]
 5146 00c4 9BB2     		uxth	r3, r3
 5147 00c6 2385     		strh	r3, [r4, #40]	@ movhi
 5148 00c8 C4F82C80 		str	r8, [r4, #44]
 5149 00cc 8162     		str	r1, [r0, #40]
 5150 00ce 1949     		ldr	r1, .L871+8
 5151 00d0 C562     		str	r5, [r0, #44]
 5152 00d2 0163     		str	r1, [r0, #48]
 5153 00d4 4563     		str	r5, [r0, #52]
 5154 00d6 3146     		mov	r1, r6
 5155 00d8 FFF7FEFF 		bl	HAL_DMA_Start_IT
 5156 00dc A8B9     		cbnz	r0, .L850
 5157 00de 2368     		ldr	r3, [r4]
 5158 00e0 1A68     		ldr	r2, [r3]
 5159 00e2 42F48062 		orr	r2, r2, #1024
 5160 00e6 1A60     		str	r2, [r3]
 5161 00e8 0190     		str	r0, [sp, #4]
 5162 00ea 5A69     		ldr	r2, [r3, #20]
 5163 00ec 0192     		str	r2, [sp, #4]
 5164 00ee 9A69     		ldr	r2, [r3, #24]
 5165 00f0 84F83C00 		strb	r0, [r4, #60]
 5166 00f4 0192     		str	r2, [sp, #4]
 5167 00f6 019A     		ldr	r2, [sp, #4]
 5168 00f8 5A68     		ldr	r2, [r3, #4]
 5169 00fa 42F44072 		orr	r2, r2, #768
 5170 00fe 5A60     		str	r2, [r3, #4]
 5171 0100 5A68     		ldr	r2, [r3, #4]
 5172 0102 42F40062 		orr	r2, r2, #2048
 5173 0106 5A60     		str	r2, [r3, #4]
 5174 0108 0CE0     		b	.L844
 5175              	.L850:
 5176 010a 84F83D90 		strb	r9, [r4, #61]
 5177 010e 84F83E50 		strb	r5, [r4, #62]
 5178 0112 236C     		ldr	r3, [r4, #64]
 5179 0114 84F83C50 		strb	r5, [r4, #60]
 5180 0118 43F01003 		orr	r3, r3, #16
 5181 011c 2364     		str	r3, [r4, #64]
 5182              	.L853:
ARM GAS  /tmp/cctwxent.s 			page 90


 5183 011e 0120     		movs	r0, #1
 5184 0120 00E0     		b	.L844
 5185              	.L854:
 5186 0122 0220     		movs	r0, #2
 5187              	.L844:
 5188 0124 03B0     		add	sp, sp, #12
 5189              		@ sp needed
 5190 0126 BDE8F083 		pop	{r4, r5, r6, r7, r8, r9, pc}
 5191              	.L872:
 5192 012a 00BF     		.align	2
 5193              	.L871:
 5194 012c 00000000 		.word	I2C_DMAAbort
 5195 0130 00000000 		.word	I2C_DMAXferCplt
 5196 0134 00000000 		.word	I2C_DMAError
 5198              		.section	.text.HAL_I2C_Slave_Seq_Receive_IT,"ax",%progbits
 5199              		.align	1
 5200              		.global	HAL_I2C_Slave_Seq_Receive_IT
 5201              		.thumb
 5202              		.thumb_func
 5204              	HAL_I2C_Slave_Seq_Receive_IT:
 5205              		@ args = 0, pretend = 0, frame = 8
 5206              		@ frame_needed = 0, uses_anonymous_args = 0
 5207 0000 37B5     		push	{r0, r1, r2, r4, r5, lr}
 5208 0002 90F83D40 		ldrb	r4, [r0, #61]	@ zero_extendqisi2
 5209 0006 04F02804 		and	r4, r4, #40
 5210 000a 282C     		cmp	r4, #40
 5211 000c 33D1     		bne	.L879
 5212 000e 0029     		cmp	r1, #0
 5213 0010 2FD0     		beq	.L878
 5214 0012 002A     		cmp	r2, #0
 5215 0014 2DD0     		beq	.L878
 5216 0016 90F83C40 		ldrb	r4, [r0, #60]	@ zero_extendqisi2
 5217 001a 012C     		cmp	r4, #1
 5218 001c 2BD0     		beq	.L879
 5219 001e 0568     		ldr	r5, [r0]
 5220 0020 0124     		movs	r4, #1
 5221 0022 80F83C40 		strb	r4, [r0, #60]
 5222 0026 2C68     		ldr	r4, [r5]
 5223 0028 E407     		lsls	r4, r4, #31
 5224 002a 5EBF     		ittt	pl
 5225 002c 2C68     		ldrpl	r4, [r5]
 5226 002e 44F00104 		orrpl	r4, r4, #1
 5227 0032 2C60     		strpl	r4, [r5]
 5228 0034 2C68     		ldr	r4, [r5]
 5229 0036 24F40064 		bic	r4, r4, #2048
 5230 003a 2C60     		str	r4, [r5]
 5231 003c 2A24     		movs	r4, #42
 5232 003e 80F83D40 		strb	r4, [r0, #61]
 5233 0042 2024     		movs	r4, #32
 5234 0044 80F83E40 		strb	r4, [r0, #62]
 5235 0048 0024     		movs	r4, #0
 5236 004a 0464     		str	r4, [r0, #64]
 5237 004c 4285     		strh	r2, [r0, #42]	@ movhi
 5238 004e 428D     		ldrh	r2, [r0, #42]
 5239 0050 C362     		str	r3, [r0, #44]
 5240 0052 0194     		str	r4, [sp, #4]
 5241 0054 6B69     		ldr	r3, [r5, #20]
ARM GAS  /tmp/cctwxent.s 			page 91


 5242 0056 4162     		str	r1, [r0, #36]
 5243 0058 0193     		str	r3, [sp, #4]
 5244 005a AB69     		ldr	r3, [r5, #24]
 5245 005c 0285     		strh	r2, [r0, #40]	@ movhi
 5246 005e 0193     		str	r3, [sp, #4]
 5247 0060 019B     		ldr	r3, [sp, #4]
 5248 0062 6B68     		ldr	r3, [r5, #4]
 5249 0064 80F83C40 		strb	r4, [r0, #60]
 5250 0068 43F4E063 		orr	r3, r3, #1792
 5251 006c 6B60     		str	r3, [r5, #4]
 5252 006e 2046     		mov	r0, r4
 5253 0070 02E0     		b	.L874
 5254              	.L878:
 5255 0072 0120     		movs	r0, #1
 5256 0074 00E0     		b	.L874
 5257              	.L879:
 5258 0076 0220     		movs	r0, #2
 5259              	.L874:
 5260 0078 03B0     		add	sp, sp, #12
 5261              		@ sp needed
 5262 007a 30BD     		pop	{r4, r5, pc}
 5264              		.section	.text.HAL_I2C_Slave_Seq_Receive_DMA,"ax",%progbits
 5265              		.align	1
 5266              		.global	HAL_I2C_Slave_Seq_Receive_DMA
 5267              		.thumb
 5268              		.thumb_func
 5270              	HAL_I2C_Slave_Seq_Receive_DMA:
 5271              		@ args = 0, pretend = 0, frame = 8
 5272              		@ frame_needed = 0, uses_anonymous_args = 0
 5273 0000 2DE9F743 		push	{r0, r1, r2, r4, r5, r6, r7, r8, r9, lr}
 5274 0004 9846     		mov	r8, r3
 5275 0006 90F83D30 		ldrb	r3, [r0, #61]	@ zero_extendqisi2
 5276 000a 0446     		mov	r4, r0
 5277 000c 03F02803 		and	r3, r3, #40
 5278 0010 282B     		cmp	r3, #40
 5279 0012 0E46     		mov	r6, r1
 5280 0014 1746     		mov	r7, r2
 5281 0016 40F08480 		bne	.L891
 5282 001a 0029     		cmp	r1, #0
 5283 001c 7FD0     		beq	.L890
 5284 001e 002A     		cmp	r2, #0
 5285 0020 7DD0     		beq	.L890
 5286 0022 90F83C30 		ldrb	r3, [r0, #60]	@ zero_extendqisi2
 5287 0026 012B     		cmp	r3, #1
 5288 0028 7BD0     		beq	.L891
 5289 002a 0123     		movs	r3, #1
 5290 002c 80F83C30 		strb	r3, [r0, #60]
 5291 0030 0368     		ldr	r3, [r0]
 5292 0032 5A68     		ldr	r2, [r3, #4]
 5293 0034 22F44072 		bic	r2, r2, #768
 5294 0038 5A60     		str	r2, [r3, #4]
 5295 003a 90F83D20 		ldrb	r2, [r0, #61]	@ zero_extendqisi2
 5296 003e 2A2A     		cmp	r2, #42
 5297 0040 0FD1     		bne	.L882
 5298 0042 5A68     		ldr	r2, [r3, #4]
 5299 0044 1105     		lsls	r1, r2, #20
 5300 0046 21D5     		bpl	.L884
ARM GAS  /tmp/cctwxent.s 			page 92


 5301 0048 806B     		ldr	r0, [r0, #56]
 5302 004a F8B1     		cbz	r0, .L884
 5303 004c 5A68     		ldr	r2, [r3, #4]
 5304 004e 22F40062 		bic	r2, r2, #2048
 5305 0052 5A60     		str	r2, [r3, #4]
 5306 0054 354B     		ldr	r3, .L908
 5307 0056 4363     		str	r3, [r0, #52]
 5308 0058 FFF7FEFF 		bl	HAL_DMA_Abort_IT
 5309 005c B0B1     		cbz	r0, .L884
 5310 005e A06B     		ldr	r0, [r4, #56]
 5311 0060 12E0     		b	.L907
 5312              	.L882:
 5313 0062 90F83D20 		ldrb	r2, [r0, #61]	@ zero_extendqisi2
 5314 0066 292A     		cmp	r2, #41
 5315 0068 10D1     		bne	.L884
 5316 006a 5A68     		ldr	r2, [r3, #4]
 5317 006c 1205     		lsls	r2, r2, #20
 5318 006e 0DD5     		bpl	.L884
 5319 0070 5A68     		ldr	r2, [r3, #4]
 5320 0072 406B     		ldr	r0, [r0, #52]
 5321 0074 22F40062 		bic	r2, r2, #2048
 5322 0078 5A60     		str	r2, [r3, #4]
 5323 007a 38B1     		cbz	r0, .L884
 5324 007c 2B4B     		ldr	r3, .L908
 5325 007e 4363     		str	r3, [r0, #52]
 5326 0080 FFF7FEFF 		bl	HAL_DMA_Abort_IT
 5327 0084 10B1     		cbz	r0, .L884
 5328 0086 606B     		ldr	r0, [r4, #52]
 5329              	.L907:
 5330 0088 436B     		ldr	r3, [r0, #52]
 5331 008a 9847     		blx	r3
 5332              	.L884:
 5333 008c 2168     		ldr	r1, [r4]
 5334 008e 0025     		movs	r5, #0
 5335 0090 0B68     		ldr	r3, [r1]
 5336 0092 4FF02009 		mov	r9, #32
 5337 0096 DB07     		lsls	r3, r3, #31
 5338 0098 58BF     		it	pl
 5339 009a 0B68     		ldrpl	r3, [r1]
 5340 009c A06B     		ldr	r0, [r4, #56]
 5341 009e 5CBF     		itt	pl
 5342 00a0 43F00103 		orrpl	r3, r3, #1
 5343 00a4 0B60     		strpl	r3, [r1]
 5344 00a6 0B68     		ldr	r3, [r1]
 5345 00a8 214A     		ldr	r2, .L908+4
 5346 00aa 23F40063 		bic	r3, r3, #2048
 5347 00ae 41F8103B 		str	r3, [r1], #16
 5348 00b2 2A23     		movs	r3, #42
 5349 00b4 84F83D30 		strb	r3, [r4, #61]
 5350 00b8 84F83E90 		strb	r9, [r4, #62]
 5351 00bc 2564     		str	r5, [r4, #64]
 5352 00be 6785     		strh	r7, [r4, #42]	@ movhi
 5353 00c0 638D     		ldrh	r3, [r4, #42]
 5354 00c2 6662     		str	r6, [r4, #36]
 5355 00c4 9BB2     		uxth	r3, r3
 5356 00c6 2385     		strh	r3, [r4, #40]	@ movhi
 5357 00c8 C4F82C80 		str	r8, [r4, #44]
ARM GAS  /tmp/cctwxent.s 			page 93


 5358 00cc 8262     		str	r2, [r0, #40]
 5359 00ce 194A     		ldr	r2, .L908+8
 5360 00d0 C562     		str	r5, [r0, #44]
 5361 00d2 0263     		str	r2, [r0, #48]
 5362 00d4 4563     		str	r5, [r0, #52]
 5363 00d6 3246     		mov	r2, r6
 5364 00d8 FFF7FEFF 		bl	HAL_DMA_Start_IT
 5365 00dc A8B9     		cbnz	r0, .L887
 5366 00de 2368     		ldr	r3, [r4]
 5367 00e0 1A68     		ldr	r2, [r3]
 5368 00e2 42F48062 		orr	r2, r2, #1024
 5369 00e6 1A60     		str	r2, [r3]
 5370 00e8 0190     		str	r0, [sp, #4]
 5371 00ea 5A69     		ldr	r2, [r3, #20]
 5372 00ec 0192     		str	r2, [sp, #4]
 5373 00ee 9A69     		ldr	r2, [r3, #24]
 5374 00f0 84F83C00 		strb	r0, [r4, #60]
 5375 00f4 0192     		str	r2, [sp, #4]
 5376 00f6 019A     		ldr	r2, [sp, #4]
 5377 00f8 5A68     		ldr	r2, [r3, #4]
 5378 00fa 42F40062 		orr	r2, r2, #2048
 5379 00fe 5A60     		str	r2, [r3, #4]
 5380 0100 5A68     		ldr	r2, [r3, #4]
 5381 0102 42F44072 		orr	r2, r2, #768
 5382 0106 5A60     		str	r2, [r3, #4]
 5383 0108 0CE0     		b	.L881
 5384              	.L887:
 5385 010a 84F83D90 		strb	r9, [r4, #61]
 5386 010e 84F83E50 		strb	r5, [r4, #62]
 5387 0112 236C     		ldr	r3, [r4, #64]
 5388 0114 84F83C50 		strb	r5, [r4, #60]
 5389 0118 43F01003 		orr	r3, r3, #16
 5390 011c 2364     		str	r3, [r4, #64]
 5391              	.L890:
 5392 011e 0120     		movs	r0, #1
 5393 0120 00E0     		b	.L881
 5394              	.L891:
 5395 0122 0220     		movs	r0, #2
 5396              	.L881:
 5397 0124 03B0     		add	sp, sp, #12
 5398              		@ sp needed
 5399 0126 BDE8F083 		pop	{r4, r5, r6, r7, r8, r9, pc}
 5400              	.L909:
 5401 012a 00BF     		.align	2
 5402              	.L908:
 5403 012c 00000000 		.word	I2C_DMAAbort
 5404 0130 00000000 		.word	I2C_DMAXferCplt
 5405 0134 00000000 		.word	I2C_DMAError
 5407              		.section	.text.HAL_I2C_EnableListen_IT,"ax",%progbits
 5408              		.align	1
 5409              		.global	HAL_I2C_EnableListen_IT
 5410              		.thumb
 5411              		.thumb_func
 5413              	HAL_I2C_EnableListen_IT:
 5414              		@ args = 0, pretend = 0, frame = 0
 5415              		@ frame_needed = 0, uses_anonymous_args = 0
 5416              		@ link register save eliminated.
ARM GAS  /tmp/cctwxent.s 			page 94


 5417 0000 90F83D30 		ldrb	r3, [r0, #61]	@ zero_extendqisi2
 5418 0004 202B     		cmp	r3, #32
 5419 0006 14D1     		bne	.L913
 5420 0008 2823     		movs	r3, #40
 5421 000a 80F83D30 		strb	r3, [r0, #61]
 5422 000e 0368     		ldr	r3, [r0]
 5423 0010 0020     		movs	r0, #0
 5424 0012 1A68     		ldr	r2, [r3]
 5425 0014 D207     		lsls	r2, r2, #31
 5426 0016 5EBF     		ittt	pl
 5427 0018 1A68     		ldrpl	r2, [r3]
 5428 001a 42F00102 		orrpl	r2, r2, #1
 5429 001e 1A60     		strpl	r2, [r3]
 5430 0020 1A68     		ldr	r2, [r3]
 5431 0022 42F48062 		orr	r2, r2, #1024
 5432 0026 1A60     		str	r2, [r3]
 5433 0028 5A68     		ldr	r2, [r3, #4]
 5434 002a 42F44072 		orr	r2, r2, #768
 5435 002e 5A60     		str	r2, [r3, #4]
 5436 0030 7047     		bx	lr
 5437              	.L913:
 5438 0032 0220     		movs	r0, #2
 5439 0034 7047     		bx	lr
 5441              		.section	.text.HAL_I2C_DisableListen_IT,"ax",%progbits
 5442              		.align	1
 5443              		.global	HAL_I2C_DisableListen_IT
 5444              		.thumb
 5445              		.thumb_func
 5447              	HAL_I2C_DisableListen_IT:
 5448              		@ args = 0, pretend = 0, frame = 0
 5449              		@ frame_needed = 0, uses_anonymous_args = 0
 5450              		@ link register save eliminated.
 5451 0000 90F83D30 		ldrb	r3, [r0, #61]	@ zero_extendqisi2
 5452 0004 282B     		cmp	r3, #40
 5453 0006 18D1     		bne	.L916
 5454 0008 90F83D30 		ldrb	r3, [r0, #61]	@ zero_extendqisi2
 5455 000c 90F83E20 		ldrb	r2, [r0, #62]	@ zero_extendqisi2
 5456 0010 03F00303 		and	r3, r3, #3
 5457 0014 1343     		orrs	r3, r3, r2
 5458 0016 0363     		str	r3, [r0, #48]
 5459 0018 2023     		movs	r3, #32
 5460 001a 80F83D30 		strb	r3, [r0, #61]
 5461 001e 0268     		ldr	r2, [r0]
 5462 0020 0023     		movs	r3, #0
 5463 0022 80F83E30 		strb	r3, [r0, #62]
 5464 0026 1168     		ldr	r1, [r2]
 5465 0028 1846     		mov	r0, r3
 5466 002a 21F48061 		bic	r1, r1, #1024
 5467 002e 1160     		str	r1, [r2]
 5468 0030 5168     		ldr	r1, [r2, #4]
 5469 0032 21F44071 		bic	r1, r1, #768
 5470 0036 5160     		str	r1, [r2, #4]
 5471 0038 7047     		bx	lr
 5472              	.L916:
 5473 003a 0220     		movs	r0, #2
 5474 003c 7047     		bx	lr
 5476              		.section	.text.HAL_I2C_Master_Abort_IT,"ax",%progbits
ARM GAS  /tmp/cctwxent.s 			page 95


 5477              		.align	1
 5478              		.global	HAL_I2C_Master_Abort_IT
 5479              		.thumb
 5480              		.thumb_func
 5482              	HAL_I2C_Master_Abort_IT:
 5483              		@ args = 0, pretend = 0, frame = 0
 5484              		@ frame_needed = 0, uses_anonymous_args = 0
 5485 0000 90F83E20 		ldrb	r2, [r0, #62]	@ zero_extendqisi2
 5486 0004 10B5     		push	{r4, lr}
 5487 0006 102A     		cmp	r2, #16
 5488 0008 1CD1     		bne	.L919
 5489 000a 90F83C20 		ldrb	r2, [r0, #60]	@ zero_extendqisi2
 5490 000e 012A     		cmp	r2, #1
 5491 0010 1AD0     		beq	.L920
 5492 0012 0024     		movs	r4, #0
 5493 0014 6022     		movs	r2, #96
 5494 0016 0463     		str	r4, [r0, #48]
 5495 0018 80F83D20 		strb	r2, [r0, #61]
 5496 001c 0268     		ldr	r2, [r0]
 5497 001e 1168     		ldr	r1, [r2]
 5498 0020 21F48061 		bic	r1, r1, #1024
 5499 0024 1160     		str	r1, [r2]
 5500 0026 1168     		ldr	r1, [r2]
 5501 0028 41F40071 		orr	r1, r1, #512
 5502 002c 1160     		str	r1, [r2]
 5503 002e 4485     		strh	r4, [r0, #42]	@ movhi
 5504 0030 5168     		ldr	r1, [r2, #4]
 5505 0032 21F4E061 		bic	r1, r1, #1792
 5506 0036 5160     		str	r1, [r2, #4]
 5507 0038 80F83C40 		strb	r4, [r0, #60]
 5508 003c FFF7FEFF 		bl	I2C_ITError
 5509 0040 2046     		mov	r0, r4
 5510 0042 10BD     		pop	{r4, pc}
 5511              	.L919:
 5512 0044 0120     		movs	r0, #1
 5513 0046 10BD     		pop	{r4, pc}
 5514              	.L920:
 5515 0048 0220     		movs	r0, #2
 5516 004a 10BD     		pop	{r4, pc}
 5518              		.section	.text.HAL_I2C_EV_IRQHandler,"ax",%progbits
 5519              		.align	1
 5520              		.global	HAL_I2C_EV_IRQHandler
 5521              		.thumb
 5522              		.thumb_func
 5524              	HAL_I2C_EV_IRQHandler:
 5525              		@ args = 0, pretend = 0, frame = 48
 5526              		@ frame_needed = 0, uses_anonymous_args = 0
 5527 0000 0368     		ldr	r3, [r0]
 5528 0002 30B5     		push	{r4, r5, lr}
 5529 0004 5A68     		ldr	r2, [r3, #4]
 5530 0006 C56A     		ldr	r5, [r0, #44]
 5531 0008 90F83E10 		ldrb	r1, [r0, #62]	@ zero_extendqisi2
 5532 000c 0446     		mov	r4, r0
 5533 000e C9B2     		uxtb	r1, r1
 5534 0010 90F83D00 		ldrb	r0, [r0, #61]	@ zero_extendqisi2
 5535 0014 1029     		cmp	r1, #16
 5536 0016 8DB0     		sub	sp, sp, #52
ARM GAS  /tmp/cctwxent.s 			page 96


 5537 0018 C0B2     		uxtb	r0, r0
 5538 001a 02D0     		beq	.L922
 5539 001c 4029     		cmp	r1, #64
 5540 001e 40F0AA82 		bne	.L923
 5541              	.L922:
 5542 0022 9869     		ldr	r0, [r3, #24]
 5543 0024 5969     		ldr	r1, [r3, #20]
 5544 0026 11F0010F 		tst	r1, #1
 5545 002a 07D1     		bne	.L924
 5546 002c B5F52A0F 		cmp	r5, #11141120
 5547 0030 00F0EF83 		beq	.L921
 5548 0034 B5F12A4F 		cmp	r5, #-1442840576
 5549 0038 45D1     		bne	.L928
 5550 003a EAE3     		b	.L921
 5551              	.L924:
 5552 003c 9505     		lsls	r5, r2, #22
 5553 003e 42D5     		bpl	.L928
 5554 0040 E26A     		ldr	r2, [r4, #44]
 5555 0042 B2F52A0F 		cmp	r2, #11141120
 5556 0046 01D1     		bne	.L929
 5557 0048 0122     		movs	r2, #1
 5558 004a 04E0     		b	.L1248
 5559              	.L929:
 5560 004c E26A     		ldr	r2, [r4, #44]
 5561 004e B2F12A4F 		cmp	r2, #-1442840576
 5562 0052 01D1     		bne	.L930
 5563 0054 0822     		movs	r2, #8
 5564              	.L1248:
 5565 0056 E262     		str	r2, [r4, #44]
 5566              	.L930:
 5567 0058 94F83E20 		ldrb	r2, [r4, #62]	@ zero_extendqisi2
 5568 005c 402A     		cmp	r2, #64
 5569 005e 0BD1     		bne	.L931
 5570 0060 226D     		ldr	r2, [r4, #80]
 5571 0062 1AB9     		cbnz	r2, .L932
 5572 0064 626C     		ldr	r2, [r4, #68]
 5573 0066 02F0FE02 		and	r2, r2, #254
 5574 006a 03E0     		b	.L1254
 5575              	.L932:
 5576 006c 626C     		ldr	r2, [r4, #68]
 5577 006e 42F00102 		orr	r2, r2, #1
 5578 0072 D2B2     		uxtb	r2, r2
 5579              	.L1254:
 5580 0074 1A61     		str	r2, [r3, #16]
 5581 0076 CCE3     		b	.L921
 5582              	.L931:
 5583 0078 2269     		ldr	r2, [r4, #16]
 5584 007a B2F5804F 		cmp	r2, #16384
 5585 007e 0ED1     		bne	.L933
 5586 0080 94F83D20 		ldrb	r2, [r4, #61]	@ zero_extendqisi2
 5587 0084 212A     		cmp	r2, #33
 5588 0086 626C     		ldr	r2, [r4, #68]
 5589 0088 02D1     		bne	.L934
 5590 008a 02F0FE02 		and	r2, r2, #254
 5591 008e 02E0     		b	.L1249
 5592              	.L934:
 5593 0090 42F00102 		orr	r2, r2, #1
ARM GAS  /tmp/cctwxent.s 			page 97


 5594              	.L1270:
 5595 0094 D2B2     		uxtb	r2, r2
 5596              	.L1249:
 5597 0096 1A61     		str	r2, [r3, #16]
 5598 0098 626B     		ldr	r2, [r4, #52]
 5599 009a F2B9     		cbnz	r2, .L940
 5600 009c 19E0     		b	.L1273
 5601              	.L933:
 5602 009e 226D     		ldr	r2, [r4, #80]
 5603 00a0 32B9     		cbnz	r2, .L938
 5604 00a2 626C     		ldr	r2, [r4, #68]
 5605 00a4 02F44072 		and	r2, r2, #768
 5606 00a8 D211     		asrs	r2, r2, #7
 5607 00aa 42F0F002 		orr	r2, r2, #240
 5608 00ae E1E7     		b	.L1254
 5609              	.L938:
 5610 00b0 226D     		ldr	r2, [r4, #80]
 5611 00b2 012A     		cmp	r2, #1
 5612 00b4 40F0AD83 		bne	.L921
 5613 00b8 626C     		ldr	r2, [r4, #68]
 5614 00ba 02F44072 		and	r2, r2, #768
 5615 00be D211     		asrs	r2, r2, #7
 5616 00c0 42F0F102 		orr	r2, r2, #241
 5617 00c4 D6E7     		b	.L1254
 5618              	.L928:
 5619 00c6 0D07     		lsls	r5, r1, #28
 5620 00c8 12D5     		bpl	.L939
 5621 00ca 9505     		lsls	r5, r2, #22
 5622 00cc 10D5     		bpl	.L939
 5623 00ce 626C     		ldr	r2, [r4, #68]
 5624 00d0 E0E7     		b	.L1270
 5625              	.L1273:
 5626 00d2 A16B     		ldr	r1, [r4, #56]
 5627 00d4 0029     		cmp	r1, #0
 5628 00d6 00F09C83 		beq	.L921
 5629              	.L940:
 5630 00da 926A     		ldr	r2, [r2, #40]
 5631 00dc 22B9     		cbnz	r2, .L941
 5632 00de A26B     		ldr	r2, [r4, #56]
 5633 00e0 926A     		ldr	r2, [r2, #40]
 5634 00e2 002A     		cmp	r2, #0
 5635 00e4 00F09583 		beq	.L921
 5636              	.L941:
 5637 00e8 5A68     		ldr	r2, [r3, #4]
 5638 00ea 42F40062 		orr	r2, r2, #2048
 5639 00ee 21E1     		b	.L1256
 5640              	.L939:
 5641 00f0 8D07     		lsls	r5, r1, #30
 5642 00f2 40F1E480 		bpl	.L942
 5643 00f6 9505     		lsls	r5, r2, #22
 5644 00f8 40F1E180 		bpl	.L942
 5645 00fc 94F83E10 		ldrb	r1, [r4, #62]	@ zero_extendqisi2
 5646 0100 E26A     		ldr	r2, [r4, #44]
 5647 0102 256B     		ldr	r5, [r4, #48]
 5648 0104 94F83D00 		ldrb	r0, [r4, #61]	@ zero_extendqisi2
 5649 0108 C9B2     		uxtb	r1, r1
 5650 010a 2228     		cmp	r0, #34
ARM GAS  /tmp/cctwxent.s 			page 98


 5651 010c 40F0CF80 		bne	.L943
 5652 0110 206D     		ldr	r0, [r4, #80]
 5653 0112 40B9     		cbnz	r0, .L944
 5654 0114 4029     		cmp	r1, #64
 5655 0116 06D1     		bne	.L944
 5656 0118 0090     		str	r0, [sp]
 5657 011a 5A69     		ldr	r2, [r3, #20]
 5658 011c 0092     		str	r2, [sp]
 5659 011e 9B69     		ldr	r3, [r3, #24]
 5660 0120 0093     		str	r3, [sp]
 5661 0122 009B     		ldr	r3, [sp]
 5662 0124 75E3     		b	.L921
 5663              	.L944:
 5664 0126 216D     		ldr	r1, [r4, #80]
 5665 0128 71B9     		cbnz	r1, .L945
 5666 012a 2069     		ldr	r0, [r4, #16]
 5667 012c B0F5404F 		cmp	r0, #49152
 5668 0130 0AD1     		bne	.L945
 5669 0132 0191     		str	r1, [sp, #4]
 5670 0134 5A69     		ldr	r2, [r3, #20]
 5671 0136 0192     		str	r2, [sp, #4]
 5672 0138 9A69     		ldr	r2, [r3, #24]
 5673 013a 0192     		str	r2, [sp, #4]
 5674 013c 019A     		ldr	r2, [sp, #4]
 5675 013e 1A68     		ldr	r2, [r3]
 5676 0140 42F48072 		orr	r2, r2, #256
 5677 0144 1A60     		str	r2, [r3]
 5678 0146 0AE1     		b	.L1263
 5679              	.L945:
 5680 0148 618D     		ldrh	r1, [r4, #42]
 5681 014a 89B2     		uxth	r1, r1
 5682 014c 31B9     		cbnz	r1, .L946
 5683 014e 0291     		str	r1, [sp, #8]
 5684 0150 5A69     		ldr	r2, [r3, #20]
 5685 0152 0292     		str	r2, [sp, #8]
 5686 0154 9A69     		ldr	r2, [r3, #24]
 5687 0156 0292     		str	r2, [sp, #8]
 5688 0158 029A     		ldr	r2, [sp, #8]
 5689 015a 20E0     		b	.L1251
 5690              	.L946:
 5691 015c 618D     		ldrh	r1, [r4, #42]
 5692 015e 89B2     		uxth	r1, r1
 5693 0160 0129     		cmp	r1, #1
 5694 0162 4CD1     		bne	.L948
 5695 0164 12F5803F 		cmn	r2, #65536
 5696 0168 1ED1     		bne	.L949
 5697 016a 1A68     		ldr	r2, [r3]
 5698 016c 22F48062 		bic	r2, r2, #1024
 5699 0170 1A60     		str	r2, [r3]
 5700 0172 5A68     		ldr	r2, [r3, #4]
 5701 0174 12F40062 		ands	r2, r2, #2048
 5702 0178 0BD0     		beq	.L950
 5703 017a 1A68     		ldr	r2, [r3]
 5704 017c 22F48062 		bic	r2, r2, #1024
 5705 0180 1A60     		str	r2, [r3]
 5706 0182 0022     		movs	r2, #0
 5707 0184 0392     		str	r2, [sp, #12]
ARM GAS  /tmp/cctwxent.s 			page 99


 5708 0186 5A69     		ldr	r2, [r3, #20]
 5709 0188 0392     		str	r2, [sp, #12]
 5710 018a 9B69     		ldr	r3, [r3, #24]
 5711 018c 0393     		str	r3, [sp, #12]
 5712 018e 039B     		ldr	r3, [sp, #12]
 5713 0190 8AE0     		b	.L947
 5714              	.L950:
 5715 0192 0492     		str	r2, [sp, #16]
 5716 0194 5A69     		ldr	r2, [r3, #20]
 5717 0196 0492     		str	r2, [sp, #16]
 5718 0198 9A69     		ldr	r2, [r3, #24]
 5719 019a 0492     		str	r2, [sp, #16]
 5720 019c 049A     		ldr	r2, [sp, #16]
 5721              	.L1251:
 5722 019e 1A68     		ldr	r2, [r3]
 5723 01a0 42F40072 		orr	r2, r2, #512
 5724 01a4 1A60     		str	r2, [r3]
 5725 01a6 7FE0     		b	.L947
 5726              	.L949:
 5727 01a8 082A     		cmp	r2, #8
 5728 01aa 1CD0     		beq	.L951
 5729 01ac 202A     		cmp	r2, #32
 5730 01ae 1AD0     		beq	.L951
 5731 01b0 122D     		cmp	r5, #18
 5732 01b2 02D1     		bne	.L952
 5733 01b4 012A     		cmp	r2, #1
 5734 01b6 16D1     		bne	.L951
 5735 01b8 05E0     		b	.L953
 5736              	.L952:
 5737 01ba 042A     		cmp	r2, #4
 5738 01bc 07D0     		beq	.L954
 5739 01be 022A     		cmp	r2, #2
 5740 01c0 05D0     		beq	.L954
 5741 01c2 102A     		cmp	r2, #16
 5742 01c4 03D0     		beq	.L954
 5743              	.L953:
 5744 01c6 1A68     		ldr	r2, [r3]
 5745 01c8 22F48062 		bic	r2, r2, #1024
 5746 01cc 02E0     		b	.L1250
 5747              	.L954:
 5748 01ce 1A68     		ldr	r2, [r3]
 5749 01d0 42F48062 		orr	r2, r2, #1024
 5750              	.L1250:
 5751 01d4 1A60     		str	r2, [r3]
 5752 01d6 0022     		movs	r2, #0
 5753 01d8 0592     		str	r2, [sp, #20]
 5754 01da 5A69     		ldr	r2, [r3, #20]
 5755 01dc 0592     		str	r2, [sp, #20]
 5756 01de 9B69     		ldr	r3, [r3, #24]
 5757 01e0 0593     		str	r3, [sp, #20]
 5758 01e2 059B     		ldr	r3, [sp, #20]
 5759 01e4 60E0     		b	.L947
 5760              	.L951:
 5761 01e6 1A68     		ldr	r2, [r3]
 5762 01e8 22F48062 		bic	r2, r2, #1024
 5763 01ec 1A60     		str	r2, [r3]
 5764 01ee 0022     		movs	r2, #0
ARM GAS  /tmp/cctwxent.s 			page 100


 5765 01f0 0692     		str	r2, [sp, #24]
 5766 01f2 5A69     		ldr	r2, [r3, #20]
 5767 01f4 0692     		str	r2, [sp, #24]
 5768 01f6 9A69     		ldr	r2, [r3, #24]
 5769 01f8 0692     		str	r2, [sp, #24]
 5770 01fa 069A     		ldr	r2, [sp, #24]
 5771 01fc CFE7     		b	.L1251
 5772              	.L948:
 5773 01fe 618D     		ldrh	r1, [r4, #42]
 5774 0200 89B2     		uxth	r1, r1
 5775 0202 0229     		cmp	r1, #2
 5776 0204 33D1     		bne	.L956
 5777 0206 042A     		cmp	r2, #4
 5778 0208 13D0     		beq	.L957
 5779 020a 022A     		cmp	r2, #2
 5780 020c 11D0     		beq	.L957
 5781 020e 102A     		cmp	r2, #16
 5782 0210 0FD0     		beq	.L957
 5783 0212 1968     		ldr	r1, [r3]
 5784 0214 41F40061 		orr	r1, r1, #2048
 5785 0218 1960     		str	r1, [r3]
 5786 021a 0021     		movs	r1, #0
 5787 021c 0791     		str	r1, [sp, #28]
 5788 021e 5969     		ldr	r1, [r3, #20]
 5789 0220 0791     		str	r1, [sp, #28]
 5790 0222 9969     		ldr	r1, [r3, #24]
 5791 0224 0791     		str	r1, [sp, #28]
 5792 0226 0799     		ldr	r1, [sp, #28]
 5793 0228 1968     		ldr	r1, [r3]
 5794 022a 21F48061 		bic	r1, r1, #1024
 5795 022e 1960     		str	r1, [r3]
 5796 0230 0AE0     		b	.L958
 5797              	.L957:
 5798 0232 1968     		ldr	r1, [r3]
 5799 0234 41F48061 		orr	r1, r1, #1024
 5800 0238 1960     		str	r1, [r3]
 5801 023a 0021     		movs	r1, #0
 5802 023c 0891     		str	r1, [sp, #32]
 5803 023e 5969     		ldr	r1, [r3, #20]
 5804 0240 0891     		str	r1, [sp, #32]
 5805 0242 9969     		ldr	r1, [r3, #24]
 5806 0244 0891     		str	r1, [sp, #32]
 5807 0246 0899     		ldr	r1, [sp, #32]
 5808              	.L958:
 5809 0248 5968     		ldr	r1, [r3, #4]
 5810 024a 0805     		lsls	r0, r1, #20
 5811 024c 2CD5     		bpl	.L947
 5812 024e 12F5803F 		cmn	r2, #65536
 5813 0252 07D0     		beq	.L959
 5814 0254 012A     		cmp	r2, #1
 5815 0256 05D0     		beq	.L959
 5816 0258 082A     		cmp	r2, #8
 5817 025a 03D0     		beq	.L959
 5818 025c 102A     		cmp	r2, #16
 5819 025e 01D0     		beq	.L959
 5820 0260 202A     		cmp	r2, #32
 5821 0262 21D1     		bne	.L947
ARM GAS  /tmp/cctwxent.s 			page 101


 5822              	.L959:
 5823 0264 5A68     		ldr	r2, [r3, #4]
 5824 0266 42F48052 		orr	r2, r2, #4096
 5825 026a 5A60     		str	r2, [r3, #4]
 5826 026c 1CE0     		b	.L947
 5827              	.L956:
 5828 026e 1968     		ldr	r1, [r3]
 5829 0270 41F48061 		orr	r1, r1, #1024
 5830 0274 1960     		str	r1, [r3]
 5831 0276 5968     		ldr	r1, [r3, #4]
 5832 0278 0905     		lsls	r1, r1, #20
 5833 027a 0ED5     		bpl	.L960
 5834 027c 12F5803F 		cmn	r2, #65536
 5835 0280 07D0     		beq	.L961
 5836 0282 012A     		cmp	r2, #1
 5837 0284 05D0     		beq	.L961
 5838 0286 082A     		cmp	r2, #8
 5839 0288 03D0     		beq	.L961
 5840 028a 102A     		cmp	r2, #16
 5841 028c 01D0     		beq	.L961
 5842 028e 202A     		cmp	r2, #32
 5843 0290 03D1     		bne	.L960
 5844              	.L961:
 5845 0292 5A68     		ldr	r2, [r3, #4]
 5846 0294 42F48052 		orr	r2, r2, #4096
 5847 0298 5A60     		str	r2, [r3, #4]
 5848              	.L960:
 5849 029a 0022     		movs	r2, #0
 5850 029c 0992     		str	r2, [sp, #36]
 5851 029e 5A69     		ldr	r2, [r3, #20]
 5852 02a0 0992     		str	r2, [sp, #36]
 5853 02a2 9B69     		ldr	r3, [r3, #24]
 5854 02a4 0993     		str	r3, [sp, #36]
 5855 02a6 099B     		ldr	r3, [sp, #36]
 5856              	.L947:
 5857 02a8 0023     		movs	r3, #0
 5858              	.L1257:
 5859 02aa 2365     		str	r3, [r4, #80]
 5860 02ac B1E2     		b	.L921
 5861              	.L943:
 5862 02ae 0022     		movs	r2, #0
 5863 02b0 0A92     		str	r2, [sp, #40]
 5864 02b2 5A69     		ldr	r2, [r3, #20]
 5865 02b4 0A92     		str	r2, [sp, #40]
 5866 02b6 9B69     		ldr	r3, [r3, #24]
 5867 02b8 0A93     		str	r3, [sp, #40]
 5868 02ba 0A9B     		ldr	r3, [sp, #40]
 5869 02bc A9E2     		b	.L921
 5870              	.L942:
 5871 02be 10F0040F 		tst	r0, #4
 5872 02c2 5868     		ldr	r0, [r3, #4]
 5873 02c4 00F0A280 		beq	.L962
 5874 02c8 0505     		lsls	r5, r0, #20
 5875 02ca 00F1A282 		bmi	.L921
 5876 02ce 11F0800F 		tst	r1, #128
 5877 02d2 01F00401 		and	r1, r1, #4
 5878 02d6 5ED0     		beq	.L963
ARM GAS  /tmp/cctwxent.s 			page 102


 5879 02d8 5005     		lsls	r0, r2, #21
 5880 02da 5CD5     		bpl	.L963
 5881 02dc 0029     		cmp	r1, #0
 5882 02de 5AD1     		bne	.L963
 5883 02e0 94F83D20 		ldrb	r2, [r4, #61]	@ zero_extendqisi2
 5884 02e4 258D     		ldrh	r5, [r4, #40]
 5885 02e6 94F83E10 		ldrb	r1, [r4, #62]	@ zero_extendqisi2
 5886 02ea D2B2     		uxtb	r2, r2
 5887 02ec C9B2     		uxtb	r1, r1
 5888 02ee E06A     		ldr	r0, [r4, #44]
 5889 02f0 95B9     		cbnz	r5, .L964
 5890 02f2 212A     		cmp	r2, #33
 5891 02f4 12D1     		bne	.L965
 5892 02f6 0828     		cmp	r0, #8
 5893 02f8 71D0     		beq	.L976
 5894 02fa 2028     		cmp	r0, #32
 5895 02fc 6FD0     		beq	.L976
 5896 02fe 10F5803F 		cmn	r0, #65536
 5897 0302 6CD0     		beq	.L976
 5898 0304 5A68     		ldr	r2, [r3, #4]
 5899 0306 22F4E062 		bic	r2, r2, #1792
 5900 030a 5A60     		str	r2, [r3, #4]
 5901 030c 1123     		movs	r3, #17
 5902 030e 2363     		str	r3, [r4, #48]
 5903 0310 0023     		movs	r3, #0
 5904 0312 84F83E30 		strb	r3, [r4, #62]
 5905 0316 5EE0     		b	.L1272
 5906              	.L964:
 5907 0318 212A     		cmp	r2, #33
 5908 031a 05D0     		beq	.L968
 5909              	.L965:
 5910 031c 4029     		cmp	r1, #64
 5911 031e 40F07882 		bne	.L921
 5912 0322 222A     		cmp	r2, #34
 5913 0324 40F07582 		bne	.L921
 5914              	.L968:
 5915 0328 628D     		ldrh	r2, [r4, #42]
 5916 032a 92B2     		uxth	r2, r2
 5917 032c 22B9     		cbnz	r2, .L969
 5918 032e 5A68     		ldr	r2, [r3, #4]
 5919 0330 22F48062 		bic	r2, r2, #1024
 5920              	.L1256:
 5921 0334 5A60     		str	r2, [r3, #4]
 5922 0336 6CE2     		b	.L921
 5923              	.L969:
 5924 0338 94F83E20 		ldrb	r2, [r4, #62]	@ zero_extendqisi2
 5925 033c 402A     		cmp	r2, #64
 5926 033e 40F02982 		bne	.L1267
 5927 0342 226D     		ldr	r2, [r4, #80]
 5928 0344 72B9     		cbnz	r2, .L971
 5929 0346 E26C     		ldr	r2, [r4, #76]
 5930 0348 012A     		cmp	r2, #1
 5931 034a A26C     		ldr	r2, [r4, #72]
 5932 034c 04D1     		bne	.L972
 5933 034e D2B2     		uxtb	r2, r2
 5934 0350 1A61     		str	r2, [r3, #16]
 5935 0352 236D     		ldr	r3, [r4, #80]
ARM GAS  /tmp/cctwxent.s 			page 103


 5936 0354 0233     		adds	r3, r3, #2
 5937 0356 A8E7     		b	.L1257
 5938              	.L972:
 5939 0358 C2F30722 		ubfx	r2, r2, #8, #8
 5940              	.L1264:
 5941 035c 1A61     		str	r2, [r3, #16]
 5942              	.L1263:
 5943 035e 236D     		ldr	r3, [r4, #80]
 5944 0360 0133     		adds	r3, r3, #1
 5945 0362 A2E7     		b	.L1257
 5946              	.L971:
 5947 0364 226D     		ldr	r2, [r4, #80]
 5948 0366 012A     		cmp	r2, #1
 5949 0368 02D1     		bne	.L973
 5950 036a A26C     		ldr	r2, [r4, #72]
 5951 036c D2B2     		uxtb	r2, r2
 5952 036e F5E7     		b	.L1264
 5953              	.L973:
 5954 0370 226D     		ldr	r2, [r4, #80]
 5955 0372 022A     		cmp	r2, #2
 5956 0374 40F04D82 		bne	.L921
 5957 0378 94F83D20 		ldrb	r2, [r4, #61]	@ zero_extendqisi2
 5958 037c 222A     		cmp	r2, #34
 5959 037e 04D1     		bne	.L974
 5960 0380 1A68     		ldr	r2, [r3]
 5961 0382 42F48072 		orr	r2, r2, #256
 5962 0386 1A60     		str	r2, [r3]
 5963 0388 43E2     		b	.L921
 5964              	.L974:
 5965 038a 94F83D20 		ldrb	r2, [r4, #61]	@ zero_extendqisi2
 5966 038e 212A     		cmp	r2, #33
 5967 0390 40F03F82 		bne	.L921
 5968 0394 FEE1     		b	.L1267
 5969              	.L963:
 5970 0396 0029     		cmp	r1, #0
 5971 0398 00F03B82 		beq	.L921
 5972 039c 9205     		lsls	r2, r2, #22
 5973 039e 40F13882 		bpl	.L921
 5974 03a2 E16A     		ldr	r1, [r4, #44]
 5975 03a4 94F83D20 		ldrb	r2, [r4, #61]	@ zero_extendqisi2
 5976 03a8 212A     		cmp	r2, #33
 5977 03aa 40F03282 		bne	.L921
 5978 03ae 628D     		ldrh	r2, [r4, #42]
 5979 03b0 92B2     		uxth	r2, r2
 5980 03b2 002A     		cmp	r2, #0
 5981 03b4 40F0EE81 		bne	.L1267
 5982 03b8 0829     		cmp	r1, #8
 5983 03ba 10D0     		beq	.L976
 5984 03bc 2029     		cmp	r1, #32
 5985 03be 0ED0     		beq	.L976
 5986 03c0 11F5803F 		cmn	r1, #65536
 5987 03c4 0BD0     		beq	.L976
 5988 03c6 5968     		ldr	r1, [r3, #4]
 5989 03c8 21F4E061 		bic	r1, r1, #1792
 5990 03cc 5960     		str	r1, [r3, #4]
 5991 03ce 1123     		movs	r3, #17
 5992 03d0 2363     		str	r3, [r4, #48]
ARM GAS  /tmp/cctwxent.s 			page 104


 5993 03d2 84F83E20 		strb	r2, [r4, #62]
 5994              	.L1272:
 5995 03d6 2023     		movs	r3, #32
 5996 03d8 84F83D30 		strb	r3, [r4, #61]
 5997 03dc 14E0     		b	.L977
 5998              	.L976:
 5999 03de 5A68     		ldr	r2, [r3, #4]
 6000 03e0 22F4E062 		bic	r2, r2, #1792
 6001 03e4 5A60     		str	r2, [r3, #4]
 6002 03e6 1A68     		ldr	r2, [r3]
 6003 03e8 42F40072 		orr	r2, r2, #512
 6004 03ec 1A60     		str	r2, [r3]
 6005 03ee 0023     		movs	r3, #0
 6006 03f0 2022     		movs	r2, #32
 6007 03f2 2363     		str	r3, [r4, #48]
 6008 03f4 84F83D20 		strb	r2, [r4, #61]
 6009 03f8 94F83E20 		ldrb	r2, [r4, #62]	@ zero_extendqisi2
 6010 03fc 84F83E30 		strb	r3, [r4, #62]
 6011 0400 402A     		cmp	r2, #64
 6012 0402 01D1     		bne	.L977
 6013 0404 A36E     		ldr	r3, [r4, #104]
 6014 0406 F1E1     		b	.L1258
 6015              	.L977:
 6016 0408 636D     		ldr	r3, [r4, #84]
 6017 040a EFE1     		b	.L1258
 6018              	.L962:
 6019 040c 0505     		lsls	r5, r0, #20
 6020 040e 00F10082 		bmi	.L921
 6021 0412 11F0400F 		tst	r1, #64
 6022 0416 01F00401 		and	r1, r1, #4
 6023 041a 45D0     		beq	.L978
 6024 041c 5005     		lsls	r0, r2, #21
 6025 041e 43D5     		bpl	.L978
 6026 0420 0029     		cmp	r1, #0
 6027 0422 41D1     		bne	.L978
 6028 0424 94F83D20 		ldrb	r2, [r4, #61]	@ zero_extendqisi2
 6029 0428 222A     		cmp	r2, #34
 6030 042a 40F0F281 		bne	.L921
 6031 042e 628D     		ldrh	r2, [r4, #42]
 6032 0430 92B2     		uxth	r2, r2
 6033 0432 032A     		cmp	r2, #3
 6034 0434 14D9     		bls	.L979
 6035 0436 1B69     		ldr	r3, [r3, #16]
 6036 0438 626A     		ldr	r2, [r4, #36]
 6037 043a 1370     		strb	r3, [r2]
 6038 043c 636A     		ldr	r3, [r4, #36]
 6039 043e 0133     		adds	r3, r3, #1
 6040 0440 6362     		str	r3, [r4, #36]
 6041 0442 638D     		ldrh	r3, [r4, #42]
 6042 0444 013B     		subs	r3, r3, #1
 6043 0446 9BB2     		uxth	r3, r3
 6044 0448 6385     		strh	r3, [r4, #42]	@ movhi
 6045 044a 638D     		ldrh	r3, [r4, #42]
 6046 044c 9BB2     		uxth	r3, r3
 6047 044e 032B     		cmp	r3, #3
 6048 0450 40F0DF81 		bne	.L921
 6049 0454 2268     		ldr	r2, [r4]
ARM GAS  /tmp/cctwxent.s 			page 105


 6050 0456 5368     		ldr	r3, [r2, #4]
 6051 0458 23F48063 		bic	r3, r3, #1024
 6052 045c 5360     		str	r3, [r2, #4]
 6053 045e D8E1     		b	.L921
 6054              	.L979:
 6055 0460 E06A     		ldr	r0, [r4, #44]
 6056 0462 0228     		cmp	r0, #2
 6057 0464 00F0D581 		beq	.L921
 6058 0468 012A     		cmp	r2, #1
 6059 046a 00F2D281 		bhi	.L921
 6060 046e 1A68     		ldr	r2, [r3]
 6061 0470 22F48062 		bic	r2, r2, #1024
 6062 0474 1A60     		str	r2, [r3]
 6063 0476 5A68     		ldr	r2, [r3, #4]
 6064 0478 22F4E062 		bic	r2, r2, #1792
 6065 047c 5A60     		str	r2, [r3, #4]
 6066 047e 1B69     		ldr	r3, [r3, #16]
 6067 0480 626A     		ldr	r2, [r4, #36]
 6068 0482 1370     		strb	r3, [r2]
 6069 0484 636A     		ldr	r3, [r4, #36]
 6070 0486 0133     		adds	r3, r3, #1
 6071 0488 6362     		str	r3, [r4, #36]
 6072 048a 638D     		ldrh	r3, [r4, #42]
 6073 048c 013B     		subs	r3, r3, #1
 6074 048e 9BB2     		uxth	r3, r3
 6075 0490 6385     		strh	r3, [r4, #42]	@ movhi
 6076 0492 2023     		movs	r3, #32
 6077 0494 84F83D30 		strb	r3, [r4, #61]
 6078 0498 94F83E30 		ldrb	r3, [r4, #62]	@ zero_extendqisi2
 6079 049c 84F83E10 		strb	r1, [r4, #62]
 6080 04a0 402B     		cmp	r3, #64
 6081 04a2 61D1     		bne	.L990
 6082 04a4 2163     		str	r1, [r4, #48]
 6083 04a6 5DE0     		b	.L1265
 6084              	.L978:
 6085 04a8 0029     		cmp	r1, #0
 6086 04aa 00F0B281 		beq	.L921
 6087 04ae 9205     		lsls	r2, r2, #22
 6088 04b0 40F1AF81 		bpl	.L921
 6089 04b4 E26A     		ldr	r2, [r4, #44]
 6090 04b6 618D     		ldrh	r1, [r4, #42]
 6091 04b8 89B2     		uxth	r1, r1
 6092 04ba 0429     		cmp	r1, #4
 6093 04bc 616A     		ldr	r1, [r4, #36]
 6094 04be 04D1     		bne	.L981
 6095 04c0 5A68     		ldr	r2, [r3, #4]
 6096 04c2 22F48062 		bic	r2, r2, #1024
 6097 04c6 5A60     		str	r2, [r3, #4]
 6098 04c8 52E0     		b	.L984
 6099              	.L981:
 6100 04ca 608D     		ldrh	r0, [r4, #42]
 6101 04cc 80B2     		uxth	r0, r0
 6102 04ce 0328     		cmp	r0, #3
 6103 04d0 0CD1     		bne	.L982
 6104 04d2 5868     		ldr	r0, [r3, #4]
 6105 04d4 042A     		cmp	r2, #4
 6106 04d6 20F48060 		bic	r0, r0, #1024
ARM GAS  /tmp/cctwxent.s 			page 106


 6107 04da 5860     		str	r0, [r3, #4]
 6108 04dc 48D0     		beq	.L984
 6109 04de 022A     		cmp	r2, #2
 6110 04e0 46D0     		beq	.L984
 6111 04e2 1A68     		ldr	r2, [r3]
 6112 04e4 22F48062 		bic	r2, r2, #1024
 6113 04e8 1A60     		str	r2, [r3]
 6114 04ea 41E0     		b	.L984
 6115              	.L982:
 6116 04ec 608D     		ldrh	r0, [r4, #42]
 6117 04ee 80B2     		uxth	r0, r0
 6118 04f0 0228     		cmp	r0, #2
 6119 04f2 3DD1     		bne	.L984
 6120 04f4 012A     		cmp	r2, #1
 6121 04f6 01D0     		beq	.L985
 6122 04f8 102A     		cmp	r2, #16
 6123 04fa 03D1     		bne	.L986
 6124              	.L985:
 6125 04fc 1A68     		ldr	r2, [r3]
 6126 04fe 22F48062 		bic	r2, r2, #1024
 6127 0502 0AE0     		b	.L1252
 6128              	.L986:
 6129 0504 042A     		cmp	r2, #4
 6130 0506 01D0     		beq	.L988
 6131 0508 022A     		cmp	r2, #2
 6132 050a 03D1     		bne	.L989
 6133              	.L988:
 6134 050c 1A68     		ldr	r2, [r3]
 6135 050e 42F48062 		orr	r2, r2, #1024
 6136 0512 02E0     		b	.L1252
 6137              	.L989:
 6138 0514 1A68     		ldr	r2, [r3]
 6139 0516 42F40072 		orr	r2, r2, #512
 6140              	.L1252:
 6141 051a 1A60     		str	r2, [r3]
 6142 051c 1B69     		ldr	r3, [r3, #16]
 6143 051e 0B70     		strb	r3, [r1]
 6144 0520 626A     		ldr	r2, [r4, #36]
 6145 0522 531C     		adds	r3, r2, #1
 6146 0524 6362     		str	r3, [r4, #36]
 6147 0526 638D     		ldrh	r3, [r4, #42]
 6148 0528 013B     		subs	r3, r3, #1
 6149 052a 9BB2     		uxth	r3, r3
 6150 052c 6385     		strh	r3, [r4, #42]	@ movhi
 6151 052e 2368     		ldr	r3, [r4]
 6152 0530 1B69     		ldr	r3, [r3, #16]
 6153 0532 5370     		strb	r3, [r2, #1]
 6154 0534 636A     		ldr	r3, [r4, #36]
 6155 0536 2268     		ldr	r2, [r4]
 6156 0538 0133     		adds	r3, r3, #1
 6157 053a 6362     		str	r3, [r4, #36]
 6158 053c 638D     		ldrh	r3, [r4, #42]
 6159 053e 013B     		subs	r3, r3, #1
 6160 0540 9BB2     		uxth	r3, r3
 6161 0542 6385     		strh	r3, [r4, #42]	@ movhi
 6162 0544 5368     		ldr	r3, [r2, #4]
 6163 0546 23F44073 		bic	r3, r3, #768
ARM GAS  /tmp/cctwxent.s 			page 107


 6164 054a 5360     		str	r3, [r2, #4]
 6165 054c 2023     		movs	r3, #32
 6166 054e 84F83D30 		strb	r3, [r4, #61]
 6167 0552 94F83E30 		ldrb	r3, [r4, #62]	@ zero_extendqisi2
 6168 0556 402B     		cmp	r3, #64
 6169 0558 4FF00003 		mov	r3, #0
 6170 055c 84F83E30 		strb	r3, [r4, #62]
 6171 0560 02D1     		bne	.L990
 6172 0562 2363     		str	r3, [r4, #48]
 6173              	.L1265:
 6174 0564 E36E     		ldr	r3, [r4, #108]
 6175 0566 41E1     		b	.L1258
 6176              	.L990:
 6177 0568 1223     		movs	r3, #18
 6178 056a 2363     		str	r3, [r4, #48]
 6179 056c A36D     		ldr	r3, [r4, #88]
 6180 056e 3DE1     		b	.L1258
 6181              	.L984:
 6182 0570 1B69     		ldr	r3, [r3, #16]
 6183 0572 0B70     		strb	r3, [r1]
 6184 0574 46E1     		b	.L1260
 6185              	.L923:
 6186 0576 216C     		ldr	r1, [r4, #64]
 6187 0578 11B1     		cbz	r1, .L991
 6188 057a 5969     		ldr	r1, [r3, #20]
 6189 057c 0025     		movs	r5, #0
 6190 057e 01E0     		b	.L992
 6191              	.L991:
 6192 0580 9D69     		ldr	r5, [r3, #24]
 6193 0582 5969     		ldr	r1, [r3, #20]
 6194              	.L992:
 6195 0584 11F0020F 		tst	r1, #2
 6196 0588 26D0     		beq	.L993
 6197 058a 12F4007F 		tst	r2, #512
 6198 058e 23D0     		beq	.L993
 6199 0590 226C     		ldr	r2, [r4, #64]
 6200 0592 02B1     		cbz	r2, .L994
 6201 0594 9D69     		ldr	r5, [r3, #24]
 6202              	.L994:
 6203 0596 94F83D20 		ldrb	r2, [r4, #61]	@ zero_extendqisi2
 6204 059a 02F02802 		and	r2, r2, #40
 6205 059e 282A     		cmp	r2, #40
 6206 05a0 13D1     		bne	.L995
 6207 05a2 5A68     		ldr	r2, [r3, #4]
 6208 05a4 85F00401 		eor	r1, r5, #4
 6209 05a8 22F48062 		bic	r2, r2, #1024
 6210 05ac 5A60     		str	r2, [r3, #4]
 6211 05ae 2B06     		lsls	r3, r5, #24
 6212 05b0 4FF00003 		mov	r3, #0
 6213 05b4 84F83C30 		strb	r3, [r4, #60]
 6214 05b8 C1F38001 		ubfx	r1, r1, #2, #1
 6215 05bc 54BF     		ite	pl
 6216 05be A289     		ldrhpl	r2, [r4, #12]
 6217 05c0 228B     		ldrhmi	r2, [r4, #24]
 6218 05c2 A36F     		ldr	r3, [r4, #120]
 6219 05c4 2046     		mov	r0, r4
 6220 05c6 9847     		blx	r3
ARM GAS  /tmp/cctwxent.s 			page 108


 6221 05c8 23E1     		b	.L921
 6222              	.L995:
 6223 05ca 6FF00202 		mvn	r2, #2
 6224 05ce 5A61     		str	r2, [r3, #20]
 6225 05d0 0023     		movs	r3, #0
 6226 05d2 84F83C30 		strb	r3, [r4, #60]
 6227 05d6 1CE1     		b	.L921
 6228              	.L993:
 6229 05d8 CD06     		lsls	r5, r1, #27
 6230 05da 40F1A880 		bpl	.L998
 6231 05de 9505     		lsls	r5, r2, #22
 6232 05e0 40F1A580 		bpl	.L998
 6233 05e4 94F83D50 		ldrb	r5, [r4, #61]	@ zero_extendqisi2
 6234 05e8 5A68     		ldr	r2, [r3, #4]
 6235 05ea EDB2     		uxtb	r5, r5
 6236 05ec 22F4E062 		bic	r2, r2, #1792
 6237 05f0 5A60     		str	r2, [r3, #4]
 6238 05f2 0022     		movs	r2, #0
 6239 05f4 0B92     		str	r2, [sp, #44]
 6240 05f6 5A69     		ldr	r2, [r3, #20]
 6241 05f8 0B92     		str	r2, [sp, #44]
 6242 05fa 1A68     		ldr	r2, [r3]
 6243 05fc 42F00102 		orr	r2, r2, #1
 6244 0600 1A60     		str	r2, [r3]
 6245 0602 0B9A     		ldr	r2, [sp, #44]
 6246 0604 1A68     		ldr	r2, [r3]
 6247 0606 22F48062 		bic	r2, r2, #1024
 6248 060a 1A60     		str	r2, [r3]
 6249 060c 5A68     		ldr	r2, [r3, #4]
 6250 060e 1105     		lsls	r1, r2, #20
 6251 0610 3CD5     		bpl	.L1000
 6252 0612 05F0F702 		and	r2, r5, #247
 6253 0616 222A     		cmp	r2, #34
 6254 0618 1BD1     		bne	.L1001
 6255 061a A06B     		ldr	r0, [r4, #56]
 6256 061c 0268     		ldr	r2, [r0]
 6257 061e 5268     		ldr	r2, [r2, #4]
 6258 0620 92B2     		uxth	r2, r2
 6259 0622 6285     		strh	r2, [r4, #42]	@ movhi
 6260 0624 628D     		ldrh	r2, [r4, #42]
 6261 0626 92B2     		uxth	r2, r2
 6262 0628 1AB1     		cbz	r2, .L1002
 6263 062a 226C     		ldr	r2, [r4, #64]
 6264 062c 42F00402 		orr	r2, r2, #4
 6265 0630 2264     		str	r2, [r4, #64]
 6266              	.L1002:
 6267 0632 5A68     		ldr	r2, [r3, #4]
 6268 0634 22F40062 		bic	r2, r2, #2048
 6269 0638 5A60     		str	r2, [r3, #4]
 6270 063a FFF7FEFF 		bl	HAL_DMA_GetState
 6271 063e 0128     		cmp	r0, #1
 6272 0640 24D0     		beq	.L1000
 6273 0642 A06B     		ldr	r0, [r4, #56]
 6274 0644 744B     		ldr	r3, .L1274
 6275 0646 4363     		str	r3, [r0, #52]
 6276 0648 FFF7FEFF 		bl	HAL_DMA_Abort_IT
 6277 064c F0B1     		cbz	r0, .L1000
ARM GAS  /tmp/cctwxent.s 			page 109


 6278 064e A06B     		ldr	r0, [r4, #56]
 6279 0650 1AE0     		b	.L1253
 6280              	.L1001:
 6281 0652 606B     		ldr	r0, [r4, #52]
 6282 0654 0268     		ldr	r2, [r0]
 6283 0656 5268     		ldr	r2, [r2, #4]
 6284 0658 92B2     		uxth	r2, r2
 6285 065a 6285     		strh	r2, [r4, #42]	@ movhi
 6286 065c 628D     		ldrh	r2, [r4, #42]
 6287 065e 92B2     		uxth	r2, r2
 6288 0660 1AB1     		cbz	r2, .L1004
 6289 0662 226C     		ldr	r2, [r4, #64]
 6290 0664 42F00402 		orr	r2, r2, #4
 6291 0668 2264     		str	r2, [r4, #64]
 6292              	.L1004:
 6293 066a 5A68     		ldr	r2, [r3, #4]
 6294 066c 22F40062 		bic	r2, r2, #2048
 6295 0670 5A60     		str	r2, [r3, #4]
 6296 0672 FFF7FEFF 		bl	HAL_DMA_GetState
 6297 0676 0128     		cmp	r0, #1
 6298 0678 08D0     		beq	.L1000
 6299 067a 606B     		ldr	r0, [r4, #52]
 6300 067c 664B     		ldr	r3, .L1274
 6301 067e 4363     		str	r3, [r0, #52]
 6302 0680 FFF7FEFF 		bl	HAL_DMA_Abort_IT
 6303 0684 10B1     		cbz	r0, .L1000
 6304 0686 606B     		ldr	r0, [r4, #52]
 6305              	.L1253:
 6306 0688 436B     		ldr	r3, [r0, #52]
 6307 068a 9847     		blx	r3
 6308              	.L1000:
 6309 068c 638D     		ldrh	r3, [r4, #42]
 6310 068e 9BB2     		uxth	r3, r3
 6311 0690 13B3     		cbz	r3, .L1006
 6312 0692 2368     		ldr	r3, [r4]
 6313 0694 5A69     		ldr	r2, [r3, #20]
 6314 0696 5207     		lsls	r2, r2, #29
 6315 0698 09D5     		bpl	.L1007
 6316 069a 1B69     		ldr	r3, [r3, #16]
 6317 069c 626A     		ldr	r2, [r4, #36]
 6318 069e 1370     		strb	r3, [r2]
 6319 06a0 636A     		ldr	r3, [r4, #36]
 6320 06a2 0133     		adds	r3, r3, #1
 6321 06a4 6362     		str	r3, [r4, #36]
 6322 06a6 638D     		ldrh	r3, [r4, #42]
 6323 06a8 013B     		subs	r3, r3, #1
 6324 06aa 9BB2     		uxth	r3, r3
 6325 06ac 6385     		strh	r3, [r4, #42]	@ movhi
 6326              	.L1007:
 6327 06ae 2368     		ldr	r3, [r4]
 6328 06b0 5A69     		ldr	r2, [r3, #20]
 6329 06b2 5006     		lsls	r0, r2, #25
 6330 06b4 09D5     		bpl	.L1008
 6331 06b6 1B69     		ldr	r3, [r3, #16]
 6332 06b8 626A     		ldr	r2, [r4, #36]
 6333 06ba 1370     		strb	r3, [r2]
 6334 06bc 636A     		ldr	r3, [r4, #36]
ARM GAS  /tmp/cctwxent.s 			page 110


 6335 06be 0133     		adds	r3, r3, #1
 6336 06c0 6362     		str	r3, [r4, #36]
 6337 06c2 638D     		ldrh	r3, [r4, #42]
 6338 06c4 013B     		subs	r3, r3, #1
 6339 06c6 9BB2     		uxth	r3, r3
 6340 06c8 6385     		strh	r3, [r4, #42]	@ movhi
 6341              	.L1008:
 6342 06ca 638D     		ldrh	r3, [r4, #42]
 6343 06cc 9BB2     		uxth	r3, r3
 6344 06ce 1BB1     		cbz	r3, .L1006
 6345 06d0 236C     		ldr	r3, [r4, #64]
 6346 06d2 43F00403 		orr	r3, r3, #4
 6347 06d6 2364     		str	r3, [r4, #64]
 6348              	.L1006:
 6349 06d8 236C     		ldr	r3, [r4, #64]
 6350 06da 1BB1     		cbz	r3, .L1010
 6351 06dc 2046     		mov	r0, r4
 6352 06de FFF7FEFF 		bl	I2C_ITError
 6353 06e2 96E0     		b	.L921
 6354              	.L1010:
 6355 06e4 2A2D     		cmp	r5, #42
 6356 06e6 06D1     		bne	.L1011
 6357 06e8 2363     		str	r3, [r4, #48]
 6358 06ea 2823     		movs	r3, #40
 6359 06ec 84F83D30 		strb	r3, [r4, #61]
 6360 06f0 2046     		mov	r0, r4
 6361 06f2 236E     		ldr	r3, [r4, #96]
 6362 06f4 9847     		blx	r3
 6363              	.L1011:
 6364 06f6 94F83D30 		ldrb	r3, [r4, #61]	@ zero_extendqisi2
 6365 06fa 282B     		cmp	r3, #40
 6366 06fc 0AD1     		bne	.L1012
 6367 06fe 474B     		ldr	r3, .L1274+4
 6368 0700 2022     		movs	r2, #32
 6369 0702 E362     		str	r3, [r4, #44]
 6370 0704 0023     		movs	r3, #0
 6371 0706 2363     		str	r3, [r4, #48]
 6372 0708 84F83D20 		strb	r2, [r4, #61]
 6373 070c 84F83E30 		strb	r3, [r4, #62]
 6374 0710 636E     		ldr	r3, [r4, #100]
 6375 0712 6BE0     		b	.L1258
 6376              	.L1012:
 6377 0714 236B     		ldr	r3, [r4, #48]
 6378 0716 222B     		cmp	r3, #34
 6379 0718 01D0     		beq	.L1013
 6380 071a 222D     		cmp	r5, #34
 6381 071c 79D1     		bne	.L921
 6382              	.L1013:
 6383 071e 0023     		movs	r3, #0
 6384 0720 2022     		movs	r2, #32
 6385 0722 2363     		str	r3, [r4, #48]
 6386 0724 84F83D20 		strb	r2, [r4, #61]
 6387 0728 84F83E30 		strb	r3, [r4, #62]
 6388 072c 5DE0     		b	.L1259
 6389              	.L998:
 6390 072e 00F0F700 		and	r0, r0, #247
 6391 0732 2128     		cmp	r0, #33
ARM GAS  /tmp/cctwxent.s 			page 111


 6392 0734 01F00405 		and	r5, r1, #4
 6393 0738 32D1     		bne	.L1014
 6394 073a 0906     		lsls	r1, r1, #24
 6395 073c 22D5     		bpl	.L1015
 6396 073e 5105     		lsls	r1, r2, #21
 6397 0740 20D5     		bpl	.L1015
 6398 0742 FDB9     		cbnz	r5, .L1015
 6399 0744 94F83D10 		ldrb	r1, [r4, #61]	@ zero_extendqisi2
 6400 0748 628D     		ldrh	r2, [r4, #42]
 6401 074a C9B2     		uxtb	r1, r1
 6402 074c 92B2     		uxth	r2, r2
 6403 074e 002A     		cmp	r2, #0
 6404 0750 5FD0     		beq	.L921
 6405 0752 626A     		ldr	r2, [r4, #36]
 6406 0754 12F8015B 		ldrb	r5, [r2], #1	@ zero_extendqisi2
 6407 0758 1D61     		str	r5, [r3, #16]
 6408 075a 6262     		str	r2, [r4, #36]
 6409 075c 628D     		ldrh	r2, [r4, #42]
 6410 075e 013A     		subs	r2, r2, #1
 6411 0760 92B2     		uxth	r2, r2
 6412 0762 6285     		strh	r2, [r4, #42]	@ movhi
 6413 0764 628D     		ldrh	r2, [r4, #42]
 6414 0766 92B2     		uxth	r2, r2
 6415 0768 002A     		cmp	r2, #0
 6416 076a 52D1     		bne	.L921
 6417 076c 2929     		cmp	r1, #41
 6418 076e 50D1     		bne	.L921
 6419 0770 5A68     		ldr	r2, [r3, #4]
 6420 0772 22F48062 		bic	r2, r2, #1024
 6421 0776 5A60     		str	r2, [r3, #4]
 6422 0778 2823     		movs	r3, #40
 6423 077a 2063     		str	r0, [r4, #48]
 6424 077c 84F83D30 		strb	r3, [r4, #61]
 6425 0780 E36D     		ldr	r3, [r4, #92]
 6426 0782 33E0     		b	.L1258
 6427              	.L1015:
 6428 0784 002D     		cmp	r5, #0
 6429 0786 44D0     		beq	.L921
 6430 0788 9505     		lsls	r5, r2, #22
 6431 078a 42D5     		bpl	.L921
 6432 078c 628D     		ldrh	r2, [r4, #42]
 6433 078e 92B2     		uxth	r2, r2
 6434 0790 002A     		cmp	r2, #0
 6435 0792 3ED0     		beq	.L921
 6436              	.L1267:
 6437 0794 626A     		ldr	r2, [r4, #36]
 6438 0796 12F8011B 		ldrb	r1, [r2], #1	@ zero_extendqisi2
 6439 079a 1961     		str	r1, [r3, #16]
 6440 079c 6262     		str	r2, [r4, #36]
 6441 079e 34E0     		b	.L1255
 6442              	.L1014:
 6443 07a0 4806     		lsls	r0, r1, #25
 6444 07a2 26D5     		bpl	.L1016
 6445 07a4 5105     		lsls	r1, r2, #21
 6446 07a6 24D5     		bpl	.L1016
 6447 07a8 1DBB     		cbnz	r5, .L1016
 6448 07aa 94F83D20 		ldrb	r2, [r4, #61]	@ zero_extendqisi2
ARM GAS  /tmp/cctwxent.s 			page 112


 6449 07ae 618D     		ldrh	r1, [r4, #42]
 6450 07b0 D2B2     		uxtb	r2, r2
 6451 07b2 89B2     		uxth	r1, r1
 6452 07b4 0029     		cmp	r1, #0
 6453 07b6 2CD0     		beq	.L921
 6454 07b8 1B69     		ldr	r3, [r3, #16]
 6455 07ba 616A     		ldr	r1, [r4, #36]
 6456 07bc 0B70     		strb	r3, [r1]
 6457 07be 636A     		ldr	r3, [r4, #36]
 6458 07c0 0133     		adds	r3, r3, #1
 6459 07c2 6362     		str	r3, [r4, #36]
 6460 07c4 638D     		ldrh	r3, [r4, #42]
 6461 07c6 013B     		subs	r3, r3, #1
 6462 07c8 9BB2     		uxth	r3, r3
 6463 07ca 6385     		strh	r3, [r4, #42]	@ movhi
 6464 07cc 638D     		ldrh	r3, [r4, #42]
 6465 07ce 9BB2     		uxth	r3, r3
 6466 07d0 FBB9     		cbnz	r3, .L921
 6467 07d2 2A2A     		cmp	r2, #42
 6468 07d4 1DD1     		bne	.L921
 6469 07d6 2268     		ldr	r2, [r4]
 6470 07d8 5368     		ldr	r3, [r2, #4]
 6471 07da 23F48063 		bic	r3, r3, #1024
 6472 07de 5360     		str	r3, [r2, #4]
 6473 07e0 2223     		movs	r3, #34
 6474 07e2 2363     		str	r3, [r4, #48]
 6475 07e4 2823     		movs	r3, #40
 6476 07e6 84F83D30 		strb	r3, [r4, #61]
 6477              	.L1259:
 6478 07ea 236E     		ldr	r3, [r4, #96]
 6479              	.L1258:
 6480 07ec 2046     		mov	r0, r4
 6481 07ee 9847     		blx	r3
 6482 07f0 0FE0     		b	.L921
 6483              	.L1016:
 6484 07f2 75B1     		cbz	r5, .L921
 6485 07f4 9205     		lsls	r2, r2, #22
 6486 07f6 0CD5     		bpl	.L921
 6487 07f8 628D     		ldrh	r2, [r4, #42]
 6488 07fa 92B2     		uxth	r2, r2
 6489 07fc 4AB1     		cbz	r2, .L921
 6490 07fe 626A     		ldr	r2, [r4, #36]
 6491 0800 1B69     		ldr	r3, [r3, #16]
 6492 0802 1370     		strb	r3, [r2]
 6493              	.L1260:
 6494 0804 636A     		ldr	r3, [r4, #36]
 6495 0806 0133     		adds	r3, r3, #1
 6496 0808 6362     		str	r3, [r4, #36]
 6497              	.L1255:
 6498 080a 638D     		ldrh	r3, [r4, #42]
 6499 080c 013B     		subs	r3, r3, #1
 6500 080e 9BB2     		uxth	r3, r3
 6501 0810 6385     		strh	r3, [r4, #42]	@ movhi
 6502              	.L921:
 6503 0812 0DB0     		add	sp, sp, #52
 6504              		@ sp needed
 6505 0814 30BD     		pop	{r4, r5, pc}
ARM GAS  /tmp/cctwxent.s 			page 113


 6506              	.L1275:
 6507 0816 00BF     		.align	2
 6508              	.L1274:
 6509 0818 00000000 		.word	I2C_DMAAbort
 6510 081c 0000FFFF 		.word	-65536
 6512              		.section	.text.HAL_I2C_ER_IRQHandler,"ax",%progbits
 6513              		.align	1
 6514              		.global	HAL_I2C_ER_IRQHandler
 6515              		.thumb
 6516              		.thumb_func
 6518              	HAL_I2C_ER_IRQHandler:
 6519              		@ args = 0, pretend = 0, frame = 0
 6520              		@ frame_needed = 0, uses_anonymous_args = 0
 6521 0000 F8B5     		push	{r3, r4, r5, r6, r7, lr}
 6522 0002 0368     		ldr	r3, [r0]
 6523 0004 0446     		mov	r4, r0
 6524 0006 5F69     		ldr	r7, [r3, #20]
 6525 0008 5E68     		ldr	r6, [r3, #4]
 6526 000a 17F48075 		ands	r5, r7, #256
 6527 000e 0BD0     		beq	.L1277
 6528 0010 16F48075 		ands	r5, r6, #256
 6529 0014 1FBF     		itttt	ne
 6530 0016 6FF48072 		mvnne	r2, #256
 6531 001a 5A61     		strne	r2, [r3, #20]
 6532 001c 1A68     		ldrne	r2, [r3]
 6533 001e 0125     		movne	r5, #1
 6534 0020 1CBF     		itt	ne
 6535 0022 42F40042 		orrne	r2, r2, #32768
 6536 0026 1A60     		strne	r2, [r3]
 6537              	.L1277:
 6538 0028 B905     		lsls	r1, r7, #22
 6539 002a 06D5     		bpl	.L1278
 6540 002c F205     		lsls	r2, r6, #23
 6541 002e 42BF     		ittt	mi
 6542 0030 6FF40072 		mvnmi	r2, #512
 6543 0034 45F00205 		orrmi	r5, r5, #2
 6544 0038 5A61     		strmi	r2, [r3, #20]
 6545              	.L1278:
 6546 003a 7805     		lsls	r0, r7, #21
 6547 003c 61D5     		bpl	.L1279
 6548 003e F105     		lsls	r1, r6, #23
 6549 0040 5FD5     		bpl	.L1279
 6550 0042 94F83EE0 		ldrb	lr, [r4, #62]	@ zero_extendqisi2
 6551 0046 618D     		ldrh	r1, [r4, #42]
 6552 0048 94F83D20 		ldrb	r2, [r4, #61]	@ zero_extendqisi2
 6553 004c BEF1200F 		cmp	lr, #32
 6554 0050 89B2     		uxth	r1, r1
 6555 0052 D2B2     		uxtb	r2, r2
 6556 0054 206B     		ldr	r0, [r4, #48]
 6557 0056 47D1     		bne	.L1280
 6558 0058 0029     		cmp	r1, #0
 6559 005a 45D1     		bne	.L1280
 6560 005c 02F0F701 		and	r1, r2, #247
 6561 0060 2129     		cmp	r1, #33
 6562 0062 03D0     		beq	.L1281
 6563 0064 282A     		cmp	r2, #40
 6564 0066 3FD1     		bne	.L1280
ARM GAS  /tmp/cctwxent.s 			page 114


 6565 0068 2128     		cmp	r0, #33
 6566 006a 3DD1     		bne	.L1280
 6567              	.L1281:
 6568 006c 94F83D20 		ldrb	r2, [r4, #61]	@ zero_extendqisi2
 6569 0070 E16A     		ldr	r1, [r4, #44]
 6570 0072 D2B2     		uxtb	r2, r2
 6571 0074 0829     		cmp	r1, #8
 6572 0076 01D0     		beq	.L1282
 6573 0078 2029     		cmp	r1, #32
 6574 007a 17D1     		bne	.L1283
 6575              	.L1282:
 6576 007c 282A     		cmp	r2, #40
 6577 007e 15D1     		bne	.L1283
 6578 0080 2A4A     		ldr	r2, .L1315
 6579 0082 E262     		str	r2, [r4, #44]
 6580 0084 5A68     		ldr	r2, [r3, #4]
 6581 0086 22F4E062 		bic	r2, r2, #1792
 6582 008a 5A60     		str	r2, [r3, #4]
 6583 008c 6FF48062 		mvn	r2, #1024
 6584 0090 5A61     		str	r2, [r3, #20]
 6585 0092 1A68     		ldr	r2, [r3]
 6586 0094 22F48062 		bic	r2, r2, #1024
 6587 0098 1A60     		str	r2, [r3]
 6588 009a 0023     		movs	r3, #0
 6589 009c 2022     		movs	r2, #32
 6590 009e 2363     		str	r3, [r4, #48]
 6591 00a0 84F83D20 		strb	r2, [r4, #61]
 6592 00a4 84F83E30 		strb	r3, [r4, #62]
 6593 00a8 636E     		ldr	r3, [r4, #100]
 6594 00aa 16E0     		b	.L1314
 6595              	.L1283:
 6596 00ac 212A     		cmp	r2, #33
 6597 00ae 17D1     		bne	.L1284
 6598 00b0 1E49     		ldr	r1, .L1315
 6599 00b2 E162     		str	r1, [r4, #44]
 6600 00b4 2263     		str	r2, [r4, #48]
 6601 00b6 2022     		movs	r2, #32
 6602 00b8 84F83D20 		strb	r2, [r4, #61]
 6603 00bc 0022     		movs	r2, #0
 6604 00be 84F83E20 		strb	r2, [r4, #62]
 6605 00c2 5A68     		ldr	r2, [r3, #4]
 6606 00c4 22F4E062 		bic	r2, r2, #1792
 6607 00c8 5A60     		str	r2, [r3, #4]
 6608 00ca 6FF48062 		mvn	r2, #1024
 6609 00ce 5A61     		str	r2, [r3, #20]
 6610 00d0 1A68     		ldr	r2, [r3]
 6611 00d2 22F48062 		bic	r2, r2, #1024
 6612 00d6 1A60     		str	r2, [r3]
 6613 00d8 E36D     		ldr	r3, [r4, #92]
 6614              	.L1314:
 6615 00da 2046     		mov	r0, r4
 6616 00dc 9847     		blx	r3
 6617 00de 10E0     		b	.L1279
 6618              	.L1284:
 6619 00e0 6FF48062 		mvn	r2, #1024
 6620 00e4 5A61     		str	r2, [r3, #20]
 6621 00e6 0CE0     		b	.L1279
ARM GAS  /tmp/cctwxent.s 			page 115


 6622              	.L1280:
 6623 00e8 6FF48062 		mvn	r2, #1024
 6624 00ec 5A61     		str	r2, [r3, #20]
 6625 00ee 94F83E20 		ldrb	r2, [r4, #62]	@ zero_extendqisi2
 6626 00f2 45F00405 		orr	r5, r5, #4
 6627 00f6 102A     		cmp	r2, #16
 6628 00f8 02BF     		ittt	eq
 6629 00fa 1A68     		ldreq	r2, [r3]
 6630 00fc 42F40072 		orreq	r2, r2, #512
 6631 0100 1A60     		streq	r2, [r3]
 6632              	.L1279:
 6633 0102 3A05     		lsls	r2, r7, #20
 6634 0104 08D5     		bpl	.L1285
 6635 0106 F305     		lsls	r3, r6, #23
 6636 0108 06D5     		bpl	.L1285
 6637 010a 2368     		ldr	r3, [r4]
 6638 010c 6FF40062 		mvn	r2, #2048
 6639 0110 45F00805 		orr	r5, r5, #8
 6640 0114 5A61     		str	r2, [r3, #20]
 6641 0116 00E0     		b	.L1286
 6642              	.L1285:
 6643 0118 3DB1     		cbz	r5, .L1276
 6644              	.L1286:
 6645 011a 236C     		ldr	r3, [r4, #64]
 6646 011c 2046     		mov	r0, r4
 6647 011e 1D43     		orrs	r5, r5, r3
 6648 0120 2564     		str	r5, [r4, #64]
 6649 0122 BDE8F840 		pop	{r3, r4, r5, r6, r7, lr}
 6650 0126 FFF7FEBF 		b	I2C_ITError
 6651              	.L1276:
 6652 012a F8BD     		pop	{r3, r4, r5, r6, r7, pc}
 6653              	.L1316:
 6654              		.align	2
 6655              	.L1315:
 6656 012c 0000FFFF 		.word	-65536
 6658              		.section	.text.HAL_I2C_GetState,"ax",%progbits
 6659              		.align	1
 6660              		.global	HAL_I2C_GetState
 6661              		.thumb
 6662              		.thumb_func
 6664              	HAL_I2C_GetState:
 6665              		@ args = 0, pretend = 0, frame = 0
 6666              		@ frame_needed = 0, uses_anonymous_args = 0
 6667              		@ link register save eliminated.
 6668 0000 90F83D00 		ldrb	r0, [r0, #61]	@ zero_extendqisi2
 6669 0004 7047     		bx	lr
 6671              		.section	.text.HAL_I2C_GetMode,"ax",%progbits
 6672              		.align	1
 6673              		.global	HAL_I2C_GetMode
 6674              		.thumb
 6675              		.thumb_func
 6677              	HAL_I2C_GetMode:
 6678              		@ args = 0, pretend = 0, frame = 0
 6679              		@ frame_needed = 0, uses_anonymous_args = 0
 6680              		@ link register save eliminated.
 6681 0000 90F83E00 		ldrb	r0, [r0, #62]	@ zero_extendqisi2
 6682 0004 7047     		bx	lr
ARM GAS  /tmp/cctwxent.s 			page 116


 6684              		.section	.text.HAL_I2C_GetError,"ax",%progbits
 6685              		.align	1
 6686              		.global	HAL_I2C_GetError
 6687              		.thumb
 6688              		.thumb_func
 6690              	HAL_I2C_GetError:
 6691              		@ args = 0, pretend = 0, frame = 0
 6692              		@ frame_needed = 0, uses_anonymous_args = 0
 6693              		@ link register save eliminated.
 6694 0000 006C     		ldr	r0, [r0, #64]
 6695 0002 7047     		bx	lr
 6697              		.ident	"GCC: (15:4.9.3+svn231177-1) 4.9.3 20150529 (prerelease)"
ARM GAS  /tmp/cctwxent.s 			page 117


DEFINED SYMBOLS
                            *ABS*:0000000000000000 stm32f1xx_hal_i2c.c
     /tmp/cctwxent.s:16     .text.HAL_I2C_MspInit:0000000000000000 $t
     /tmp/cctwxent.s:21     .text.HAL_I2C_MspInit:0000000000000000 HAL_I2C_MspInit
     /tmp/cctwxent.s:28     .text.HAL_I2C_MspDeInit:0000000000000000 $t
     /tmp/cctwxent.s:33     .text.HAL_I2C_MspDeInit:0000000000000000 HAL_I2C_MspDeInit
     /tmp/cctwxent.s:40     .text.HAL_I2C_MasterTxCpltCallback:0000000000000000 $t
     /tmp/cctwxent.s:45     .text.HAL_I2C_MasterTxCpltCallback:0000000000000000 HAL_I2C_MasterTxCpltCallback
     /tmp/cctwxent.s:52     .text.HAL_I2C_MasterRxCpltCallback:0000000000000000 $t
     /tmp/cctwxent.s:57     .text.HAL_I2C_MasterRxCpltCallback:0000000000000000 HAL_I2C_MasterRxCpltCallback
     /tmp/cctwxent.s:64     .text.HAL_I2C_SlaveTxCpltCallback:0000000000000000 $t
     /tmp/cctwxent.s:69     .text.HAL_I2C_SlaveTxCpltCallback:0000000000000000 HAL_I2C_SlaveTxCpltCallback
     /tmp/cctwxent.s:76     .text.HAL_I2C_SlaveRxCpltCallback:0000000000000000 $t
     /tmp/cctwxent.s:81     .text.HAL_I2C_SlaveRxCpltCallback:0000000000000000 HAL_I2C_SlaveRxCpltCallback
     /tmp/cctwxent.s:88     .text.HAL_I2C_AddrCallback:0000000000000000 $t
     /tmp/cctwxent.s:93     .text.HAL_I2C_AddrCallback:0000000000000000 HAL_I2C_AddrCallback
     /tmp/cctwxent.s:100    .text.HAL_I2C_ListenCpltCallback:0000000000000000 $t
     /tmp/cctwxent.s:105    .text.HAL_I2C_ListenCpltCallback:0000000000000000 HAL_I2C_ListenCpltCallback
     /tmp/cctwxent.s:112    .text.HAL_I2C_MemTxCpltCallback:0000000000000000 $t
     /tmp/cctwxent.s:117    .text.HAL_I2C_MemTxCpltCallback:0000000000000000 HAL_I2C_MemTxCpltCallback
     /tmp/cctwxent.s:124    .text.HAL_I2C_MemRxCpltCallback:0000000000000000 $t
     /tmp/cctwxent.s:129    .text.HAL_I2C_MemRxCpltCallback:0000000000000000 HAL_I2C_MemRxCpltCallback
     /tmp/cctwxent.s:136    .text.HAL_I2C_ErrorCallback:0000000000000000 $t
     /tmp/cctwxent.s:141    .text.HAL_I2C_ErrorCallback:0000000000000000 HAL_I2C_ErrorCallback
     /tmp/cctwxent.s:148    .text.HAL_I2C_AbortCpltCallback:0000000000000000 $t
     /tmp/cctwxent.s:153    .text.HAL_I2C_AbortCpltCallback:0000000000000000 HAL_I2C_AbortCpltCallback
     /tmp/cctwxent.s:160    .text.I2C_DMAXferCplt:0000000000000000 $t
     /tmp/cctwxent.s:164    .text.I2C_DMAXferCplt:0000000000000000 I2C_DMAXferCplt
     /tmp/cctwxent.s:282    .text.I2C_DMAError:0000000000000000 $t
     /tmp/cctwxent.s:286    .text.I2C_DMAError:0000000000000000 I2C_DMAError
     /tmp/cctwxent.s:311    .text.I2C_DMAAbort:0000000000000000 $t
     /tmp/cctwxent.s:315    .text.I2C_DMAAbort:0000000000000000 I2C_DMAAbort
     /tmp/cctwxent.s:370    .text.I2C_IsAcknowledgeFailed:0000000000000000 $t
     /tmp/cctwxent.s:374    .text.I2C_IsAcknowledgeFailed:0000000000000000 I2C_IsAcknowledgeFailed
     /tmp/cctwxent.s:400    .text.I2C_WaitOnMasterAddressFlagUntilTimeout:0000000000000000 $t
     /tmp/cctwxent.s:404    .text.I2C_WaitOnMasterAddressFlagUntilTimeout:0000000000000000 I2C_WaitOnMasterAddressFlagUntilTimeout
     /tmp/cctwxent.s:468    .text.I2C_ITError:0000000000000000 $t
     /tmp/cctwxent.s:472    .text.I2C_ITError:0000000000000000 I2C_ITError
     /tmp/cctwxent.s:626    .text.I2C_ITError:0000000000000140 $d
     /tmp/cctwxent.s:630    .text.I2C_WaitOnFlagUntilTimeout:0000000000000000 $t
     /tmp/cctwxent.s:634    .text.I2C_WaitOnFlagUntilTimeout:0000000000000000 I2C_WaitOnFlagUntilTimeout
     /tmp/cctwxent.s:683    .text.I2C_WaitOnTXEFlagUntilTimeout:0000000000000000 $t
     /tmp/cctwxent.s:687    .text.I2C_WaitOnTXEFlagUntilTimeout:0000000000000000 I2C_WaitOnTXEFlagUntilTimeout
     /tmp/cctwxent.s:729    .text.I2C_RequestMemoryWrite:0000000000000000 $t
     /tmp/cctwxent.s:733    .text.I2C_RequestMemoryWrite:0000000000000000 I2C_RequestMemoryWrite
     /tmp/cctwxent.s:807    .text.I2C_RequestMemoryWrite:0000000000000094 $d
     /tmp/cctwxent.s:810    .text.I2C_RequestMemoryRead:0000000000000000 $t
     /tmp/cctwxent.s:814    .text.I2C_RequestMemoryRead:0000000000000000 I2C_RequestMemoryRead
     /tmp/cctwxent.s:921    .text.I2C_RequestMemoryRead:00000000000000e4 $d
     /tmp/cctwxent.s:924    .text.I2C_WaitOnBTFFlagUntilTimeout:0000000000000000 $t
     /tmp/cctwxent.s:928    .text.I2C_WaitOnBTFFlagUntilTimeout:0000000000000000 I2C_WaitOnBTFFlagUntilTimeout
     /tmp/cctwxent.s:970    .text.I2C_WaitOnRXNEFlagUntilTimeout:0000000000000000 $t
     /tmp/cctwxent.s:974    .text.I2C_WaitOnRXNEFlagUntilTimeout:0000000000000000 I2C_WaitOnRXNEFlagUntilTimeout
     /tmp/cctwxent.s:1022   .text.HAL_I2C_Init:0000000000000000 $t
     /tmp/cctwxent.s:1027   .text.HAL_I2C_Init:0000000000000000 HAL_I2C_Init
     /tmp/cctwxent.s:1189   .text.HAL_I2C_Init:0000000000000168 $d
     /tmp/cctwxent.s:1206   .text.HAL_I2C_DeInit:0000000000000000 $t
ARM GAS  /tmp/cctwxent.s 			page 118


     /tmp/cctwxent.s:1211   .text.HAL_I2C_DeInit:0000000000000000 HAL_I2C_DeInit
     /tmp/cctwxent.s:1244   .text.HAL_I2C_DeInit:0000000000000044 $d
     /tmp/cctwxent.s:1247   .text.HAL_I2C_RegisterCallback:0000000000000000 $t
     /tmp/cctwxent.s:1252   .text.HAL_I2C_RegisterCallback:0000000000000000 HAL_I2C_RegisterCallback
     /tmp/cctwxent.s:1275   .text.HAL_I2C_RegisterCallback:000000000000002e $d
     /tmp/cctwxent.s:1350   .text.HAL_I2C_UnRegisterCallback:0000000000000000 $t
     /tmp/cctwxent.s:1355   .text.HAL_I2C_UnRegisterCallback:0000000000000000 HAL_I2C_UnRegisterCallback
     /tmp/cctwxent.s:1371   .text.HAL_I2C_UnRegisterCallback:0000000000000020 $d
     /tmp/cctwxent.s:1458   .text.HAL_I2C_UnRegisterCallback:00000000000000a4 $d
     /tmp/cctwxent.s:1471   .text.HAL_I2C_RegisterAddrCallback:0000000000000000 $t
     /tmp/cctwxent.s:1476   .text.HAL_I2C_RegisterAddrCallback:0000000000000000 HAL_I2C_RegisterAddrCallback
     /tmp/cctwxent.s:1511   .text.HAL_I2C_UnRegisterAddrCallback:0000000000000000 $t
     /tmp/cctwxent.s:1516   .text.HAL_I2C_UnRegisterAddrCallback:0000000000000000 HAL_I2C_UnRegisterAddrCallback
     /tmp/cctwxent.s:1546   .text.HAL_I2C_UnRegisterAddrCallback:0000000000000038 $d
     /tmp/cctwxent.s:1549   .text.HAL_I2C_Master_Transmit:0000000000000000 $t
     /tmp/cctwxent.s:1554   .text.HAL_I2C_Master_Transmit:0000000000000000 HAL_I2C_Master_Transmit
     /tmp/cctwxent.s:1740   .text.HAL_I2C_Master_Transmit:000000000000018c $d
     /tmp/cctwxent.s:1746   .text.HAL_I2C_Master_Receive:0000000000000000 $t
     /tmp/cctwxent.s:1751   .text.HAL_I2C_Master_Receive:0000000000000000 HAL_I2C_Master_Receive
     /tmp/cctwxent.s:2068   .text.HAL_I2C_Master_Receive:0000000000000288 $d
     /tmp/cctwxent.s:2074   .text.HAL_I2C_Master_Receive:000000000000029c $t
     /tmp/cctwxent.s:2115   .text.HAL_I2C_Slave_Transmit:0000000000000000 $t
     /tmp/cctwxent.s:2120   .text.HAL_I2C_Slave_Transmit:0000000000000000 HAL_I2C_Slave_Transmit
     /tmp/cctwxent.s:2275   .text.HAL_I2C_Slave_Transmit:0000000000000154 $d
     /tmp/cctwxent.s:2279   .text.HAL_I2C_Slave_Receive:0000000000000000 $t
     /tmp/cctwxent.s:2284   .text.HAL_I2C_Slave_Receive:0000000000000000 HAL_I2C_Slave_Receive
     /tmp/cctwxent.s:2458   .text.HAL_I2C_Slave_Receive:0000000000000178 $d
     /tmp/cctwxent.s:2462   .text.HAL_I2C_Master_Transmit_IT:0000000000000000 $t
     /tmp/cctwxent.s:2467   .text.HAL_I2C_Master_Transmit_IT:0000000000000000 HAL_I2C_Master_Transmit_IT
     /tmp/cctwxent.s:2550   .text.HAL_I2C_Master_Transmit_IT:00000000000000b0 $d
     /tmp/cctwxent.s:2554   .text.HAL_I2C_Master_Receive_IT:0000000000000000 $t
     /tmp/cctwxent.s:2559   .text.HAL_I2C_Master_Receive_IT:0000000000000000 HAL_I2C_Master_Receive_IT
     /tmp/cctwxent.s:2645   .text.HAL_I2C_Master_Receive_IT:00000000000000b8 $d
     /tmp/cctwxent.s:2649   .text.HAL_I2C_Slave_Transmit_IT:0000000000000000 $t
     /tmp/cctwxent.s:2654   .text.HAL_I2C_Slave_Transmit_IT:0000000000000000 HAL_I2C_Slave_Transmit_IT
     /tmp/cctwxent.s:2710   .text.HAL_I2C_Slave_Transmit_IT:0000000000000074 $d
     /tmp/cctwxent.s:2713   .text.HAL_I2C_Slave_Receive_IT:0000000000000000 $t
     /tmp/cctwxent.s:2718   .text.HAL_I2C_Slave_Receive_IT:0000000000000000 HAL_I2C_Slave_Receive_IT
     /tmp/cctwxent.s:2774   .text.HAL_I2C_Slave_Receive_IT:0000000000000074 $d
     /tmp/cctwxent.s:2777   .text.HAL_I2C_Master_Transmit_DMA:0000000000000000 $t
     /tmp/cctwxent.s:2782   .text.HAL_I2C_Master_Transmit_DMA:0000000000000000 HAL_I2C_Master_Transmit_DMA
     /tmp/cctwxent.s:2908   .text.HAL_I2C_Master_Transmit_DMA:0000000000000118 $d
     /tmp/cctwxent.s:2914   .text.HAL_I2C_Master_Receive_DMA:0000000000000000 $t
     /tmp/cctwxent.s:2919   .text.HAL_I2C_Master_Receive_DMA:0000000000000000 HAL_I2C_Master_Receive_DMA
     /tmp/cctwxent.s:3044   .text.HAL_I2C_Master_Receive_DMA:0000000000000114 $d
     /tmp/cctwxent.s:3050   .text.HAL_I2C_Slave_Transmit_DMA:0000000000000000 $t
     /tmp/cctwxent.s:3055   .text.HAL_I2C_Slave_Transmit_DMA:0000000000000000 HAL_I2C_Slave_Transmit_DMA
     /tmp/cctwxent.s:3134   .text.HAL_I2C_Slave_Transmit_DMA:00000000000000b0 $d
     /tmp/cctwxent.s:3139   .text.HAL_I2C_Slave_Receive_DMA:0000000000000000 $t
     /tmp/cctwxent.s:3144   .text.HAL_I2C_Slave_Receive_DMA:0000000000000000 HAL_I2C_Slave_Receive_DMA
     /tmp/cctwxent.s:3224   .text.HAL_I2C_Slave_Receive_DMA:00000000000000b4 $d
     /tmp/cctwxent.s:3229   .text.HAL_I2C_Mem_Write:0000000000000000 $t
     /tmp/cctwxent.s:3234   .text.HAL_I2C_Mem_Write:0000000000000000 HAL_I2C_Mem_Write
     /tmp/cctwxent.s:3367   .text.HAL_I2C_Mem_Write:0000000000000118 $d
     /tmp/cctwxent.s:3371   .text.HAL_I2C_Mem_Read:0000000000000000 $t
     /tmp/cctwxent.s:3376   .text.HAL_I2C_Mem_Read:0000000000000000 HAL_I2C_Mem_Read
     /tmp/cctwxent.s:3661   .text.HAL_I2C_Mem_Read:0000000000000224 $d
ARM GAS  /tmp/cctwxent.s 			page 119


     /tmp/cctwxent.s:3666   .text.HAL_I2C_Mem_Write_IT:0000000000000000 $t
     /tmp/cctwxent.s:3671   .text.HAL_I2C_Mem_Write_IT:0000000000000000 HAL_I2C_Mem_Write_IT
     /tmp/cctwxent.s:3759   .text.HAL_I2C_Mem_Write_IT:00000000000000bc $d
     /tmp/cctwxent.s:3763   .text.HAL_I2C_Mem_Read_IT:0000000000000000 $t
     /tmp/cctwxent.s:3768   .text.HAL_I2C_Mem_Read_IT:0000000000000000 HAL_I2C_Mem_Read_IT
     /tmp/cctwxent.s:3864   .text.HAL_I2C_Mem_Read_IT:00000000000000cc $d
     /tmp/cctwxent.s:3868   .text.HAL_I2C_Mem_Write_DMA:0000000000000000 $t
     /tmp/cctwxent.s:3873   .text.HAL_I2C_Mem_Write_DMA:0000000000000000 HAL_I2C_Mem_Write_DMA
     /tmp/cctwxent.s:4010   .text.HAL_I2C_Mem_Write_DMA:0000000000000138 $d
     /tmp/cctwxent.s:4016   .text.HAL_I2C_Mem_Read_DMA:0000000000000000 $t
     /tmp/cctwxent.s:4021   .text.HAL_I2C_Mem_Read_DMA:0000000000000000 HAL_I2C_Mem_Read_DMA
     /tmp/cctwxent.s:4186   .text.HAL_I2C_Mem_Read_DMA:0000000000000174 $d
     /tmp/cctwxent.s:4192   .text.HAL_I2C_IsDeviceReady:0000000000000000 $t
     /tmp/cctwxent.s:4197   .text.HAL_I2C_IsDeviceReady:0000000000000000 HAL_I2C_IsDeviceReady
     /tmp/cctwxent.s:4334   .text.HAL_I2C_IsDeviceReady:0000000000000134 $d
     /tmp/cctwxent.s:4337   .text.HAL_I2C_Master_Seq_Transmit_IT:0000000000000000 $t
     /tmp/cctwxent.s:4342   .text.HAL_I2C_Master_Seq_Transmit_IT:0000000000000000 HAL_I2C_Master_Seq_Transmit_IT
     /tmp/cctwxent.s:4448   .text.HAL_I2C_Master_Seq_Transmit_IT:00000000000000d8 $d
     /tmp/cctwxent.s:4451   .text.HAL_I2C_Master_Seq_Transmit_DMA:0000000000000000 $t
     /tmp/cctwxent.s:4456   .text.HAL_I2C_Master_Seq_Transmit_DMA:0000000000000000 HAL_I2C_Master_Seq_Transmit_DMA
     /tmp/cctwxent.s:4624   .text.HAL_I2C_Master_Seq_Transmit_DMA:0000000000000160 $d
     /tmp/cctwxent.s:4629   .text.HAL_I2C_Master_Seq_Receive_IT:0000000000000000 $t
     /tmp/cctwxent.s:4634   .text.HAL_I2C_Master_Seq_Receive_IT:0000000000000000 HAL_I2C_Master_Seq_Receive_IT
     /tmp/cctwxent.s:4767   .text.HAL_I2C_Master_Seq_Receive_IT:000000000000010c $d
     /tmp/cctwxent.s:4770   .text.HAL_I2C_Master_Seq_Receive_DMA:0000000000000000 $t
     /tmp/cctwxent.s:4775   .text.HAL_I2C_Master_Seq_Receive_DMA:0000000000000000 HAL_I2C_Master_Seq_Receive_DMA
     /tmp/cctwxent.s:4985   .text.HAL_I2C_Master_Seq_Receive_DMA:00000000000001b8 $d
     /tmp/cctwxent.s:4990   .text.HAL_I2C_Slave_Seq_Transmit_IT:0000000000000000 $t
     /tmp/cctwxent.s:4995   .text.HAL_I2C_Slave_Seq_Transmit_IT:0000000000000000 HAL_I2C_Slave_Seq_Transmit_IT
     /tmp/cctwxent.s:5056   .text.HAL_I2C_Slave_Seq_Transmit_DMA:0000000000000000 $t
     /tmp/cctwxent.s:5061   .text.HAL_I2C_Slave_Seq_Transmit_DMA:0000000000000000 HAL_I2C_Slave_Seq_Transmit_DMA
     /tmp/cctwxent.s:5194   .text.HAL_I2C_Slave_Seq_Transmit_DMA:000000000000012c $d
     /tmp/cctwxent.s:5199   .text.HAL_I2C_Slave_Seq_Receive_IT:0000000000000000 $t
     /tmp/cctwxent.s:5204   .text.HAL_I2C_Slave_Seq_Receive_IT:0000000000000000 HAL_I2C_Slave_Seq_Receive_IT
     /tmp/cctwxent.s:5265   .text.HAL_I2C_Slave_Seq_Receive_DMA:0000000000000000 $t
     /tmp/cctwxent.s:5270   .text.HAL_I2C_Slave_Seq_Receive_DMA:0000000000000000 HAL_I2C_Slave_Seq_Receive_DMA
     /tmp/cctwxent.s:5403   .text.HAL_I2C_Slave_Seq_Receive_DMA:000000000000012c $d
     /tmp/cctwxent.s:5408   .text.HAL_I2C_EnableListen_IT:0000000000000000 $t
     /tmp/cctwxent.s:5413   .text.HAL_I2C_EnableListen_IT:0000000000000000 HAL_I2C_EnableListen_IT
     /tmp/cctwxent.s:5442   .text.HAL_I2C_DisableListen_IT:0000000000000000 $t
     /tmp/cctwxent.s:5447   .text.HAL_I2C_DisableListen_IT:0000000000000000 HAL_I2C_DisableListen_IT
     /tmp/cctwxent.s:5477   .text.HAL_I2C_Master_Abort_IT:0000000000000000 $t
     /tmp/cctwxent.s:5482   .text.HAL_I2C_Master_Abort_IT:0000000000000000 HAL_I2C_Master_Abort_IT
     /tmp/cctwxent.s:5519   .text.HAL_I2C_EV_IRQHandler:0000000000000000 $t
     /tmp/cctwxent.s:5524   .text.HAL_I2C_EV_IRQHandler:0000000000000000 HAL_I2C_EV_IRQHandler
     /tmp/cctwxent.s:6509   .text.HAL_I2C_EV_IRQHandler:0000000000000818 $d
     /tmp/cctwxent.s:6513   .text.HAL_I2C_ER_IRQHandler:0000000000000000 $t
     /tmp/cctwxent.s:6518   .text.HAL_I2C_ER_IRQHandler:0000000000000000 HAL_I2C_ER_IRQHandler
     /tmp/cctwxent.s:6656   .text.HAL_I2C_ER_IRQHandler:000000000000012c $d
     /tmp/cctwxent.s:6659   .text.HAL_I2C_GetState:0000000000000000 $t
     /tmp/cctwxent.s:6664   .text.HAL_I2C_GetState:0000000000000000 HAL_I2C_GetState
     /tmp/cctwxent.s:6672   .text.HAL_I2C_GetMode:0000000000000000 $t
     /tmp/cctwxent.s:6677   .text.HAL_I2C_GetMode:0000000000000000 HAL_I2C_GetMode
     /tmp/cctwxent.s:6685   .text.HAL_I2C_GetError:0000000000000000 $t
     /tmp/cctwxent.s:6690   .text.HAL_I2C_GetError:0000000000000000 HAL_I2C_GetError
     /tmp/cctwxent.s:1286   .text.HAL_I2C_RegisterCallback:0000000000000039 $d
     /tmp/cctwxent.s:1286   .text.HAL_I2C_RegisterCallback:000000000000003a $t
ARM GAS  /tmp/cctwxent.s 			page 120


     /tmp/cctwxent.s:1382   .text.HAL_I2C_UnRegisterCallback:000000000000002b $d
     /tmp/cctwxent.s:1382   .text.HAL_I2C_UnRegisterCallback:000000000000002c $t

UNDEFINED SYMBOLS
HAL_GetTick
HAL_DMA_Abort_IT
HAL_RCC_GetPCLK1Freq
SystemCoreClock
HAL_DMA_Start_IT
HAL_DMA_GetState
