ARM GAS  /tmp/cccmzW7L.s 			page 1


   1              		.cpu cortex-m3
   2              		.eabi_attribute 20, 1
   3              		.eabi_attribute 21, 1
   4              		.eabi_attribute 23, 3
   5              		.eabi_attribute 24, 1
   6              		.eabi_attribute 25, 1
   7              		.eabi_attribute 26, 1
   8              		.eabi_attribute 30, 4
   9              		.eabi_attribute 34, 1
  10              		.eabi_attribute 18, 4
  11              		.file	"stm32f1xx_hal_flash_ex.c"
  12              		.text
  13              		.section	.text.FLASH_MassErase.isra.0,"ax",%progbits
  14              		.align	1
  15              		.arch armv7-m
  16              		.syntax unified
  17              		.thumb
  18              		.thumb_func
  19              		.fpu softvfp
  21              	FLASH_MassErase.isra.0:
  22              		@ args = 0, pretend = 0, frame = 0
  23              		@ frame_needed = 0, uses_anonymous_args = 0
  24              		@ link register save eliminated.
  25 0000 0022     		movs	r2, #0
  26 0002 064B     		ldr	r3, .L2
  27 0004 DA61     		str	r2, [r3, #28]
  28 0006 064B     		ldr	r3, .L2+4
  29 0008 1A69     		ldr	r2, [r3, #16]
  30 000a 42F00402 		orr	r2, r2, #4
  31 000e 1A61     		str	r2, [r3, #16]
  32 0010 1A69     		ldr	r2, [r3, #16]
  33 0012 42F04002 		orr	r2, r2, #64
  34 0016 1A61     		str	r2, [r3, #16]
  35 0018 7047     		bx	lr
  36              	.L3:
  37 001a 00BF     		.align	2
  38              	.L2:
  39 001c 00000000 		.word	pFlash
  40 0020 00200240 		.word	1073881088
  42              		.section	.text.FLASH_OB_RDP_LevelConfig,"ax",%progbits
  43              		.align	1
  44              		.syntax unified
  45              		.thumb
  46              		.thumb_func
  47              		.fpu softvfp
  49              	FLASH_OB_RDP_LevelConfig:
  50              		@ args = 0, pretend = 0, frame = 0
  51              		@ frame_needed = 0, uses_anonymous_args = 0
  52 0000 38B5     		push	{r3, r4, r5, lr}
  53 0002 0546     		mov	r5, r0
  54 0004 4CF25030 		movw	r0, #50000
  55 0008 FFF7FEFF 		bl	FLASH_WaitForLastOperation
  56 000c 10BB     		cbnz	r0, .L5
  57 000e 124B     		ldr	r3, .L6
  58 0010 124C     		ldr	r4, .L6+4
  59 0012 D861     		str	r0, [r3, #28]
  60 0014 2369     		ldr	r3, [r4, #16]
ARM GAS  /tmp/cccmzW7L.s 			page 2


  61 0016 4CF25030 		movw	r0, #50000
  62 001a 43F02003 		orr	r3, r3, #32
  63 001e 2361     		str	r3, [r4, #16]
  64 0020 2369     		ldr	r3, [r4, #16]
  65 0022 43F04003 		orr	r3, r3, #64
  66 0026 2361     		str	r3, [r4, #16]
  67 0028 FFF7FEFF 		bl	FLASH_WaitForLastOperation
  68 002c 2369     		ldr	r3, [r4, #16]
  69 002e 23F02003 		bic	r3, r3, #32
  70 0032 2361     		str	r3, [r4, #16]
  71 0034 70B9     		cbnz	r0, .L5
  72 0036 2369     		ldr	r3, [r4, #16]
  73 0038 ADB2     		uxth	r5, r5
  74 003a 43F01003 		orr	r3, r3, #16
  75 003e 2361     		str	r3, [r4, #16]
  76 0040 074B     		ldr	r3, .L6+8
  77 0042 4CF25030 		movw	r0, #50000
  78 0046 1D80     		strh	r5, [r3]	@ movhi
  79 0048 FFF7FEFF 		bl	FLASH_WaitForLastOperation
  80 004c 2369     		ldr	r3, [r4, #16]
  81 004e 23F01003 		bic	r3, r3, #16
  82 0052 2361     		str	r3, [r4, #16]
  83              	.L5:
  84 0054 38BD     		pop	{r3, r4, r5, pc}
  85              	.L7:
  86 0056 00BF     		.align	2
  87              	.L6:
  88 0058 00000000 		.word	pFlash
  89 005c 00200240 		.word	1073881088
  90 0060 00F8FF1F 		.word	536868864
  92              		.section	.text.HAL_FLASHEx_OBErase,"ax",%progbits
  93              		.align	1
  94              		.global	HAL_FLASHEx_OBErase
  95              		.syntax unified
  96              		.thumb
  97              		.thumb_func
  98              		.fpu softvfp
 100              	HAL_FLASHEx_OBErase:
 101              		@ args = 0, pretend = 0, frame = 0
 102              		@ frame_needed = 0, uses_anonymous_args = 0
 103 0000 38B5     		push	{r3, r4, r5, lr}
 104 0002 124C     		ldr	r4, .L12
 105 0004 4CF25030 		movw	r0, #50000
 106 0008 E369     		ldr	r3, [r4, #28]
 107 000a 13F0020F 		tst	r3, #2
 108 000e 14BF     		ite	ne
 109 0010 0025     		movne	r5, #0
 110 0012 A525     		moveq	r5, #165
 111 0014 FFF7FEFF 		bl	FLASH_WaitForLastOperation
 112 0018 B8B9     		cbnz	r0, .L10
 113 001a 0D4A     		ldr	r2, .L12+4
 114 001c D061     		str	r0, [r2, #28]
 115 001e 2369     		ldr	r3, [r4, #16]
 116 0020 4CF25030 		movw	r0, #50000
 117 0024 43F02003 		orr	r3, r3, #32
 118 0028 2361     		str	r3, [r4, #16]
 119 002a 2369     		ldr	r3, [r4, #16]
ARM GAS  /tmp/cccmzW7L.s 			page 3


 120 002c 43F04003 		orr	r3, r3, #64
 121 0030 2361     		str	r3, [r4, #16]
 122 0032 FFF7FEFF 		bl	FLASH_WaitForLastOperation
 123 0036 2369     		ldr	r3, [r4, #16]
 124 0038 23F02003 		bic	r3, r3, #32
 125 003c 2361     		str	r3, [r4, #16]
 126 003e 20B9     		cbnz	r0, .L10
 127 0040 2846     		mov	r0, r5
 128 0042 BDE83840 		pop	{r3, r4, r5, lr}
 129 0046 FFF7FEBF 		b	FLASH_OB_RDP_LevelConfig
 130              	.L10:
 131 004a 38BD     		pop	{r3, r4, r5, pc}
 132              	.L13:
 133              		.align	2
 134              	.L12:
 135 004c 00200240 		.word	1073881088
 136 0050 00000000 		.word	pFlash
 138              		.section	.text.HAL_FLASHEx_OBProgram,"ax",%progbits
 139              		.align	1
 140              		.global	HAL_FLASHEx_OBProgram
 141              		.syntax unified
 142              		.thumb
 143              		.thumb_func
 144              		.fpu softvfp
 146              	HAL_FLASHEx_OBProgram:
 147              		@ args = 0, pretend = 0, frame = 0
 148              		@ frame_needed = 0, uses_anonymous_args = 0
 149 0000 2DE9F041 		push	{r4, r5, r6, r7, r8, lr}
 150 0004 764C     		ldr	r4, .L84
 151 0006 0546     		mov	r5, r0
 152 0008 237E     		ldrb	r3, [r4, #24]	@ zero_extendqisi2
 153 000a 012B     		cmp	r3, #1
 154 000c 00F0E680 		beq	.L41
 155 0010 0120     		movs	r0, #1
 156 0012 2076     		strb	r0, [r4, #24]
 157 0014 2B68     		ldr	r3, [r5]
 158 0016 DE07     		lsls	r6, r3, #31
 159 0018 40F19D80 		bpl	.L16
 160 001c D5E90136 		ldrd	r3, r6, [r5, #4]
 161 0020 704F     		ldr	r7, .L84+4
 162 0022 8342     		cmp	r3, r0
 163 0024 D7F82080 		ldr	r8, [r7, #32]
 164 0028 4CF25030 		movw	r0, #50000
 165 002c 4ED1     		bne	.L17
 166 002e FFF7FEFF 		bl	FLASH_WaitForLastOperation
 167 0032 0028     		cmp	r0, #0
 168 0034 3DD1     		bne	.L39
 169 0036 E061     		str	r0, [r4, #28]
 170 0038 FFF7FEFF 		bl	HAL_FLASHEx_OBErase
 171 003c 0028     		cmp	r0, #0
 172 003e 38D1     		bne	.L39
 173 0040 3A69     		ldr	r2, [r7, #16]
 174 0042 28EA0606 		bic	r6, r8, r6
 175 0046 F3B2     		uxtb	r3, r6
 176 0048 42F01002 		orr	r2, r2, #16
 177 004c FF2B     		cmp	r3, #255
 178 004e 3A61     		str	r2, [r7, #16]
ARM GAS  /tmp/cccmzW7L.s 			page 4


 179 0050 1ED1     		bne	.L19
 180              	.L22:
 181 0052 C6F30723 		ubfx	r3, r6, #8, #8
 182 0056 FF2B     		cmp	r3, #255
 183 0058 08D0     		beq	.L21
 184 005a 634A     		ldr	r2, .L84+8
 185 005c 4CF25030 		movw	r0, #50000
 186 0060 5189     		ldrh	r1, [r2, #10]
 187 0062 0B40     		ands	r3, r3, r1
 188 0064 5381     		strh	r3, [r2, #10]	@ movhi
 189 0066 FFF7FEFF 		bl	FLASH_WaitForLastOperation
 190 006a D8B9     		cbnz	r0, .L32
 191              	.L21:
 192 006c C6F30743 		ubfx	r3, r6, #16, #8
 193 0070 FF2B     		cmp	r3, #255
 194 0072 08D0     		beq	.L25
 195 0074 5C4A     		ldr	r2, .L84+8
 196 0076 4CF25030 		movw	r0, #50000
 197 007a 9189     		ldrh	r1, [r2, #12]
 198 007c 0B40     		ands	r3, r3, r1
 199 007e 9381     		strh	r3, [r2, #12]	@ movhi
 200 0080 FFF7FEFF 		bl	FLASH_WaitForLastOperation
 201 0084 70B9     		cbnz	r0, .L32
 202              	.L25:
 203 0086 360E     		lsrs	r6, r6, #24
 204 0088 FF2E     		cmp	r6, #255
 205 008a 16D1     		bne	.L26
 206              	.L83:
 207 008c 0020     		movs	r0, #0
 208 008e 09E0     		b	.L32
 209              	.L19:
 210 0090 554A     		ldr	r2, .L84+8
 211 0092 4CF25030 		movw	r0, #50000
 212 0096 1189     		ldrh	r1, [r2, #8]
 213 0098 0B40     		ands	r3, r3, r1
 214 009a 1381     		strh	r3, [r2, #8]	@ movhi
 215 009c FFF7FEFF 		bl	FLASH_WaitForLastOperation
 216 00a0 0028     		cmp	r0, #0
 217 00a2 D6D0     		beq	.L22
 218              	.L32:
 219 00a4 4F4A     		ldr	r2, .L84+4
 220 00a6 1369     		ldr	r3, [r2, #16]
 221 00a8 23F01003 		bic	r3, r3, #16
 222 00ac 1361     		str	r3, [r2, #16]
 223 00ae 0028     		cmp	r0, #0
 224 00b0 51D0     		beq	.L16
 225              	.L39:
 226 00b2 0023     		movs	r3, #0
 227 00b4 2376     		strb	r3, [r4, #24]
 228              	.L15:
 229 00b6 BDE8F081 		pop	{r4, r5, r6, r7, r8, pc}
 230              	.L26:
 231 00ba 4B4B     		ldr	r3, .L84+8
 232 00bc DA89     		ldrh	r2, [r3, #14]
 233 00be 1640     		ands	r6, r6, r2
 234 00c0 DE81     		strh	r6, [r3, #14]	@ movhi
 235              	.L82:
ARM GAS  /tmp/cccmzW7L.s 			page 5


 236 00c2 4CF25030 		movw	r0, #50000
 237 00c6 FFF7FEFF 		bl	FLASH_WaitForLastOperation
 238 00ca EBE7     		b	.L32
 239              	.L17:
 240 00cc FFF7FEFF 		bl	FLASH_WaitForLastOperation
 241 00d0 0028     		cmp	r0, #0
 242 00d2 EED1     		bne	.L39
 243 00d4 E061     		str	r0, [r4, #28]
 244 00d6 FFF7FEFF 		bl	HAL_FLASHEx_OBErase
 245 00da 0028     		cmp	r0, #0
 246 00dc E9D1     		bne	.L39
 247 00de 3A69     		ldr	r2, [r7, #16]
 248 00e0 48EA0606 		orr	r6, r8, r6
 249 00e4 F3B2     		uxtb	r3, r6
 250 00e6 42F01002 		orr	r2, r2, #16
 251 00ea FF2B     		cmp	r3, #255
 252 00ec 3A61     		str	r2, [r7, #16]
 253 00ee 26D1     		bne	.L28
 254              	.L31:
 255 00f0 C6F30723 		ubfx	r3, r6, #8, #8
 256 00f4 FF2B     		cmp	r3, #255
 257 00f6 0AD0     		beq	.L30
 258 00f8 3B49     		ldr	r1, .L84+8
 259 00fa 4CF25030 		movw	r0, #50000
 260 00fe 4A89     		ldrh	r2, [r1, #10]
 261 0100 92B2     		uxth	r2, r2
 262 0102 1343     		orrs	r3, r3, r2
 263 0104 4B81     		strh	r3, [r1, #10]	@ movhi
 264 0106 FFF7FEFF 		bl	FLASH_WaitForLastOperation
 265 010a 0028     		cmp	r0, #0
 266 010c CAD1     		bne	.L32
 267              	.L30:
 268 010e C6F30743 		ubfx	r3, r6, #16, #8
 269 0112 FF2B     		cmp	r3, #255
 270 0114 0AD0     		beq	.L34
 271 0116 3449     		ldr	r1, .L84+8
 272 0118 4CF25030 		movw	r0, #50000
 273 011c 8A89     		ldrh	r2, [r1, #12]
 274 011e 92B2     		uxth	r2, r2
 275 0120 1343     		orrs	r3, r3, r2
 276 0122 8B81     		strh	r3, [r1, #12]	@ movhi
 277 0124 FFF7FEFF 		bl	FLASH_WaitForLastOperation
 278 0128 0028     		cmp	r0, #0
 279 012a BBD1     		bne	.L32
 280              	.L34:
 281 012c 360E     		lsrs	r6, r6, #24
 282 012e FF2E     		cmp	r6, #255
 283 0130 ACD0     		beq	.L83
 284 0132 2D4A     		ldr	r2, .L84+8
 285 0134 D389     		ldrh	r3, [r2, #14]
 286 0136 9BB2     		uxth	r3, r3
 287 0138 1E43     		orrs	r6, r6, r3
 288 013a D681     		strh	r6, [r2, #14]	@ movhi
 289 013c C1E7     		b	.L82
 290              	.L28:
 291 013e 2A49     		ldr	r1, .L84+8
 292 0140 4CF25030 		movw	r0, #50000
ARM GAS  /tmp/cccmzW7L.s 			page 6


 293 0144 0A89     		ldrh	r2, [r1, #8]
 294 0146 92B2     		uxth	r2, r2
 295 0148 1343     		orrs	r3, r3, r2
 296 014a 0B81     		strh	r3, [r1, #8]	@ movhi
 297 014c FFF7FEFF 		bl	FLASH_WaitForLastOperation
 298 0150 0028     		cmp	r0, #0
 299 0152 A7D1     		bne	.L32
 300 0154 CCE7     		b	.L31
 301              	.L16:
 302 0156 2B68     		ldr	r3, [r5]
 303 0158 9907     		lsls	r1, r3, #30
 304 015a 04D5     		bpl	.L36
 305 015c 287C     		ldrb	r0, [r5, #16]	@ zero_extendqisi2
 306 015e FFF7FEFF 		bl	FLASH_OB_RDP_LevelConfig
 307 0162 0028     		cmp	r0, #0
 308 0164 A5D1     		bne	.L39
 309              	.L36:
 310 0166 2B68     		ldr	r3, [r5]
 311 0168 5A07     		lsls	r2, r3, #29
 312 016a 1AD5     		bpl	.L37
 313 016c 4CF25030 		movw	r0, #50000
 314 0170 6F7C     		ldrb	r7, [r5, #17]	@ zero_extendqisi2
 315 0172 FFF7FEFF 		bl	FLASH_WaitForLastOperation
 316 0176 0028     		cmp	r0, #0
 317 0178 9BD1     		bne	.L39
 318 017a 1A4E     		ldr	r6, .L84+4
 319 017c E061     		str	r0, [r4, #28]
 320 017e 3369     		ldr	r3, [r6, #16]
 321 0180 47F08807 		orr	r7, r7, #136
 322 0184 43F01003 		orr	r3, r3, #16
 323 0188 3361     		str	r3, [r6, #16]
 324 018a 174B     		ldr	r3, .L84+8
 325 018c 4CF25030 		movw	r0, #50000
 326 0190 5F80     		strh	r7, [r3, #2]	@ movhi
 327 0192 FFF7FEFF 		bl	FLASH_WaitForLastOperation
 328 0196 3369     		ldr	r3, [r6, #16]
 329 0198 23F01003 		bic	r3, r3, #16
 330 019c 3361     		str	r3, [r6, #16]
 331 019e 0028     		cmp	r0, #0
 332 01a0 87D1     		bne	.L39
 333              	.L37:
 334 01a2 2B68     		ldr	r3, [r5]
 335 01a4 1B07     		lsls	r3, r3, #28
 336 01a6 84D5     		bpl	.L39
 337 01a8 4CF25030 		movw	r0, #50000
 338 01ac 6F69     		ldr	r7, [r5, #20]
 339 01ae 2E7E     		ldrb	r6, [r5, #24]	@ zero_extendqisi2
 340 01b0 FFF7FEFF 		bl	FLASH_WaitForLastOperation
 341 01b4 0028     		cmp	r0, #0
 342 01b6 7FF47CAF 		bne	.L39
 343 01ba 0A4D     		ldr	r5, .L84+4
 344 01bc E061     		str	r0, [r4, #28]
 345 01be 2B69     		ldr	r3, [r5, #16]
 346 01c0 B6B2     		uxth	r6, r6
 347 01c2 43F01003 		orr	r3, r3, #16
 348 01c6 2B61     		str	r3, [r5, #16]
 349 01c8 4CF25030 		movw	r0, #50000
ARM GAS  /tmp/cccmzW7L.s 			page 7


 350 01cc 3E80     		strh	r6, [r7]	@ movhi
 351 01ce FFF7FEFF 		bl	FLASH_WaitForLastOperation
 352 01d2 2B69     		ldr	r3, [r5, #16]
 353 01d4 23F01003 		bic	r3, r3, #16
 354 01d8 2B61     		str	r3, [r5, #16]
 355 01da 6AE7     		b	.L39
 356              	.L41:
 357 01dc 0220     		movs	r0, #2
 358 01de 6AE7     		b	.L15
 359              	.L85:
 360              		.align	2
 361              	.L84:
 362 01e0 00000000 		.word	pFlash
 363 01e4 00200240 		.word	1073881088
 364 01e8 00F8FF1F 		.word	536868864
 366              		.section	.text.HAL_FLASHEx_OBGetConfig,"ax",%progbits
 367              		.align	1
 368              		.global	HAL_FLASHEx_OBGetConfig
 369              		.syntax unified
 370              		.thumb
 371              		.thumb_func
 372              		.fpu softvfp
 374              	HAL_FLASHEx_OBGetConfig:
 375              		@ args = 0, pretend = 0, frame = 0
 376              		@ frame_needed = 0, uses_anonymous_args = 0
 377              		@ link register save eliminated.
 378 0000 0723     		movs	r3, #7
 379 0002 0360     		str	r3, [r0]
 380 0004 074B     		ldr	r3, .L89
 381 0006 1A6A     		ldr	r2, [r3, #32]
 382 0008 8260     		str	r2, [r0, #8]
 383 000a DA69     		ldr	r2, [r3, #28]
 384 000c 12F0020F 		tst	r2, #2
 385 0010 14BF     		ite	ne
 386 0012 0022     		movne	r2, #0
 387 0014 A522     		moveq	r2, #165
 388 0016 0274     		strb	r2, [r0, #16]
 389 0018 DB69     		ldr	r3, [r3, #28]
 390 001a C3F38203 		ubfx	r3, r3, #2, #3
 391 001e 4374     		strb	r3, [r0, #17]
 392 0020 7047     		bx	lr
 393              	.L90:
 394 0022 00BF     		.align	2
 395              	.L89:
 396 0024 00200240 		.word	1073881088
 398              		.section	.text.HAL_FLASHEx_OBGetUserData,"ax",%progbits
 399              		.align	1
 400              		.global	HAL_FLASHEx_OBGetUserData
 401              		.syntax unified
 402              		.thumb
 403              		.thumb_func
 404              		.fpu softvfp
 406              	HAL_FLASHEx_OBGetUserData:
 407              		@ args = 0, pretend = 0, frame = 0
 408              		@ frame_needed = 0, uses_anonymous_args = 0
 409              		@ link register save eliminated.
 410 0000 044B     		ldr	r3, .L94
ARM GAS  /tmp/cccmzW7L.s 			page 8


 411 0002 9842     		cmp	r0, r3
 412 0004 044B     		ldr	r3, .L94+4
 413 0006 D869     		ldr	r0, [r3, #28]
 414 0008 0CBF     		ite	eq
 415 000a C0F38720 		ubfxeq	r0, r0, #10, #8
 416 000e C0F38740 		ubfxne	r0, r0, #18, #8
 417 0012 7047     		bx	lr
 418              	.L95:
 419              		.align	2
 420              	.L94:
 421 0014 04F8FF1F 		.word	536868868
 422 0018 00200240 		.word	1073881088
 424              		.section	.text.FLASH_PageErase,"ax",%progbits
 425              		.align	1
 426              		.global	FLASH_PageErase
 427              		.syntax unified
 428              		.thumb
 429              		.thumb_func
 430              		.fpu softvfp
 432              	FLASH_PageErase:
 433              		@ args = 0, pretend = 0, frame = 0
 434              		@ frame_needed = 0, uses_anonymous_args = 0
 435              		@ link register save eliminated.
 436 0000 0022     		movs	r2, #0
 437 0002 064B     		ldr	r3, .L97
 438 0004 DA61     		str	r2, [r3, #28]
 439 0006 064B     		ldr	r3, .L97+4
 440 0008 1A69     		ldr	r2, [r3, #16]
 441 000a 42F00202 		orr	r2, r2, #2
 442 000e 1A61     		str	r2, [r3, #16]
 443 0010 5861     		str	r0, [r3, #20]
 444 0012 1A69     		ldr	r2, [r3, #16]
 445 0014 42F04002 		orr	r2, r2, #64
 446 0018 1A61     		str	r2, [r3, #16]
 447 001a 7047     		bx	lr
 448              	.L98:
 449              		.align	2
 450              	.L97:
 451 001c 00000000 		.word	pFlash
 452 0020 00200240 		.word	1073881088
 454              		.section	.text.HAL_FLASHEx_Erase,"ax",%progbits
 455              		.align	1
 456              		.global	HAL_FLASHEx_Erase
 457              		.syntax unified
 458              		.thumb
 459              		.thumb_func
 460              		.fpu softvfp
 462              	HAL_FLASHEx_Erase:
 463              		@ args = 0, pretend = 0, frame = 0
 464              		@ frame_needed = 0, uses_anonymous_args = 0
 465 0000 2DE9F041 		push	{r4, r5, r6, r7, r8, lr}
 466 0004 224E     		ldr	r6, .L109
 467 0006 0546     		mov	r5, r0
 468 0008 337E     		ldrb	r3, [r6, #24]	@ zero_extendqisi2
 469 000a 8846     		mov	r8, r1
 470 000c 012B     		cmp	r3, #1
 471 000e 3DD0     		beq	.L108
ARM GAS  /tmp/cccmzW7L.s 			page 9


 472 0010 0124     		movs	r4, #1
 473 0012 3476     		strb	r4, [r6, #24]
 474 0014 0368     		ldr	r3, [r0]
 475 0016 4CF25030 		movw	r0, #50000
 476 001a 022B     		cmp	r3, #2
 477 001c 13D1     		bne	.L101
 478 001e FFF7FEFF 		bl	FLASH_WaitForLastOperation
 479 0022 20B1     		cbz	r0, .L102
 480              	.L104:
 481 0024 0120     		movs	r0, #1
 482              	.L103:
 483 0026 0023     		movs	r3, #0
 484 0028 3376     		strb	r3, [r6, #24]
 485              	.L100:
 486 002a BDE8F081 		pop	{r4, r5, r6, r7, r8, pc}
 487              	.L102:
 488 002e FFF7FEFF 		bl	FLASH_MassErase.isra.0
 489 0032 4CF25030 		movw	r0, #50000
 490 0036 FFF7FEFF 		bl	FLASH_WaitForLastOperation
 491 003a 164A     		ldr	r2, .L109+4
 492 003c 1369     		ldr	r3, [r2, #16]
 493 003e 23F00403 		bic	r3, r3, #4
 494 0042 1361     		str	r3, [r2, #16]
 495 0044 EFE7     		b	.L103
 496              	.L101:
 497 0046 FFF7FEFF 		bl	FLASH_WaitForLastOperation
 498 004a 0028     		cmp	r0, #0
 499 004c EAD1     		bne	.L104
 500 004e 4FF0FF33 		mov	r3, #-1
 501 0052 C8F80030 		str	r3, [r8]
 502 0056 2046     		mov	r0, r4
 503 0058 AF68     		ldr	r7, [r5, #8]
 504 005a 0E4C     		ldr	r4, .L109+4
 505              	.L105:
 506 005c D5E90232 		ldrd	r3, r2, [r5, #8]
 507 0060 03EBC223 		add	r3, r3, r2, lsl #11
 508 0064 BB42     		cmp	r3, r7
 509 0066 DED9     		bls	.L103
 510 0068 3846     		mov	r0, r7
 511 006a FFF7FEFF 		bl	FLASH_PageErase
 512 006e 4CF25030 		movw	r0, #50000
 513 0072 FFF7FEFF 		bl	FLASH_WaitForLastOperation
 514 0076 2369     		ldr	r3, [r4, #16]
 515 0078 23F00203 		bic	r3, r3, #2
 516 007c 2361     		str	r3, [r4, #16]
 517 007e 10B1     		cbz	r0, .L106
 518 0080 C8F80070 		str	r7, [r8]
 519 0084 CFE7     		b	.L103
 520              	.L106:
 521 0086 07F50067 		add	r7, r7, #2048
 522 008a E7E7     		b	.L105
 523              	.L108:
 524 008c 0220     		movs	r0, #2
 525 008e CCE7     		b	.L100
 526              	.L110:
 527              		.align	2
 528              	.L109:
ARM GAS  /tmp/cccmzW7L.s 			page 10


 529 0090 00000000 		.word	pFlash
 530 0094 00200240 		.word	1073881088
 532              		.section	.text.HAL_FLASHEx_Erase_IT,"ax",%progbits
 533              		.align	1
 534              		.global	HAL_FLASHEx_Erase_IT
 535              		.syntax unified
 536              		.thumb
 537              		.thumb_func
 538              		.fpu softvfp
 540              	HAL_FLASHEx_Erase_IT:
 541              		@ args = 0, pretend = 0, frame = 0
 542              		@ frame_needed = 0, uses_anonymous_args = 0
 543 0000 38B5     		push	{r3, r4, r5, lr}
 544 0002 114B     		ldr	r3, .L116
 545 0004 1A7E     		ldrb	r2, [r3, #24]	@ zero_extendqisi2
 546 0006 012A     		cmp	r2, #1
 547 0008 1AD0     		beq	.L114
 548 000a 0122     		movs	r2, #1
 549 000c 1C78     		ldrb	r4, [r3]	@ zero_extendqisi2
 550 000e 1A76     		strb	r2, [r3, #24]
 551 0010 04F0FF01 		and	r1, r4, #255
 552 0014 B4B9     		cbnz	r4, .L115
 553 0016 0D4D     		ldr	r5, .L116+4
 554 0018 2C69     		ldr	r4, [r5, #16]
 555 001a 44F4A054 		orr	r4, r4, #5120
 556 001e 2C61     		str	r4, [r5, #16]
 557 0020 0468     		ldr	r4, [r0]
 558 0022 022C     		cmp	r4, #2
 559 0024 04D1     		bne	.L113
 560 0026 1C70     		strb	r4, [r3]
 561 0028 FFF7FEFF 		bl	FLASH_MassErase.isra.0
 562              	.L112:
 563 002c 0846     		mov	r0, r1
 564 002e 38BD     		pop	{r3, r4, r5, pc}
 565              	.L113:
 566 0030 1A70     		strb	r2, [r3]
 567 0032 C268     		ldr	r2, [r0, #12]
 568 0034 8068     		ldr	r0, [r0, #8]
 569 0036 5A60     		str	r2, [r3, #4]
 570 0038 9860     		str	r0, [r3, #8]
 571 003a FFF7FEFF 		bl	FLASH_PageErase
 572 003e F5E7     		b	.L112
 573              	.L114:
 574 0040 0221     		movs	r1, #2
 575 0042 F3E7     		b	.L112
 576              	.L115:
 577 0044 1146     		mov	r1, r2
 578 0046 F1E7     		b	.L112
 579              	.L117:
 580              		.align	2
 581              	.L116:
 582 0048 00000000 		.word	pFlash
 583 004c 00200240 		.word	1073881088
 585              		.ident	"GCC: (GNU Tools for Arm Embedded Processors 9-2019-q4-major) 9.2.1 20191025 (release) [ARM
ARM GAS  /tmp/cccmzW7L.s 			page 11

