ARM GAS  /tmp/ccUk8yte.s 			page 1


   1              		.cpu cortex-m3
   2              		.eabi_attribute 20, 1
   3              		.eabi_attribute 21, 1
   4              		.eabi_attribute 23, 3
   5              		.eabi_attribute 24, 1
   6              		.eabi_attribute 25, 1
   7              		.eabi_attribute 26, 1
   8              		.eabi_attribute 30, 4
   9              		.eabi_attribute 34, 1
  10              		.eabi_attribute 18, 4
  11              		.file	"stm32f1xx_ll_sdmmc.c"
  12              		.text
  13              		.section	.text.SDMMC_GetCmdResp2,"ax",%progbits
  14              		.align	1
  15              		.arch armv7-m
  16              		.syntax unified
  17              		.thumb
  18              		.thumb_func
  19              		.fpu softvfp
  21              	SDMMC_GetCmdResp2:
  22              		@ args = 0, pretend = 0, frame = 0
  23              		@ frame_needed = 0, uses_anonymous_args = 0
  24              		@ link register save eliminated.
  25 0000 4FF4FA51 		mov	r1, #8000
  26 0004 104B     		ldr	r3, .L12
  27 0006 0246     		mov	r2, r0
  28 0008 1B68     		ldr	r3, [r3]
  29 000a B3FBF1F1 		udiv	r1, r3, r1
  30 000e 41F28833 		movw	r3, #5000
  31 0012 4B43     		muls	r3, r1, r3
  32              	.L9:
  33 0014 013B     		subs	r3, r3, #1
  34 0016 13D3     		bcc	.L6
  35 0018 516B     		ldr	r1, [r2, #52]
  36 001a 11F0450F 		tst	r1, #69
  37 001e F9D0     		beq	.L9
  38 0020 0905     		lsls	r1, r1, #20
  39 0022 F7D4     		bmi	.L9
  40 0024 536B     		ldr	r3, [r2, #52]
  41 0026 5B07     		lsls	r3, r3, #29
  42 0028 02D5     		bpl	.L4
  43 002a 0420     		movs	r0, #4
  44 002c 9063     		str	r0, [r2, #56]
  45 002e 7047     		bx	lr
  46              	.L4:
  47 0030 506B     		ldr	r0, [r2, #52]
  48 0032 10F00100 		ands	r0, r0, #1
  49 0036 14BF     		ite	ne
  50 0038 0123     		movne	r3, #1
  51 003a C523     		moveq	r3, #197
  52 003c 9363     		str	r3, [r2, #56]
  53 003e 7047     		bx	lr
  54              	.L6:
  55 0040 4FF00040 		mov	r0, #-2147483648
  56 0044 7047     		bx	lr
  57              	.L13:
  58 0046 00BF     		.align	2
ARM GAS  /tmp/ccUk8yte.s 			page 2


  59              	.L12:
  60 0048 00000000 		.word	SystemCoreClock
  62              		.section	.text.SDMMC_GetCmdResp3,"ax",%progbits
  63              		.align	1
  64              		.syntax unified
  65              		.thumb
  66              		.thumb_func
  67              		.fpu softvfp
  69              	SDMMC_GetCmdResp3:
  70              		@ args = 0, pretend = 0, frame = 0
  71              		@ frame_needed = 0, uses_anonymous_args = 0
  72              		@ link register save eliminated.
  73 0000 4FF4FA51 		mov	r1, #8000
  74 0004 0D4B     		ldr	r3, .L23
  75 0006 0246     		mov	r2, r0
  76 0008 1B68     		ldr	r3, [r3]
  77 000a B3FBF1F1 		udiv	r1, r3, r1
  78 000e 41F28833 		movw	r3, #5000
  79 0012 4B43     		muls	r3, r1, r3
  80              	.L21:
  81 0014 013B     		subs	r3, r3, #1
  82 0016 0ED3     		bcc	.L18
  83 0018 516B     		ldr	r1, [r2, #52]
  84 001a 11F0450F 		tst	r1, #69
  85 001e F9D0     		beq	.L21
  86 0020 0905     		lsls	r1, r1, #20
  87 0022 F7D4     		bmi	.L21
  88 0024 506B     		ldr	r0, [r2, #52]
  89 0026 10F00400 		ands	r0, r0, #4
  90 002a 15BF     		itete	ne
  91 002c 0420     		movne	r0, #4
  92 002e C523     		moveq	r3, #197
  93 0030 9063     		strne	r0, [r2, #56]
  94 0032 9363     		streq	r3, [r2, #56]
  95 0034 7047     		bx	lr
  96              	.L18:
  97 0036 4FF00040 		mov	r0, #-2147483648
  98 003a 7047     		bx	lr
  99              	.L24:
 100              		.align	2
 101              	.L23:
 102 003c 00000000 		.word	SystemCoreClock
 104              		.section	.text.SDMMC_GetCmdResp1,"ax",%progbits
 105              		.align	1
 106              		.syntax unified
 107              		.thumb
 108              		.thumb_func
 109              		.fpu softvfp
 111              	SDMMC_GetCmdResp1:
 112              		@ args = 0, pretend = 0, frame = 0
 113              		@ frame_needed = 0, uses_anonymous_args = 0
 114 0000 10B5     		push	{r4, lr}
 115 0002 0446     		mov	r4, r0
 116 0004 4FF4FA50 		mov	r0, #8000
 117 0008 434B     		ldr	r3, .L58
 118 000a 1B68     		ldr	r3, [r3]
 119 000c B3FBF0F3 		udiv	r3, r3, r0
ARM GAS  /tmp/ccUk8yte.s 			page 3


 120 0010 5A43     		muls	r2, r3, r2
 121              	.L26:
 122 0012 002A     		cmp	r2, #0
 123 0014 49D0     		beq	.L31
 124 0016 636B     		ldr	r3, [r4, #52]
 125 0018 13F0450F 		tst	r3, #69
 126 001c 07D0     		beq	.L28
 127 001e 1B05     		lsls	r3, r3, #20
 128 0020 05D4     		bmi	.L28
 129 0022 636B     		ldr	r3, [r4, #52]
 130 0024 5807     		lsls	r0, r3, #29
 131 0026 04D5     		bpl	.L29
 132 0028 0420     		movs	r0, #4
 133 002a A063     		str	r0, [r4, #56]
 134              	.L25:
 135 002c 10BD     		pop	{r4, pc}
 136              	.L28:
 137 002e 013A     		subs	r2, r2, #1
 138 0030 EFE7     		b	.L26
 139              	.L29:
 140 0032 606B     		ldr	r0, [r4, #52]
 141 0034 10F00100 		ands	r0, r0, #1
 142 0038 02D0     		beq	.L30
 143 003a 0123     		movs	r3, #1
 144 003c A363     		str	r3, [r4, #56]
 145 003e F5E7     		b	.L25
 146              	.L30:
 147 0040 C523     		movs	r3, #197
 148 0042 A363     		str	r3, [r4, #56]
 149 0044 2369     		ldr	r3, [r4, #16]
 150 0046 DBB2     		uxtb	r3, r3
 151 0048 9942     		cmp	r1, r3
 152 004a 31D1     		bne	.L32
 153 004c 6369     		ldr	r3, [r4, #20]
 154 004e 3348     		ldr	r0, .L58+4
 155 0050 1840     		ands	r0, r0, r3
 156 0052 0028     		cmp	r0, #0
 157 0054 EAD0     		beq	.L25
 158 0056 002B     		cmp	r3, #0
 159 0058 2CDB     		blt	.L33
 160 005a 5A00     		lsls	r2, r3, #1
 161 005c 2DD4     		bmi	.L34
 162 005e 9C00     		lsls	r4, r3, #2
 163 0060 2DD4     		bmi	.L35
 164 0062 D900     		lsls	r1, r3, #3
 165 0064 2DD4     		bmi	.L36
 166 0066 1A01     		lsls	r2, r3, #4
 167 0068 2ED4     		bmi	.L37
 168 006a 5C01     		lsls	r4, r3, #5
 169 006c 2FD4     		bmi	.L38
 170 006e D901     		lsls	r1, r3, #7
 171 0070 30D4     		bmi	.L39
 172 0072 1A02     		lsls	r2, r3, #8
 173 0074 31D4     		bmi	.L40
 174 0076 5C02     		lsls	r4, r3, #9
 175 0078 32D4     		bmi	.L41
 176 007a 9902     		lsls	r1, r3, #10
ARM GAS  /tmp/ccUk8yte.s 			page 4


 177 007c 33D4     		bmi	.L42
 178 007e DA02     		lsls	r2, r3, #11
 179 0080 34D4     		bmi	.L43
 180 0082 5C03     		lsls	r4, r3, #13
 181 0084 35D4     		bmi	.L44
 182 0086 9903     		lsls	r1, r3, #14
 183 0088 36D4     		bmi	.L45
 184 008a DA03     		lsls	r2, r3, #15
 185 008c 37D4     		bmi	.L46
 186 008e 1C04     		lsls	r4, r3, #16
 187 0090 38D4     		bmi	.L47
 188 0092 5904     		lsls	r1, r3, #17
 189 0094 39D4     		bmi	.L48
 190 0096 9A04     		lsls	r2, r3, #18
 191 0098 3AD4     		bmi	.L49
 192 009a 13F0080F 		tst	r3, #8
 193 009e 14BF     		ite	ne
 194 00a0 4FF40000 		movne	r0, #8388608
 195 00a4 4FF48030 		moveq	r0, #65536
 196 00a8 C0E7     		b	.L25
 197              	.L31:
 198 00aa 4FF00040 		mov	r0, #-2147483648
 199 00ae BDE7     		b	.L25
 200              	.L32:
 201 00b0 0120     		movs	r0, #1
 202 00b2 BBE7     		b	.L25
 203              	.L33:
 204 00b4 4FF00070 		mov	r0, #33554432
 205 00b8 B8E7     		b	.L25
 206              	.L34:
 207 00ba 4020     		movs	r0, #64
 208 00bc B6E7     		b	.L25
 209              	.L35:
 210 00be 8020     		movs	r0, #128
 211 00c0 B4E7     		b	.L25
 212              	.L36:
 213 00c2 4FF48070 		mov	r0, #256
 214 00c6 B1E7     		b	.L25
 215              	.L37:
 216 00c8 4FF40070 		mov	r0, #512
 217 00cc AEE7     		b	.L25
 218              	.L38:
 219 00ce 4FF48060 		mov	r0, #1024
 220 00d2 ABE7     		b	.L25
 221              	.L39:
 222 00d4 4FF40060 		mov	r0, #2048
 223 00d8 A8E7     		b	.L25
 224              	.L40:
 225 00da 4FF48050 		mov	r0, #4096
 226 00de A5E7     		b	.L25
 227              	.L41:
 228 00e0 4FF40050 		mov	r0, #8192
 229 00e4 A2E7     		b	.L25
 230              	.L42:
 231 00e6 4FF48040 		mov	r0, #16384
 232 00ea 9FE7     		b	.L25
 233              	.L43:
ARM GAS  /tmp/ccUk8yte.s 			page 5


 234 00ec 4FF40040 		mov	r0, #32768
 235 00f0 9CE7     		b	.L25
 236              	.L44:
 237 00f2 4FF40030 		mov	r0, #131072
 238 00f6 99E7     		b	.L25
 239              	.L45:
 240 00f8 4FF48020 		mov	r0, #262144
 241 00fc 96E7     		b	.L25
 242              	.L46:
 243 00fe 4FF40020 		mov	r0, #524288
 244 0102 93E7     		b	.L25
 245              	.L47:
 246 0104 4FF48010 		mov	r0, #1048576
 247 0108 90E7     		b	.L25
 248              	.L48:
 249 010a 4FF40010 		mov	r0, #2097152
 250 010e 8DE7     		b	.L25
 251              	.L49:
 252 0110 4FF48000 		mov	r0, #4194304
 253 0114 8AE7     		b	.L25
 254              	.L59:
 255 0116 00BF     		.align	2
 256              	.L58:
 257 0118 00000000 		.word	SystemCoreClock
 258 011c 08E0FFFD 		.word	-33562616
 260              		.section	.text.SDIO_Init,"ax",%progbits
 261              		.align	1
 262              		.global	SDIO_Init
 263              		.syntax unified
 264              		.thumb
 265              		.thumb_func
 266              		.fpu softvfp
 268              	SDIO_Init:
 269              		@ args = 28, pretend = 16, frame = 0
 270              		@ frame_needed = 0, uses_anonymous_args = 0
 271 0000 84B0     		sub	sp, sp, #16
 272 0002 10B5     		push	{r4, lr}
 273 0004 03AC     		add	r4, sp, #12
 274 0006 84E80E00 		stm	r4, {r1, r2, r3}
 275 000a 0B46     		mov	r3, r1
 276 000c 0499     		ldr	r1, [sp, #16]
 277 000e 4268     		ldr	r2, [r0, #4]
 278 0010 0B43     		orrs	r3, r3, r1
 279 0012 0599     		ldr	r1, [sp, #20]
 280 0014 22F4FD42 		bic	r2, r2, #32384
 281 0018 0B43     		orrs	r3, r3, r1
 282 001a 0699     		ldr	r1, [sp, #24]
 283 001c 22F07F02 		bic	r2, r2, #127
 284 0020 0B43     		orrs	r3, r3, r1
 285 0022 0799     		ldr	r1, [sp, #28]
 286 0024 0B43     		orrs	r3, r3, r1
 287 0026 0899     		ldr	r1, [sp, #32]
 288 0028 BDE81040 		pop	{r4, lr}
 289 002c 0B43     		orrs	r3, r3, r1
 290 002e 1343     		orrs	r3, r3, r2
 291 0030 4360     		str	r3, [r0, #4]
 292 0032 04B0     		add	sp, sp, #16
ARM GAS  /tmp/ccUk8yte.s 			page 6


 293 0034 0020     		movs	r0, #0
 294 0036 7047     		bx	lr
 296              		.section	.text.SDIO_ReadFIFO,"ax",%progbits
 297              		.align	1
 298              		.global	SDIO_ReadFIFO
 299              		.syntax unified
 300              		.thumb
 301              		.thumb_func
 302              		.fpu softvfp
 304              	SDIO_ReadFIFO:
 305              		@ args = 0, pretend = 0, frame = 0
 306              		@ frame_needed = 0, uses_anonymous_args = 0
 307              		@ link register save eliminated.
 308 0000 D0F88000 		ldr	r0, [r0, #128]
 309 0004 7047     		bx	lr
 311              		.section	.text.SDIO_WriteFIFO,"ax",%progbits
 312              		.align	1
 313              		.global	SDIO_WriteFIFO
 314              		.syntax unified
 315              		.thumb
 316              		.thumb_func
 317              		.fpu softvfp
 319              	SDIO_WriteFIFO:
 320              		@ args = 0, pretend = 0, frame = 0
 321              		@ frame_needed = 0, uses_anonymous_args = 0
 322              		@ link register save eliminated.
 323 0000 0B68     		ldr	r3, [r1]
 324 0002 C0F88030 		str	r3, [r0, #128]
 325 0006 0020     		movs	r0, #0
 326 0008 7047     		bx	lr
 328              		.section	.text.SDIO_PowerState_ON,"ax",%progbits
 329              		.align	1
 330              		.global	SDIO_PowerState_ON
 331              		.syntax unified
 332              		.thumb
 333              		.thumb_func
 334              		.fpu softvfp
 336              	SDIO_PowerState_ON:
 337              		@ args = 0, pretend = 0, frame = 0
 338              		@ frame_needed = 0, uses_anonymous_args = 0
 339 0000 08B5     		push	{r3, lr}
 340 0002 0323     		movs	r3, #3
 341 0004 0360     		str	r3, [r0]
 342 0006 0220     		movs	r0, #2
 343 0008 FFF7FEFF 		bl	HAL_Delay
 344 000c 0020     		movs	r0, #0
 345 000e 08BD     		pop	{r3, pc}
 347              		.section	.text.SDIO_PowerState_OFF,"ax",%progbits
 348              		.align	1
 349              		.global	SDIO_PowerState_OFF
 350              		.syntax unified
 351              		.thumb
 352              		.thumb_func
 353              		.fpu softvfp
 355              	SDIO_PowerState_OFF:
 356              		@ args = 0, pretend = 0, frame = 0
 357              		@ frame_needed = 0, uses_anonymous_args = 0
ARM GAS  /tmp/ccUk8yte.s 			page 7


 358              		@ link register save eliminated.
 359 0000 0346     		mov	r3, r0
 360 0002 0020     		movs	r0, #0
 361 0004 1860     		str	r0, [r3]
 362 0006 7047     		bx	lr
 364              		.section	.text.SDIO_GetPowerState,"ax",%progbits
 365              		.align	1
 366              		.global	SDIO_GetPowerState
 367              		.syntax unified
 368              		.thumb
 369              		.thumb_func
 370              		.fpu softvfp
 372              	SDIO_GetPowerState:
 373              		@ args = 0, pretend = 0, frame = 0
 374              		@ frame_needed = 0, uses_anonymous_args = 0
 375              		@ link register save eliminated.
 376 0000 0068     		ldr	r0, [r0]
 377 0002 00F00300 		and	r0, r0, #3
 378 0006 7047     		bx	lr
 380              		.section	.text.SDIO_SendCommand,"ax",%progbits
 381              		.align	1
 382              		.global	SDIO_SendCommand
 383              		.syntax unified
 384              		.thumb
 385              		.thumb_func
 386              		.fpu softvfp
 388              	SDIO_SendCommand:
 389              		@ args = 0, pretend = 0, frame = 0
 390              		@ frame_needed = 0, uses_anonymous_args = 0
 391 0000 0B68     		ldr	r3, [r1]
 392 0002 10B5     		push	{r4, lr}
 393 0004 8360     		str	r3, [r0, #8]
 394 0006 C268     		ldr	r2, [r0, #12]
 395 0008 D1E90134 		ldrd	r3, r4, [r1, #4]
 396 000c 2343     		orrs	r3, r3, r4
 397 000e CC68     		ldr	r4, [r1, #12]
 398 0010 0969     		ldr	r1, [r1, #16]
 399 0012 2343     		orrs	r3, r3, r4
 400 0014 22F47F62 		bic	r2, r2, #4080
 401 0018 0B43     		orrs	r3, r3, r1
 402 001a 22F00F02 		bic	r2, r2, #15
 403 001e 1343     		orrs	r3, r3, r2
 404 0020 C360     		str	r3, [r0, #12]
 405 0022 0020     		movs	r0, #0
 406 0024 10BD     		pop	{r4, pc}
 408              		.section	.text.SDIO_GetCommandResponse,"ax",%progbits
 409              		.align	1
 410              		.global	SDIO_GetCommandResponse
 411              		.syntax unified
 412              		.thumb
 413              		.thumb_func
 414              		.fpu softvfp
 416              	SDIO_GetCommandResponse:
 417              		@ args = 0, pretend = 0, frame = 0
 418              		@ frame_needed = 0, uses_anonymous_args = 0
 419              		@ link register save eliminated.
 420 0000 0069     		ldr	r0, [r0, #16]
ARM GAS  /tmp/ccUk8yte.s 			page 8


 421 0002 C0B2     		uxtb	r0, r0
 422 0004 7047     		bx	lr
 424              		.section	.text.SDIO_GetResponse,"ax",%progbits
 425              		.align	1
 426              		.global	SDIO_GetResponse
 427              		.syntax unified
 428              		.thumb
 429              		.thumb_func
 430              		.fpu softvfp
 432              	SDIO_GetResponse:
 433              		@ args = 0, pretend = 0, frame = 0
 434              		@ frame_needed = 0, uses_anonymous_args = 0
 435              		@ link register save eliminated.
 436 0000 1430     		adds	r0, r0, #20
 437 0002 4058     		ldr	r0, [r0, r1]
 438 0004 7047     		bx	lr
 440              		.section	.text.SDIO_ConfigData,"ax",%progbits
 441              		.align	1
 442              		.global	SDIO_ConfigData
 443              		.syntax unified
 444              		.thumb
 445              		.thumb_func
 446              		.fpu softvfp
 448              	SDIO_ConfigData:
 449              		@ args = 0, pretend = 0, frame = 0
 450              		@ frame_needed = 0, uses_anonymous_args = 0
 451 0000 0B68     		ldr	r3, [r1]
 452 0002 10B5     		push	{r4, lr}
 453 0004 4362     		str	r3, [r0, #36]
 454 0006 4B68     		ldr	r3, [r1, #4]
 455 0008 8362     		str	r3, [r0, #40]
 456 000a D1E90234 		ldrd	r3, r4, [r1, #8]
 457 000e 2343     		orrs	r3, r3, r4
 458 0010 0C69     		ldr	r4, [r1, #16]
 459 0012 C26A     		ldr	r2, [r0, #44]
 460 0014 4969     		ldr	r1, [r1, #20]
 461 0016 2343     		orrs	r3, r3, r4
 462 0018 0B43     		orrs	r3, r3, r1
 463 001a 22F0F702 		bic	r2, r2, #247
 464 001e 1343     		orrs	r3, r3, r2
 465 0020 C362     		str	r3, [r0, #44]
 466 0022 0020     		movs	r0, #0
 467 0024 10BD     		pop	{r4, pc}
 469              		.section	.text.SDIO_GetDataCounter,"ax",%progbits
 470              		.align	1
 471              		.global	SDIO_GetDataCounter
 472              		.syntax unified
 473              		.thumb
 474              		.thumb_func
 475              		.fpu softvfp
 477              	SDIO_GetDataCounter:
 478              		@ args = 0, pretend = 0, frame = 0
 479              		@ frame_needed = 0, uses_anonymous_args = 0
 480              		@ link register save eliminated.
 481 0000 006B     		ldr	r0, [r0, #48]
 482 0002 7047     		bx	lr
 484              		.section	.text.SDIO_GetFIFOCount,"ax",%progbits
ARM GAS  /tmp/ccUk8yte.s 			page 9


 485              		.align	1
 486              		.global	SDIO_GetFIFOCount
 487              		.syntax unified
 488              		.thumb
 489              		.thumb_func
 490              		.fpu softvfp
 492              	SDIO_GetFIFOCount:
 493              		@ args = 0, pretend = 0, frame = 0
 494              		@ frame_needed = 0, uses_anonymous_args = 0
 495              		@ link register save eliminated.
 496 0000 D0F88000 		ldr	r0, [r0, #128]
 497 0004 7047     		bx	lr
 499              		.section	.text.SDIO_SetSDMMCReadWaitMode,"ax",%progbits
 500              		.align	1
 501              		.global	SDIO_SetSDMMCReadWaitMode
 502              		.syntax unified
 503              		.thumb
 504              		.thumb_func
 505              		.fpu softvfp
 507              	SDIO_SetSDMMCReadWaitMode:
 508              		@ args = 0, pretend = 0, frame = 0
 509              		@ frame_needed = 0, uses_anonymous_args = 0
 510              		@ link register save eliminated.
 511 0000 C36A     		ldr	r3, [r0, #44]
 512 0002 23F48063 		bic	r3, r3, #1024
 513 0006 0B43     		orrs	r3, r3, r1
 514 0008 C362     		str	r3, [r0, #44]
 515 000a 0020     		movs	r0, #0
 516 000c 7047     		bx	lr
 518              		.section	.text.SDMMC_CmdBlockLength,"ax",%progbits
 519              		.align	1
 520              		.global	SDMMC_CmdBlockLength
 521              		.syntax unified
 522              		.thumb
 523              		.thumb_func
 524              		.fpu softvfp
 526              	SDMMC_CmdBlockLength:
 527              		@ args = 0, pretend = 0, frame = 24
 528              		@ frame_needed = 0, uses_anonymous_args = 0
 529 0000 30B5     		push	{r4, r5, lr}
 530 0002 4023     		movs	r3, #64
 531 0004 1025     		movs	r5, #16
 532 0006 87B0     		sub	sp, sp, #28
 533 0008 0446     		mov	r4, r0
 534 000a 0022     		movs	r2, #0
 535 000c CDE90253 		strd	r5, r3, [sp, #8]
 536 0010 4FF48063 		mov	r3, #1024
 537 0014 0191     		str	r1, [sp, #4]
 538 0016 01A9     		add	r1, sp, #4
 539 0018 CDE90423 		strd	r2, r3, [sp, #16]
 540 001c FFF7FEFF 		bl	SDIO_SendCommand
 541 0020 41F28832 		movw	r2, #5000
 542 0024 2946     		mov	r1, r5
 543 0026 2046     		mov	r0, r4
 544 0028 FFF7FEFF 		bl	SDMMC_GetCmdResp1
 545 002c 07B0     		add	sp, sp, #28
 546              		@ sp needed
ARM GAS  /tmp/ccUk8yte.s 			page 10


 547 002e 30BD     		pop	{r4, r5, pc}
 549              		.section	.text.SDMMC_CmdReadSingleBlock,"ax",%progbits
 550              		.align	1
 551              		.global	SDMMC_CmdReadSingleBlock
 552              		.syntax unified
 553              		.thumb
 554              		.thumb_func
 555              		.fpu softvfp
 557              	SDMMC_CmdReadSingleBlock:
 558              		@ args = 0, pretend = 0, frame = 24
 559              		@ frame_needed = 0, uses_anonymous_args = 0
 560 0000 30B5     		push	{r4, r5, lr}
 561 0002 4023     		movs	r3, #64
 562 0004 1125     		movs	r5, #17
 563 0006 87B0     		sub	sp, sp, #28
 564 0008 0446     		mov	r4, r0
 565 000a 0022     		movs	r2, #0
 566 000c CDE90253 		strd	r5, r3, [sp, #8]
 567 0010 4FF48063 		mov	r3, #1024
 568 0014 0191     		str	r1, [sp, #4]
 569 0016 01A9     		add	r1, sp, #4
 570 0018 CDE90423 		strd	r2, r3, [sp, #16]
 571 001c FFF7FEFF 		bl	SDIO_SendCommand
 572 0020 41F28832 		movw	r2, #5000
 573 0024 2946     		mov	r1, r5
 574 0026 2046     		mov	r0, r4
 575 0028 FFF7FEFF 		bl	SDMMC_GetCmdResp1
 576 002c 07B0     		add	sp, sp, #28
 577              		@ sp needed
 578 002e 30BD     		pop	{r4, r5, pc}
 580              		.section	.text.SDMMC_CmdReadMultiBlock,"ax",%progbits
 581              		.align	1
 582              		.global	SDMMC_CmdReadMultiBlock
 583              		.syntax unified
 584              		.thumb
 585              		.thumb_func
 586              		.fpu softvfp
 588              	SDMMC_CmdReadMultiBlock:
 589              		@ args = 0, pretend = 0, frame = 24
 590              		@ frame_needed = 0, uses_anonymous_args = 0
 591 0000 30B5     		push	{r4, r5, lr}
 592 0002 4023     		movs	r3, #64
 593 0004 1225     		movs	r5, #18
 594 0006 87B0     		sub	sp, sp, #28
 595 0008 0446     		mov	r4, r0
 596 000a 0022     		movs	r2, #0
 597 000c CDE90253 		strd	r5, r3, [sp, #8]
 598 0010 4FF48063 		mov	r3, #1024
 599 0014 0191     		str	r1, [sp, #4]
 600 0016 01A9     		add	r1, sp, #4
 601 0018 CDE90423 		strd	r2, r3, [sp, #16]
 602 001c FFF7FEFF 		bl	SDIO_SendCommand
 603 0020 41F28832 		movw	r2, #5000
 604 0024 2946     		mov	r1, r5
 605 0026 2046     		mov	r0, r4
 606 0028 FFF7FEFF 		bl	SDMMC_GetCmdResp1
 607 002c 07B0     		add	sp, sp, #28
ARM GAS  /tmp/ccUk8yte.s 			page 11


 608              		@ sp needed
 609 002e 30BD     		pop	{r4, r5, pc}
 611              		.section	.text.SDMMC_CmdWriteSingleBlock,"ax",%progbits
 612              		.align	1
 613              		.global	SDMMC_CmdWriteSingleBlock
 614              		.syntax unified
 615              		.thumb
 616              		.thumb_func
 617              		.fpu softvfp
 619              	SDMMC_CmdWriteSingleBlock:
 620              		@ args = 0, pretend = 0, frame = 24
 621              		@ frame_needed = 0, uses_anonymous_args = 0
 622 0000 30B5     		push	{r4, r5, lr}
 623 0002 4023     		movs	r3, #64
 624 0004 1825     		movs	r5, #24
 625 0006 87B0     		sub	sp, sp, #28
 626 0008 0446     		mov	r4, r0
 627 000a 0022     		movs	r2, #0
 628 000c CDE90253 		strd	r5, r3, [sp, #8]
 629 0010 4FF48063 		mov	r3, #1024
 630 0014 0191     		str	r1, [sp, #4]
 631 0016 01A9     		add	r1, sp, #4
 632 0018 CDE90423 		strd	r2, r3, [sp, #16]
 633 001c FFF7FEFF 		bl	SDIO_SendCommand
 634 0020 41F28832 		movw	r2, #5000
 635 0024 2946     		mov	r1, r5
 636 0026 2046     		mov	r0, r4
 637 0028 FFF7FEFF 		bl	SDMMC_GetCmdResp1
 638 002c 07B0     		add	sp, sp, #28
 639              		@ sp needed
 640 002e 30BD     		pop	{r4, r5, pc}
 642              		.section	.text.SDMMC_CmdWriteMultiBlock,"ax",%progbits
 643              		.align	1
 644              		.global	SDMMC_CmdWriteMultiBlock
 645              		.syntax unified
 646              		.thumb
 647              		.thumb_func
 648              		.fpu softvfp
 650              	SDMMC_CmdWriteMultiBlock:
 651              		@ args = 0, pretend = 0, frame = 24
 652              		@ frame_needed = 0, uses_anonymous_args = 0
 653 0000 30B5     		push	{r4, r5, lr}
 654 0002 4023     		movs	r3, #64
 655 0004 1925     		movs	r5, #25
 656 0006 87B0     		sub	sp, sp, #28
 657 0008 0446     		mov	r4, r0
 658 000a 0022     		movs	r2, #0
 659 000c CDE90253 		strd	r5, r3, [sp, #8]
 660 0010 4FF48063 		mov	r3, #1024
 661 0014 0191     		str	r1, [sp, #4]
 662 0016 01A9     		add	r1, sp, #4
 663 0018 CDE90423 		strd	r2, r3, [sp, #16]
 664 001c FFF7FEFF 		bl	SDIO_SendCommand
 665 0020 41F28832 		movw	r2, #5000
 666 0024 2946     		mov	r1, r5
 667 0026 2046     		mov	r0, r4
 668 0028 FFF7FEFF 		bl	SDMMC_GetCmdResp1
ARM GAS  /tmp/ccUk8yte.s 			page 12


 669 002c 07B0     		add	sp, sp, #28
 670              		@ sp needed
 671 002e 30BD     		pop	{r4, r5, pc}
 673              		.section	.text.SDMMC_CmdSDEraseStartAdd,"ax",%progbits
 674              		.align	1
 675              		.global	SDMMC_CmdSDEraseStartAdd
 676              		.syntax unified
 677              		.thumb
 678              		.thumb_func
 679              		.fpu softvfp
 681              	SDMMC_CmdSDEraseStartAdd:
 682              		@ args = 0, pretend = 0, frame = 24
 683              		@ frame_needed = 0, uses_anonymous_args = 0
 684 0000 30B5     		push	{r4, r5, lr}
 685 0002 4023     		movs	r3, #64
 686 0004 2025     		movs	r5, #32
 687 0006 87B0     		sub	sp, sp, #28
 688 0008 0446     		mov	r4, r0
 689 000a 0022     		movs	r2, #0
 690 000c CDE90253 		strd	r5, r3, [sp, #8]
 691 0010 4FF48063 		mov	r3, #1024
 692 0014 0191     		str	r1, [sp, #4]
 693 0016 01A9     		add	r1, sp, #4
 694 0018 CDE90423 		strd	r2, r3, [sp, #16]
 695 001c FFF7FEFF 		bl	SDIO_SendCommand
 696 0020 41F28832 		movw	r2, #5000
 697 0024 2946     		mov	r1, r5
 698 0026 2046     		mov	r0, r4
 699 0028 FFF7FEFF 		bl	SDMMC_GetCmdResp1
 700 002c 07B0     		add	sp, sp, #28
 701              		@ sp needed
 702 002e 30BD     		pop	{r4, r5, pc}
 704              		.section	.text.SDMMC_CmdSDEraseEndAdd,"ax",%progbits
 705              		.align	1
 706              		.global	SDMMC_CmdSDEraseEndAdd
 707              		.syntax unified
 708              		.thumb
 709              		.thumb_func
 710              		.fpu softvfp
 712              	SDMMC_CmdSDEraseEndAdd:
 713              		@ args = 0, pretend = 0, frame = 24
 714              		@ frame_needed = 0, uses_anonymous_args = 0
 715 0000 30B5     		push	{r4, r5, lr}
 716 0002 4023     		movs	r3, #64
 717 0004 2125     		movs	r5, #33
 718 0006 87B0     		sub	sp, sp, #28
 719 0008 0446     		mov	r4, r0
 720 000a 0022     		movs	r2, #0
 721 000c CDE90253 		strd	r5, r3, [sp, #8]
 722 0010 4FF48063 		mov	r3, #1024
 723 0014 0191     		str	r1, [sp, #4]
 724 0016 01A9     		add	r1, sp, #4
 725 0018 CDE90423 		strd	r2, r3, [sp, #16]
 726 001c FFF7FEFF 		bl	SDIO_SendCommand
 727 0020 41F28832 		movw	r2, #5000
 728 0024 2946     		mov	r1, r5
 729 0026 2046     		mov	r0, r4
ARM GAS  /tmp/ccUk8yte.s 			page 13


 730 0028 FFF7FEFF 		bl	SDMMC_GetCmdResp1
 731 002c 07B0     		add	sp, sp, #28
 732              		@ sp needed
 733 002e 30BD     		pop	{r4, r5, pc}
 735              		.section	.text.SDMMC_CmdEraseStartAdd,"ax",%progbits
 736              		.align	1
 737              		.global	SDMMC_CmdEraseStartAdd
 738              		.syntax unified
 739              		.thumb
 740              		.thumb_func
 741              		.fpu softvfp
 743              	SDMMC_CmdEraseStartAdd:
 744              		@ args = 0, pretend = 0, frame = 24
 745              		@ frame_needed = 0, uses_anonymous_args = 0
 746 0000 30B5     		push	{r4, r5, lr}
 747 0002 4023     		movs	r3, #64
 748 0004 2325     		movs	r5, #35
 749 0006 87B0     		sub	sp, sp, #28
 750 0008 0446     		mov	r4, r0
 751 000a 0022     		movs	r2, #0
 752 000c CDE90253 		strd	r5, r3, [sp, #8]
 753 0010 4FF48063 		mov	r3, #1024
 754 0014 0191     		str	r1, [sp, #4]
 755 0016 01A9     		add	r1, sp, #4
 756 0018 CDE90423 		strd	r2, r3, [sp, #16]
 757 001c FFF7FEFF 		bl	SDIO_SendCommand
 758 0020 41F28832 		movw	r2, #5000
 759 0024 2946     		mov	r1, r5
 760 0026 2046     		mov	r0, r4
 761 0028 FFF7FEFF 		bl	SDMMC_GetCmdResp1
 762 002c 07B0     		add	sp, sp, #28
 763              		@ sp needed
 764 002e 30BD     		pop	{r4, r5, pc}
 766              		.section	.text.SDMMC_CmdEraseEndAdd,"ax",%progbits
 767              		.align	1
 768              		.global	SDMMC_CmdEraseEndAdd
 769              		.syntax unified
 770              		.thumb
 771              		.thumb_func
 772              		.fpu softvfp
 774              	SDMMC_CmdEraseEndAdd:
 775              		@ args = 0, pretend = 0, frame = 24
 776              		@ frame_needed = 0, uses_anonymous_args = 0
 777 0000 30B5     		push	{r4, r5, lr}
 778 0002 4023     		movs	r3, #64
 779 0004 2425     		movs	r5, #36
 780 0006 87B0     		sub	sp, sp, #28
 781 0008 0446     		mov	r4, r0
 782 000a 0022     		movs	r2, #0
 783 000c CDE90253 		strd	r5, r3, [sp, #8]
 784 0010 4FF48063 		mov	r3, #1024
 785 0014 0191     		str	r1, [sp, #4]
 786 0016 01A9     		add	r1, sp, #4
 787 0018 CDE90423 		strd	r2, r3, [sp, #16]
 788 001c FFF7FEFF 		bl	SDIO_SendCommand
 789 0020 41F28832 		movw	r2, #5000
 790 0024 2946     		mov	r1, r5
ARM GAS  /tmp/ccUk8yte.s 			page 14


 791 0026 2046     		mov	r0, r4
 792 0028 FFF7FEFF 		bl	SDMMC_GetCmdResp1
 793 002c 07B0     		add	sp, sp, #28
 794              		@ sp needed
 795 002e 30BD     		pop	{r4, r5, pc}
 797              		.section	.text.SDMMC_CmdErase,"ax",%progbits
 798              		.align	1
 799              		.global	SDMMC_CmdErase
 800              		.syntax unified
 801              		.thumb
 802              		.thumb_func
 803              		.fpu softvfp
 805              	SDMMC_CmdErase:
 806              		@ args = 0, pretend = 0, frame = 24
 807              		@ frame_needed = 0, uses_anonymous_args = 0
 808 0000 30B5     		push	{r4, r5, lr}
 809 0002 0023     		movs	r3, #0
 810 0004 2625     		movs	r5, #38
 811 0006 4022     		movs	r2, #64
 812 0008 87B0     		sub	sp, sp, #28
 813 000a CDE90323 		strd	r2, r3, [sp, #12]
 814 000e 0446     		mov	r4, r0
 815 0010 CDE90135 		strd	r3, r5, [sp, #4]
 816 0014 4FF48063 		mov	r3, #1024
 817 0018 01A9     		add	r1, sp, #4
 818 001a 0593     		str	r3, [sp, #20]
 819 001c FFF7FEFF 		bl	SDIO_SendCommand
 820 0020 4FF21862 		movw	r2, #63000
 821 0024 2946     		mov	r1, r5
 822 0026 2046     		mov	r0, r4
 823 0028 FFF7FEFF 		bl	SDMMC_GetCmdResp1
 824 002c 07B0     		add	sp, sp, #28
 825              		@ sp needed
 826 002e 30BD     		pop	{r4, r5, pc}
 828              		.section	.text.SDMMC_CmdStopTransfer,"ax",%progbits
 829              		.align	1
 830              		.global	SDMMC_CmdStopTransfer
 831              		.syntax unified
 832              		.thumb
 833              		.thumb_func
 834              		.fpu softvfp
 836              	SDMMC_CmdStopTransfer:
 837              		@ args = 0, pretend = 0, frame = 24
 838              		@ frame_needed = 0, uses_anonymous_args = 0
 839 0000 30B5     		push	{r4, r5, lr}
 840 0002 0023     		movs	r3, #0
 841 0004 0C25     		movs	r5, #12
 842 0006 4022     		movs	r2, #64
 843 0008 87B0     		sub	sp, sp, #28
 844 000a CDE90323 		strd	r2, r3, [sp, #12]
 845 000e 0446     		mov	r4, r0
 846 0010 CDE90135 		strd	r3, r5, [sp, #4]
 847 0014 4FF48063 		mov	r3, #1024
 848 0018 01A9     		add	r1, sp, #4
 849 001a 0593     		str	r3, [sp, #20]
 850 001c FFF7FEFF 		bl	SDIO_SendCommand
 851 0020 2946     		mov	r1, r5
ARM GAS  /tmp/ccUk8yte.s 			page 15


 852 0022 2046     		mov	r0, r4
 853 0024 024A     		ldr	r2, .L84
 854 0026 FFF7FEFF 		bl	SDMMC_GetCmdResp1
 855 002a 07B0     		add	sp, sp, #28
 856              		@ sp needed
 857 002c 30BD     		pop	{r4, r5, pc}
 858              	.L85:
 859 002e 00BF     		.align	2
 860              	.L84:
 861 0030 00E1F505 		.word	100000000
 863              		.section	.text.SDMMC_CmdSelDesel,"ax",%progbits
 864              		.align	1
 865              		.global	SDMMC_CmdSelDesel
 866              		.syntax unified
 867              		.thumb
 868              		.thumb_func
 869              		.fpu softvfp
 871              	SDMMC_CmdSelDesel:
 872              		@ args = 0, pretend = 0, frame = 24
 873              		@ frame_needed = 0, uses_anonymous_args = 0
 874 0000 30B5     		push	{r4, r5, lr}
 875 0002 4023     		movs	r3, #64
 876 0004 0725     		movs	r5, #7
 877 0006 87B0     		sub	sp, sp, #28
 878 0008 0446     		mov	r4, r0
 879 000a CDE90253 		strd	r5, r3, [sp, #8]
 880 000e 0192     		str	r2, [sp, #4]
 881 0010 4FF48063 		mov	r3, #1024
 882 0014 0022     		movs	r2, #0
 883 0016 01A9     		add	r1, sp, #4
 884 0018 CDE90423 		strd	r2, r3, [sp, #16]
 885 001c FFF7FEFF 		bl	SDIO_SendCommand
 886 0020 41F28832 		movw	r2, #5000
 887 0024 2946     		mov	r1, r5
 888 0026 2046     		mov	r0, r4
 889 0028 FFF7FEFF 		bl	SDMMC_GetCmdResp1
 890 002c 07B0     		add	sp, sp, #28
 891              		@ sp needed
 892 002e 30BD     		pop	{r4, r5, pc}
 894              		.section	.text.SDMMC_CmdGoIdleState,"ax",%progbits
 895              		.align	1
 896              		.global	SDMMC_CmdGoIdleState
 897              		.syntax unified
 898              		.thumb
 899              		.thumb_func
 900              		.fpu softvfp
 902              	SDMMC_CmdGoIdleState:
 903              		@ args = 0, pretend = 0, frame = 24
 904              		@ frame_needed = 0, uses_anonymous_args = 0
 905 0000 0023     		movs	r3, #0
 906 0002 10B5     		push	{r4, lr}
 907 0004 86B0     		sub	sp, sp, #24
 908 0006 CDE90133 		strd	r3, r3, [sp, #4]
 909 000a CDE90333 		strd	r3, r3, [sp, #12]
 910 000e 4FF48063 		mov	r3, #1024
 911 0012 01A9     		add	r1, sp, #4
 912 0014 0593     		str	r3, [sp, #20]
ARM GAS  /tmp/ccUk8yte.s 			page 16


 913 0016 0446     		mov	r4, r0
 914 0018 FFF7FEFF 		bl	SDIO_SendCommand
 915 001c 4FF4FA52 		mov	r2, #8000
 916 0020 094B     		ldr	r3, .L94
 917 0022 1B68     		ldr	r3, [r3]
 918 0024 B3FBF2F2 		udiv	r2, r3, r2
 919 0028 41F28833 		movw	r3, #5000
 920 002c 5343     		muls	r3, r2, r3
 921              	.L89:
 922 002e 013B     		subs	r3, r3, #1
 923 0030 07D3     		bcc	.L90
 924 0032 626B     		ldr	r2, [r4, #52]
 925 0034 1206     		lsls	r2, r2, #24
 926 0036 FAD5     		bpl	.L89
 927 0038 C523     		movs	r3, #197
 928 003a 0020     		movs	r0, #0
 929 003c A363     		str	r3, [r4, #56]
 930              	.L87:
 931 003e 06B0     		add	sp, sp, #24
 932              		@ sp needed
 933 0040 10BD     		pop	{r4, pc}
 934              	.L90:
 935 0042 4FF00040 		mov	r0, #-2147483648
 936 0046 FAE7     		b	.L87
 937              	.L95:
 938              		.align	2
 939              	.L94:
 940 0048 00000000 		.word	SystemCoreClock
 942              		.section	.text.SDMMC_CmdOperCond,"ax",%progbits
 943              		.align	1
 944              		.global	SDMMC_CmdOperCond
 945              		.syntax unified
 946              		.thumb
 947              		.thumb_func
 948              		.fpu softvfp
 950              	SDMMC_CmdOperCond:
 951              		@ args = 0, pretend = 0, frame = 24
 952              		@ frame_needed = 0, uses_anonymous_args = 0
 953 0000 4FF4D57C 		mov	ip, #426
 954 0004 0823     		movs	r3, #8
 955 0006 10B5     		push	{r4, lr}
 956 0008 86B0     		sub	sp, sp, #24
 957 000a 4FF0400E 		mov	lr, #64
 958 000e CDE901C3 		strd	ip, r3, [sp, #4]
 959 0012 0023     		movs	r3, #0
 960 0014 CDE903E3 		strd	lr, r3, [sp, #12]
 961 0018 4FF48063 		mov	r3, #1024
 962 001c 01A9     		add	r1, sp, #4
 963 001e 0593     		str	r3, [sp, #20]
 964 0020 0446     		mov	r4, r0
 965 0022 FFF7FEFF 		bl	SDIO_SendCommand
 966 0026 4FF4FA52 		mov	r2, #8000
 967 002a 124B     		ldr	r3, .L110
 968 002c 1B68     		ldr	r3, [r3]
 969 002e B3FBF2F2 		udiv	r2, r3, r2
 970 0032 41F28833 		movw	r3, #5000
 971 0036 5343     		muls	r3, r2, r3
ARM GAS  /tmp/ccUk8yte.s 			page 17


 972              	.L106:
 973 0038 013B     		subs	r3, r3, #1
 974 003a 18D3     		bcc	.L101
 975 003c 626B     		ldr	r2, [r4, #52]
 976 003e 12F0450F 		tst	r2, #69
 977 0042 F9D0     		beq	.L106
 978 0044 1105     		lsls	r1, r2, #20
 979 0046 F7D4     		bmi	.L106
 980 0048 636B     		ldr	r3, [r4, #52]
 981 004a 5A07     		lsls	r2, r3, #29
 982 004c 03D5     		bpl	.L99
 983 004e 0420     		movs	r0, #4
 984 0050 A063     		str	r0, [r4, #56]
 985              	.L96:
 986 0052 06B0     		add	sp, sp, #24
 987              		@ sp needed
 988 0054 10BD     		pop	{r4, pc}
 989              	.L99:
 990 0056 606B     		ldr	r0, [r4, #52]
 991 0058 10F00100 		ands	r0, r0, #1
 992 005c 02D0     		beq	.L100
 993 005e 0123     		movs	r3, #1
 994              	.L109:
 995 0060 A363     		str	r3, [r4, #56]
 996 0062 F6E7     		b	.L96
 997              	.L100:
 998 0064 636B     		ldr	r3, [r4, #52]
 999 0066 5B06     		lsls	r3, r3, #25
 1000 0068 F3D5     		bpl	.L96
 1001 006a 4023     		movs	r3, #64
 1002 006c F8E7     		b	.L109
 1003              	.L101:
 1004 006e 4FF00040 		mov	r0, #-2147483648
 1005 0072 EEE7     		b	.L96
 1006              	.L111:
 1007              		.align	2
 1008              	.L110:
 1009 0074 00000000 		.word	SystemCoreClock
 1011              		.section	.text.SDMMC_CmdAppCommand,"ax",%progbits
 1012              		.align	1
 1013              		.global	SDMMC_CmdAppCommand
 1014              		.syntax unified
 1015              		.thumb
 1016              		.thumb_func
 1017              		.fpu softvfp
 1019              	SDMMC_CmdAppCommand:
 1020              		@ args = 0, pretend = 0, frame = 24
 1021              		@ frame_needed = 0, uses_anonymous_args = 0
 1022 0000 30B5     		push	{r4, r5, lr}
 1023 0002 4023     		movs	r3, #64
 1024 0004 3725     		movs	r5, #55
 1025 0006 87B0     		sub	sp, sp, #28
 1026 0008 0446     		mov	r4, r0
 1027 000a 0022     		movs	r2, #0
 1028 000c CDE90253 		strd	r5, r3, [sp, #8]
 1029 0010 4FF48063 		mov	r3, #1024
 1030 0014 0191     		str	r1, [sp, #4]
ARM GAS  /tmp/ccUk8yte.s 			page 18


 1031 0016 01A9     		add	r1, sp, #4
 1032 0018 CDE90423 		strd	r2, r3, [sp, #16]
 1033 001c FFF7FEFF 		bl	SDIO_SendCommand
 1034 0020 41F28832 		movw	r2, #5000
 1035 0024 2946     		mov	r1, r5
 1036 0026 2046     		mov	r0, r4
 1037 0028 FFF7FEFF 		bl	SDMMC_GetCmdResp1
 1038 002c 07B0     		add	sp, sp, #28
 1039              		@ sp needed
 1040 002e 30BD     		pop	{r4, r5, pc}
 1042              		.section	.text.SDMMC_CmdAppOperCommand,"ax",%progbits
 1043              		.align	1
 1044              		.global	SDMMC_CmdAppOperCommand
 1045              		.syntax unified
 1046              		.thumb
 1047              		.thumb_func
 1048              		.fpu softvfp
 1050              	SDMMC_CmdAppOperCommand:
 1051              		@ args = 0, pretend = 0, frame = 24
 1052              		@ frame_needed = 0, uses_anonymous_args = 0
 1053 0000 2922     		movs	r2, #41
 1054 0002 4023     		movs	r3, #64
 1055 0004 10B5     		push	{r4, lr}
 1056 0006 41F00041 		orr	r1, r1, #-2147483648
 1057 000a 86B0     		sub	sp, sp, #24
 1058 000c 41F48011 		orr	r1, r1, #1048576
 1059 0010 CDE90223 		strd	r2, r3, [sp, #8]
 1060 0014 0191     		str	r1, [sp, #4]
 1061 0016 4FF48063 		mov	r3, #1024
 1062 001a 0021     		movs	r1, #0
 1063 001c 0446     		mov	r4, r0
 1064 001e CDE90413 		strd	r1, r3, [sp, #16]
 1065 0022 01A9     		add	r1, sp, #4
 1066 0024 FFF7FEFF 		bl	SDIO_SendCommand
 1067 0028 2046     		mov	r0, r4
 1068 002a FFF7FEFF 		bl	SDMMC_GetCmdResp3
 1069 002e 06B0     		add	sp, sp, #24
 1070              		@ sp needed
 1071 0030 10BD     		pop	{r4, pc}
 1073              		.section	.text.SDMMC_CmdBusWidth,"ax",%progbits
 1074              		.align	1
 1075              		.global	SDMMC_CmdBusWidth
 1076              		.syntax unified
 1077              		.thumb
 1078              		.thumb_func
 1079              		.fpu softvfp
 1081              	SDMMC_CmdBusWidth:
 1082              		@ args = 0, pretend = 0, frame = 24
 1083              		@ frame_needed = 0, uses_anonymous_args = 0
 1084 0000 30B5     		push	{r4, r5, lr}
 1085 0002 4023     		movs	r3, #64
 1086 0004 0625     		movs	r5, #6
 1087 0006 87B0     		sub	sp, sp, #28
 1088 0008 0446     		mov	r4, r0
 1089 000a 0022     		movs	r2, #0
 1090 000c CDE90253 		strd	r5, r3, [sp, #8]
 1091 0010 4FF48063 		mov	r3, #1024
ARM GAS  /tmp/ccUk8yte.s 			page 19


 1092 0014 0191     		str	r1, [sp, #4]
 1093 0016 01A9     		add	r1, sp, #4
 1094 0018 CDE90423 		strd	r2, r3, [sp, #16]
 1095 001c FFF7FEFF 		bl	SDIO_SendCommand
 1096 0020 41F28832 		movw	r2, #5000
 1097 0024 2946     		mov	r1, r5
 1098 0026 2046     		mov	r0, r4
 1099 0028 FFF7FEFF 		bl	SDMMC_GetCmdResp1
 1100 002c 07B0     		add	sp, sp, #28
 1101              		@ sp needed
 1102 002e 30BD     		pop	{r4, r5, pc}
 1104              		.section	.text.SDMMC_CmdSendSCR,"ax",%progbits
 1105              		.align	1
 1106              		.global	SDMMC_CmdSendSCR
 1107              		.syntax unified
 1108              		.thumb
 1109              		.thumb_func
 1110              		.fpu softvfp
 1112              	SDMMC_CmdSendSCR:
 1113              		@ args = 0, pretend = 0, frame = 24
 1114              		@ frame_needed = 0, uses_anonymous_args = 0
 1115 0000 30B5     		push	{r4, r5, lr}
 1116 0002 0023     		movs	r3, #0
 1117 0004 3325     		movs	r5, #51
 1118 0006 4022     		movs	r2, #64
 1119 0008 87B0     		sub	sp, sp, #28
 1120 000a CDE90323 		strd	r2, r3, [sp, #12]
 1121 000e 0446     		mov	r4, r0
 1122 0010 CDE90135 		strd	r3, r5, [sp, #4]
 1123 0014 4FF48063 		mov	r3, #1024
 1124 0018 01A9     		add	r1, sp, #4
 1125 001a 0593     		str	r3, [sp, #20]
 1126 001c FFF7FEFF 		bl	SDIO_SendCommand
 1127 0020 41F28832 		movw	r2, #5000
 1128 0024 2946     		mov	r1, r5
 1129 0026 2046     		mov	r0, r4
 1130 0028 FFF7FEFF 		bl	SDMMC_GetCmdResp1
 1131 002c 07B0     		add	sp, sp, #28
 1132              		@ sp needed
 1133 002e 30BD     		pop	{r4, r5, pc}
 1135              		.section	.text.SDMMC_CmdSendCID,"ax",%progbits
 1136              		.align	1
 1137              		.global	SDMMC_CmdSendCID
 1138              		.syntax unified
 1139              		.thumb
 1140              		.thumb_func
 1141              		.fpu softvfp
 1143              	SDMMC_CmdSendCID:
 1144              		@ args = 0, pretend = 0, frame = 24
 1145              		@ frame_needed = 0, uses_anonymous_args = 0
 1146 0000 0023     		movs	r3, #0
 1147 0002 0222     		movs	r2, #2
 1148 0004 10B5     		push	{r4, lr}
 1149 0006 86B0     		sub	sp, sp, #24
 1150 0008 CDE90132 		strd	r3, r2, [sp, #4]
 1151 000c C022     		movs	r2, #192
 1152 000e 0446     		mov	r4, r0
ARM GAS  /tmp/ccUk8yte.s 			page 20


 1153 0010 CDE90323 		strd	r2, r3, [sp, #12]
 1154 0014 4FF48063 		mov	r3, #1024
 1155 0018 01A9     		add	r1, sp, #4
 1156 001a 0593     		str	r3, [sp, #20]
 1157 001c FFF7FEFF 		bl	SDIO_SendCommand
 1158 0020 2046     		mov	r0, r4
 1159 0022 FFF7FEFF 		bl	SDMMC_GetCmdResp2
 1160 0026 06B0     		add	sp, sp, #24
 1161              		@ sp needed
 1162 0028 10BD     		pop	{r4, pc}
 1164              		.section	.text.SDMMC_CmdSendCSD,"ax",%progbits
 1165              		.align	1
 1166              		.global	SDMMC_CmdSendCSD
 1167              		.syntax unified
 1168              		.thumb
 1169              		.thumb_func
 1170              		.fpu softvfp
 1172              	SDMMC_CmdSendCSD:
 1173              		@ args = 0, pretend = 0, frame = 24
 1174              		@ frame_needed = 0, uses_anonymous_args = 0
 1175 0000 0922     		movs	r2, #9
 1176 0002 C023     		movs	r3, #192
 1177 0004 10B5     		push	{r4, lr}
 1178 0006 86B0     		sub	sp, sp, #24
 1179 0008 CDE90223 		strd	r2, r3, [sp, #8]
 1180 000c 0191     		str	r1, [sp, #4]
 1181 000e 4FF48063 		mov	r3, #1024
 1182 0012 0021     		movs	r1, #0
 1183 0014 0446     		mov	r4, r0
 1184 0016 CDE90413 		strd	r1, r3, [sp, #16]
 1185 001a 01A9     		add	r1, sp, #4
 1186 001c FFF7FEFF 		bl	SDIO_SendCommand
 1187 0020 2046     		mov	r0, r4
 1188 0022 FFF7FEFF 		bl	SDMMC_GetCmdResp2
 1189 0026 06B0     		add	sp, sp, #24
 1190              		@ sp needed
 1191 0028 10BD     		pop	{r4, pc}
 1193              		.section	.text.SDMMC_CmdSetRelAdd,"ax",%progbits
 1194              		.align	1
 1195              		.global	SDMMC_CmdSetRelAdd
 1196              		.syntax unified
 1197              		.thumb
 1198              		.thumb_func
 1199              		.fpu softvfp
 1201              	SDMMC_CmdSetRelAdd:
 1202              		@ args = 0, pretend = 0, frame = 24
 1203              		@ frame_needed = 0, uses_anonymous_args = 0
 1204 0000 0023     		movs	r3, #0
 1205 0002 0322     		movs	r2, #3
 1206 0004 30B5     		push	{r4, r5, lr}
 1207 0006 87B0     		sub	sp, sp, #28
 1208 0008 CDE90132 		strd	r3, r2, [sp, #4]
 1209 000c 4022     		movs	r2, #64
 1210 000e CDE90323 		strd	r2, r3, [sp, #12]
 1211 0012 4FF48063 		mov	r3, #1024
 1212 0016 0D46     		mov	r5, r1
 1213 0018 01A9     		add	r1, sp, #4
ARM GAS  /tmp/ccUk8yte.s 			page 21


 1214 001a 0593     		str	r3, [sp, #20]
 1215 001c 0446     		mov	r4, r0
 1216 001e FFF7FEFF 		bl	SDIO_SendCommand
 1217 0022 4FF4FA52 		mov	r2, #8000
 1218 0026 1E4B     		ldr	r3, .L132
 1219 0028 1B68     		ldr	r3, [r3]
 1220 002a B3FBF2F2 		udiv	r2, r3, r2
 1221 002e 41F28833 		movw	r3, #5000
 1222 0032 5343     		muls	r3, r2, r3
 1223              	.L130:
 1224 0034 013B     		subs	r3, r3, #1
 1225 0036 2AD3     		bcc	.L124
 1226 0038 626B     		ldr	r2, [r4, #52]
 1227 003a 12F0450F 		tst	r2, #69
 1228 003e F9D0     		beq	.L130
 1229 0040 1005     		lsls	r0, r2, #20
 1230 0042 F7D4     		bmi	.L130
 1231 0044 636B     		ldr	r3, [r4, #52]
 1232 0046 5907     		lsls	r1, r3, #29
 1233 0048 03D5     		bpl	.L121
 1234 004a 0420     		movs	r0, #4
 1235 004c A063     		str	r0, [r4, #56]
 1236              	.L118:
 1237 004e 07B0     		add	sp, sp, #28
 1238              		@ sp needed
 1239 0050 30BD     		pop	{r4, r5, pc}
 1240              	.L121:
 1241 0052 606B     		ldr	r0, [r4, #52]
 1242 0054 10F00100 		ands	r0, r0, #1
 1243 0058 02D0     		beq	.L122
 1244 005a 0123     		movs	r3, #1
 1245 005c A363     		str	r3, [r4, #56]
 1246 005e F6E7     		b	.L118
 1247              	.L122:
 1248 0060 2369     		ldr	r3, [r4, #16]
 1249 0062 DBB2     		uxtb	r3, r3
 1250 0064 032B     		cmp	r3, #3
 1251 0066 15D1     		bne	.L125
 1252 0068 C523     		movs	r3, #197
 1253 006a A363     		str	r3, [r4, #56]
 1254 006c 6369     		ldr	r3, [r4, #20]
 1255 006e 13F46040 		ands	r0, r3, #57344
 1256 0072 02D1     		bne	.L123
 1257 0074 1B0C     		lsrs	r3, r3, #16
 1258 0076 2B80     		strh	r3, [r5]	@ movhi
 1259 0078 E9E7     		b	.L118
 1260              	.L123:
 1261 007a 5A04     		lsls	r2, r3, #17
 1262 007c 0CD4     		bmi	.L126
 1263 007e 13F4004F 		tst	r3, #32768
 1264 0082 14BF     		ite	ne
 1265 0084 4FF48050 		movne	r0, #4096
 1266 0088 4FF48030 		moveq	r0, #65536
 1267 008c DFE7     		b	.L118
 1268              	.L124:
 1269 008e 4FF00040 		mov	r0, #-2147483648
 1270 0092 DCE7     		b	.L118
ARM GAS  /tmp/ccUk8yte.s 			page 22


 1271              	.L125:
 1272 0094 0120     		movs	r0, #1
 1273 0096 DAE7     		b	.L118
 1274              	.L126:
 1275 0098 4FF40050 		mov	r0, #8192
 1276 009c D7E7     		b	.L118
 1277              	.L133:
 1278 009e 00BF     		.align	2
 1279              	.L132:
 1280 00a0 00000000 		.word	SystemCoreClock
 1282              		.section	.text.SDMMC_CmdSendStatus,"ax",%progbits
 1283              		.align	1
 1284              		.global	SDMMC_CmdSendStatus
 1285              		.syntax unified
 1286              		.thumb
 1287              		.thumb_func
 1288              		.fpu softvfp
 1290              	SDMMC_CmdSendStatus:
 1291              		@ args = 0, pretend = 0, frame = 24
 1292              		@ frame_needed = 0, uses_anonymous_args = 0
 1293 0000 30B5     		push	{r4, r5, lr}
 1294 0002 4023     		movs	r3, #64
 1295 0004 0D25     		movs	r5, #13
 1296 0006 87B0     		sub	sp, sp, #28
 1297 0008 0446     		mov	r4, r0
 1298 000a 0022     		movs	r2, #0
 1299 000c CDE90253 		strd	r5, r3, [sp, #8]
 1300 0010 4FF48063 		mov	r3, #1024
 1301 0014 0191     		str	r1, [sp, #4]
 1302 0016 01A9     		add	r1, sp, #4
 1303 0018 CDE90423 		strd	r2, r3, [sp, #16]
 1304 001c FFF7FEFF 		bl	SDIO_SendCommand
 1305 0020 41F28832 		movw	r2, #5000
 1306 0024 2946     		mov	r1, r5
 1307 0026 2046     		mov	r0, r4
 1308 0028 FFF7FEFF 		bl	SDMMC_GetCmdResp1
 1309 002c 07B0     		add	sp, sp, #28
 1310              		@ sp needed
 1311 002e 30BD     		pop	{r4, r5, pc}
 1313              		.section	.text.SDMMC_CmdStatusRegister,"ax",%progbits
 1314              		.align	1
 1315              		.global	SDMMC_CmdStatusRegister
 1316              		.syntax unified
 1317              		.thumb
 1318              		.thumb_func
 1319              		.fpu softvfp
 1321              	SDMMC_CmdStatusRegister:
 1322              		@ args = 0, pretend = 0, frame = 24
 1323              		@ frame_needed = 0, uses_anonymous_args = 0
 1324 0000 30B5     		push	{r4, r5, lr}
 1325 0002 0023     		movs	r3, #0
 1326 0004 0D25     		movs	r5, #13
 1327 0006 4022     		movs	r2, #64
 1328 0008 87B0     		sub	sp, sp, #28
 1329 000a CDE90323 		strd	r2, r3, [sp, #12]
 1330 000e 0446     		mov	r4, r0
 1331 0010 CDE90135 		strd	r3, r5, [sp, #4]
ARM GAS  /tmp/ccUk8yte.s 			page 23


 1332 0014 4FF48063 		mov	r3, #1024
 1333 0018 01A9     		add	r1, sp, #4
 1334 001a 0593     		str	r3, [sp, #20]
 1335 001c FFF7FEFF 		bl	SDIO_SendCommand
 1336 0020 41F28832 		movw	r2, #5000
 1337 0024 2946     		mov	r1, r5
 1338 0026 2046     		mov	r0, r4
 1339 0028 FFF7FEFF 		bl	SDMMC_GetCmdResp1
 1340 002c 07B0     		add	sp, sp, #28
 1341              		@ sp needed
 1342 002e 30BD     		pop	{r4, r5, pc}
 1344              		.section	.text.SDMMC_CmdOpCondition,"ax",%progbits
 1345              		.align	1
 1346              		.global	SDMMC_CmdOpCondition
 1347              		.syntax unified
 1348              		.thumb
 1349              		.thumb_func
 1350              		.fpu softvfp
 1352              	SDMMC_CmdOpCondition:
 1353              		@ args = 0, pretend = 0, frame = 24
 1354              		@ frame_needed = 0, uses_anonymous_args = 0
 1355 0000 0122     		movs	r2, #1
 1356 0002 4023     		movs	r3, #64
 1357 0004 10B5     		push	{r4, lr}
 1358 0006 86B0     		sub	sp, sp, #24
 1359 0008 CDE90223 		strd	r2, r3, [sp, #8]
 1360 000c 0191     		str	r1, [sp, #4]
 1361 000e 4FF48063 		mov	r3, #1024
 1362 0012 0021     		movs	r1, #0
 1363 0014 0446     		mov	r4, r0
 1364 0016 CDE90413 		strd	r1, r3, [sp, #16]
 1365 001a 01A9     		add	r1, sp, #4
 1366 001c FFF7FEFF 		bl	SDIO_SendCommand
 1367 0020 2046     		mov	r0, r4
 1368 0022 FFF7FEFF 		bl	SDMMC_GetCmdResp3
 1369 0026 06B0     		add	sp, sp, #24
 1370              		@ sp needed
 1371 0028 10BD     		pop	{r4, pc}
 1373              		.section	.text.SDMMC_CmdSwitch,"ax",%progbits
 1374              		.align	1
 1375              		.global	SDMMC_CmdSwitch
 1376              		.syntax unified
 1377              		.thumb
 1378              		.thumb_func
 1379              		.fpu softvfp
 1381              	SDMMC_CmdSwitch:
 1382              		@ args = 0, pretend = 0, frame = 0
 1383              		@ frame_needed = 0, uses_anonymous_args = 0
 1384              		@ link register save eliminated.
 1385 0000 FFF7FEBF 		b	SDMMC_CmdBusWidth
 1387              		.ident	"GCC: (GNU Tools for Arm Embedded Processors 9-2019-q4-major) 9.2.1 20191025 (release) [ARM
ARM GAS  /tmp/ccUk8yte.s 			page 24

