ARM GAS  /tmp/ccBxesNo.s 			page 1


   1              		.cpu cortex-m3
   2              		.eabi_attribute 20, 1
   3              		.eabi_attribute 21, 1
   4              		.eabi_attribute 23, 3
   5              		.eabi_attribute 24, 1
   6              		.eabi_attribute 25, 1
   7              		.eabi_attribute 26, 1
   8              		.eabi_attribute 30, 4
   9              		.eabi_attribute 34, 1
  10              		.eabi_attribute 18, 4
  11              		.file	"stm32f1xx_hal_sd.c"
  12              		.text
  13              		.section	.text.SD_DMATransmitCplt,"ax",%progbits
  14              		.align	1
  15              		.arch armv7-m
  16              		.syntax unified
  17              		.thumb
  18              		.thumb_func
  19              		.fpu softvfp
  21              	SD_DMATransmitCplt:
  22              		@ args = 0, pretend = 0, frame = 0
  23              		@ frame_needed = 0, uses_anonymous_args = 0
  24              		@ link register save eliminated.
  25 0000 436A     		ldr	r3, [r0, #36]
  26 0002 1A68     		ldr	r2, [r3]
  27 0004 D36B     		ldr	r3, [r2, #60]
  28 0006 43F48073 		orr	r3, r3, #256
  29 000a D363     		str	r3, [r2, #60]
  30 000c 7047     		bx	lr
  32              		.section	.text.SD_FindSCR,"ax",%progbits
  33              		.align	1
  34              		.syntax unified
  35              		.thumb
  36              		.thumb_func
  37              		.fpu softvfp
  39              	SD_FindSCR:
  40              		@ args = 0, pretend = 0, frame = 32
  41              		@ frame_needed = 0, uses_anonymous_args = 0
  42 0000 2DE9F041 		push	{r4, r5, r6, r7, r8, lr}
  43 0004 88B0     		sub	sp, sp, #32
  44 0006 0546     		mov	r5, r0
  45 0008 0E46     		mov	r6, r1
  46 000a FFF7FEFF 		bl	HAL_GetTick
  47 000e 0023     		movs	r3, #0
  48 0010 0746     		mov	r7, r0
  49 0012 0821     		movs	r1, #8
  50 0014 2868     		ldr	r0, [r5]
  51 0016 CDE90033 		strd	r3, r3, [sp]
  52 001a FFF7FEFF 		bl	SDMMC_CmdBlockLength
  53 001e 0446     		mov	r4, r0
  54 0020 40BB     		cbnz	r0, .L2
  55 0022 296D     		ldr	r1, [r5, #80]
  56 0024 2868     		ldr	r0, [r5]
  57 0026 0904     		lsls	r1, r1, #16
  58 0028 FFF7FEFF 		bl	SDMMC_CmdAppCommand
  59 002c 0446     		mov	r4, r0
  60 002e 08BB     		cbnz	r0, .L2
ARM GAS  /tmp/ccBxesNo.s 			page 2


  61 0030 4FF0FF30 		mov	r0, #-1
  62 0034 0823     		movs	r3, #8
  63 0036 4FF0300C 		mov	ip, #48
  64 003a CDE90203 		strd	r0, r3, [sp, #8]
  65 003e 0223     		movs	r3, #2
  66 0040 CDE904C3 		strd	ip, r3, [sp, #16]
  67 0044 0123     		movs	r3, #1
  68 0046 02A9     		add	r1, sp, #8
  69 0048 2868     		ldr	r0, [r5]
  70 004a 0694     		str	r4, [sp, #24]
  71 004c 0793     		str	r3, [sp, #28]
  72 004e FFF7FEFF 		bl	SDIO_ConfigData
  73 0052 2868     		ldr	r0, [r5]
  74 0054 FFF7FEFF 		bl	SDMMC_CmdSendSCR
  75 0058 0446     		mov	r4, r0
  76 005a 58B9     		cbnz	r0, .L2
  77 005c 40F22A48 		movw	r8, #1066
  78              	.L4:
  79 0060 2868     		ldr	r0, [r5]
  80 0062 426B     		ldr	r2, [r0, #52]
  81 0064 12EA080F 		tst	r2, r8
  82 0068 426B     		ldr	r2, [r0, #52]
  83 006a 07D0     		beq	.L6
  84 006c 1207     		lsls	r2, r2, #28
  85 006e 17D5     		bpl	.L7
  86 0070 0824     		movs	r4, #8
  87              	.L14:
  88 0072 8463     		str	r4, [r0, #56]
  89              	.L2:
  90 0074 2046     		mov	r0, r4
  91 0076 08B0     		add	sp, sp, #32
  92              		@ sp needed
  93 0078 BDE8F081 		pop	{r4, r5, r6, r7, r8, pc}
  94              	.L6:
  95 007c 9102     		lsls	r1, r2, #10
  96 007e 07D5     		bpl	.L5
  97 0080 FFF7FEFF 		bl	SDIO_ReadFIFO
  98 0084 08AB     		add	r3, sp, #32
  99 0086 03EB8403 		add	r3, r3, r4, lsl #2
 100 008a 43F8200C 		str	r0, [r3, #-32]
 101 008e 0134     		adds	r4, r4, #1
 102              	.L5:
 103 0090 FFF7FEFF 		bl	HAL_GetTick
 104 0094 C01B     		subs	r0, r0, r7
 105 0096 0130     		adds	r0, r0, #1
 106 0098 E2D1     		bne	.L4
 107 009a 4FF00044 		mov	r4, #-2147483648
 108 009e E9E7     		b	.L2
 109              	.L7:
 110 00a0 426B     		ldr	r2, [r0, #52]
 111 00a2 9307     		lsls	r3, r2, #30
 112 00a4 01D5     		bpl	.L8
 113 00a6 0224     		movs	r4, #2
 114 00a8 E3E7     		b	.L14
 115              	.L8:
 116 00aa 446B     		ldr	r4, [r0, #52]
 117 00ac 14F02004 		ands	r4, r4, #32
ARM GAS  /tmp/ccBxesNo.s 			page 3


 118 00b0 01D0     		beq	.L9
 119 00b2 2024     		movs	r4, #32
 120 00b4 DDE7     		b	.L14
 121              	.L9:
 122 00b6 40F23A52 		movw	r2, #1338
 123 00ba 019B     		ldr	r3, [sp, #4]
 124 00bc 8263     		str	r2, [r0, #56]
 125 00be 1BBA     		rev	r3, r3
 126 00c0 3360     		str	r3, [r6]
 127 00c2 009B     		ldr	r3, [sp]
 128 00c4 1BBA     		rev	r3, r3
 129 00c6 7360     		str	r3, [r6, #4]
 130 00c8 D4E7     		b	.L2
 132              		.section	.text.HAL_SD_MspInit,"ax",%progbits
 133              		.align	1
 134              		.weak	HAL_SD_MspInit
 135              		.syntax unified
 136              		.thumb
 137              		.thumb_func
 138              		.fpu softvfp
 140              	HAL_SD_MspInit:
 141              		@ args = 0, pretend = 0, frame = 0
 142              		@ frame_needed = 0, uses_anonymous_args = 0
 143              		@ link register save eliminated.
 144 0000 7047     		bx	lr
 146              		.section	.text.HAL_SD_MspDeInit,"ax",%progbits
 147              		.align	1
 148              		.weak	HAL_SD_MspDeInit
 149              		.syntax unified
 150              		.thumb
 151              		.thumb_func
 152              		.fpu softvfp
 154              	HAL_SD_MspDeInit:
 155              		@ args = 0, pretend = 0, frame = 0
 156              		@ frame_needed = 0, uses_anonymous_args = 0
 157              		@ link register save eliminated.
 158 0000 7047     		bx	lr
 160              		.section	.text.HAL_SD_DeInit,"ax",%progbits
 161              		.align	1
 162              		.global	HAL_SD_DeInit
 163              		.syntax unified
 164              		.thumb
 165              		.thumb_func
 166              		.fpu softvfp
 168              	HAL_SD_DeInit:
 169              		@ args = 0, pretend = 0, frame = 0
 170              		@ frame_needed = 0, uses_anonymous_args = 0
 171 0000 10B5     		push	{r4, lr}
 172 0002 0446     		mov	r4, r0
 173 0004 68B1     		cbz	r0, .L19
 174 0006 0323     		movs	r3, #3
 175 0008 80F83430 		strb	r3, [r0, #52]
 176 000c 0068     		ldr	r0, [r0]
 177 000e FFF7FEFF 		bl	SDIO_PowerState_OFF
 178 0012 2046     		mov	r0, r4
 179 0014 FFF7FEFF 		bl	HAL_SD_MspDeInit
 180 0018 0020     		movs	r0, #0
ARM GAS  /tmp/ccBxesNo.s 			page 4


 181 001a A063     		str	r0, [r4, #56]
 182 001c 84F83400 		strb	r0, [r4, #52]
 183              	.L18:
 184 0020 10BD     		pop	{r4, pc}
 185              	.L19:
 186 0022 0120     		movs	r0, #1
 187 0024 FCE7     		b	.L18
 189              		.section	.text.HAL_SD_ReadBlocks,"ax",%progbits
 190              		.align	1
 191              		.global	HAL_SD_ReadBlocks
 192              		.syntax unified
 193              		.thumb
 194              		.thumb_func
 195              		.fpu softvfp
 197              	HAL_SD_ReadBlocks:
 198              		@ args = 4, pretend = 0, frame = 32
 199              		@ frame_needed = 0, uses_anonymous_args = 0
 200 0000 2DE9F04F 		push	{r4, r5, r6, r7, r8, r9, r10, fp, lr}
 201 0004 89B0     		sub	sp, sp, #36
 202 0006 0446     		mov	r4, r0
 203 0008 0D46     		mov	r5, r1
 204 000a 1646     		mov	r6, r2
 205 000c 9A46     		mov	r10, r3
 206 000e FFF7FEFF 		bl	HAL_GetTick
 207 0012 8046     		mov	r8, r0
 208 0014 2DB9     		cbnz	r5, .L21
 209 0016 A36B     		ldr	r3, [r4, #56]
 210 0018 43F00063 		orr	r3, r3, #134217728
 211              	.L65:
 212 001c 0127     		movs	r7, #1
 213 001e A363     		str	r3, [r4, #56]
 214 0020 10E0     		b	.L22
 215              	.L21:
 216 0022 94F83430 		ldrb	r3, [r4, #52]	@ zero_extendqisi2
 217 0026 012B     		cmp	r3, #1
 218 0028 DFB2     		uxtb	r7, r3
 219 002a 40F0F580 		bne	.L23
 220 002e 0021     		movs	r1, #0
 221 0030 E26D     		ldr	r2, [r4, #92]
 222 0032 06EB0A03 		add	r3, r6, r10
 223 0036 9342     		cmp	r3, r2
 224 0038 A163     		str	r1, [r4, #56]
 225 003a 07D9     		bls	.L24
 226 003c A36B     		ldr	r3, [r4, #56]
 227 003e 43F00073 		orr	r3, r3, #33554432
 228 0042 A363     		str	r3, [r4, #56]
 229              	.L22:
 230 0044 3846     		mov	r0, r7
 231 0046 09B0     		add	sp, sp, #36
 232              		@ sp needed
 233 0048 BDE8F08F 		pop	{r4, r5, r6, r7, r8, r9, r10, fp, pc}
 234              	.L24:
 235 004c 0323     		movs	r3, #3
 236 004e 2068     		ldr	r0, [r4]
 237 0050 84F83430 		strb	r3, [r4, #52]
 238 0054 636C     		ldr	r3, [r4, #68]
 239 0056 C162     		str	r1, [r0, #44]
ARM GAS  /tmp/ccBxesNo.s 			page 5


 240 0058 012B     		cmp	r3, #1
 241 005a 4FF40071 		mov	r1, #512
 242 005e 18BF     		it	ne
 243 0060 7602     		lslne	r6, r6, #9
 244 0062 FFF7FEFF 		bl	SDMMC_CmdBlockLength
 245 0066 48B1     		cbz	r0, .L26
 246 0068 2368     		ldr	r3, [r4]
 247 006a 6D4A     		ldr	r2, .L69
 248 006c 9A63     		str	r2, [r3, #56]
 249 006e A36B     		ldr	r3, [r4, #56]
 250 0070 1843     		orrs	r0, r0, r3
 251 0072 0123     		movs	r3, #1
 252 0074 A063     		str	r0, [r4, #56]
 253 0076 84F83430 		strb	r3, [r4, #52]
 254 007a E3E7     		b	.L22
 255              	.L26:
 256 007c 4FF0FF33 		mov	r3, #-1
 257 0080 0293     		str	r3, [sp, #8]
 258 0082 4FEA4A23 		lsl	r3, r10, #9
 259 0086 4FF0010B 		mov	fp, #1
 260 008a 0393     		str	r3, [sp, #12]
 261 008c 4FF00209 		mov	r9, #2
 262 0090 9023     		movs	r3, #144
 263 0092 0690     		str	r0, [sp, #24]
 264 0094 02A9     		add	r1, sp, #8
 265 0096 2068     		ldr	r0, [r4]
 266 0098 CDE90439 		strd	r3, r9, [sp, #16]
 267 009c CDF81CB0 		str	fp, [sp, #28]
 268 00a0 FFF7FEFF 		bl	SDIO_ConfigData
 269 00a4 DA45     		cmp	r10, fp
 270 00a6 12D9     		bls	.L27
 271 00a8 3146     		mov	r1, r6
 272 00aa 2068     		ldr	r0, [r4]
 273 00ac C4F83090 		str	r9, [r4, #48]
 274 00b0 FFF7FEFF 		bl	SDMMC_CmdReadMultiBlock
 275              	.L28:
 276 00b4 90B1     		cbz	r0, .L29
 277              	.L66:
 278 00b6 2368     		ldr	r3, [r4]
 279 00b8 594A     		ldr	r2, .L69
 280 00ba 9A63     		str	r2, [r3, #56]
 281 00bc A36B     		ldr	r3, [r4, #56]
 282 00be 1843     		orrs	r0, r0, r3
 283 00c0 A063     		str	r0, [r4, #56]
 284              	.L67:
 285 00c2 0123     		movs	r3, #1
 286 00c4 84F83430 		strb	r3, [r4, #52]
 287 00c8 0023     		movs	r3, #0
 288 00ca 2363     		str	r3, [r4, #48]
 289 00cc BAE7     		b	.L22
 290              	.L27:
 291 00ce 3146     		mov	r1, r6
 292 00d0 2068     		ldr	r0, [r4]
 293 00d2 C4F830B0 		str	fp, [r4, #48]
 294 00d6 FFF7FEFF 		bl	SDMMC_CmdReadSingleBlock
 295 00da EBE7     		b	.L28
 296              	.L29:
ARM GAS  /tmp/ccBxesNo.s 			page 6


 297 00dc 40F22A3B 		movw	fp, #810
 298 00e0 039E     		ldr	r6, [sp, #12]
 299              	.L30:
 300 00e2 2068     		ldr	r0, [r4]
 301 00e4 436B     		ldr	r3, [r0, #52]
 302 00e6 13EA0B0F 		tst	r3, fp
 303 00ea 436B     		ldr	r3, [r0, #52]
 304 00ec 17D0     		beq	.L33
 305 00ee DB05     		lsls	r3, r3, #23
 306 00f0 09D5     		bpl	.L34
 307 00f2 BAF1010F 		cmp	r10, #1
 308 00f6 06D9     		bls	.L34
 309 00f8 636C     		ldr	r3, [r4, #68]
 310 00fa 032B     		cmp	r3, #3
 311 00fc 03D0     		beq	.L34
 312 00fe FFF7FEFF 		bl	SDMMC_CmdStopTransfer
 313 0102 0028     		cmp	r0, #0
 314 0104 D7D1     		bne	.L66
 315              	.L34:
 316 0106 2368     		ldr	r3, [r4]
 317 0108 596B     		ldr	r1, [r3, #52]
 318 010a 11F00801 		ands	r1, r1, #8
 319 010e 38D0     		beq	.L35
 320 0110 434A     		ldr	r2, .L69
 321 0112 9A63     		str	r2, [r3, #56]
 322 0114 A36B     		ldr	r3, [r4, #56]
 323 0116 43F00803 		orr	r3, r3, #8
 324              	.L68:
 325 011a A363     		str	r3, [r4, #56]
 326 011c D1E7     		b	.L67
 327              	.L33:
 328 011e 1A04     		lsls	r2, r3, #16
 329 0120 1AD5     		bpl	.L31
 330 0122 CEB1     		cbz	r6, .L31
 331 0124 05F10409 		add	r9, r5, #4
 332 0128 05F12402 		add	r2, r5, #36
 333              	.L32:
 334 012c 2068     		ldr	r0, [r4]
 335 012e 0192     		str	r2, [sp, #4]
 336 0130 FFF7FEFF 		bl	SDIO_ReadFIFO
 337 0134 010A     		lsrs	r1, r0, #8
 338 0136 09F8040C 		strb	r0, [r9, #-4]
 339 013a 09F8031C 		strb	r1, [r9, #-3]
 340 013e 019A     		ldr	r2, [sp, #4]
 341 0140 010C     		lsrs	r1, r0, #16
 342 0142 000E     		lsrs	r0, r0, #24
 343 0144 09F8021C 		strb	r1, [r9, #-2]
 344 0148 09F8010C 		strb	r0, [r9, #-1]
 345 014c 09F10409 		add	r9, r9, #4
 346 0150 4A45     		cmp	r2, r9
 347 0152 EBD1     		bne	.L32
 348 0154 2035     		adds	r5, r5, #32
 349 0156 203E     		subs	r6, r6, #32
 350              	.L31:
 351 0158 FFF7FEFF 		bl	HAL_GetTick
 352 015c 129B     		ldr	r3, [sp, #72]
 353 015e A0EB0800 		sub	r0, r0, r8
ARM GAS  /tmp/ccBxesNo.s 			page 7


 354 0162 9842     		cmp	r0, r3
 355 0164 BDD3     		bcc	.L30
 356 0166 2368     		ldr	r3, [r4]
 357 0168 2D4A     		ldr	r2, .L69
 358 016a 0327     		movs	r7, #3
 359 016c 9A63     		str	r2, [r3, #56]
 360 016e A36B     		ldr	r3, [r4, #56]
 361 0170 43F00043 		orr	r3, r3, #-2147483648
 362 0174 A363     		str	r3, [r4, #56]
 363 0176 0123     		movs	r3, #1
 364 0178 84F83430 		strb	r3, [r4, #52]
 365 017c 0023     		movs	r3, #0
 366 017e 2363     		str	r3, [r4, #48]
 367 0180 60E7     		b	.L22
 368              	.L35:
 369 0182 5A6B     		ldr	r2, [r3, #52]
 370 0184 12F00202 		ands	r2, r2, #2
 371 0188 0AD0     		beq	.L36
 372 018a 254A     		ldr	r2, .L69
 373 018c 9A63     		str	r2, [r3, #56]
 374 018e A36B     		ldr	r3, [r4, #56]
 375 0190 43F00203 		orr	r3, r3, #2
 376 0194 A363     		str	r3, [r4, #56]
 377 0196 0123     		movs	r3, #1
 378 0198 84F83430 		strb	r3, [r4, #52]
 379 019c 2163     		str	r1, [r4, #48]
 380 019e 51E7     		b	.L22
 381              	.L36:
 382 01a0 596B     		ldr	r1, [r3, #52]
 383 01a2 8906     		lsls	r1, r1, #26
 384 01a4 29D5     		bpl	.L37
 385 01a6 1E49     		ldr	r1, .L69
 386 01a8 9963     		str	r1, [r3, #56]
 387 01aa A36B     		ldr	r3, [r4, #56]
 388 01ac 43F02003 		orr	r3, r3, #32
 389 01b0 A363     		str	r3, [r4, #56]
 390 01b2 0123     		movs	r3, #1
 391 01b4 84F83430 		strb	r3, [r4, #52]
 392 01b8 2263     		str	r2, [r4, #48]
 393 01ba 43E7     		b	.L22
 394              	.L40:
 395 01bc FFF7FEFF 		bl	SDIO_ReadFIFO
 396 01c0 030A     		lsrs	r3, r0, #8
 397 01c2 05F8033C 		strb	r3, [r5, #-3]
 398 01c6 030C     		lsrs	r3, r0, #16
 399 01c8 05F8023C 		strb	r3, [r5, #-2]
 400 01cc 030E     		lsrs	r3, r0, #24
 401 01ce 05F8013C 		strb	r3, [r5, #-1]
 402 01d2 05F8040C 		strb	r0, [r5, #-4]
 403 01d6 FFF7FEFF 		bl	HAL_GetTick
 404 01da 129B     		ldr	r3, [sp, #72]
 405 01dc A0EB0800 		sub	r0, r0, r8
 406 01e0 9842     		cmp	r0, r3
 407 01e2 A6F10406 		sub	r6, r6, #4
 408 01e6 05F10405 		add	r5, r5, #4
 409 01ea 07D3     		bcc	.L38
 410 01ec 2368     		ldr	r3, [r4]
ARM GAS  /tmp/ccBxesNo.s 			page 8


 411 01ee 0C4A     		ldr	r2, .L69
 412 01f0 9A63     		str	r2, [r3, #56]
 413 01f2 A36B     		ldr	r3, [r4, #56]
 414 01f4 43F00043 		orr	r3, r3, #-2147483648
 415 01f8 8FE7     		b	.L68
 416              	.L37:
 417 01fa 0435     		adds	r5, r5, #4
 418              	.L38:
 419 01fc 2068     		ldr	r0, [r4]
 420 01fe 436B     		ldr	r3, [r0, #52]
 421 0200 9B02     		lsls	r3, r3, #10
 422 0202 01D5     		bpl	.L39
 423 0204 002E     		cmp	r6, #0
 424 0206 D9D1     		bne	.L40
 425              	.L39:
 426 0208 40F23A53 		movw	r3, #1338
 427 020c 8363     		str	r3, [r0, #56]
 428 020e 0123     		movs	r3, #1
 429 0210 0027     		movs	r7, #0
 430 0212 84F83430 		strb	r3, [r4, #52]
 431 0216 15E7     		b	.L22
 432              	.L23:
 433 0218 A36B     		ldr	r3, [r4, #56]
 434 021a 43F00053 		orr	r3, r3, #536870912
 435 021e FDE6     		b	.L65
 436              	.L70:
 437              		.align	2
 438              	.L69:
 439 0220 FF054000 		.word	4195839
 441              		.section	.text.HAL_SD_WriteBlocks,"ax",%progbits
 442              		.align	1
 443              		.global	HAL_SD_WriteBlocks
 444              		.syntax unified
 445              		.thumb
 446              		.thumb_func
 447              		.fpu softvfp
 449              	HAL_SD_WriteBlocks:
 450              		@ args = 4, pretend = 0, frame = 32
 451              		@ frame_needed = 0, uses_anonymous_args = 0
 452 0000 2DE9F04F 		push	{r4, r5, r6, r7, r8, r9, r10, fp, lr}
 453 0004 89B0     		sub	sp, sp, #36
 454 0006 0446     		mov	r4, r0
 455 0008 0D46     		mov	r5, r1
 456 000a 9246     		mov	r10, r2
 457 000c 1F46     		mov	r7, r3
 458 000e FFF7FEFF 		bl	HAL_GetTick
 459 0012 8146     		mov	r9, r0
 460 0014 35B9     		cbnz	r5, .L72
 461 0016 A36B     		ldr	r3, [r4, #56]
 462 0018 43F00063 		orr	r3, r3, #134217728
 463              	.L109:
 464 001c 4FF00108 		mov	r8, #1
 465 0020 A363     		str	r3, [r4, #56]
 466 0022 11E0     		b	.L73
 467              	.L72:
 468 0024 94F83430 		ldrb	r3, [r4, #52]	@ zero_extendqisi2
 469 0028 012B     		cmp	r3, #1
ARM GAS  /tmp/ccBxesNo.s 			page 9


 470 002a 5FFA83F8 		uxtb	r8, r3
 471 002e 40F0BC80 		bne	.L74
 472 0032 0021     		movs	r1, #0
 473 0034 E26D     		ldr	r2, [r4, #92]
 474 0036 0AEB0703 		add	r3, r10, r7
 475 003a 9342     		cmp	r3, r2
 476 003c A163     		str	r1, [r4, #56]
 477 003e 07D9     		bls	.L75
 478 0040 A36B     		ldr	r3, [r4, #56]
 479 0042 43F00073 		orr	r3, r3, #33554432
 480 0046 A363     		str	r3, [r4, #56]
 481              	.L73:
 482 0048 4046     		mov	r0, r8
 483 004a 09B0     		add	sp, sp, #36
 484              		@ sp needed
 485 004c BDE8F08F 		pop	{r4, r5, r6, r7, r8, r9, r10, fp, pc}
 486              	.L75:
 487 0050 0323     		movs	r3, #3
 488 0052 2068     		ldr	r0, [r4]
 489 0054 84F83430 		strb	r3, [r4, #52]
 490 0058 636C     		ldr	r3, [r4, #68]
 491 005a C162     		str	r1, [r0, #44]
 492 005c 012B     		cmp	r3, #1
 493 005e 4FF40071 		mov	r1, #512
 494 0062 18BF     		it	ne
 495 0064 4FEA4A2A 		lslne	r10, r10, #9
 496 0068 FFF7FEFF 		bl	SDMMC_CmdBlockLength
 497 006c 48B1     		cbz	r0, .L77
 498 006e 2368     		ldr	r3, [r4]
 499 0070 504A     		ldr	r2, .L112
 500 0072 9A63     		str	r2, [r3, #56]
 501 0074 A36B     		ldr	r3, [r4, #56]
 502 0076 1843     		orrs	r0, r0, r3
 503 0078 0123     		movs	r3, #1
 504 007a A063     		str	r0, [r4, #56]
 505 007c 84F83430 		strb	r3, [r4, #52]
 506 0080 E2E7     		b	.L73
 507              	.L77:
 508 0082 4FF0FF33 		mov	r3, #-1
 509 0086 0293     		str	r3, [sp, #8]
 510 0088 7B02     		lsls	r3, r7, #9
 511 008a 0393     		str	r3, [sp, #12]
 512 008c 9023     		movs	r3, #144
 513 008e CDE90430 		strd	r3, r0, [sp, #16]
 514 0092 0123     		movs	r3, #1
 515 0094 0690     		str	r0, [sp, #24]
 516 0096 02A9     		add	r1, sp, #8
 517 0098 2068     		ldr	r0, [r4]
 518 009a 0793     		str	r3, [sp, #28]
 519 009c FFF7FEFF 		bl	SDIO_ConfigData
 520 00a0 012F     		cmp	r7, #1
 521 00a2 12D9     		bls	.L78
 522 00a4 2023     		movs	r3, #32
 523 00a6 5146     		mov	r1, r10
 524 00a8 2068     		ldr	r0, [r4]
 525 00aa 2363     		str	r3, [r4, #48]
 526 00ac FFF7FEFF 		bl	SDMMC_CmdWriteMultiBlock
ARM GAS  /tmp/ccBxesNo.s 			page 10


 527              	.L79:
 528 00b0 90B1     		cbz	r0, .L80
 529              	.L110:
 530 00b2 2368     		ldr	r3, [r4]
 531 00b4 3F4A     		ldr	r2, .L112
 532 00b6 9A63     		str	r2, [r3, #56]
 533 00b8 A36B     		ldr	r3, [r4, #56]
 534 00ba 1843     		orrs	r0, r0, r3
 535 00bc A063     		str	r0, [r4, #56]
 536              	.L111:
 537 00be 0123     		movs	r3, #1
 538 00c0 84F83430 		strb	r3, [r4, #52]
 539 00c4 0023     		movs	r3, #0
 540 00c6 2363     		str	r3, [r4, #48]
 541 00c8 BEE7     		b	.L73
 542              	.L78:
 543 00ca 1023     		movs	r3, #16
 544 00cc 5146     		mov	r1, r10
 545 00ce 2068     		ldr	r0, [r4]
 546 00d0 2363     		str	r3, [r4, #48]
 547 00d2 FFF7FEFF 		bl	SDMMC_CmdWriteSingleBlock
 548 00d6 EBE7     		b	.L79
 549              	.L80:
 550 00d8 40F21A3A 		movw	r10, #794
 551 00dc 039E     		ldr	r6, [sp, #12]
 552              	.L81:
 553 00de 2068     		ldr	r0, [r4]
 554 00e0 436B     		ldr	r3, [r0, #52]
 555 00e2 13EA0A0F 		tst	r3, r10
 556 00e6 436B     		ldr	r3, [r0, #52]
 557 00e8 16D0     		beq	.L84
 558 00ea DB05     		lsls	r3, r3, #23
 559 00ec 08D5     		bpl	.L85
 560 00ee 012F     		cmp	r7, #1
 561 00f0 06D9     		bls	.L85
 562 00f2 636C     		ldr	r3, [r4, #68]
 563 00f4 032B     		cmp	r3, #3
 564 00f6 03D0     		beq	.L85
 565 00f8 FFF7FEFF 		bl	SDMMC_CmdStopTransfer
 566 00fc 0028     		cmp	r0, #0
 567 00fe D8D1     		bne	.L110
 568              	.L85:
 569 0100 2368     		ldr	r3, [r4]
 570 0102 586B     		ldr	r0, [r3, #52]
 571 0104 10F00800 		ands	r0, r0, #8
 572 0108 29D0     		beq	.L86
 573 010a 2A4A     		ldr	r2, .L112
 574 010c 9A63     		str	r2, [r3, #56]
 575 010e A36B     		ldr	r3, [r4, #56]
 576 0110 43F00803 		orr	r3, r3, #8
 577 0114 A363     		str	r3, [r4, #56]
 578 0116 D2E7     		b	.L111
 579              	.L84:
 580 0118 5A04     		lsls	r2, r3, #17
 581 011a 0CD5     		bpl	.L82
 582 011c 5EB1     		cbz	r6, .L82
 583 011e 05F1200B 		add	fp, r5, #32
ARM GAS  /tmp/ccBxesNo.s 			page 11


 584              	.L83:
 585 0122 55F8042B 		ldr	r2, [r5], #4	@ unaligned
 586 0126 2068     		ldr	r0, [r4]
 587 0128 01A9     		add	r1, sp, #4
 588 012a 0192     		str	r2, [sp, #4]
 589 012c FFF7FEFF 		bl	SDIO_WriteFIFO
 590 0130 AB45     		cmp	fp, r5
 591 0132 F6D1     		bne	.L83
 592 0134 203E     		subs	r6, r6, #32
 593              	.L82:
 594 0136 FFF7FEFF 		bl	HAL_GetTick
 595 013a 129B     		ldr	r3, [sp, #72]
 596 013c A0EB0900 		sub	r0, r0, r9
 597 0140 9842     		cmp	r0, r3
 598 0142 CCD3     		bcc	.L81
 599 0144 2368     		ldr	r3, [r4]
 600 0146 1B4A     		ldr	r2, .L112
 601 0148 4FF00308 		mov	r8, #3
 602 014c 9A63     		str	r2, [r3, #56]
 603 014e A36B     		ldr	r3, [r4, #56]
 604 0150 A363     		str	r3, [r4, #56]
 605 0152 0123     		movs	r3, #1
 606 0154 84F83430 		strb	r3, [r4, #52]
 607 0158 0023     		movs	r3, #0
 608 015a 2363     		str	r3, [r4, #48]
 609 015c 74E7     		b	.L73
 610              	.L86:
 611 015e 596B     		ldr	r1, [r3, #52]
 612 0160 11F00201 		ands	r1, r1, #2
 613 0164 0AD0     		beq	.L87
 614 0166 134A     		ldr	r2, .L112
 615 0168 9A63     		str	r2, [r3, #56]
 616 016a A36B     		ldr	r3, [r4, #56]
 617 016c 43F00203 		orr	r3, r3, #2
 618 0170 A363     		str	r3, [r4, #56]
 619 0172 0123     		movs	r3, #1
 620 0174 84F83430 		strb	r3, [r4, #52]
 621 0178 2063     		str	r0, [r4, #48]
 622 017a 65E7     		b	.L73
 623              	.L87:
 624 017c 5A6B     		ldr	r2, [r3, #52]
 625 017e 12F01002 		ands	r2, r2, #16
 626 0182 0AD0     		beq	.L88
 627 0184 0B4A     		ldr	r2, .L112
 628 0186 9A63     		str	r2, [r3, #56]
 629 0188 A36B     		ldr	r3, [r4, #56]
 630 018a 43F01003 		orr	r3, r3, #16
 631 018e A363     		str	r3, [r4, #56]
 632 0190 0123     		movs	r3, #1
 633 0192 84F83430 		strb	r3, [r4, #52]
 634 0196 2163     		str	r1, [r4, #48]
 635 0198 56E7     		b	.L73
 636              	.L88:
 637 019a 40F23A51 		movw	r1, #1338
 638 019e 9963     		str	r1, [r3, #56]
 639 01a0 0123     		movs	r3, #1
 640 01a2 9046     		mov	r8, r2
ARM GAS  /tmp/ccBxesNo.s 			page 12


 641 01a4 84F83430 		strb	r3, [r4, #52]
 642 01a8 4EE7     		b	.L73
 643              	.L74:
 644 01aa A36B     		ldr	r3, [r4, #56]
 645 01ac 43F00053 		orr	r3, r3, #536870912
 646 01b0 34E7     		b	.L109
 647              	.L113:
 648 01b2 00BF     		.align	2
 649              	.L112:
 650 01b4 FF054000 		.word	4195839
 652              		.section	.text.HAL_SD_ReadBlocks_IT,"ax",%progbits
 653              		.align	1
 654              		.global	HAL_SD_ReadBlocks_IT
 655              		.syntax unified
 656              		.thumb
 657              		.thumb_func
 658              		.fpu softvfp
 660              	HAL_SD_ReadBlocks_IT:
 661              		@ args = 0, pretend = 0, frame = 24
 662              		@ frame_needed = 0, uses_anonymous_args = 0
 663 0000 2DE9F041 		push	{r4, r5, r6, r7, r8, lr}
 664 0004 0446     		mov	r4, r0
 665 0006 1546     		mov	r5, r2
 666 0008 1E46     		mov	r6, r3
 667 000a 86B0     		sub	sp, sp, #24
 668 000c 41B9     		cbnz	r1, .L115
 669 000e 0127     		movs	r7, #1
 670 0010 836B     		ldr	r3, [r0, #56]
 671 0012 43F00063 		orr	r3, r3, #134217728
 672 0016 8363     		str	r3, [r0, #56]
 673              	.L116:
 674 0018 3846     		mov	r0, r7
 675 001a 06B0     		add	sp, sp, #24
 676              		@ sp needed
 677 001c BDE8F081 		pop	{r4, r5, r6, r7, r8, pc}
 678              	.L115:
 679 0020 90F83430 		ldrb	r3, [r0, #52]	@ zero_extendqisi2
 680 0024 012B     		cmp	r3, #1
 681 0026 DFB2     		uxtb	r7, r3
 682 0028 58D1     		bne	.L122
 683 002a 0022     		movs	r2, #0
 684 002c 8263     		str	r2, [r0, #56]
 685 002e C06D     		ldr	r0, [r0, #92]
 686 0030 AB19     		adds	r3, r5, r6
 687 0032 8342     		cmp	r3, r0
 688 0034 04D9     		bls	.L117
 689 0036 A36B     		ldr	r3, [r4, #56]
 690 0038 43F00073 		orr	r3, r3, #33554432
 691 003c A363     		str	r3, [r4, #56]
 692 003e EBE7     		b	.L116
 693              	.L117:
 694 0040 0323     		movs	r3, #3
 695 0042 2068     		ldr	r0, [r4]
 696 0044 84F83430 		strb	r3, [r4, #52]
 697 0048 C262     		str	r2, [r0, #44]
 698 004a C36B     		ldr	r3, [r0, #60]
 699 004c 4FEA4628 		lsl	r8, r6, #9
ARM GAS  /tmp/ccBxesNo.s 			page 13


 700 0050 43F40343 		orr	r3, r3, #33536
 701 0054 43F02A03 		orr	r3, r3, #42
 702 0058 A162     		str	r1, [r4, #40]
 703 005a C4F82C80 		str	r8, [r4, #44]
 704 005e C363     		str	r3, [r0, #60]
 705 0060 636C     		ldr	r3, [r4, #68]
 706 0062 4FF40071 		mov	r1, #512
 707 0066 012B     		cmp	r3, #1
 708 0068 18BF     		it	ne
 709 006a 6D02     		lslne	r5, r5, #9
 710 006c FFF7FEFF 		bl	SDMMC_CmdBlockLength
 711 0070 48B1     		cbz	r0, .L119
 712 0072 2368     		ldr	r3, [r4]
 713 0074 1B4A     		ldr	r2, .L127
 714 0076 9A63     		str	r2, [r3, #56]
 715 0078 A36B     		ldr	r3, [r4, #56]
 716 007a 1843     		orrs	r0, r0, r3
 717 007c 0123     		movs	r3, #1
 718 007e A063     		str	r0, [r4, #56]
 719 0080 84F83430 		strb	r3, [r4, #52]
 720 0084 C8E7     		b	.L116
 721              	.L119:
 722 0086 4FF0FF33 		mov	r3, #-1
 723 008a 9022     		movs	r2, #144
 724 008c CDE90038 		strd	r3, r8, [sp]
 725 0090 0223     		movs	r3, #2
 726 0092 CDE90223 		strd	r2, r3, [sp, #8]
 727 0096 0123     		movs	r3, #1
 728 0098 0490     		str	r0, [sp, #16]
 729 009a 6946     		mov	r1, sp
 730 009c 2068     		ldr	r0, [r4]
 731 009e 0593     		str	r3, [sp, #20]
 732 00a0 FFF7FEFF 		bl	SDIO_ConfigData
 733 00a4 012E     		cmp	r6, #1
 734 00a6 12D9     		bls	.L120
 735 00a8 0A23     		movs	r3, #10
 736 00aa 2946     		mov	r1, r5
 737 00ac 2068     		ldr	r0, [r4]
 738 00ae 2363     		str	r3, [r4, #48]
 739 00b0 FFF7FEFF 		bl	SDMMC_CmdReadMultiBlock
 740              	.L121:
 741 00b4 A0B1     		cbz	r0, .L123
 742 00b6 2368     		ldr	r3, [r4]
 743 00b8 0A4A     		ldr	r2, .L127
 744 00ba 9A63     		str	r2, [r3, #56]
 745 00bc A36B     		ldr	r3, [r4, #56]
 746 00be 1843     		orrs	r0, r0, r3
 747 00c0 0123     		movs	r3, #1
 748 00c2 A063     		str	r0, [r4, #56]
 749 00c4 84F83430 		strb	r3, [r4, #52]
 750 00c8 0023     		movs	r3, #0
 751 00ca 2363     		str	r3, [r4, #48]
 752 00cc A4E7     		b	.L116
 753              	.L120:
 754 00ce 0923     		movs	r3, #9
 755 00d0 2946     		mov	r1, r5
 756 00d2 2068     		ldr	r0, [r4]
ARM GAS  /tmp/ccBxesNo.s 			page 14


 757 00d4 2363     		str	r3, [r4, #48]
 758 00d6 FFF7FEFF 		bl	SDMMC_CmdReadSingleBlock
 759 00da EBE7     		b	.L121
 760              	.L122:
 761 00dc 0227     		movs	r7, #2
 762 00de 9BE7     		b	.L116
 763              	.L123:
 764 00e0 0746     		mov	r7, r0
 765 00e2 99E7     		b	.L116
 766              	.L128:
 767              		.align	2
 768              	.L127:
 769 00e4 FF054000 		.word	4195839
 771              		.section	.text.HAL_SD_WriteBlocks_IT,"ax",%progbits
 772              		.align	1
 773              		.global	HAL_SD_WriteBlocks_IT
 774              		.syntax unified
 775              		.thumb
 776              		.thumb_func
 777              		.fpu softvfp
 779              	HAL_SD_WriteBlocks_IT:
 780              		@ args = 0, pretend = 0, frame = 24
 781              		@ frame_needed = 0, uses_anonymous_args = 0
 782 0000 2DE9F041 		push	{r4, r5, r6, r7, r8, lr}
 783 0004 0446     		mov	r4, r0
 784 0006 1546     		mov	r5, r2
 785 0008 1E46     		mov	r6, r3
 786 000a 86B0     		sub	sp, sp, #24
 787 000c 41B9     		cbnz	r1, .L130
 788 000e 0127     		movs	r7, #1
 789 0010 836B     		ldr	r3, [r0, #56]
 790 0012 43F00063 		orr	r3, r3, #134217728
 791 0016 8363     		str	r3, [r0, #56]
 792              	.L131:
 793 0018 3846     		mov	r0, r7
 794 001a 06B0     		add	sp, sp, #24
 795              		@ sp needed
 796 001c BDE8F081 		pop	{r4, r5, r6, r7, r8, pc}
 797              	.L130:
 798 0020 90F83430 		ldrb	r3, [r0, #52]	@ zero_extendqisi2
 799 0024 012B     		cmp	r3, #1
 800 0026 DFB2     		uxtb	r7, r3
 801 0028 58D1     		bne	.L138
 802 002a 0022     		movs	r2, #0
 803 002c 8263     		str	r2, [r0, #56]
 804 002e C06D     		ldr	r0, [r0, #92]
 805 0030 AB19     		adds	r3, r5, r6
 806 0032 8342     		cmp	r3, r0
 807 0034 04D9     		bls	.L132
 808 0036 A36B     		ldr	r3, [r4, #56]
 809 0038 43F00073 		orr	r3, r3, #33554432
 810 003c A363     		str	r3, [r4, #56]
 811 003e EBE7     		b	.L131
 812              	.L132:
 813 0040 0323     		movs	r3, #3
 814 0042 2068     		ldr	r0, [r4]
 815 0044 84F83430 		strb	r3, [r4, #52]
ARM GAS  /tmp/ccBxesNo.s 			page 15


 816 0048 C262     		str	r2, [r0, #44]
 817 004a C36B     		ldr	r3, [r0, #60]
 818 004c 4FEA4628 		lsl	r8, r6, #9
 819 0050 43F48643 		orr	r3, r3, #17152
 820 0054 43F01A03 		orr	r3, r3, #26
 821 0058 2162     		str	r1, [r4, #32]
 822 005a C4F82480 		str	r8, [r4, #36]
 823 005e C363     		str	r3, [r0, #60]
 824 0060 636C     		ldr	r3, [r4, #68]
 825 0062 4FF40071 		mov	r1, #512
 826 0066 012B     		cmp	r3, #1
 827 0068 18BF     		it	ne
 828 006a 6D02     		lslne	r5, r5, #9
 829 006c FFF7FEFF 		bl	SDMMC_CmdBlockLength
 830 0070 0346     		mov	r3, r0
 831 0072 2068     		ldr	r0, [r4]
 832 0074 43B1     		cbz	r3, .L134
 833 0076 1A4A     		ldr	r2, .L143
 834 0078 8263     		str	r2, [r0, #56]
 835 007a A06B     		ldr	r0, [r4, #56]
 836 007c 0343     		orrs	r3, r3, r0
 837 007e A363     		str	r3, [r4, #56]
 838 0080 0123     		movs	r3, #1
 839 0082 84F83430 		strb	r3, [r4, #52]
 840 0086 C7E7     		b	.L131
 841              	.L134:
 842 0088 012E     		cmp	r6, #1
 843 008a 12D9     		bls	.L135
 844 008c 2823     		movs	r3, #40
 845 008e 2946     		mov	r1, r5
 846 0090 2363     		str	r3, [r4, #48]
 847 0092 FFF7FEFF 		bl	SDMMC_CmdWriteMultiBlock
 848              	.L142:
 849 0096 0546     		mov	r5, r0
 850 0098 2068     		ldr	r0, [r4]
 851 009a 85B1     		cbz	r5, .L137
 852 009c 104B     		ldr	r3, .L143
 853 009e 8363     		str	r3, [r0, #56]
 854 00a0 0123     		movs	r3, #1
 855 00a2 A06B     		ldr	r0, [r4, #56]
 856 00a4 0543     		orrs	r5, r5, r0
 857 00a6 A563     		str	r5, [r4, #56]
 858 00a8 84F83430 		strb	r3, [r4, #52]
 859 00ac 0023     		movs	r3, #0
 860 00ae 2363     		str	r3, [r4, #48]
 861 00b0 B2E7     		b	.L131
 862              	.L135:
 863 00b2 1823     		movs	r3, #24
 864 00b4 2946     		mov	r1, r5
 865 00b6 2363     		str	r3, [r4, #48]
 866 00b8 FFF7FEFF 		bl	SDMMC_CmdWriteSingleBlock
 867 00bc EBE7     		b	.L142
 868              	.L137:
 869 00be 4FF0FF33 		mov	r3, #-1
 870 00c2 CDE90038 		strd	r3, r8, [sp]
 871 00c6 9023     		movs	r3, #144
 872 00c8 CDE90235 		strd	r3, r5, [sp, #8]
ARM GAS  /tmp/ccBxesNo.s 			page 16


 873 00cc 0123     		movs	r3, #1
 874 00ce 6946     		mov	r1, sp
 875 00d0 0495     		str	r5, [sp, #16]
 876 00d2 0593     		str	r3, [sp, #20]
 877 00d4 2F46     		mov	r7, r5
 878 00d6 FFF7FEFF 		bl	SDIO_ConfigData
 879 00da 9DE7     		b	.L131
 880              	.L138:
 881 00dc 0227     		movs	r7, #2
 882 00de 9BE7     		b	.L131
 883              	.L144:
 884              		.align	2
 885              	.L143:
 886 00e0 FF054000 		.word	4195839
 888              		.section	.text.HAL_SD_ReadBlocks_DMA,"ax",%progbits
 889              		.align	1
 890              		.global	HAL_SD_ReadBlocks_DMA
 891              		.syntax unified
 892              		.thumb
 893              		.thumb_func
 894              		.fpu softvfp
 896              	HAL_SD_ReadBlocks_DMA:
 897              		@ args = 0, pretend = 0, frame = 24
 898              		@ frame_needed = 0, uses_anonymous_args = 0
 899 0000 2DE9F041 		push	{r4, r5, r6, r7, r8, lr}
 900 0004 1546     		mov	r5, r2
 901 0006 0446     		mov	r4, r0
 902 0008 1F46     		mov	r7, r3
 903 000a 0A46     		mov	r2, r1
 904 000c 86B0     		sub	sp, sp, #24
 905 000e 41B9     		cbnz	r1, .L146
 906 0010 0126     		movs	r6, #1
 907 0012 836B     		ldr	r3, [r0, #56]
 908 0014 43F00063 		orr	r3, r3, #134217728
 909 0018 8363     		str	r3, [r0, #56]
 910              	.L147:
 911 001a 3046     		mov	r0, r6
 912 001c 06B0     		add	sp, sp, #24
 913              		@ sp needed
 914 001e BDE8F081 		pop	{r4, r5, r6, r7, r8, pc}
 915              	.L146:
 916 0022 90F83430 		ldrb	r3, [r0, #52]	@ zero_extendqisi2
 917 0026 012B     		cmp	r3, #1
 918 0028 DEB2     		uxtb	r6, r3
 919 002a 75D1     		bne	.L154
 920 002c 4FF0000C 		mov	ip, #0
 921 0030 C16D     		ldr	r1, [r0, #92]
 922 0032 EB19     		adds	r3, r5, r7
 923 0034 8B42     		cmp	r3, r1
 924 0036 C0F838C0 		str	ip, [r0, #56]
 925 003a 04D9     		bls	.L148
 926 003c 836B     		ldr	r3, [r0, #56]
 927 003e 43F00073 		orr	r3, r3, #33554432
 928 0042 8363     		str	r3, [r0, #56]
 929 0044 E9E7     		b	.L147
 930              	.L148:
 931 0046 0323     		movs	r3, #3
ARM GAS  /tmp/ccBxesNo.s 			page 17


 932 0048 0168     		ldr	r1, [r0]
 933 004a 80F83430 		strb	r3, [r0, #52]
 934 004e C1F82CC0 		str	ip, [r1, #44]
 935 0052 CB6B     		ldr	r3, [r1, #60]
 936 0054 006C     		ldr	r0, [r0, #64]
 937 0056 43F44A73 		orr	r3, r3, #808
 938 005a 43F00203 		orr	r3, r3, #2
 939 005e CB63     		str	r3, [r1, #60]
 940 0060 2F4B     		ldr	r3, .L159
 941 0062 4FEA4728 		lsl	r8, r7, #9
 942 0066 8362     		str	r3, [r0, #40]
 943 0068 2E4B     		ldr	r3, .L159+4
 944 006a 8031     		adds	r1, r1, #128
 945 006c C0E90C3C 		strd	r3, ip, [r0, #48]
 946 0070 4FEA9803 		lsr	r3, r8, #2
 947 0074 FFF7FEFF 		bl	HAL_DMA_Start_IT
 948 0078 68B1     		cbz	r0, .L149
 949 007a 2368     		ldr	r3, [r4]
 950 007c DA6B     		ldr	r2, [r3, #60]
 951 007e 22F49572 		bic	r2, r2, #298
 952 0082 DA63     		str	r2, [r3, #60]
 953 0084 284A     		ldr	r2, .L159+8
 954 0086 9A63     		str	r2, [r3, #56]
 955 0088 A36B     		ldr	r3, [r4, #56]
 956 008a 43F08043 		orr	r3, r3, #1073741824
 957 008e A363     		str	r3, [r4, #56]
 958 0090 84F83460 		strb	r6, [r4, #52]
 959 0094 C1E7     		b	.L147
 960              	.L149:
 961 0096 254B     		ldr	r3, .L159+12
 962 0098 4FF40071 		mov	r1, #512
 963 009c 1E60     		str	r6, [r3]
 964 009e 636C     		ldr	r3, [r4, #68]
 965 00a0 2068     		ldr	r0, [r4]
 966 00a2 012B     		cmp	r3, #1
 967 00a4 18BF     		it	ne
 968 00a6 6D02     		lslne	r5, r5, #9
 969 00a8 FFF7FEFF 		bl	SDMMC_CmdBlockLength
 970 00ac 48B1     		cbz	r0, .L151
 971 00ae 2368     		ldr	r3, [r4]
 972 00b0 1D4A     		ldr	r2, .L159+8
 973 00b2 9A63     		str	r2, [r3, #56]
 974 00b4 A36B     		ldr	r3, [r4, #56]
 975 00b6 1843     		orrs	r0, r0, r3
 976 00b8 0123     		movs	r3, #1
 977 00ba A063     		str	r0, [r4, #56]
 978 00bc 84F83430 		strb	r3, [r4, #52]
 979 00c0 ABE7     		b	.L147
 980              	.L151:
 981 00c2 4FF0FF33 		mov	r3, #-1
 982 00c6 9022     		movs	r2, #144
 983 00c8 CDE90038 		strd	r3, r8, [sp]
 984 00cc 0223     		movs	r3, #2
 985 00ce CDE90223 		strd	r2, r3, [sp, #8]
 986 00d2 0123     		movs	r3, #1
 987 00d4 0490     		str	r0, [sp, #16]
 988 00d6 6946     		mov	r1, sp
ARM GAS  /tmp/ccBxesNo.s 			page 18


 989 00d8 2068     		ldr	r0, [r4]
 990 00da 0593     		str	r3, [sp, #20]
 991 00dc FFF7FEFF 		bl	SDIO_ConfigData
 992 00e0 012F     		cmp	r7, #1
 993 00e2 12D9     		bls	.L152
 994 00e4 8223     		movs	r3, #130
 995 00e6 2946     		mov	r1, r5
 996 00e8 2068     		ldr	r0, [r4]
 997 00ea 2363     		str	r3, [r4, #48]
 998 00ec FFF7FEFF 		bl	SDMMC_CmdReadMultiBlock
 999              	.L153:
 1000 00f0 A0B1     		cbz	r0, .L155
 1001 00f2 2368     		ldr	r3, [r4]
 1002 00f4 0C4A     		ldr	r2, .L159+8
 1003 00f6 9A63     		str	r2, [r3, #56]
 1004 00f8 A36B     		ldr	r3, [r4, #56]
 1005 00fa 1843     		orrs	r0, r0, r3
 1006 00fc 0123     		movs	r3, #1
 1007 00fe A063     		str	r0, [r4, #56]
 1008 0100 84F83430 		strb	r3, [r4, #52]
 1009 0104 0023     		movs	r3, #0
 1010 0106 2363     		str	r3, [r4, #48]
 1011 0108 87E7     		b	.L147
 1012              	.L152:
 1013 010a 8123     		movs	r3, #129
 1014 010c 2946     		mov	r1, r5
 1015 010e 2068     		ldr	r0, [r4]
 1016 0110 2363     		str	r3, [r4, #48]
 1017 0112 FFF7FEFF 		bl	SDMMC_CmdReadSingleBlock
 1018 0116 EBE7     		b	.L153
 1019              	.L154:
 1020 0118 0226     		movs	r6, #2
 1021 011a 7EE7     		b	.L147
 1022              	.L155:
 1023 011c 0646     		mov	r6, r0
 1024 011e 7CE7     		b	.L147
 1025              	.L160:
 1026              		.align	2
 1027              	.L159:
 1028 0120 00000000 		.word	SD_DMAReceiveCplt
 1029 0124 00000000 		.word	SD_DMAError
 1030 0128 FF054000 		.word	4195839
 1031 012c 8C053042 		.word	1110443404
 1033              		.section	.text.HAL_SD_WriteBlocks_DMA,"ax",%progbits
 1034              		.align	1
 1035              		.global	HAL_SD_WriteBlocks_DMA
 1036              		.syntax unified
 1037              		.thumb
 1038              		.thumb_func
 1039              		.fpu softvfp
 1041              	HAL_SD_WriteBlocks_DMA:
 1042              		@ args = 0, pretend = 0, frame = 24
 1043              		@ frame_needed = 0, uses_anonymous_args = 0
 1044 0000 2DE9F043 		push	{r4, r5, r6, r7, r8, r9, lr}
 1045 0004 0446     		mov	r4, r0
 1046 0006 1546     		mov	r5, r2
 1047 0008 1E46     		mov	r6, r3
ARM GAS  /tmp/ccBxesNo.s 			page 19


 1048 000a 8846     		mov	r8, r1
 1049 000c 87B0     		sub	sp, sp, #28
 1050 000e 41B9     		cbnz	r1, .L162
 1051 0010 0127     		movs	r7, #1
 1052 0012 836B     		ldr	r3, [r0, #56]
 1053 0014 43F00063 		orr	r3, r3, #134217728
 1054 0018 8363     		str	r3, [r0, #56]
 1055              	.L163:
 1056 001a 3846     		mov	r0, r7
 1057 001c 07B0     		add	sp, sp, #28
 1058              		@ sp needed
 1059 001e BDE8F083 		pop	{r4, r5, r6, r7, r8, r9, pc}
 1060              	.L162:
 1061 0022 90F83430 		ldrb	r3, [r0, #52]	@ zero_extendqisi2
 1062 0026 012B     		cmp	r3, #1
 1063 0028 DFB2     		uxtb	r7, r3
 1064 002a 77D1     		bne	.L171
 1065 002c 0022     		movs	r2, #0
 1066 002e C16D     		ldr	r1, [r0, #92]
 1067 0030 AB19     		adds	r3, r5, r6
 1068 0032 8B42     		cmp	r3, r1
 1069 0034 8263     		str	r2, [r0, #56]
 1070 0036 04D9     		bls	.L164
 1071 0038 836B     		ldr	r3, [r0, #56]
 1072 003a 43F00073 		orr	r3, r3, #33554432
 1073 003e 8363     		str	r3, [r0, #56]
 1074 0040 EBE7     		b	.L163
 1075              	.L164:
 1076 0042 0323     		movs	r3, #3
 1077 0044 80F83430 		strb	r3, [r0, #52]
 1078 0048 0068     		ldr	r0, [r0]
 1079 004a 3549     		ldr	r1, .L176
 1080 004c C262     		str	r2, [r0, #44]
 1081 004e C36B     		ldr	r3, [r0, #60]
 1082 0050 43F40673 		orr	r3, r3, #536
 1083 0054 43F00203 		orr	r3, r3, #2
 1084 0058 C363     		str	r3, [r0, #60]
 1085 005a E36B     		ldr	r3, [r4, #60]
 1086 005c 9962     		str	r1, [r3, #40]
 1087 005e 3149     		ldr	r1, .L176+4
 1088 0060 C3E90C12 		strd	r1, r2, [r3, #48]
 1089 0064 636C     		ldr	r3, [r4, #68]
 1090 0066 4FF40071 		mov	r1, #512
 1091 006a 012B     		cmp	r3, #1
 1092 006c 18BF     		it	ne
 1093 006e 6D02     		lslne	r5, r5, #9
 1094 0070 FFF7FEFF 		bl	SDMMC_CmdBlockLength
 1095 0074 0346     		mov	r3, r0
 1096 0076 2068     		ldr	r0, [r4]
 1097 0078 43B1     		cbz	r3, .L166
 1098 007a 2B4A     		ldr	r2, .L176+8
 1099 007c 8263     		str	r2, [r0, #56]
 1100 007e A06B     		ldr	r0, [r4, #56]
 1101 0080 0343     		orrs	r3, r3, r0
 1102 0082 A363     		str	r3, [r4, #56]
 1103 0084 0123     		movs	r3, #1
 1104 0086 84F83430 		strb	r3, [r4, #52]
ARM GAS  /tmp/ccBxesNo.s 			page 20


 1105 008a C6E7     		b	.L163
 1106              	.L166:
 1107 008c 012E     		cmp	r6, #1
 1108 008e 12D9     		bls	.L167
 1109 0090 A023     		movs	r3, #160
 1110 0092 2946     		mov	r1, r5
 1111 0094 2363     		str	r3, [r4, #48]
 1112 0096 FFF7FEFF 		bl	SDMMC_CmdWriteMultiBlock
 1113              	.L175:
 1114 009a 0546     		mov	r5, r0
 1115 009c 2268     		ldr	r2, [r4]
 1116 009e 80B1     		cbz	r0, .L169
 1117 00a0 214B     		ldr	r3, .L176+8
 1118 00a2 9363     		str	r3, [r2, #56]
 1119 00a4 0123     		movs	r3, #1
 1120 00a6 A06B     		ldr	r0, [r4, #56]
 1121 00a8 0543     		orrs	r5, r5, r0
 1122 00aa A563     		str	r5, [r4, #56]
 1123 00ac 84F83430 		strb	r3, [r4, #52]
 1124 00b0 0023     		movs	r3, #0
 1125 00b2 2363     		str	r3, [r4, #48]
 1126 00b4 B1E7     		b	.L163
 1127              	.L167:
 1128 00b6 9023     		movs	r3, #144
 1129 00b8 2946     		mov	r1, r5
 1130 00ba 2363     		str	r3, [r4, #48]
 1131 00bc FFF7FEFF 		bl	SDMMC_CmdWriteSingleBlock
 1132 00c0 EBE7     		b	.L175
 1133              	.L169:
 1134 00c2 4FF00109 		mov	r9, #1
 1135 00c6 194B     		ldr	r3, .L176+12
 1136 00c8 7602     		lsls	r6, r6, #9
 1137 00ca C3F80090 		str	r9, [r3]
 1138 00ce 4146     		mov	r1, r8
 1139 00d0 E06B     		ldr	r0, [r4, #60]
 1140 00d2 B308     		lsrs	r3, r6, #2
 1141 00d4 8032     		adds	r2, r2, #128
 1142 00d6 FFF7FEFF 		bl	HAL_DMA_Start_IT
 1143 00da 80B1     		cbz	r0, .L170
 1144 00dc 2268     		ldr	r2, [r4]
 1145 00de D36B     		ldr	r3, [r2, #60]
 1146 00e0 23F40673 		bic	r3, r3, #536
 1147 00e4 23F00203 		bic	r3, r3, #2
 1148 00e8 D363     		str	r3, [r2, #60]
 1149 00ea 0F4B     		ldr	r3, .L176+8
 1150 00ec 9363     		str	r3, [r2, #56]
 1151 00ee A36B     		ldr	r3, [r4, #56]
 1152 00f0 43F08043 		orr	r3, r3, #1073741824
 1153 00f4 A363     		str	r3, [r4, #56]
 1154 00f6 84F83490 		strb	r9, [r4, #52]
 1155 00fa 2563     		str	r5, [r4, #48]
 1156 00fc 8DE7     		b	.L163
 1157              	.L170:
 1158 00fe 4FF0FF33 		mov	r3, #-1
 1159 0102 CDE90036 		strd	r3, r6, [sp]
 1160 0106 9023     		movs	r3, #144
 1161 0108 6946     		mov	r1, sp
ARM GAS  /tmp/ccBxesNo.s 			page 21


 1162 010a 2068     		ldr	r0, [r4]
 1163 010c CDE90235 		strd	r3, r5, [sp, #8]
 1164 0110 CDE90459 		strd	r5, r9, [sp, #16]
 1165 0114 2F46     		mov	r7, r5
 1166 0116 FFF7FEFF 		bl	SDIO_ConfigData
 1167 011a 7EE7     		b	.L163
 1168              	.L171:
 1169 011c 0227     		movs	r7, #2
 1170 011e 7CE7     		b	.L163
 1171              	.L177:
 1172              		.align	2
 1173              	.L176:
 1174 0120 00000000 		.word	SD_DMATransmitCplt
 1175 0124 00000000 		.word	SD_DMAError
 1176 0128 FF054000 		.word	4195839
 1177 012c 8C053042 		.word	1110443404
 1179              		.section	.text.HAL_SD_Erase,"ax",%progbits
 1180              		.align	1
 1181              		.global	HAL_SD_Erase
 1182              		.syntax unified
 1183              		.thumb
 1184              		.thumb_func
 1185              		.fpu softvfp
 1187              	HAL_SD_Erase:
 1188              		@ args = 0, pretend = 0, frame = 0
 1189              		@ frame_needed = 0, uses_anonymous_args = 0
 1190 0000 F8B5     		push	{r3, r4, r5, r6, r7, lr}
 1191 0002 90F83430 		ldrb	r3, [r0, #52]	@ zero_extendqisi2
 1192 0006 0446     		mov	r4, r0
 1193 0008 012B     		cmp	r3, #1
 1194 000a 0E46     		mov	r6, r1
 1195 000c 1546     		mov	r5, r2
 1196 000e DFB2     		uxtb	r7, r3
 1197 0010 51D1     		bne	.L188
 1198 0012 0021     		movs	r1, #0
 1199 0014 9642     		cmp	r6, r2
 1200 0016 8163     		str	r1, [r0, #56]
 1201 0018 05D9     		bls	.L180
 1202 001a 836B     		ldr	r3, [r0, #56]
 1203 001c 43F00063 		orr	r3, r3, #134217728
 1204              	.L198:
 1205 0020 A363     		str	r3, [r4, #56]
 1206              	.L179:
 1207 0022 3846     		mov	r0, r7
 1208 0024 F8BD     		pop	{r3, r4, r5, r6, r7, pc}
 1209              	.L180:
 1210 0026 C36D     		ldr	r3, [r0, #92]
 1211 0028 9342     		cmp	r3, r2
 1212 002a 03D2     		bcs	.L181
 1213 002c 836B     		ldr	r3, [r0, #56]
 1214 002e 43F00073 		orr	r3, r3, #33554432
 1215 0032 F5E7     		b	.L198
 1216              	.L181:
 1217 0034 0323     		movs	r3, #3
 1218 0036 80F83430 		strb	r3, [r0, #52]
 1219 003a E36C     		ldr	r3, [r4, #76]
 1220 003c 0068     		ldr	r0, [r0]
ARM GAS  /tmp/ccBxesNo.s 			page 22


 1221 003e 9A06     		lsls	r2, r3, #26
 1222 0040 08D4     		bmi	.L182
 1223 0042 1E4B     		ldr	r3, .L201
 1224 0044 8363     		str	r3, [r0, #56]
 1225 0046 A36B     		ldr	r3, [r4, #56]
 1226 0048 43F08063 		orr	r3, r3, #67108864
 1227              	.L199:
 1228 004c A363     		str	r3, [r4, #56]
 1229 004e 84F83470 		strb	r7, [r4, #52]
 1230 0052 E6E7     		b	.L179
 1231              	.L182:
 1232 0054 FFF7FEFF 		bl	SDIO_GetResponse
 1233 0058 8301     		lsls	r3, r0, #6
 1234 005a 06D5     		bpl	.L183
 1235 005c 2368     		ldr	r3, [r4]
 1236 005e 174A     		ldr	r2, .L201
 1237 0060 9A63     		str	r2, [r3, #56]
 1238 0062 A36B     		ldr	r3, [r4, #56]
 1239 0064 43F40063 		orr	r3, r3, #2048
 1240 0068 F0E7     		b	.L199
 1241              	.L183:
 1242 006a 636C     		ldr	r3, [r4, #68]
 1243 006c 012B     		cmp	r3, #1
 1244 006e 03D0     		beq	.L184
 1245 0070 032B     		cmp	r3, #3
 1246 0072 16D0     		beq	.L185
 1247 0074 7602     		lsls	r6, r6, #9
 1248 0076 6D02     		lsls	r5, r5, #9
 1249              	.L184:
 1250 0078 3146     		mov	r1, r6
 1251 007a 2068     		ldr	r0, [r4]
 1252 007c FFF7FEFF 		bl	SDMMC_CmdSDEraseStartAdd
 1253 0080 48B1     		cbz	r0, .L186
 1254              	.L200:
 1255 0082 2368     		ldr	r3, [r4]
 1256 0084 0D4A     		ldr	r2, .L201
 1257 0086 9A63     		str	r2, [r3, #56]
 1258 0088 A36B     		ldr	r3, [r4, #56]
 1259 008a 1843     		orrs	r0, r0, r3
 1260 008c 0123     		movs	r3, #1
 1261 008e A063     		str	r0, [r4, #56]
 1262 0090 84F83430 		strb	r3, [r4, #52]
 1263 0094 C5E7     		b	.L179
 1264              	.L186:
 1265 0096 2946     		mov	r1, r5
 1266 0098 2068     		ldr	r0, [r4]
 1267 009a FFF7FEFF 		bl	SDMMC_CmdSDEraseEndAdd
 1268 009e 0028     		cmp	r0, #0
 1269 00a0 EFD1     		bne	.L200
 1270              	.L185:
 1271 00a2 2068     		ldr	r0, [r4]
 1272 00a4 FFF7FEFF 		bl	SDMMC_CmdErase
 1273 00a8 0028     		cmp	r0, #0
 1274 00aa EAD1     		bne	.L200
 1275 00ac 0123     		movs	r3, #1
 1276 00ae 0746     		mov	r7, r0
 1277 00b0 84F83430 		strb	r3, [r4, #52]
ARM GAS  /tmp/ccBxesNo.s 			page 23


 1278 00b4 B5E7     		b	.L179
 1279              	.L188:
 1280 00b6 0227     		movs	r7, #2
 1281 00b8 B3E7     		b	.L179
 1282              	.L202:
 1283 00ba 00BF     		.align	2
 1284              	.L201:
 1285 00bc FF054000 		.word	4195839
 1287              		.section	.text.HAL_SD_GetState,"ax",%progbits
 1288              		.align	1
 1289              		.global	HAL_SD_GetState
 1290              		.syntax unified
 1291              		.thumb
 1292              		.thumb_func
 1293              		.fpu softvfp
 1295              	HAL_SD_GetState:
 1296              		@ args = 0, pretend = 0, frame = 0
 1297              		@ frame_needed = 0, uses_anonymous_args = 0
 1298              		@ link register save eliminated.
 1299 0000 90F83400 		ldrb	r0, [r0, #52]	@ zero_extendqisi2
 1300 0004 7047     		bx	lr
 1302              		.section	.text.HAL_SD_GetError,"ax",%progbits
 1303              		.align	1
 1304              		.global	HAL_SD_GetError
 1305              		.syntax unified
 1306              		.thumb
 1307              		.thumb_func
 1308              		.fpu softvfp
 1310              	HAL_SD_GetError:
 1311              		@ args = 0, pretend = 0, frame = 0
 1312              		@ frame_needed = 0, uses_anonymous_args = 0
 1313              		@ link register save eliminated.
 1314 0000 806B     		ldr	r0, [r0, #56]
 1315 0002 7047     		bx	lr
 1317              		.section	.text.HAL_SD_TxCpltCallback,"ax",%progbits
 1318              		.align	1
 1319              		.weak	HAL_SD_TxCpltCallback
 1320              		.syntax unified
 1321              		.thumb
 1322              		.thumb_func
 1323              		.fpu softvfp
 1325              	HAL_SD_TxCpltCallback:
 1326              		@ args = 0, pretend = 0, frame = 0
 1327              		@ frame_needed = 0, uses_anonymous_args = 0
 1328              		@ link register save eliminated.
 1329 0000 7047     		bx	lr
 1331              		.section	.text.HAL_SD_RxCpltCallback,"ax",%progbits
 1332              		.align	1
 1333              		.weak	HAL_SD_RxCpltCallback
 1334              		.syntax unified
 1335              		.thumb
 1336              		.thumb_func
 1337              		.fpu softvfp
 1339              	HAL_SD_RxCpltCallback:
 1340              		@ args = 0, pretend = 0, frame = 0
 1341              		@ frame_needed = 0, uses_anonymous_args = 0
 1342              		@ link register save eliminated.
ARM GAS  /tmp/ccBxesNo.s 			page 24


 1343 0000 7047     		bx	lr
 1345              		.section	.text.HAL_SD_ErrorCallback,"ax",%progbits
 1346              		.align	1
 1347              		.weak	HAL_SD_ErrorCallback
 1348              		.syntax unified
 1349              		.thumb
 1350              		.thumb_func
 1351              		.fpu softvfp
 1353              	HAL_SD_ErrorCallback:
 1354              		@ args = 0, pretend = 0, frame = 0
 1355              		@ frame_needed = 0, uses_anonymous_args = 0
 1356              		@ link register save eliminated.
 1357 0000 7047     		bx	lr
 1359              		.section	.text.SD_DMAReceiveCplt,"ax",%progbits
 1360              		.align	1
 1361              		.syntax unified
 1362              		.thumb
 1363              		.thumb_func
 1364              		.fpu softvfp
 1366              	SD_DMAReceiveCplt:
 1367              		@ args = 0, pretend = 0, frame = 0
 1368              		@ frame_needed = 0, uses_anonymous_args = 0
 1369 0000 10B5     		push	{r4, lr}
 1370 0002 446A     		ldr	r4, [r0, #36]
 1371 0004 236B     		ldr	r3, [r4, #48]
 1372 0006 822B     		cmp	r3, #130
 1373 0008 09D1     		bne	.L210
 1374 000a 2068     		ldr	r0, [r4]
 1375 000c FFF7FEFF 		bl	SDMMC_CmdStopTransfer
 1376 0010 28B1     		cbz	r0, .L210
 1377 0012 A36B     		ldr	r3, [r4, #56]
 1378 0014 1843     		orrs	r0, r0, r3
 1379 0016 A063     		str	r0, [r4, #56]
 1380 0018 2046     		mov	r0, r4
 1381 001a FFF7FEFF 		bl	HAL_SD_ErrorCallback
 1382              	.L210:
 1383 001e 2368     		ldr	r3, [r4]
 1384 0020 2046     		mov	r0, r4
 1385 0022 DA6A     		ldr	r2, [r3, #44]
 1386 0024 22F00802 		bic	r2, r2, #8
 1387 0028 DA62     		str	r2, [r3, #44]
 1388 002a 40F23A52 		movw	r2, #1338
 1389 002e 9A63     		str	r2, [r3, #56]
 1390 0030 0123     		movs	r3, #1
 1391 0032 84F83430 		strb	r3, [r4, #52]
 1392 0036 0023     		movs	r3, #0
 1393 0038 2363     		str	r3, [r4, #48]
 1394 003a FFF7FEFF 		bl	HAL_SD_RxCpltCallback
 1395 003e 10BD     		pop	{r4, pc}
 1397              		.section	.text.HAL_SD_AbortCallback,"ax",%progbits
 1398              		.align	1
 1399              		.weak	HAL_SD_AbortCallback
 1400              		.syntax unified
 1401              		.thumb
 1402              		.thumb_func
 1403              		.fpu softvfp
 1405              	HAL_SD_AbortCallback:
ARM GAS  /tmp/ccBxesNo.s 			page 25


 1406              		@ args = 0, pretend = 0, frame = 0
 1407              		@ frame_needed = 0, uses_anonymous_args = 0
 1408              		@ link register save eliminated.
 1409 0000 7047     		bx	lr
 1411              		.section	.text.HAL_SD_GetCardCID,"ax",%progbits
 1412              		.align	1
 1413              		.global	HAL_SD_GetCardCID
 1414              		.syntax unified
 1415              		.thumb
 1416              		.thumb_func
 1417              		.fpu softvfp
 1419              	HAL_SD_GetCardCID:
 1420              		@ args = 0, pretend = 0, frame = 0
 1421              		@ frame_needed = 0, uses_anonymous_args = 0
 1422 0000 10B5     		push	{r4, lr}
 1423 0002 446F     		ldr	r4, [r0, #116]
 1424 0004 230E     		lsrs	r3, r4, #24
 1425 0006 0B70     		strb	r3, [r1]
 1426 0008 C4F30F23 		ubfx	r3, r4, #8, #16
 1427 000c 4B80     		strh	r3, [r1, #2]	@ movhi
 1428 000e 836F     		ldr	r3, [r0, #120]
 1429 0010 1A0A     		lsrs	r2, r3, #8
 1430 0012 42EA0462 		orr	r2, r2, r4, lsl #24
 1431 0016 DBB2     		uxtb	r3, r3
 1432 0018 4A60     		str	r2, [r1, #4]
 1433 001a 0B72     		strb	r3, [r1, #8]
 1434 001c C46F     		ldr	r4, [r0, #124]
 1435 001e 230E     		lsrs	r3, r4, #24
 1436 0020 4B72     		strb	r3, [r1, #9]
 1437 0022 D0F88030 		ldr	r3, [r0, #128]
 1438 0026 0020     		movs	r0, #0
 1439 0028 1A0E     		lsrs	r2, r3, #24
 1440 002a 42EA0422 		orr	r2, r2, r4, lsl #8
 1441 002e CA60     		str	r2, [r1, #12]
 1442 0030 C3F30352 		ubfx	r2, r3, #20, #4
 1443 0034 0A74     		strb	r2, [r1, #16]
 1444 0036 C3F30B22 		ubfx	r2, r3, #8, #12
 1445 003a C3F34603 		ubfx	r3, r3, #1, #7
 1446 003e 4A82     		strh	r2, [r1, #18]	@ movhi
 1447 0040 0B75     		strb	r3, [r1, #20]
 1448 0042 0123     		movs	r3, #1
 1449 0044 4B75     		strb	r3, [r1, #21]
 1450 0046 10BD     		pop	{r4, pc}
 1452              		.section	.text.HAL_SD_GetCardCSD,"ax",%progbits
 1453              		.align	1
 1454              		.global	HAL_SD_GetCardCSD
 1455              		.syntax unified
 1456              		.thumb
 1457              		.thumb_func
 1458              		.fpu softvfp
 1460              	HAL_SD_GetCardCSD:
 1461              		@ args = 0, pretend = 0, frame = 0
 1462              		@ frame_needed = 0, uses_anonymous_args = 0
 1463 0000 436E     		ldr	r3, [r0, #100]
 1464 0002 10B5     		push	{r4, lr}
 1465 0004 9A0F     		lsrs	r2, r3, #30
 1466 0006 0A70     		strb	r2, [r1]
ARM GAS  /tmp/ccBxesNo.s 			page 26


 1467 0008 C3F38362 		ubfx	r2, r3, #26, #4
 1468 000c 4A70     		strb	r2, [r1, #1]
 1469 000e C3F30162 		ubfx	r2, r3, #24, #2
 1470 0012 8A70     		strb	r2, [r1, #2]
 1471 0014 C3F30742 		ubfx	r2, r3, #16, #8
 1472 0018 CA70     		strb	r2, [r1, #3]
 1473 001a C3F30722 		ubfx	r2, r3, #8, #8
 1474 001e DBB2     		uxtb	r3, r3
 1475 0020 0A71     		strb	r2, [r1, #4]
 1476 0022 4B71     		strb	r3, [r1, #5]
 1477 0024 836E     		ldr	r3, [r0, #104]
 1478 0026 1A0D     		lsrs	r2, r3, #20
 1479 0028 CA80     		strh	r2, [r1, #6]	@ movhi
 1480 002a C3F30342 		ubfx	r2, r3, #16, #4
 1481 002e 0A72     		strb	r2, [r1, #8]
 1482 0030 C3F3C032 		ubfx	r2, r3, #15, #1
 1483 0034 4A72     		strb	r2, [r1, #9]
 1484 0036 C3F38032 		ubfx	r2, r3, #14, #1
 1485 003a 8A72     		strb	r2, [r1, #10]
 1486 003c C3F34032 		ubfx	r2, r3, #13, #1
 1487 0040 CA72     		strb	r2, [r1, #11]
 1488 0042 C3F30032 		ubfx	r2, r3, #12, #1
 1489 0046 0A73     		strb	r2, [r1, #12]
 1490 0048 0022     		movs	r2, #0
 1491 004a 4A73     		strb	r2, [r1, #13]
 1492 004c 426C     		ldr	r2, [r0, #68]
 1493 004e 002A     		cmp	r2, #0
 1494 0050 6BD1     		bne	.L218
 1495 0052 40F6FC74 		movw	r4, #4092
 1496 0056 C26E     		ldr	r2, [r0, #108]
 1497 0058 04EA8303 		and	r3, r4, r3, lsl #2
 1498 005c 43EA9273 		orr	r3, r3, r2, lsr #30
 1499 0060 0B61     		str	r3, [r1, #16]
 1500 0062 C2F3C263 		ubfx	r3, r2, #27, #3
 1501 0066 0B75     		strb	r3, [r1, #20]
 1502 0068 C2F30263 		ubfx	r3, r2, #24, #3
 1503 006c 4B75     		strb	r3, [r1, #21]
 1504 006e C2F34253 		ubfx	r3, r2, #21, #3
 1505 0072 8B75     		strb	r3, [r1, #22]
 1506 0074 C2F38243 		ubfx	r3, r2, #18, #3
 1507 0078 C2F3C232 		ubfx	r2, r2, #15, #3
 1508 007c CB75     		strb	r3, [r1, #23]
 1509 007e 0A76     		strb	r2, [r1, #24]
 1510 0080 0B69     		ldr	r3, [r1, #16]
 1511 0082 0A7E     		ldrb	r2, [r1, #24]	@ zero_extendqisi2
 1512 0084 0133     		adds	r3, r3, #1
 1513 0086 02F00702 		and	r2, r2, #7
 1514 008a 0232     		adds	r2, r2, #2
 1515 008c 9340     		lsls	r3, r3, r2
 1516 008e 4365     		str	r3, [r0, #84]
 1517 0090 0A7A     		ldrb	r2, [r1, #8]	@ zero_extendqisi2
 1518 0092 02F00F04 		and	r4, r2, #15
 1519 0096 0122     		movs	r2, #1
 1520 0098 A240     		lsls	r2, r2, r4
 1521 009a 8265     		str	r2, [r0, #88]
 1522 009c 520A     		lsrs	r2, r2, #9
 1523 009e 5343     		muls	r3, r2, r3
ARM GAS  /tmp/ccBxesNo.s 			page 27


 1524 00a0 C365     		str	r3, [r0, #92]
 1525 00a2 4FF40073 		mov	r3, #512
 1526              	.L222:
 1527 00a6 0366     		str	r3, [r0, #96]
 1528 00a8 C36E     		ldr	r3, [r0, #108]
 1529 00aa C3F38032 		ubfx	r2, r3, #14, #1
 1530 00ae 4A76     		strb	r2, [r1, #25]
 1531 00b0 C3F3C612 		ubfx	r2, r3, #7, #7
 1532 00b4 03F07F03 		and	r3, r3, #127
 1533 00b8 8A76     		strb	r2, [r1, #26]
 1534 00ba CB76     		strb	r3, [r1, #27]
 1535 00bc 036F     		ldr	r3, [r0, #112]
 1536 00be 0020     		movs	r0, #0
 1537 00c0 DA0F     		lsrs	r2, r3, #31
 1538 00c2 0A77     		strb	r2, [r1, #28]
 1539 00c4 C3F34172 		ubfx	r2, r3, #29, #2
 1540 00c8 4A77     		strb	r2, [r1, #29]
 1541 00ca C3F38262 		ubfx	r2, r3, #26, #3
 1542 00ce 8A77     		strb	r2, [r1, #30]
 1543 00d0 C3F38352 		ubfx	r2, r3, #22, #4
 1544 00d4 CA77     		strb	r2, [r1, #31]
 1545 00d6 C3F34052 		ubfx	r2, r3, #21, #1
 1546 00da 81F82020 		strb	r2, [r1, #32]
 1547 00de C3F30042 		ubfx	r2, r3, #16, #1
 1548 00e2 81F82100 		strb	r0, [r1, #33]
 1549 00e6 81F82220 		strb	r2, [r1, #34]
 1550 00ea C3F3C032 		ubfx	r2, r3, #15, #1
 1551 00ee 81F82320 		strb	r2, [r1, #35]
 1552 00f2 C3F38032 		ubfx	r2, r3, #14, #1
 1553 00f6 81F82420 		strb	r2, [r1, #36]
 1554 00fa C3F34032 		ubfx	r2, r3, #13, #1
 1555 00fe 81F82520 		strb	r2, [r1, #37]
 1556 0102 C3F30032 		ubfx	r2, r3, #12, #1
 1557 0106 81F82620 		strb	r2, [r1, #38]
 1558 010a C3F38122 		ubfx	r2, r3, #10, #2
 1559 010e 81F82720 		strb	r2, [r1, #39]
 1560 0112 C3F30122 		ubfx	r2, r3, #8, #2
 1561 0116 C3F34603 		ubfx	r3, r3, #1, #7
 1562 011a 81F82820 		strb	r2, [r1, #40]
 1563 011e 81F82930 		strb	r3, [r1, #41]
 1564 0122 0123     		movs	r3, #1
 1565 0124 81F82A30 		strb	r3, [r1, #42]
 1566              	.L221:
 1567 0128 10BD     		pop	{r4, pc}
 1568              	.L218:
 1569 012a 012A     		cmp	r2, #1
 1570 012c 0FD1     		bne	.L220
 1571 012e B0F86E20 		ldrh	r2, [r0, #110]
 1572 0132 1B04     		lsls	r3, r3, #16
 1573 0134 03F47C13 		and	r3, r3, #4128768
 1574 0138 1343     		orrs	r3, r3, r2
 1575 013a 0B61     		str	r3, [r1, #16]
 1576 013c 0B69     		ldr	r3, [r1, #16]
 1577 013e 0133     		adds	r3, r3, #1
 1578 0140 9B02     		lsls	r3, r3, #10
 1579 0142 4365     		str	r3, [r0, #84]
 1580 0144 C365     		str	r3, [r0, #92]
ARM GAS  /tmp/ccBxesNo.s 			page 28


 1581 0146 4FF40073 		mov	r3, #512
 1582 014a 8365     		str	r3, [r0, #88]
 1583 014c ABE7     		b	.L222
 1584              	.L220:
 1585 014e 0368     		ldr	r3, [r0]
 1586 0150 054A     		ldr	r2, .L223
 1587 0152 9A63     		str	r2, [r3, #56]
 1588 0154 836B     		ldr	r3, [r0, #56]
 1589 0156 43F08053 		orr	r3, r3, #268435456
 1590 015a 8363     		str	r3, [r0, #56]
 1591 015c 0123     		movs	r3, #1
 1592 015e 80F83430 		strb	r3, [r0, #52]
 1593 0162 1846     		mov	r0, r3
 1594 0164 E0E7     		b	.L221
 1595              	.L224:
 1596 0166 00BF     		.align	2
 1597              	.L223:
 1598 0168 FF054000 		.word	4195839
 1600              		.section	.text.HAL_SD_InitCard,"ax",%progbits
 1601              		.align	1
 1602              		.global	HAL_SD_InitCard
 1603              		.syntax unified
 1604              		.thumb
 1605              		.thumb_func
 1606              		.fpu softvfp
 1608              	HAL_SD_InitCard:
 1609              		@ args = 0, pretend = 0, frame = 80
 1610              		@ frame_needed = 0, uses_anonymous_args = 0
 1611 0000 0023     		movs	r3, #0
 1612 0002 2DE9F041 		push	{r4, r5, r6, r7, r8, lr}
 1613 0006 98B0     		sub	sp, sp, #96
 1614 0008 CDE90933 		strd	r3, r3, [sp, #36]
 1615 000c CDE90733 		strd	r3, r3, [sp, #28]
 1616 0010 0B93     		str	r3, [sp, #44]
 1617 0012 7623     		movs	r3, #118
 1618 0014 0446     		mov	r4, r0
 1619 0016 0C93     		str	r3, [sp, #48]
 1620 0018 0AAB     		add	r3, sp, #40
 1621 001a 93E80700 		ldm	r3, {r0, r1, r2}
 1622 001e 8DE80700 		stm	sp, {r0, r1, r2}
 1623 0022 07AB     		add	r3, sp, #28
 1624 0024 2068     		ldr	r0, [r4]
 1625 0026 0ECB     		ldm	r3, {r1, r2, r3}
 1626 0028 FFF7FEFF 		bl	SDIO_Init
 1627 002c 0546     		mov	r5, r0
 1628 002e 28BB     		cbnz	r0, .L244
 1629 0030 0126     		movs	r6, #1
 1630 0032 694F     		ldr	r7, .L261
 1631 0034 3860     		str	r0, [r7]
 1632 0036 2068     		ldr	r0, [r4]
 1633 0038 FFF7FEFF 		bl	SDIO_PowerState_ON
 1634 003c 3E60     		str	r6, [r7]
 1635 003e 2068     		ldr	r0, [r4]
 1636 0040 0695     		str	r5, [sp, #24]
 1637 0042 FFF7FEFF 		bl	SDMMC_CmdGoIdleState
 1638 0046 0546     		mov	r5, r0
 1639 0048 90B9     		cbnz	r0, .L227
ARM GAS  /tmp/ccBxesNo.s 			page 29


 1640 004a 2068     		ldr	r0, [r4]
 1641 004c FFF7FEFF 		bl	SDMMC_CmdOperCond
 1642 0050 30B1     		cbz	r0, .L228
 1643 0052 2068     		ldr	r0, [r4]
 1644 0054 A564     		str	r5, [r4, #72]
 1645 0056 FFF7FEFF 		bl	SDMMC_CmdGoIdleState
 1646 005a 88B1     		cbz	r0, .L259
 1647 005c 0546     		mov	r5, r0
 1648 005e 07E0     		b	.L227
 1649              	.L228:
 1650 0060 A664     		str	r6, [r4, #72]
 1651              	.L230:
 1652 0062 0021     		movs	r1, #0
 1653 0064 2068     		ldr	r0, [r4]
 1654 0066 FFF7FEFF 		bl	SDMMC_CmdAppCommand
 1655 006a 60B1     		cbz	r0, .L231
 1656              	.L232:
 1657 006c 4FF08055 		mov	r5, #268435456
 1658              	.L227:
 1659 0070 0120     		movs	r0, #1
 1660 0072 84F83400 		strb	r0, [r4, #52]
 1661 0076 A36B     		ldr	r3, [r4, #56]
 1662 0078 1D43     		orrs	r5, r5, r3
 1663 007a A563     		str	r5, [r4, #56]
 1664              	.L244:
 1665 007c 0125     		movs	r5, #1
 1666 007e 9DE0     		b	.L226
 1667              	.L259:
 1668 0080 A36C     		ldr	r3, [r4, #72]
 1669 0082 012B     		cmp	r3, #1
 1670 0084 EDD0     		beq	.L230
 1671              	.L231:
 1672 0086 4FF6FE76 		movw	r6, #65534
 1673 008a 0021     		movs	r1, #0
 1674 008c 3746     		mov	r7, r6
 1675 008e DFF84C81 		ldr	r8, .L261+4
 1676 0092 14E0     		b	.L233
 1677              	.L235:
 1678 0094 2068     		ldr	r0, [r4]
 1679 0096 FFF7FEFF 		bl	SDMMC_CmdAppCommand
 1680 009a 0546     		mov	r5, r0
 1681 009c 0028     		cmp	r0, #0
 1682 009e E7D1     		bne	.L227
 1683 00a0 4146     		mov	r1, r8
 1684 00a2 2068     		ldr	r0, [r4]
 1685 00a4 FFF7FEFF 		bl	SDMMC_CmdAppOperCommand
 1686 00a8 0028     		cmp	r0, #0
 1687 00aa DFD1     		bne	.L232
 1688 00ac 2946     		mov	r1, r5
 1689 00ae 2068     		ldr	r0, [r4]
 1690 00b0 FFF7FEFF 		bl	SDIO_GetResponse
 1691 00b4 0546     		mov	r5, r0
 1692 00b6 069B     		ldr	r3, [sp, #24]
 1693 00b8 C10F     		lsrs	r1, r0, #31
 1694 00ba 0133     		adds	r3, r3, #1
 1695 00bc 0693     		str	r3, [sp, #24]
 1696              	.L233:
ARM GAS  /tmp/ccBxesNo.s 			page 30


 1697 00be 069B     		ldr	r3, [sp, #24]
 1698 00c0 B342     		cmp	r3, r6
 1699 00c2 01D8     		bhi	.L234
 1700 00c4 0029     		cmp	r1, #0
 1701 00c6 E5D0     		beq	.L235
 1702              	.L234:
 1703 00c8 069B     		ldr	r3, [sp, #24]
 1704 00ca BB42     		cmp	r3, r7
 1705 00cc 0CD8     		bhi	.L246
 1706 00ce 0123     		movs	r3, #1
 1707 00d0 C5F38075 		ubfx	r5, r5, #30, #1
 1708 00d4 2068     		ldr	r0, [r4]
 1709 00d6 6564     		str	r5, [r4, #68]
 1710 00d8 ADF81630 		strh	r3, [sp, #22]	@ movhi
 1711 00dc FFF7FEFF 		bl	SDIO_GetPowerState
 1712 00e0 28B9     		cbnz	r0, .L260
 1713 00e2 4FF08061 		mov	r1, #67108864
 1714 00e6 6FE0     		b	.L242
 1715              	.L246:
 1716 00e8 4FF08075 		mov	r5, #16777216
 1717 00ec C0E7     		b	.L227
 1718              	.L260:
 1719 00ee 636C     		ldr	r3, [r4, #68]
 1720 00f0 032B     		cmp	r3, #3
 1721 00f2 44D0     		beq	.L243
 1722 00f4 2068     		ldr	r0, [r4]
 1723 00f6 FFF7FEFF 		bl	SDMMC_CmdSendCID
 1724 00fa 0146     		mov	r1, r0
 1725 00fc 0028     		cmp	r0, #0
 1726 00fe 63D1     		bne	.L242
 1727 0100 2068     		ldr	r0, [r4]
 1728 0102 FFF7FEFF 		bl	SDIO_GetResponse
 1729 0106 0421     		movs	r1, #4
 1730 0108 6067     		str	r0, [r4, #116]
 1731 010a 2068     		ldr	r0, [r4]
 1732 010c FFF7FEFF 		bl	SDIO_GetResponse
 1733 0110 0821     		movs	r1, #8
 1734 0112 A067     		str	r0, [r4, #120]
 1735 0114 2068     		ldr	r0, [r4]
 1736 0116 FFF7FEFF 		bl	SDIO_GetResponse
 1737 011a 0C21     		movs	r1, #12
 1738 011c E067     		str	r0, [r4, #124]
 1739 011e 2068     		ldr	r0, [r4]
 1740 0120 FFF7FEFF 		bl	SDIO_GetResponse
 1741 0124 636C     		ldr	r3, [r4, #68]
 1742 0126 C4F88000 		str	r0, [r4, #128]
 1743 012a 032B     		cmp	r3, #3
 1744 012c 27D0     		beq	.L243
 1745 012e 0DF11601 		add	r1, sp, #22
 1746 0132 2068     		ldr	r0, [r4]
 1747 0134 FFF7FEFF 		bl	SDMMC_CmdSetRelAdd
 1748 0138 0146     		mov	r1, r0
 1749 013a 0028     		cmp	r0, #0
 1750 013c 44D1     		bne	.L242
 1751 013e 636C     		ldr	r3, [r4, #68]
 1752 0140 2068     		ldr	r0, [r4]
 1753 0142 032B     		cmp	r3, #3
ARM GAS  /tmp/ccBxesNo.s 			page 31


 1754 0144 1BD0     		beq	.L243
 1755 0146 BDF81610 		ldrh	r1, [sp, #22]
 1756 014a 2165     		str	r1, [r4, #80]
 1757 014c 0904     		lsls	r1, r1, #16
 1758 014e FFF7FEFF 		bl	SDMMC_CmdSendCSD
 1759 0152 0146     		mov	r1, r0
 1760 0154 0028     		cmp	r0, #0
 1761 0156 37D1     		bne	.L242
 1762 0158 2068     		ldr	r0, [r4]
 1763 015a FFF7FEFF 		bl	SDIO_GetResponse
 1764 015e 0421     		movs	r1, #4
 1765 0160 6066     		str	r0, [r4, #100]
 1766 0162 2068     		ldr	r0, [r4]
 1767 0164 FFF7FEFF 		bl	SDIO_GetResponse
 1768 0168 0821     		movs	r1, #8
 1769 016a A066     		str	r0, [r4, #104]
 1770 016c 2068     		ldr	r0, [r4]
 1771 016e FFF7FEFF 		bl	SDIO_GetResponse
 1772 0172 0C21     		movs	r1, #12
 1773 0174 E066     		str	r0, [r4, #108]
 1774 0176 2068     		ldr	r0, [r4]
 1775 0178 FFF7FEFF 		bl	SDIO_GetResponse
 1776 017c 2067     		str	r0, [r4, #112]
 1777              	.L243:
 1778 017e 0421     		movs	r1, #4
 1779 0180 2068     		ldr	r0, [r4]
 1780 0182 FFF7FEFF 		bl	SDIO_GetResponse
 1781 0186 000D     		lsrs	r0, r0, #20
 1782 0188 E064     		str	r0, [r4, #76]
 1783 018a 0DA9     		add	r1, sp, #52
 1784 018c 2046     		mov	r0, r4
 1785 018e FFF7FEFF 		bl	HAL_SD_GetCardCSD
 1786 0192 0546     		mov	r5, r0
 1787 0194 B0B9     		cbnz	r0, .L241
 1788 0196 226D     		ldr	r2, [r4, #80]
 1789 0198 0346     		mov	r3, r0
 1790 019a 1204     		lsls	r2, r2, #16
 1791 019c 2068     		ldr	r0, [r4]
 1792 019e FFF7FEFF 		bl	SDMMC_CmdSelDesel
 1793 01a2 0146     		mov	r1, r0
 1794 01a4 80B9     		cbnz	r0, .L242
 1795 01a6 04F11003 		add	r3, r4, #16
 1796 01aa 93E80700 		ldm	r3, {r0, r1, r2}
 1797 01ae 8DE80700 		stm	sp, {r0, r1, r2}
 1798 01b2 231D     		adds	r3, r4, #4
 1799 01b4 2068     		ldr	r0, [r4]
 1800 01b6 0ECB     		ldm	r3, {r1, r2, r3}
 1801 01b8 FFF7FEFF 		bl	SDIO_Init
 1802              	.L226:
 1803 01bc 2846     		mov	r0, r5
 1804 01be 18B0     		add	sp, sp, #96
 1805              		@ sp needed
 1806 01c0 BDE8F081 		pop	{r4, r5, r6, r7, r8, pc}
 1807              	.L241:
 1808 01c4 4FF08051 		mov	r1, #268435456
 1809              	.L242:
 1810 01c8 0125     		movs	r5, #1
ARM GAS  /tmp/ccBxesNo.s 			page 32


 1811 01ca 84F83450 		strb	r5, [r4, #52]
 1812 01ce A06B     		ldr	r0, [r4, #56]
 1813 01d0 0843     		orrs	r0, r0, r1
 1814 01d2 A063     		str	r0, [r4, #56]
 1815 01d4 F2E7     		b	.L226
 1816              	.L262:
 1817 01d6 00BF     		.align	2
 1818              	.L261:
 1819 01d8 A0003042 		.word	1110442144
 1820 01dc 000010C1 		.word	-1055916032
 1822              		.section	.text.HAL_SD_Init,"ax",%progbits
 1823              		.align	1
 1824              		.global	HAL_SD_Init
 1825              		.syntax unified
 1826              		.thumb
 1827              		.thumb_func
 1828              		.fpu softvfp
 1830              	HAL_SD_Init:
 1831              		@ args = 0, pretend = 0, frame = 0
 1832              		@ frame_needed = 0, uses_anonymous_args = 0
 1833 0000 10B5     		push	{r4, lr}
 1834 0002 0446     		mov	r4, r0
 1835 0004 08B9     		cbnz	r0, .L264
 1836              	.L267:
 1837 0006 0120     		movs	r0, #1
 1838              	.L265:
 1839 0008 10BD     		pop	{r4, pc}
 1840              	.L264:
 1841 000a 90F83430 		ldrb	r3, [r0, #52]	@ zero_extendqisi2
 1842 000e 03F0FF02 		and	r2, r3, #255
 1843 0012 13B9     		cbnz	r3, .L266
 1844 0014 0277     		strb	r2, [r0, #28]
 1845 0016 FFF7FEFF 		bl	HAL_SD_MspInit
 1846              	.L266:
 1847 001a 0323     		movs	r3, #3
 1848 001c 2046     		mov	r0, r4
 1849 001e 84F83430 		strb	r3, [r4, #52]
 1850 0022 FFF7FEFF 		bl	HAL_SD_InitCard
 1851 0026 0028     		cmp	r0, #0
 1852 0028 EDD1     		bne	.L267
 1853 002a 0123     		movs	r3, #1
 1854 002c A063     		str	r0, [r4, #56]
 1855 002e 2063     		str	r0, [r4, #48]
 1856 0030 84F83430 		strb	r3, [r4, #52]
 1857 0034 E8E7     		b	.L265
 1859              		.section	.text.HAL_SD_GetCardStatus,"ax",%progbits
 1860              		.align	1
 1861              		.global	HAL_SD_GetCardStatus
 1862              		.syntax unified
 1863              		.thumb
 1864              		.thumb_func
 1865              		.fpu softvfp
 1867              	HAL_SD_GetCardStatus:
 1868              		@ args = 0, pretend = 0, frame = 88
 1869              		@ frame_needed = 0, uses_anonymous_args = 0
 1870 0000 2DE9F043 		push	{r4, r5, r6, r7, r8, r9, lr}
 1871 0004 97B0     		sub	sp, sp, #92
ARM GAS  /tmp/ccBxesNo.s 			page 33


 1872 0006 0446     		mov	r4, r0
 1873 0008 0D46     		mov	r5, r1
 1874 000a FFF7FEFF 		bl	HAL_GetTick
 1875 000e 0021     		movs	r1, #0
 1876 0010 0646     		mov	r6, r0
 1877 0012 2068     		ldr	r0, [r4]
 1878 0014 FFF7FEFF 		bl	SDIO_GetResponse
 1879 0018 8301     		lsls	r3, r0, #6
 1880 001a 0BD5     		bpl	.L269
 1881 001c 4FF40060 		mov	r0, #2048
 1882              	.L270:
 1883 0020 2368     		ldr	r3, [r4]
 1884 0022 4A4A     		ldr	r2, .L298
 1885 0024 9A63     		str	r2, [r3, #56]
 1886 0026 A36B     		ldr	r3, [r4, #56]
 1887 0028 1843     		orrs	r0, r0, r3
 1888 002a A063     		str	r0, [r4, #56]
 1889 002c 0120     		movs	r0, #1
 1890 002e 84F83400 		strb	r0, [r4, #52]
 1891 0032 84E0     		b	.L296
 1892              	.L269:
 1893 0034 4021     		movs	r1, #64
 1894 0036 2068     		ldr	r0, [r4]
 1895 0038 FFF7FEFF 		bl	SDMMC_CmdBlockLength
 1896 003c 10B1     		cbz	r0, .L271
 1897              	.L297:
 1898 003e A36B     		ldr	r3, [r4, #56]
 1899 0040 A363     		str	r3, [r4, #56]
 1900 0042 EDE7     		b	.L270
 1901              	.L271:
 1902 0044 216D     		ldr	r1, [r4, #80]
 1903 0046 2068     		ldr	r0, [r4]
 1904 0048 0904     		lsls	r1, r1, #16
 1905 004a FFF7FEFF 		bl	SDMMC_CmdAppCommand
 1906 004e 0028     		cmp	r0, #0
 1907 0050 F5D1     		bne	.L297
 1908 0052 4023     		movs	r3, #64
 1909 0054 4FF0FF37 		mov	r7, #-1
 1910 0058 4FF0600C 		mov	ip, #96
 1911 005c CDE90073 		strd	r7, r3, [sp]
 1912 0060 0223     		movs	r3, #2
 1913 0062 CDE902C3 		strd	ip, r3, [sp, #8]
 1914 0066 0123     		movs	r3, #1
 1915 0068 0490     		str	r0, [sp, #16]
 1916 006a 6946     		mov	r1, sp
 1917 006c 2068     		ldr	r0, [r4]
 1918 006e 0593     		str	r3, [sp, #20]
 1919 0070 FFF7FEFF 		bl	SDIO_ConfigData
 1920 0074 2068     		ldr	r0, [r4]
 1921 0076 FFF7FEFF 		bl	SDMMC_CmdStatusRegister
 1922 007a 0028     		cmp	r0, #0
 1923 007c DFD1     		bne	.L297
 1924 007e 40F22A48 		movw	r8, #1066
 1925 0082 06AF     		add	r7, sp, #24
 1926              	.L274:
 1927 0084 2368     		ldr	r3, [r4]
 1928 0086 5A6B     		ldr	r2, [r3, #52]
ARM GAS  /tmp/ccBxesNo.s 			page 34


 1929 0088 12EA080F 		tst	r2, r8
 1930 008c 0AD0     		beq	.L278
 1931 008e 5A6B     		ldr	r2, [r3, #52]
 1932 0090 1107     		lsls	r1, r2, #28
 1933 0092 59D4     		bmi	.L279
 1934 0094 5A6B     		ldr	r2, [r3, #52]
 1935 0096 9207     		lsls	r2, r2, #30
 1936 0098 54D4     		bmi	.L280
 1937 009a 5B6B     		ldr	r3, [r3, #52]
 1938 009c 9B06     		lsls	r3, r3, #26
 1939 009e 1ED5     		bpl	.L282
 1940 00a0 2020     		movs	r0, #32
 1941 00a2 BDE7     		b	.L270
 1942              	.L278:
 1943 00a4 5B6B     		ldr	r3, [r3, #52]
 1944 00a6 1804     		lsls	r0, r3, #16
 1945 00a8 08D5     		bpl	.L275
 1946 00aa 07F12009 		add	r9, r7, #32
 1947              	.L276:
 1948 00ae 2068     		ldr	r0, [r4]
 1949 00b0 FFF7FEFF 		bl	SDIO_ReadFIFO
 1950 00b4 47F8040B 		str	r0, [r7], #4
 1951 00b8 B945     		cmp	r9, r7
 1952 00ba F8D1     		bne	.L276
 1953              	.L275:
 1954 00bc FFF7FEFF 		bl	HAL_GetTick
 1955 00c0 801B     		subs	r0, r0, r6
 1956 00c2 0130     		adds	r0, r0, #1
 1957 00c4 DED1     		bne	.L274
 1958              	.L277:
 1959 00c6 4FF00040 		mov	r0, #-2147483648
 1960 00ca A9E7     		b	.L270
 1961              	.L283:
 1962 00cc FFF7FEFF 		bl	SDIO_ReadFIFO
 1963 00d0 47F8040B 		str	r0, [r7], #4
 1964 00d4 FFF7FEFF 		bl	HAL_GetTick
 1965 00d8 801B     		subs	r0, r0, r6
 1966 00da 0130     		adds	r0, r0, #1
 1967 00dc F3D0     		beq	.L277
 1968              	.L282:
 1969 00de 2068     		ldr	r0, [r4]
 1970 00e0 426B     		ldr	r2, [r0, #52]
 1971 00e2 12F40012 		ands	r2, r2, #2097152
 1972 00e6 F1D1     		bne	.L283
 1973 00e8 40F23A53 		movw	r3, #1338
 1974 00ec 0699     		ldr	r1, [sp, #24]
 1975 00ee 8363     		str	r3, [r0, #56]
 1976 00f0 C1F38113 		ubfx	r3, r1, #6, #2
 1977 00f4 2B70     		strb	r3, [r5]
 1978 00f6 C1F34013 		ubfx	r3, r1, #5, #1
 1979 00fa 6B70     		strb	r3, [r5, #1]
 1980 00fc 0B0A     		lsrs	r3, r1, #8
 1981 00fe 23F0FF03 		bic	r3, r3, #255
 1982 0102 43EA1163 		orr	r3, r3, r1, lsr #24
 1983 0106 9BB2     		uxth	r3, r3
 1984 0108 6B80     		strh	r3, [r5, #2]	@ movhi
 1985 010a 079B     		ldr	r3, [sp, #28]
ARM GAS  /tmp/ccBxesNo.s 			page 35


 1986 010c 1BBA     		rev	r3, r3
 1987 010e 6B60     		str	r3, [r5, #4]
 1988 0110 089B     		ldr	r3, [sp, #32]
 1989 0112 D9B2     		uxtb	r1, r3
 1990 0114 2972     		strb	r1, [r5, #8]
 1991 0116 C3F30721 		ubfx	r1, r3, #8, #8
 1992 011a 6972     		strb	r1, [r5, #9]
 1993 011c C3F30351 		ubfx	r1, r3, #20, #4
 1994 0120 A972     		strb	r1, [r5, #10]
 1995 0122 0999     		ldr	r1, [sp, #36]
 1996 0124 1B0C     		lsrs	r3, r3, #16
 1997 0126 C8B2     		uxtb	r0, r1
 1998 0128 23F0FF03 		bic	r3, r3, #255
 1999 012c 0343     		orrs	r3, r3, r0
 2000 012e 1046     		mov	r0, r2
 2001 0130 AB81     		strh	r3, [r5, #12]	@ movhi
 2002 0132 C1F38523 		ubfx	r3, r1, #10, #6
 2003 0136 C1F30121 		ubfx	r1, r1, #8, #2
 2004 013a AB73     		strb	r3, [r5, #14]
 2005 013c E973     		strb	r1, [r5, #15]
 2006              	.L296:
 2007 013e 17B0     		add	sp, sp, #92
 2008              		@ sp needed
 2009 0140 BDE8F083 		pop	{r4, r5, r6, r7, r8, r9, pc}
 2010              	.L280:
 2011 0144 0220     		movs	r0, #2
 2012 0146 6BE7     		b	.L270
 2013              	.L279:
 2014 0148 0820     		movs	r0, #8
 2015 014a 69E7     		b	.L270
 2016              	.L299:
 2017              		.align	2
 2018              	.L298:
 2019 014c FF054000 		.word	4195839
 2021              		.section	.text.HAL_SD_GetCardInfo,"ax",%progbits
 2022              		.align	1
 2023              		.global	HAL_SD_GetCardInfo
 2024              		.syntax unified
 2025              		.thumb
 2026              		.thumb_func
 2027              		.fpu softvfp
 2029              	HAL_SD_GetCardInfo:
 2030              		@ args = 0, pretend = 0, frame = 0
 2031              		@ frame_needed = 0, uses_anonymous_args = 0
 2032              		@ link register save eliminated.
 2033 0000 436C     		ldr	r3, [r0, #68]
 2034 0002 0B60     		str	r3, [r1]
 2035 0004 836C     		ldr	r3, [r0, #72]
 2036 0006 4B60     		str	r3, [r1, #4]
 2037 0008 C36C     		ldr	r3, [r0, #76]
 2038 000a 8B60     		str	r3, [r1, #8]
 2039 000c 036D     		ldr	r3, [r0, #80]
 2040 000e CB60     		str	r3, [r1, #12]
 2041 0010 436D     		ldr	r3, [r0, #84]
 2042 0012 0B61     		str	r3, [r1, #16]
 2043 0014 836D     		ldr	r3, [r0, #88]
 2044 0016 4B61     		str	r3, [r1, #20]
ARM GAS  /tmp/ccBxesNo.s 			page 36


 2045 0018 C36D     		ldr	r3, [r0, #92]
 2046 001a 8B61     		str	r3, [r1, #24]
 2047 001c 036E     		ldr	r3, [r0, #96]
 2048 001e 0020     		movs	r0, #0
 2049 0020 CB61     		str	r3, [r1, #28]
 2050 0022 7047     		bx	lr
 2052              		.section	.text.HAL_SD_ConfigWideBusOperation,"ax",%progbits
 2053              		.align	1
 2054              		.global	HAL_SD_ConfigWideBusOperation
 2055              		.syntax unified
 2056              		.thumb
 2057              		.thumb_func
 2058              		.fpu softvfp
 2060              	HAL_SD_ConfigWideBusOperation:
 2061              		@ args = 0, pretend = 0, frame = 24
 2062              		@ frame_needed = 0, uses_anonymous_args = 0
 2063 0000 0323     		movs	r3, #3
 2064 0002 F0B5     		push	{r4, r5, r6, r7, lr}
 2065 0004 80F83430 		strb	r3, [r0, #52]
 2066 0008 436C     		ldr	r3, [r0, #68]
 2067 000a 0446     		mov	r4, r0
 2068 000c 032B     		cmp	r3, #3
 2069 000e 0D46     		mov	r5, r1
 2070 0010 8BB0     		sub	sp, sp, #44
 2071 0012 02D0     		beq	.L302
 2072 0014 B1F5805F 		cmp	r1, #4096
 2073 0018 03D1     		bne	.L303
 2074              	.L302:
 2075 001a A36B     		ldr	r3, [r4, #56]
 2076 001c 43F08053 		orr	r3, r3, #268435456
 2077 0020 56E0     		b	.L315
 2078              	.L303:
 2079 0022 B1F5006F 		cmp	r1, #2048
 2080 0026 0068     		ldr	r0, [r0]
 2081 0028 2BD1     		bne	.L305
 2082 002a 0021     		movs	r1, #0
 2083 002c CDE90411 		strd	r1, r1, [sp, #16]
 2084 0030 FFF7FEFF 		bl	SDIO_GetResponse
 2085 0034 8001     		lsls	r0, r0, #6
 2086 0036 1FD4     		bmi	.L311
 2087 0038 2046     		mov	r0, r4
 2088 003a 04A9     		add	r1, sp, #16
 2089 003c FFF7FEFF 		bl	SD_FindSCR
 2090 0040 60B9     		cbnz	r0, .L306
 2091 0042 059B     		ldr	r3, [sp, #20]
 2092 0044 5903     		lsls	r1, r3, #13
 2093 0046 19D5     		bpl	.L312
 2094 0048 216D     		ldr	r1, [r4, #80]
 2095 004a 2068     		ldr	r0, [r4]
 2096 004c 0904     		lsls	r1, r1, #16
 2097 004e FFF7FEFF 		bl	SDMMC_CmdAppCommand
 2098 0052 18B9     		cbnz	r0, .L306
 2099 0054 0221     		movs	r1, #2
 2100 0056 2068     		ldr	r0, [r4]
 2101 0058 FFF7FEFF 		bl	SDMMC_CmdBusWidth
 2102              	.L306:
 2103 005c A36B     		ldr	r3, [r4, #56]
ARM GAS  /tmp/ccBxesNo.s 			page 37


 2104 005e 1843     		orrs	r0, r0, r3
 2105              	.L316:
 2106 0060 A063     		str	r0, [r4, #56]
 2107              	.L304:
 2108 0062 A66B     		ldr	r6, [r4, #56]
 2109 0064 2768     		ldr	r7, [r4]
 2110 0066 002E     		cmp	r6, #0
 2111 0068 34D0     		beq	.L309
 2112 006a 0120     		movs	r0, #1
 2113 006c 264B     		ldr	r3, .L317
 2114 006e BB63     		str	r3, [r7, #56]
 2115 0070 84F83400 		strb	r0, [r4, #52]
 2116              	.L310:
 2117 0074 0BB0     		add	sp, sp, #44
 2118              		@ sp needed
 2119 0076 F0BD     		pop	{r4, r5, r6, r7, pc}
 2120              	.L311:
 2121 0078 2846     		mov	r0, r5
 2122 007a EFE7     		b	.L306
 2123              	.L312:
 2124 007c 4FF08060 		mov	r0, #67108864
 2125 0080 ECE7     		b	.L306
 2126              	.L305:
 2127 0082 11BB     		cbnz	r1, .L307
 2128 0084 CDE90411 		strd	r1, r1, [sp, #16]
 2129 0088 FFF7FEFF 		bl	SDIO_GetResponse
 2130 008c 8201     		lsls	r2, r0, #6
 2131 008e 16D4     		bmi	.L313
 2132 0090 04A9     		add	r1, sp, #16
 2133 0092 2046     		mov	r0, r4
 2134 0094 FFF7FEFF 		bl	SD_FindSCR
 2135 0098 0146     		mov	r1, r0
 2136 009a 68B9     		cbnz	r0, .L308
 2137 009c 059B     		ldr	r3, [sp, #20]
 2138 009e DB03     		lsls	r3, r3, #15
 2139 00a0 10D5     		bpl	.L314
 2140 00a2 216D     		ldr	r1, [r4, #80]
 2141 00a4 2068     		ldr	r0, [r4]
 2142 00a6 0904     		lsls	r1, r1, #16
 2143 00a8 FFF7FEFF 		bl	SDMMC_CmdAppCommand
 2144 00ac 0146     		mov	r1, r0
 2145 00ae 18B9     		cbnz	r0, .L308
 2146 00b0 2068     		ldr	r0, [r4]
 2147 00b2 FFF7FEFF 		bl	SDMMC_CmdBusWidth
 2148 00b6 0146     		mov	r1, r0
 2149              	.L308:
 2150 00b8 A06B     		ldr	r0, [r4, #56]
 2151 00ba 0843     		orrs	r0, r0, r1
 2152 00bc D0E7     		b	.L316
 2153              	.L313:
 2154 00be 4FF40061 		mov	r1, #2048
 2155 00c2 F9E7     		b	.L308
 2156              	.L314:
 2157 00c4 4FF08061 		mov	r1, #67108864
 2158 00c8 F6E7     		b	.L308
 2159              	.L307:
 2160 00ca A36B     		ldr	r3, [r4, #56]
ARM GAS  /tmp/ccBxesNo.s 			page 38


 2161 00cc 43F00063 		orr	r3, r3, #134217728
 2162              	.L315:
 2163 00d0 A363     		str	r3, [r4, #56]
 2164 00d2 C6E7     		b	.L304
 2165              	.L309:
 2166 00d4 6368     		ldr	r3, [r4, #4]
 2167 00d6 0493     		str	r3, [sp, #16]
 2168 00d8 A368     		ldr	r3, [r4, #8]
 2169 00da 0593     		str	r3, [sp, #20]
 2170 00dc E368     		ldr	r3, [r4, #12]
 2171 00de CDE90635 		strd	r3, r5, [sp, #24]
 2172 00e2 6369     		ldr	r3, [r4, #20]
 2173 00e4 0893     		str	r3, [sp, #32]
 2174 00e6 A369     		ldr	r3, [r4, #24]
 2175 00e8 0993     		str	r3, [sp, #36]
 2176 00ea 0AAB     		add	r3, sp, #40
 2177 00ec 13E90700 		ldmdb	r3, {r0, r1, r2}
 2178 00f0 8DE80700 		stm	sp, {r0, r1, r2}
 2179 00f4 04AB     		add	r3, sp, #16
 2180 00f6 0ECB     		ldm	r3, {r1, r2, r3}
 2181 00f8 3846     		mov	r0, r7
 2182 00fa FFF7FEFF 		bl	SDIO_Init
 2183 00fe 0123     		movs	r3, #1
 2184 0100 3046     		mov	r0, r6
 2185 0102 84F83430 		strb	r3, [r4, #52]
 2186 0106 B5E7     		b	.L310
 2187              	.L318:
 2188              		.align	2
 2189              	.L317:
 2190 0108 FF054000 		.word	4195839
 2192              		.section	.text.HAL_SD_GetCardState,"ax",%progbits
 2193              		.align	1
 2194              		.global	HAL_SD_GetCardState
 2195              		.syntax unified
 2196              		.thumb
 2197              		.thumb_func
 2198              		.fpu softvfp
 2200              	HAL_SD_GetCardState:
 2201              		@ args = 0, pretend = 0, frame = 0
 2202              		@ frame_needed = 0, uses_anonymous_args = 0
 2203 0000 016D     		ldr	r1, [r0, #80]
 2204 0002 10B5     		push	{r4, lr}
 2205 0004 0904     		lsls	r1, r1, #16
 2206 0006 0446     		mov	r4, r0
 2207 0008 0068     		ldr	r0, [r0]
 2208 000a FFF7FEFF 		bl	SDMMC_CmdSendStatus
 2209 000e 0146     		mov	r1, r0
 2210 0010 28B9     		cbnz	r0, .L320
 2211 0012 2068     		ldr	r0, [r4]
 2212 0014 FFF7FEFF 		bl	SDIO_GetResponse
 2213              	.L321:
 2214 0018 C0F34320 		ubfx	r0, r0, #9, #4
 2215 001c 10BD     		pop	{r4, pc}
 2216              	.L320:
 2217 001e A06B     		ldr	r0, [r4, #56]
 2218 0020 0143     		orrs	r1, r1, r0
 2219 0022 A163     		str	r1, [r4, #56]
ARM GAS  /tmp/ccBxesNo.s 			page 39


 2220 0024 0020     		movs	r0, #0
 2221 0026 F7E7     		b	.L321
 2223              		.section	.text.SD_DMAError,"ax",%progbits
 2224              		.align	1
 2225              		.syntax unified
 2226              		.thumb
 2227              		.thumb_func
 2228              		.fpu softvfp
 2230              	SD_DMAError:
 2231              		@ args = 0, pretend = 0, frame = 0
 2232              		@ frame_needed = 0, uses_anonymous_args = 0
 2233 0000 10B5     		push	{r4, lr}
 2234 0002 446A     		ldr	r4, [r0, #36]
 2235 0004 236C     		ldr	r3, [r4, #64]
 2236 0006 9A6B     		ldr	r2, [r3, #56]
 2237 0008 E36B     		ldr	r3, [r4, #60]
 2238 000a 012A     		cmp	r2, #1
 2239 000c 9B6B     		ldr	r3, [r3, #56]
 2240 000e 01D0     		beq	.L323
 2241 0010 012B     		cmp	r3, #1
 2242 0012 1BD1     		bne	.L324
 2243              	.L323:
 2244 0014 2368     		ldr	r3, [r4]
 2245 0016 0F4A     		ldr	r2, .L329
 2246 0018 2046     		mov	r0, r4
 2247 001a 9A63     		str	r2, [r3, #56]
 2248 001c DA6B     		ldr	r2, [r3, #60]
 2249 001e 22F49D72 		bic	r2, r2, #314
 2250 0022 DA63     		str	r2, [r3, #60]
 2251 0024 A36B     		ldr	r3, [r4, #56]
 2252 0026 43F08043 		orr	r3, r3, #1073741824
 2253 002a A363     		str	r3, [r4, #56]
 2254 002c FFF7FEFF 		bl	HAL_SD_GetCardState
 2255 0030 0538     		subs	r0, r0, #5
 2256 0032 0128     		cmp	r0, #1
 2257 0034 05D8     		bhi	.L325
 2258 0036 2068     		ldr	r0, [r4]
 2259 0038 FFF7FEFF 		bl	SDMMC_CmdStopTransfer
 2260 003c A36B     		ldr	r3, [r4, #56]
 2261 003e 0343     		orrs	r3, r3, r0
 2262 0040 A363     		str	r3, [r4, #56]
 2263              	.L325:
 2264 0042 0123     		movs	r3, #1
 2265 0044 84F83430 		strb	r3, [r4, #52]
 2266 0048 0023     		movs	r3, #0
 2267 004a 2363     		str	r3, [r4, #48]
 2268              	.L324:
 2269 004c 2046     		mov	r0, r4
 2270 004e FFF7FEFF 		bl	HAL_SD_ErrorCallback
 2271 0052 10BD     		pop	{r4, pc}
 2272              	.L330:
 2273              		.align	2
 2274              	.L329:
 2275 0054 FF054000 		.word	4195839
 2277              		.section	.text.SD_DMATxAbort,"ax",%progbits
 2278              		.align	1
 2279              		.syntax unified
ARM GAS  /tmp/ccBxesNo.s 			page 40


 2280              		.thumb
 2281              		.thumb_func
 2282              		.fpu softvfp
 2284              	SD_DMATxAbort:
 2285              		@ args = 0, pretend = 0, frame = 0
 2286              		@ frame_needed = 0, uses_anonymous_args = 0
 2287 0000 40F23A52 		movw	r2, #1338
 2288 0004 10B5     		push	{r4, lr}
 2289 0006 446A     		ldr	r4, [r0, #36]
 2290 0008 2368     		ldr	r3, [r4]
 2291 000a 2046     		mov	r0, r4
 2292 000c 9A63     		str	r2, [r3, #56]
 2293 000e FFF7FEFF 		bl	HAL_SD_GetCardState
 2294 0012 0123     		movs	r3, #1
 2295 0014 84F83430 		strb	r3, [r4, #52]
 2296 0018 0023     		movs	r3, #0
 2297 001a 0538     		subs	r0, r0, #5
 2298 001c 0128     		cmp	r0, #1
 2299 001e 2363     		str	r3, [r4, #48]
 2300 0020 05D8     		bhi	.L332
 2301 0022 2068     		ldr	r0, [r4]
 2302 0024 FFF7FEFF 		bl	SDMMC_CmdStopTransfer
 2303 0028 A36B     		ldr	r3, [r4, #56]
 2304 002a 0343     		orrs	r3, r3, r0
 2305 002c A363     		str	r3, [r4, #56]
 2306              	.L332:
 2307 002e A36B     		ldr	r3, [r4, #56]
 2308 0030 2046     		mov	r0, r4
 2309 0032 13B9     		cbnz	r3, .L333
 2310 0034 FFF7FEFF 		bl	HAL_SD_AbortCallback
 2311              	.L331:
 2312 0038 10BD     		pop	{r4, pc}
 2313              	.L333:
 2314 003a FFF7FEFF 		bl	HAL_SD_ErrorCallback
 2315 003e FBE7     		b	.L331
 2317              		.section	.text.HAL_SD_IRQHandler,"ax",%progbits
 2318              		.align	1
 2319              		.global	HAL_SD_IRQHandler
 2320              		.syntax unified
 2321              		.thumb
 2322              		.thumb_func
 2323              		.fpu softvfp
 2325              	HAL_SD_IRQHandler:
 2326              		@ args = 0, pretend = 0, frame = 8
 2327              		@ frame_needed = 0, uses_anonymous_args = 0
 2328 0000 2DE9F341 		push	{r0, r1, r4, r5, r6, r7, r8, lr}
 2329 0004 056B     		ldr	r5, [r0, #48]
 2330 0006 0446     		mov	r4, r0
 2331 0008 0068     		ldr	r0, [r0]
 2332 000a 436B     		ldr	r3, [r0, #52]
 2333 000c 1A04     		lsls	r2, r3, #16
 2334 000e 1FD5     		bpl	.L336
 2335 0010 2B07     		lsls	r3, r5, #28
 2336 0012 1DD5     		bpl	.L336
 2337 0014 E76A     		ldr	r7, [r4, #44]
 2338 0016 C7B1     		cbz	r7, .L335
 2339 0018 A66A     		ldr	r6, [r4, #40]
ARM GAS  /tmp/ccBxesNo.s 			page 41


 2340 001a 351D     		adds	r5, r6, #4
 2341 001c 06F12408 		add	r8, r6, #36
 2342              	.L339:
 2343 0020 2068     		ldr	r0, [r4]
 2344 0022 FFF7FEFF 		bl	SDIO_ReadFIFO
 2345 0026 030A     		lsrs	r3, r0, #8
 2346 0028 05F8040C 		strb	r0, [r5, #-4]
 2347 002c 05F8033C 		strb	r3, [r5, #-3]
 2348 0030 030C     		lsrs	r3, r0, #16
 2349 0032 000E     		lsrs	r0, r0, #24
 2350 0034 05F8023C 		strb	r3, [r5, #-2]
 2351 0038 05F8010C 		strb	r0, [r5, #-1]
 2352 003c 0435     		adds	r5, r5, #4
 2353 003e 4545     		cmp	r5, r8
 2354 0040 EED1     		bne	.L339
 2355 0042 2036     		adds	r6, r6, #32
 2356 0044 203F     		subs	r7, r7, #32
 2357 0046 A662     		str	r6, [r4, #40]
 2358 0048 E762     		str	r7, [r4, #44]
 2359              	.L335:
 2360 004a 02B0     		add	sp, sp, #8
 2361              		@ sp needed
 2362 004c BDE8F081 		pop	{r4, r5, r6, r7, r8, pc}
 2363              	.L336:
 2364 0050 436B     		ldr	r3, [r0, #52]
 2365 0052 DF05     		lsls	r7, r3, #23
 2366 0054 46D5     		bpl	.L340
 2367 0056 4FF48073 		mov	r3, #256
 2368 005a 8363     		str	r3, [r0, #56]
 2369 005c C36B     		ldr	r3, [r0, #60]
 2370 005e 2E07     		lsls	r6, r5, #28
 2371 0060 23F44343 		bic	r3, r3, #49920
 2372 0064 23F03A03 		bic	r3, r3, #58
 2373 0068 C363     		str	r3, [r0, #60]
 2374 006a C36A     		ldr	r3, [r0, #44]
 2375 006c 23F00103 		bic	r3, r3, #1
 2376 0070 C362     		str	r3, [r0, #44]
 2377 0072 1CD5     		bpl	.L341
 2378 0074 15F0220F 		tst	r5, #34
 2379 0078 08D0     		beq	.L343
 2380 007a FFF7FEFF 		bl	SDMMC_CmdStopTransfer
 2381 007e 28B1     		cbz	r0, .L343
 2382 0080 A36B     		ldr	r3, [r4, #56]
 2383 0082 1843     		orrs	r0, r0, r3
 2384 0084 A063     		str	r0, [r4, #56]
 2385 0086 2046     		mov	r0, r4
 2386 0088 FFF7FEFF 		bl	HAL_SD_ErrorCallback
 2387              	.L343:
 2388 008c 40F23A52 		movw	r2, #1338
 2389 0090 2368     		ldr	r3, [r4]
 2390 0092 A907     		lsls	r1, r5, #30
 2391 0094 9A63     		str	r2, [r3, #56]
 2392 0096 4FF00103 		mov	r3, #1
 2393 009a 84F83430 		strb	r3, [r4, #52]
 2394 009e 4FF00003 		mov	r3, #0
 2395 00a2 2046     		mov	r0, r4
 2396 00a4 2363     		str	r3, [r4, #48]
ARM GAS  /tmp/ccBxesNo.s 			page 42


 2397 00a6 1AD0     		beq	.L415
 2398 00a8 FFF7FEFF 		bl	HAL_SD_RxCpltCallback
 2399 00ac CDE7     		b	.L335
 2400              	.L341:
 2401 00ae 2A06     		lsls	r2, r5, #24
 2402 00b0 CBD5     		bpl	.L335
 2403 00b2 AB06     		lsls	r3, r5, #26
 2404 00b4 08D5     		bpl	.L348
 2405 00b6 FFF7FEFF 		bl	SDMMC_CmdStopTransfer
 2406 00ba 28B1     		cbz	r0, .L348
 2407 00bc A36B     		ldr	r3, [r4, #56]
 2408 00be 1843     		orrs	r0, r0, r3
 2409 00c0 A063     		str	r0, [r4, #56]
 2410 00c2 2046     		mov	r0, r4
 2411 00c4 FFF7FEFF 		bl	HAL_SD_ErrorCallback
 2412              	.L348:
 2413 00c8 AF07     		lsls	r7, r5, #30
 2414 00ca BED1     		bne	.L335
 2415 00cc 2268     		ldr	r2, [r4]
 2416 00ce 2046     		mov	r0, r4
 2417 00d0 D36A     		ldr	r3, [r2, #44]
 2418 00d2 23F00803 		bic	r3, r3, #8
 2419 00d6 D362     		str	r3, [r2, #44]
 2420 00d8 0123     		movs	r3, #1
 2421 00da 84F83430 		strb	r3, [r4, #52]
 2422              	.L415:
 2423 00de FFF7FEFF 		bl	HAL_SD_TxCpltCallback
 2424 00e2 B2E7     		b	.L335
 2425              	.L340:
 2426 00e4 436B     		ldr	r3, [r0, #52]
 2427 00e6 5E04     		lsls	r6, r3, #17
 2428 00e8 26D5     		bpl	.L350
 2429 00ea 2907     		lsls	r1, r5, #28
 2430 00ec 24D5     		bpl	.L350
 2431 00ee 676A     		ldr	r7, [r4, #36]
 2432 00f0 002F     		cmp	r7, #0
 2433 00f2 AAD0     		beq	.L335
 2434 00f4 266A     		ldr	r6, [r4, #32]
 2435 00f6 351D     		adds	r5, r6, #4
 2436 00f8 06F12408 		add	r8, r6, #36
 2437              	.L352:
 2438 00fc 15F8043C 		ldrb	r3, [r5, #-4]	@ zero_extendqisi2
 2439 0100 2068     		ldr	r0, [r4]
 2440 0102 0193     		str	r3, [sp, #4]
 2441 0104 15F8032C 		ldrb	r2, [r5, #-3]	@ zero_extendqisi2
 2442 0108 01A9     		add	r1, sp, #4
 2443 010a 43EA0223 		orr	r3, r3, r2, lsl #8
 2444 010e 0193     		str	r3, [sp, #4]
 2445 0110 15F8022C 		ldrb	r2, [r5, #-2]	@ zero_extendqisi2
 2446 0114 0435     		adds	r5, r5, #4
 2447 0116 43EA0243 		orr	r3, r3, r2, lsl #16
 2448 011a 0193     		str	r3, [sp, #4]
 2449 011c 15F8052C 		ldrb	r2, [r5, #-5]	@ zero_extendqisi2
 2450 0120 43EA0263 		orr	r3, r3, r2, lsl #24
 2451 0124 0193     		str	r3, [sp, #4]
 2452 0126 FFF7FEFF 		bl	SDIO_WriteFIFO
 2453 012a 4545     		cmp	r5, r8
ARM GAS  /tmp/ccBxesNo.s 			page 43


 2454 012c E6D1     		bne	.L352
 2455 012e 2036     		adds	r6, r6, #32
 2456 0130 203F     		subs	r7, r7, #32
 2457 0132 2662     		str	r6, [r4, #32]
 2458 0134 6762     		str	r7, [r4, #36]
 2459 0136 88E7     		b	.L335
 2460              	.L350:
 2461 0138 40F23A23 		movw	r3, #570
 2462 013c 426B     		ldr	r2, [r0, #52]
 2463 013e 1A42     		tst	r2, r3
 2464 0140 83D0     		beq	.L335
 2465 0142 436B     		ldr	r3, [r0, #52]
 2466 0144 9A07     		lsls	r2, r3, #30
 2467 0146 42BF     		ittt	mi
 2468 0148 A36B     		ldrmi	r3, [r4, #56]
 2469 014a 43F00203 		orrmi	r3, r3, #2
 2470 014e A363     		strmi	r3, [r4, #56]
 2471 0150 436B     		ldr	r3, [r0, #52]
 2472 0152 1B07     		lsls	r3, r3, #28
 2473 0154 42BF     		ittt	mi
 2474 0156 A36B     		ldrmi	r3, [r4, #56]
 2475 0158 43F00803 		orrmi	r3, r3, #8
 2476 015c A363     		strmi	r3, [r4, #56]
 2477 015e 436B     		ldr	r3, [r0, #52]
 2478 0160 9F06     		lsls	r7, r3, #26
 2479 0162 42BF     		ittt	mi
 2480 0164 A36B     		ldrmi	r3, [r4, #56]
 2481 0166 43F02003 		orrmi	r3, r3, #32
 2482 016a A363     		strmi	r3, [r4, #56]
 2483 016c 436B     		ldr	r3, [r0, #52]
 2484 016e DE06     		lsls	r6, r3, #27
 2485 0170 42BF     		ittt	mi
 2486 0172 A36B     		ldrmi	r3, [r4, #56]
 2487 0174 43F01003 		orrmi	r3, r3, #16
 2488 0178 A363     		strmi	r3, [r4, #56]
 2489 017a 436B     		ldr	r3, [r0, #52]
 2490 017c 9905     		lsls	r1, r3, #22
 2491 017e 42BF     		ittt	mi
 2492 0180 A36B     		ldrmi	r3, [r4, #56]
 2493 0182 43F00803 		orrmi	r3, r3, #8
 2494 0186 A363     		strmi	r3, [r4, #56]
 2495 0188 40F23A73 		movw	r3, #1850
 2496 018c 8363     		str	r3, [r0, #56]
 2497 018e C36B     		ldr	r3, [r0, #60]
 2498 0190 23F44E73 		bic	r3, r3, #824
 2499 0194 23F00203 		bic	r3, r3, #2
 2500 0198 C363     		str	r3, [r0, #60]
 2501 019a FFF7FEFF 		bl	SDMMC_CmdStopTransfer
 2502 019e A36B     		ldr	r3, [r4, #56]
 2503 01a0 2A07     		lsls	r2, r5, #28
 2504 01a2 43EA0003 		orr	r3, r3, r0
 2505 01a6 A363     		str	r3, [r4, #56]
 2506 01a8 08D5     		bpl	.L358
 2507 01aa 0123     		movs	r3, #1
 2508 01ac 84F83430 		strb	r3, [r4, #52]
 2509 01b0 0023     		movs	r3, #0
 2510 01b2 2046     		mov	r0, r4
ARM GAS  /tmp/ccBxesNo.s 			page 44


 2511 01b4 2363     		str	r3, [r4, #48]
 2512 01b6 FFF7FEFF 		bl	HAL_SD_ErrorCallback
 2513 01ba 46E7     		b	.L335
 2514              	.L358:
 2515 01bc 2B06     		lsls	r3, r5, #24
 2516 01be 7FF544AF 		bpl	.L335
 2517 01c2 15F0300F 		tst	r5, #48
 2518 01c6 0BD0     		beq	.L359
 2519 01c8 E06B     		ldr	r0, [r4, #60]
 2520 01ca 104B     		ldr	r3, .L416
 2521 01cc 4363     		str	r3, [r0, #52]
 2522 01ce FFF7FEFF 		bl	HAL_DMA_Abort_IT
 2523 01d2 0028     		cmp	r0, #0
 2524 01d4 3FF439AF 		beq	.L335
 2525 01d8 E06B     		ldr	r0, [r4, #60]
 2526              	.L414:
 2527 01da FFF7FEFF 		bl	SD_DMATxAbort
 2528 01de 34E7     		b	.L335
 2529              	.L359:
 2530 01e0 15F00305 		ands	r5, r5, #3
 2531 01e4 09D0     		beq	.L360
 2532 01e6 206C     		ldr	r0, [r4, #64]
 2533 01e8 094B     		ldr	r3, .L416+4
 2534 01ea 4363     		str	r3, [r0, #52]
 2535 01ec FFF7FEFF 		bl	HAL_DMA_Abort_IT
 2536 01f0 0028     		cmp	r0, #0
 2537 01f2 3FF42AAF 		beq	.L335
 2538 01f6 206C     		ldr	r0, [r4, #64]
 2539 01f8 EFE7     		b	.L414
 2540              	.L360:
 2541 01fa 0123     		movs	r3, #1
 2542 01fc A563     		str	r5, [r4, #56]
 2543 01fe 2046     		mov	r0, r4
 2544 0200 84F83430 		strb	r3, [r4, #52]
 2545 0204 2563     		str	r5, [r4, #48]
 2546 0206 FFF7FEFF 		bl	HAL_SD_AbortCallback
 2547 020a 1EE7     		b	.L335
 2548              	.L417:
 2549              		.align	2
 2550              	.L416:
 2551 020c 00000000 		.word	SD_DMATxAbort
 2552 0210 00000000 		.word	SD_DMARxAbort
 2554              		.section	.text.SD_DMARxAbort,"ax",%progbits
 2555              		.align	1
 2556              		.syntax unified
 2557              		.thumb
 2558              		.thumb_func
 2559              		.fpu softvfp
 2561              	SD_DMARxAbort:
 2562              		@ args = 0, pretend = 0, frame = 0
 2563              		@ frame_needed = 0, uses_anonymous_args = 0
 2564              		@ link register save eliminated.
 2565 0000 FFF7FEBF 		b	SD_DMATxAbort
 2567              		.section	.text.HAL_SD_Abort,"ax",%progbits
 2568              		.align	1
 2569              		.global	HAL_SD_Abort
 2570              		.syntax unified
ARM GAS  /tmp/ccBxesNo.s 			page 45


 2571              		.thumb
 2572              		.thumb_func
 2573              		.fpu softvfp
 2575              	HAL_SD_Abort:
 2576              		@ args = 0, pretend = 0, frame = 0
 2577              		@ frame_needed = 0, uses_anonymous_args = 0
 2578 0000 0368     		ldr	r3, [r0]
 2579 0002 026B     		ldr	r2, [r0, #48]
 2580 0004 D96B     		ldr	r1, [r3, #60]
 2581 0006 10B5     		push	{r4, lr}
 2582 0008 21F49D71 		bic	r1, r1, #314
 2583 000c D963     		str	r1, [r3, #60]
 2584 000e 40F23A51 		movw	r1, #1338
 2585 0012 9963     		str	r1, [r3, #56]
 2586 0014 D96A     		ldr	r1, [r3, #44]
 2587 0016 0446     		mov	r4, r0
 2588 0018 21F00101 		bic	r1, r1, #1
 2589 001c D962     		str	r1, [r3, #44]
 2590 001e 1106     		lsls	r1, r2, #24
 2591 0020 0ED5     		bpl	.L421
 2592 0022 D96A     		ldr	r1, [r3, #44]
 2593 0024 12F0300F 		tst	r2, #48
 2594 0028 21F00801 		bic	r1, r1, #8
 2595 002c D962     		str	r1, [r3, #44]
 2596 002e 1BD0     		beq	.L422
 2597 0030 C06B     		ldr	r0, [r0, #60]
 2598              	.L436:
 2599 0032 FFF7FEFF 		bl	HAL_DMA_Abort
 2600 0036 18B1     		cbz	r0, .L421
 2601 0038 A36B     		ldr	r3, [r4, #56]
 2602 003a 43F08043 		orr	r3, r3, #1073741824
 2603 003e A363     		str	r3, [r4, #56]
 2604              	.L421:
 2605 0040 0123     		movs	r3, #1
 2606 0042 84F83430 		strb	r3, [r4, #52]
 2607 0046 0023     		movs	r3, #0
 2608 0048 2046     		mov	r0, r4
 2609 004a 2363     		str	r3, [r4, #48]
 2610 004c FFF7FEFF 		bl	HAL_SD_GetCardState
 2611 0050 0538     		subs	r0, r0, #5
 2612 0052 0128     		cmp	r0, #1
 2613 0054 03D8     		bhi	.L424
 2614 0056 2068     		ldr	r0, [r4]
 2615 0058 FFF7FEFF 		bl	SDMMC_CmdStopTransfer
 2616 005c A063     		str	r0, [r4, #56]
 2617              	.L424:
 2618 005e A06B     		ldr	r0, [r4, #56]
 2619 0060 0038     		subs	r0, r0, #0
 2620 0062 18BF     		it	ne
 2621 0064 0120     		movne	r0, #1
 2622 0066 10BD     		pop	{r4, pc}
 2623              	.L422:
 2624 0068 9307     		lsls	r3, r2, #30
 2625 006a E9D0     		beq	.L421
 2626 006c 006C     		ldr	r0, [r0, #64]
 2627 006e E0E7     		b	.L436
 2629              		.section	.text.HAL_SD_Abort_IT,"ax",%progbits
ARM GAS  /tmp/ccBxesNo.s 			page 46


 2630              		.align	1
 2631              		.global	HAL_SD_Abort_IT
 2632              		.syntax unified
 2633              		.thumb
 2634              		.thumb_func
 2635              		.fpu softvfp
 2637              	HAL_SD_Abort_IT:
 2638              		@ args = 0, pretend = 0, frame = 0
 2639              		@ frame_needed = 0, uses_anonymous_args = 0
 2640 0000 38B5     		push	{r3, r4, r5, lr}
 2641 0002 0368     		ldr	r3, [r0]
 2642 0004 026B     		ldr	r2, [r0, #48]
 2643 0006 D96B     		ldr	r1, [r3, #60]
 2644 0008 12F08004 		ands	r4, r2, #128
 2645 000c 21F49D71 		bic	r1, r1, #314
 2646 0010 D963     		str	r1, [r3, #60]
 2647 0012 D96A     		ldr	r1, [r3, #44]
 2648 0014 0546     		mov	r5, r0
 2649 0016 21F00101 		bic	r1, r1, #1
 2650 001a D962     		str	r1, [r3, #44]
 2651 001c 1CD0     		beq	.L438
 2652 001e D96A     		ldr	r1, [r3, #44]
 2653 0020 12F03004 		ands	r4, r2, #48
 2654 0024 21F00801 		bic	r1, r1, #8
 2655 0028 D962     		str	r1, [r3, #44]
 2656 002a 0AD0     		beq	.L439
 2657 002c C06B     		ldr	r0, [r0, #60]
 2658 002e 164B     		ldr	r3, .L451
 2659 0030 4363     		str	r3, [r0, #52]
 2660 0032 FFF7FEFF 		bl	HAL_DMA_Abort_IT
 2661 0036 08B9     		cbnz	r0, .L440
 2662              	.L442:
 2663 0038 0020     		movs	r0, #0
 2664              	.L441:
 2665 003a 38BD     		pop	{r3, r4, r5, pc}
 2666              	.L440:
 2667 003c 0020     		movs	r0, #0
 2668 003e E863     		str	r0, [r5, #60]
 2669 0040 FBE7     		b	.L441
 2670              	.L439:
 2671 0042 9307     		lsls	r3, r2, #30
 2672 0044 F8D0     		beq	.L442
 2673 0046 006C     		ldr	r0, [r0, #64]
 2674 0048 104B     		ldr	r3, .L451+4
 2675 004a 4363     		str	r3, [r0, #52]
 2676 004c FFF7FEFF 		bl	HAL_DMA_Abort_IT
 2677 0050 0028     		cmp	r0, #0
 2678 0052 F1D0     		beq	.L442
 2679 0054 2C64     		str	r4, [r5, #64]
 2680 0056 EFE7     		b	.L442
 2681              	.L438:
 2682 0058 40F23A52 		movw	r2, #1338
 2683 005c 9A63     		str	r2, [r3, #56]
 2684 005e FFF7FEFF 		bl	HAL_SD_GetCardState
 2685 0062 0123     		movs	r3, #1
 2686 0064 0538     		subs	r0, r0, #5
 2687 0066 9842     		cmp	r0, r3
ARM GAS  /tmp/ccBxesNo.s 			page 47


 2688 0068 85F83430 		strb	r3, [r5, #52]
 2689 006c 2C63     		str	r4, [r5, #48]
 2690 006e 03D8     		bhi	.L443
 2691 0070 2868     		ldr	r0, [r5]
 2692 0072 FFF7FEFF 		bl	SDMMC_CmdStopTransfer
 2693 0076 A863     		str	r0, [r5, #56]
 2694              	.L443:
 2695 0078 AC6B     		ldr	r4, [r5, #56]
 2696 007a 1CB9     		cbnz	r4, .L444
 2697 007c 2846     		mov	r0, r5
 2698 007e FFF7FEFF 		bl	HAL_SD_AbortCallback
 2699 0082 D9E7     		b	.L442
 2700              	.L444:
 2701 0084 0120     		movs	r0, #1
 2702 0086 D8E7     		b	.L441
 2703              	.L452:
 2704              		.align	2
 2705              	.L451:
 2706 0088 00000000 		.word	SD_DMATxAbort
 2707 008c 00000000 		.word	SD_DMARxAbort
 2709              		.ident	"GCC: (GNU Tools for Arm Embedded Processors 9-2019-q4-major) 9.2.1 20191025 (release) [ARM
ARM GAS  /tmp/ccBxesNo.s 			page 48

