ARM GAS  /tmp/ccmwfsnm.s 			page 1


   1              		.cpu cortex-m3
   2              		.eabi_attribute 20, 1
   3              		.eabi_attribute 21, 1
   4              		.eabi_attribute 23, 3
   5              		.eabi_attribute 24, 1
   6              		.eabi_attribute 25, 1
   7              		.eabi_attribute 26, 1
   8              		.eabi_attribute 30, 4
   9              		.eabi_attribute 34, 1
  10              		.eabi_attribute 18, 4
  11              		.file	"stm32f1xx_hal.c"
  12              		.text
  13              		.section	.text.HAL_MspInit,"ax",%progbits
  14              		.align	1
  15              		.weak	HAL_MspInit
  16              		.arch armv7-m
  17              		.syntax unified
  18              		.thumb
  19              		.thumb_func
  20              		.fpu softvfp
  22              	HAL_MspInit:
  23              		@ args = 0, pretend = 0, frame = 0
  24              		@ frame_needed = 0, uses_anonymous_args = 0
  25              		@ link register save eliminated.
  26 0000 7047     		bx	lr
  28              		.section	.text.HAL_MspDeInit,"ax",%progbits
  29              		.align	1
  30              		.weak	HAL_MspDeInit
  31              		.syntax unified
  32              		.thumb
  33              		.thumb_func
  34              		.fpu softvfp
  36              	HAL_MspDeInit:
  37              		@ args = 0, pretend = 0, frame = 0
  38              		@ frame_needed = 0, uses_anonymous_args = 0
  39              		@ link register save eliminated.
  40 0000 7047     		bx	lr
  42              		.section	.text.HAL_DeInit,"ax",%progbits
  43              		.align	1
  44              		.global	HAL_DeInit
  45              		.syntax unified
  46              		.thumb
  47              		.thumb_func
  48              		.fpu softvfp
  50              	HAL_DeInit:
  51              		@ args = 0, pretend = 0, frame = 0
  52              		@ frame_needed = 0, uses_anonymous_args = 0
  53 0000 10B5     		push	{r4, lr}
  54 0002 4FF0FF32 		mov	r2, #-1
  55 0006 0024     		movs	r4, #0
  56 0008 044B     		ldr	r3, .L4
  57 000a DA60     		str	r2, [r3, #12]
  58 000c 1C61     		str	r4, [r3, #16]
  59 000e DA60     		str	r2, [r3, #12]
  60 0010 DC60     		str	r4, [r3, #12]
  61 0012 FFF7FEFF 		bl	HAL_MspDeInit
  62 0016 2046     		mov	r0, r4
ARM GAS  /tmp/ccmwfsnm.s 			page 2


  63 0018 10BD     		pop	{r4, pc}
  64              	.L5:
  65 001a 00BF     		.align	2
  66              	.L4:
  67 001c 00100240 		.word	1073876992
  69              		.section	.text.HAL_InitTick,"ax",%progbits
  70              		.align	1
  71              		.weak	HAL_InitTick
  72              		.syntax unified
  73              		.thumb
  74              		.thumb_func
  75              		.fpu softvfp
  77              	HAL_InitTick:
  78              		@ args = 0, pretend = 0, frame = 0
  79              		@ frame_needed = 0, uses_anonymous_args = 0
  80 0000 38B5     		push	{r3, r4, r5, lr}
  81 0002 0E4B     		ldr	r3, .L10
  82 0004 0546     		mov	r5, r0
  83 0006 1878     		ldrb	r0, [r3]	@ zero_extendqisi2
  84 0008 4FF47A73 		mov	r3, #1000
  85 000c B3FBF0F3 		udiv	r3, r3, r0
  86 0010 0B4A     		ldr	r2, .L10+4
  87 0012 1068     		ldr	r0, [r2]
  88 0014 B0FBF3F0 		udiv	r0, r0, r3
  89 0018 FFF7FEFF 		bl	HAL_SYSTICK_Config
  90 001c 0446     		mov	r4, r0
  91 001e 58B9     		cbnz	r0, .L9
  92 0020 0F2D     		cmp	r5, #15
  93 0022 09D8     		bhi	.L9
  94 0024 0246     		mov	r2, r0
  95 0026 2946     		mov	r1, r5
  96 0028 4FF0FF30 		mov	r0, #-1
  97 002c FFF7FEFF 		bl	HAL_NVIC_SetPriority
  98 0030 2046     		mov	r0, r4
  99 0032 044B     		ldr	r3, .L10+8
 100 0034 1D60     		str	r5, [r3]
 101              	.L7:
 102 0036 38BD     		pop	{r3, r4, r5, pc}
 103              	.L9:
 104 0038 0120     		movs	r0, #1
 105 003a FCE7     		b	.L7
 106              	.L11:
 107              		.align	2
 108              	.L10:
 109 003c 00000000 		.word	.LANCHOR0
 110 0040 00000000 		.word	SystemCoreClock
 111 0044 00000000 		.word	.LANCHOR1
 113              		.section	.text.HAL_Init,"ax",%progbits
 114              		.align	1
 115              		.global	HAL_Init
 116              		.syntax unified
 117              		.thumb
 118              		.thumb_func
 119              		.fpu softvfp
 121              	HAL_Init:
 122              		@ args = 0, pretend = 0, frame = 0
 123              		@ frame_needed = 0, uses_anonymous_args = 0
ARM GAS  /tmp/ccmwfsnm.s 			page 3


 124 0000 074A     		ldr	r2, .L13
 125 0002 08B5     		push	{r3, lr}
 126 0004 1368     		ldr	r3, [r2]
 127 0006 0320     		movs	r0, #3
 128 0008 43F01003 		orr	r3, r3, #16
 129 000c 1360     		str	r3, [r2]
 130 000e FFF7FEFF 		bl	HAL_NVIC_SetPriorityGrouping
 131 0012 0F20     		movs	r0, #15
 132 0014 FFF7FEFF 		bl	HAL_InitTick
 133 0018 FFF7FEFF 		bl	HAL_MspInit
 134 001c 0020     		movs	r0, #0
 135 001e 08BD     		pop	{r3, pc}
 136              	.L14:
 137              		.align	2
 138              	.L13:
 139 0020 00200240 		.word	1073881088
 141              		.section	.text.HAL_IncTick,"ax",%progbits
 142              		.align	1
 143              		.weak	HAL_IncTick
 144              		.syntax unified
 145              		.thumb
 146              		.thumb_func
 147              		.fpu softvfp
 149              	HAL_IncTick:
 150              		@ args = 0, pretend = 0, frame = 0
 151              		@ frame_needed = 0, uses_anonymous_args = 0
 152              		@ link register save eliminated.
 153 0000 034A     		ldr	r2, .L16
 154 0002 044B     		ldr	r3, .L16+4
 155 0004 1168     		ldr	r1, [r2]
 156 0006 1B78     		ldrb	r3, [r3]	@ zero_extendqisi2
 157 0008 0B44     		add	r3, r3, r1
 158 000a 1360     		str	r3, [r2]
 159 000c 7047     		bx	lr
 160              	.L17:
 161 000e 00BF     		.align	2
 162              	.L16:
 163 0010 00000000 		.word	uwTick
 164 0014 00000000 		.word	.LANCHOR0
 166              		.section	.text.HAL_GetTick,"ax",%progbits
 167              		.align	1
 168              		.weak	HAL_GetTick
 169              		.syntax unified
 170              		.thumb
 171              		.thumb_func
 172              		.fpu softvfp
 174              	HAL_GetTick:
 175              		@ args = 0, pretend = 0, frame = 0
 176              		@ frame_needed = 0, uses_anonymous_args = 0
 177              		@ link register save eliminated.
 178 0000 014B     		ldr	r3, .L19
 179 0002 1868     		ldr	r0, [r3]
 180 0004 7047     		bx	lr
 181              	.L20:
 182 0006 00BF     		.align	2
 183              	.L19:
 184 0008 00000000 		.word	uwTick
ARM GAS  /tmp/ccmwfsnm.s 			page 4


 186              		.section	.text.HAL_GetTickPrio,"ax",%progbits
 187              		.align	1
 188              		.global	HAL_GetTickPrio
 189              		.syntax unified
 190              		.thumb
 191              		.thumb_func
 192              		.fpu softvfp
 194              	HAL_GetTickPrio:
 195              		@ args = 0, pretend = 0, frame = 0
 196              		@ frame_needed = 0, uses_anonymous_args = 0
 197              		@ link register save eliminated.
 198 0000 014B     		ldr	r3, .L22
 199 0002 1868     		ldr	r0, [r3]
 200 0004 7047     		bx	lr
 201              	.L23:
 202 0006 00BF     		.align	2
 203              	.L22:
 204 0008 00000000 		.word	.LANCHOR1
 206              		.section	.text.HAL_SetTickFreq,"ax",%progbits
 207              		.align	1
 208              		.global	HAL_SetTickFreq
 209              		.syntax unified
 210              		.thumb
 211              		.thumb_func
 212              		.fpu softvfp
 214              	HAL_SetTickFreq:
 215              		@ args = 0, pretend = 0, frame = 0
 216              		@ frame_needed = 0, uses_anonymous_args = 0
 217 0000 38B5     		push	{r3, r4, r5, lr}
 218 0002 074D     		ldr	r5, .L27
 219 0004 0446     		mov	r4, r0
 220 0006 2B78     		ldrb	r3, [r5]	@ zero_extendqisi2
 221 0008 8342     		cmp	r3, r0
 222 000a 06D0     		beq	.L26
 223 000c 054B     		ldr	r3, .L27+4
 224 000e 1868     		ldr	r0, [r3]
 225 0010 FFF7FEFF 		bl	HAL_InitTick
 226 0014 00B9     		cbnz	r0, .L25
 227 0016 2C70     		strb	r4, [r5]
 228              	.L25:
 229 0018 38BD     		pop	{r3, r4, r5, pc}
 230              	.L26:
 231 001a 0020     		movs	r0, #0
 232 001c FCE7     		b	.L25
 233              	.L28:
 234 001e 00BF     		.align	2
 235              	.L27:
 236 0020 00000000 		.word	.LANCHOR0
 237 0024 00000000 		.word	.LANCHOR1
 239              		.section	.text.HAL_GetTickFreq,"ax",%progbits
 240              		.align	1
 241              		.global	HAL_GetTickFreq
 242              		.syntax unified
 243              		.thumb
 244              		.thumb_func
 245              		.fpu softvfp
 247              	HAL_GetTickFreq:
ARM GAS  /tmp/ccmwfsnm.s 			page 5


 248              		@ args = 0, pretend = 0, frame = 0
 249              		@ frame_needed = 0, uses_anonymous_args = 0
 250              		@ link register save eliminated.
 251 0000 014B     		ldr	r3, .L30
 252 0002 1878     		ldrb	r0, [r3]	@ zero_extendqisi2
 253 0004 7047     		bx	lr
 254              	.L31:
 255 0006 00BF     		.align	2
 256              	.L30:
 257 0008 00000000 		.word	.LANCHOR0
 259              		.section	.text.HAL_Delay,"ax",%progbits
 260              		.align	1
 261              		.weak	HAL_Delay
 262              		.syntax unified
 263              		.thumb
 264              		.thumb_func
 265              		.fpu softvfp
 267              	HAL_Delay:
 268              		@ args = 0, pretend = 0, frame = 0
 269              		@ frame_needed = 0, uses_anonymous_args = 0
 270 0000 38B5     		push	{r3, r4, r5, lr}
 271 0002 0446     		mov	r4, r0
 272 0004 FFF7FEFF 		bl	HAL_GetTick
 273 0008 0546     		mov	r5, r0
 274 000a 631C     		adds	r3, r4, #1
 275 000c 1EBF     		ittt	ne
 276 000e 044B     		ldrne	r3, .L39
 277 0010 1B78     		ldrbne	r3, [r3]	@ zero_extendqisi2
 278 0012 E418     		addne	r4, r4, r3
 279              	.L34:
 280 0014 FFF7FEFF 		bl	HAL_GetTick
 281 0018 431B     		subs	r3, r0, r5
 282 001a A342     		cmp	r3, r4
 283 001c FAD3     		bcc	.L34
 284 001e 38BD     		pop	{r3, r4, r5, pc}
 285              	.L40:
 286              		.align	2
 287              	.L39:
 288 0020 00000000 		.word	.LANCHOR0
 290              		.section	.text.HAL_SuspendTick,"ax",%progbits
 291              		.align	1
 292              		.weak	HAL_SuspendTick
 293              		.syntax unified
 294              		.thumb
 295              		.thumb_func
 296              		.fpu softvfp
 298              	HAL_SuspendTick:
 299              		@ args = 0, pretend = 0, frame = 0
 300              		@ frame_needed = 0, uses_anonymous_args = 0
 301              		@ link register save eliminated.
 302 0000 024A     		ldr	r2, .L42
 303 0002 1368     		ldr	r3, [r2]
 304 0004 23F00203 		bic	r3, r3, #2
 305 0008 1360     		str	r3, [r2]
 306 000a 7047     		bx	lr
 307              	.L43:
 308              		.align	2
ARM GAS  /tmp/ccmwfsnm.s 			page 6


 309              	.L42:
 310 000c 10E000E0 		.word	-536813552
 312              		.section	.text.HAL_ResumeTick,"ax",%progbits
 313              		.align	1
 314              		.weak	HAL_ResumeTick
 315              		.syntax unified
 316              		.thumb
 317              		.thumb_func
 318              		.fpu softvfp
 320              	HAL_ResumeTick:
 321              		@ args = 0, pretend = 0, frame = 0
 322              		@ frame_needed = 0, uses_anonymous_args = 0
 323              		@ link register save eliminated.
 324 0000 024A     		ldr	r2, .L45
 325 0002 1368     		ldr	r3, [r2]
 326 0004 43F00203 		orr	r3, r3, #2
 327 0008 1360     		str	r3, [r2]
 328 000a 7047     		bx	lr
 329              	.L46:
 330              		.align	2
 331              	.L45:
 332 000c 10E000E0 		.word	-536813552
 334              		.section	.text.HAL_GetHalVersion,"ax",%progbits
 335              		.align	1
 336              		.global	HAL_GetHalVersion
 337              		.syntax unified
 338              		.thumb
 339              		.thumb_func
 340              		.fpu softvfp
 342              	HAL_GetHalVersion:
 343              		@ args = 0, pretend = 0, frame = 0
 344              		@ frame_needed = 0, uses_anonymous_args = 0
 345              		@ link register save eliminated.
 346 0000 0048     		ldr	r0, .L48
 347 0002 7047     		bx	lr
 348              	.L49:
 349              		.align	2
 350              	.L48:
 351 0004 00040101 		.word	16843776
 353              		.section	.text.HAL_GetREVID,"ax",%progbits
 354              		.align	1
 355              		.global	HAL_GetREVID
 356              		.syntax unified
 357              		.thumb
 358              		.thumb_func
 359              		.fpu softvfp
 361              	HAL_GetREVID:
 362              		@ args = 0, pretend = 0, frame = 0
 363              		@ frame_needed = 0, uses_anonymous_args = 0
 364              		@ link register save eliminated.
 365 0000 014B     		ldr	r3, .L51
 366 0002 1868     		ldr	r0, [r3]
 367 0004 000C     		lsrs	r0, r0, #16
 368 0006 7047     		bx	lr
 369              	.L52:
 370              		.align	2
 371              	.L51:
ARM GAS  /tmp/ccmwfsnm.s 			page 7


 372 0008 002004E0 		.word	-536600576
 374              		.section	.text.HAL_GetDEVID,"ax",%progbits
 375              		.align	1
 376              		.global	HAL_GetDEVID
 377              		.syntax unified
 378              		.thumb
 379              		.thumb_func
 380              		.fpu softvfp
 382              	HAL_GetDEVID:
 383              		@ args = 0, pretend = 0, frame = 0
 384              		@ frame_needed = 0, uses_anonymous_args = 0
 385              		@ link register save eliminated.
 386 0000 024B     		ldr	r3, .L54
 387 0002 1868     		ldr	r0, [r3]
 388 0004 C0F30B00 		ubfx	r0, r0, #0, #12
 389 0008 7047     		bx	lr
 390              	.L55:
 391 000a 00BF     		.align	2
 392              	.L54:
 393 000c 002004E0 		.word	-536600576
 395              		.section	.text.HAL_GetUIDw0,"ax",%progbits
 396              		.align	1
 397              		.global	HAL_GetUIDw0
 398              		.syntax unified
 399              		.thumb
 400              		.thumb_func
 401              		.fpu softvfp
 403              	HAL_GetUIDw0:
 404              		@ args = 0, pretend = 0, frame = 0
 405              		@ frame_needed = 0, uses_anonymous_args = 0
 406              		@ link register save eliminated.
 407 0000 014B     		ldr	r3, .L57
 408 0002 1868     		ldr	r0, [r3]
 409 0004 7047     		bx	lr
 410              	.L58:
 411 0006 00BF     		.align	2
 412              	.L57:
 413 0008 E8F7FF1F 		.word	536868840
 415              		.section	.text.HAL_GetUIDw1,"ax",%progbits
 416              		.align	1
 417              		.global	HAL_GetUIDw1
 418              		.syntax unified
 419              		.thumb
 420              		.thumb_func
 421              		.fpu softvfp
 423              	HAL_GetUIDw1:
 424              		@ args = 0, pretend = 0, frame = 0
 425              		@ frame_needed = 0, uses_anonymous_args = 0
 426              		@ link register save eliminated.
 427 0000 014B     		ldr	r3, .L60
 428 0002 1868     		ldr	r0, [r3]
 429 0004 7047     		bx	lr
 430              	.L61:
 431 0006 00BF     		.align	2
 432              	.L60:
 433 0008 ECF7FF1F 		.word	536868844
 435              		.section	.text.HAL_GetUIDw2,"ax",%progbits
ARM GAS  /tmp/ccmwfsnm.s 			page 8


 436              		.align	1
 437              		.global	HAL_GetUIDw2
 438              		.syntax unified
 439              		.thumb
 440              		.thumb_func
 441              		.fpu softvfp
 443              	HAL_GetUIDw2:
 444              		@ args = 0, pretend = 0, frame = 0
 445              		@ frame_needed = 0, uses_anonymous_args = 0
 446              		@ link register save eliminated.
 447 0000 014B     		ldr	r3, .L63
 448 0002 1868     		ldr	r0, [r3]
 449 0004 7047     		bx	lr
 450              	.L64:
 451 0006 00BF     		.align	2
 452              	.L63:
 453 0008 F0F7FF1F 		.word	536868848
 455              		.section	.text.HAL_DBGMCU_EnableDBGSleepMode,"ax",%progbits
 456              		.align	1
 457              		.global	HAL_DBGMCU_EnableDBGSleepMode
 458              		.syntax unified
 459              		.thumb
 460              		.thumb_func
 461              		.fpu softvfp
 463              	HAL_DBGMCU_EnableDBGSleepMode:
 464              		@ args = 0, pretend = 0, frame = 0
 465              		@ frame_needed = 0, uses_anonymous_args = 0
 466              		@ link register save eliminated.
 467 0000 024A     		ldr	r2, .L66
 468 0002 5368     		ldr	r3, [r2, #4]
 469 0004 43F00103 		orr	r3, r3, #1
 470 0008 5360     		str	r3, [r2, #4]
 471 000a 7047     		bx	lr
 472              	.L67:
 473              		.align	2
 474              	.L66:
 475 000c 002004E0 		.word	-536600576
 477              		.section	.text.HAL_DBGMCU_DisableDBGSleepMode,"ax",%progbits
 478              		.align	1
 479              		.global	HAL_DBGMCU_DisableDBGSleepMode
 480              		.syntax unified
 481              		.thumb
 482              		.thumb_func
 483              		.fpu softvfp
 485              	HAL_DBGMCU_DisableDBGSleepMode:
 486              		@ args = 0, pretend = 0, frame = 0
 487              		@ frame_needed = 0, uses_anonymous_args = 0
 488              		@ link register save eliminated.
 489 0000 024A     		ldr	r2, .L69
 490 0002 5368     		ldr	r3, [r2, #4]
 491 0004 23F00103 		bic	r3, r3, #1
 492 0008 5360     		str	r3, [r2, #4]
 493 000a 7047     		bx	lr
 494              	.L70:
 495              		.align	2
 496              	.L69:
 497 000c 002004E0 		.word	-536600576
ARM GAS  /tmp/ccmwfsnm.s 			page 9


 499              		.section	.text.HAL_DBGMCU_EnableDBGStopMode,"ax",%progbits
 500              		.align	1
 501              		.global	HAL_DBGMCU_EnableDBGStopMode
 502              		.syntax unified
 503              		.thumb
 504              		.thumb_func
 505              		.fpu softvfp
 507              	HAL_DBGMCU_EnableDBGStopMode:
 508              		@ args = 0, pretend = 0, frame = 0
 509              		@ frame_needed = 0, uses_anonymous_args = 0
 510              		@ link register save eliminated.
 511 0000 024A     		ldr	r2, .L72
 512 0002 5368     		ldr	r3, [r2, #4]
 513 0004 43F00203 		orr	r3, r3, #2
 514 0008 5360     		str	r3, [r2, #4]
 515 000a 7047     		bx	lr
 516              	.L73:
 517              		.align	2
 518              	.L72:
 519 000c 002004E0 		.word	-536600576
 521              		.section	.text.HAL_DBGMCU_DisableDBGStopMode,"ax",%progbits
 522              		.align	1
 523              		.global	HAL_DBGMCU_DisableDBGStopMode
 524              		.syntax unified
 525              		.thumb
 526              		.thumb_func
 527              		.fpu softvfp
 529              	HAL_DBGMCU_DisableDBGStopMode:
 530              		@ args = 0, pretend = 0, frame = 0
 531              		@ frame_needed = 0, uses_anonymous_args = 0
 532              		@ link register save eliminated.
 533 0000 024A     		ldr	r2, .L75
 534 0002 5368     		ldr	r3, [r2, #4]
 535 0004 23F00203 		bic	r3, r3, #2
 536 0008 5360     		str	r3, [r2, #4]
 537 000a 7047     		bx	lr
 538              	.L76:
 539              		.align	2
 540              	.L75:
 541 000c 002004E0 		.word	-536600576
 543              		.section	.text.HAL_DBGMCU_EnableDBGStandbyMode,"ax",%progbits
 544              		.align	1
 545              		.global	HAL_DBGMCU_EnableDBGStandbyMode
 546              		.syntax unified
 547              		.thumb
 548              		.thumb_func
 549              		.fpu softvfp
 551              	HAL_DBGMCU_EnableDBGStandbyMode:
 552              		@ args = 0, pretend = 0, frame = 0
 553              		@ frame_needed = 0, uses_anonymous_args = 0
 554              		@ link register save eliminated.
 555 0000 024A     		ldr	r2, .L78
 556 0002 5368     		ldr	r3, [r2, #4]
 557 0004 43F00403 		orr	r3, r3, #4
 558 0008 5360     		str	r3, [r2, #4]
 559 000a 7047     		bx	lr
 560              	.L79:
ARM GAS  /tmp/ccmwfsnm.s 			page 10


 561              		.align	2
 562              	.L78:
 563 000c 002004E0 		.word	-536600576
 565              		.section	.text.HAL_DBGMCU_DisableDBGStandbyMode,"ax",%progbits
 566              		.align	1
 567              		.global	HAL_DBGMCU_DisableDBGStandbyMode
 568              		.syntax unified
 569              		.thumb
 570              		.thumb_func
 571              		.fpu softvfp
 573              	HAL_DBGMCU_DisableDBGStandbyMode:
 574              		@ args = 0, pretend = 0, frame = 0
 575              		@ frame_needed = 0, uses_anonymous_args = 0
 576              		@ link register save eliminated.
 577 0000 024A     		ldr	r2, .L81
 578 0002 5368     		ldr	r3, [r2, #4]
 579 0004 23F00403 		bic	r3, r3, #4
 580 0008 5360     		str	r3, [r2, #4]
 581 000a 7047     		bx	lr
 582              	.L82:
 583              		.align	2
 584              	.L81:
 585 000c 002004E0 		.word	-536600576
 587              		.global	uwTickFreq
 588              		.global	uwTickPrio
 589              		.comm	uwTick,4,4
 590              		.section	.data.uwTickFreq,"aw"
 591              		.set	.LANCHOR0,. + 0
 594              	uwTickFreq:
 595 0000 01       		.byte	1
 596              		.section	.data.uwTickPrio,"aw"
 597              		.align	2
 598              		.set	.LANCHOR1,. + 0
 601              	uwTickPrio:
 602 0000 10000000 		.word	16
 603              		.ident	"GCC: (GNU Tools for Arm Embedded Processors 9-2019-q4-major) 9.2.1 20191025 (release) [ARM
ARM GAS  /tmp/ccmwfsnm.s 			page 11

