ARM GAS  /tmp/cccbDMQQ.s 			page 1


   1              		.cpu cortex-m3
   2              		.eabi_attribute 20, 1
   3              		.eabi_attribute 21, 1
   4              		.eabi_attribute 23, 3
   5              		.eabi_attribute 24, 1
   6              		.eabi_attribute 25, 1
   7              		.eabi_attribute 26, 1
   8              		.eabi_attribute 30, 4
   9              		.eabi_attribute 34, 1
  10              		.eabi_attribute 18, 4
  11              		.file	"stm32f1xx_ll_usb.c"
  12              		.text
  13              		.section	.text.USB_CoreInit,"ax",%progbits
  14              		.align	1
  15              		.global	USB_CoreInit
  16              		.arch armv7-m
  17              		.syntax unified
  18              		.thumb
  19              		.thumb_func
  20              		.fpu softvfp
  22              	USB_CoreInit:
  23              		@ args = 36, pretend = 16, frame = 0
  24              		@ frame_needed = 0, uses_anonymous_args = 0
  25              		@ link register save eliminated.
  26 0000 84B0     		sub	sp, sp, #16
  27 0002 01A8     		add	r0, sp, #4
  28 0004 80E80E00 		stm	r0, {r1, r2, r3}
  29 0008 04B0     		add	sp, sp, #16
  30 000a 0020     		movs	r0, #0
  31 000c 7047     		bx	lr
  33              		.section	.text.USB_EnableGlobalInt,"ax",%progbits
  34              		.align	1
  35              		.global	USB_EnableGlobalInt
  36              		.syntax unified
  37              		.thumb
  38              		.thumb_func
  39              		.fpu softvfp
  41              	USB_EnableGlobalInt:
  42              		@ args = 0, pretend = 0, frame = 0
  43              		@ frame_needed = 0, uses_anonymous_args = 0
  44              		@ link register save eliminated.
  45 0000 B0F84030 		ldrh	r3, [r0, #64]
  46 0004 9BB2     		uxth	r3, r3
  47 0006 43F43F43 		orr	r3, r3, #48896
  48 000a A0F84030 		strh	r3, [r0, #64]	@ movhi
  49 000e 0020     		movs	r0, #0
  50 0010 7047     		bx	lr
  52              		.section	.text.USB_DisableGlobalInt,"ax",%progbits
  53              		.align	1
  54              		.global	USB_DisableGlobalInt
  55              		.syntax unified
  56              		.thumb
  57              		.thumb_func
  58              		.fpu softvfp
  60              	USB_DisableGlobalInt:
  61              		@ args = 0, pretend = 0, frame = 0
  62              		@ frame_needed = 0, uses_anonymous_args = 0
ARM GAS  /tmp/cccbDMQQ.s 			page 2


  63              		@ link register save eliminated.
  64 0000 B0F84030 		ldrh	r3, [r0, #64]
  65 0004 23F47C53 		bic	r3, r3, #16128
  66 0008 5B04     		lsls	r3, r3, #17
  67 000a 5B0C     		lsrs	r3, r3, #17
  68 000c A0F84030 		strh	r3, [r0, #64]	@ movhi
  69 0010 0020     		movs	r0, #0
  70 0012 7047     		bx	lr
  72              		.section	.text.USB_SetCurrentMode,"ax",%progbits
  73              		.align	1
  74              		.global	USB_SetCurrentMode
  75              		.syntax unified
  76              		.thumb
  77              		.thumb_func
  78              		.fpu softvfp
  80              	USB_SetCurrentMode:
  81              		@ args = 0, pretend = 0, frame = 0
  82              		@ frame_needed = 0, uses_anonymous_args = 0
  83              		@ link register save eliminated.
  84 0000 0020     		movs	r0, #0
  85 0002 7047     		bx	lr
  87              		.section	.text.USB_DevInit,"ax",%progbits
  88              		.align	1
  89              		.global	USB_DevInit
  90              		.syntax unified
  91              		.thumb
  92              		.thumb_func
  93              		.fpu softvfp
  95              	USB_DevInit:
  96              		@ args = 36, pretend = 16, frame = 0
  97              		@ frame_needed = 0, uses_anonymous_args = 0
  98 0000 84B0     		sub	sp, sp, #16
  99 0002 10B5     		push	{r4, lr}
 100 0004 0446     		mov	r4, r0
 101 0006 03A8     		add	r0, sp, #12
 102 0008 80E80E00 		stm	r0, {r1, r2, r3}
 103 000c 0020     		movs	r0, #0
 104 000e 0123     		movs	r3, #1
 105 0010 A4F84030 		strh	r3, [r4, #64]	@ movhi
 106 0014 A4F84000 		strh	r0, [r4, #64]	@ movhi
 107 0018 A4F84400 		strh	r0, [r4, #68]	@ movhi
 108 001c A4F85000 		strh	r0, [r4, #80]	@ movhi
 109 0020 B4F84030 		ldrh	r3, [r4, #64]
 110 0024 9BB2     		uxth	r3, r3
 111 0026 43F43F43 		orr	r3, r3, #48896
 112 002a A4F84030 		strh	r3, [r4, #64]	@ movhi
 113 002e BDE81040 		pop	{r4, lr}
 114 0032 04B0     		add	sp, sp, #16
 115 0034 7047     		bx	lr
 117              		.section	.text.USB_SetDevSpeed,"ax",%progbits
 118              		.align	1
 119              		.global	USB_SetDevSpeed
 120              		.syntax unified
 121              		.thumb
 122              		.thumb_func
 123              		.fpu softvfp
 125              	USB_SetDevSpeed:
ARM GAS  /tmp/cccbDMQQ.s 			page 3


 126              		@ args = 0, pretend = 0, frame = 0
 127              		@ frame_needed = 0, uses_anonymous_args = 0
 128              		@ link register save eliminated.
 129 0000 0020     		movs	r0, #0
 130 0002 7047     		bx	lr
 132              		.section	.text.USB_FlushTxFifo,"ax",%progbits
 133              		.align	1
 134              		.global	USB_FlushTxFifo
 135              		.syntax unified
 136              		.thumb
 137              		.thumb_func
 138              		.fpu softvfp
 140              	USB_FlushTxFifo:
 141              		@ args = 0, pretend = 0, frame = 0
 142              		@ frame_needed = 0, uses_anonymous_args = 0
 143              		@ link register save eliminated.
 144 0000 0020     		movs	r0, #0
 145 0002 7047     		bx	lr
 147              		.section	.text.USB_FlushRxFifo,"ax",%progbits
 148              		.align	1
 149              		.global	USB_FlushRxFifo
 150              		.syntax unified
 151              		.thumb
 152              		.thumb_func
 153              		.fpu softvfp
 155              	USB_FlushRxFifo:
 156              		@ args = 0, pretend = 0, frame = 0
 157              		@ frame_needed = 0, uses_anonymous_args = 0
 158              		@ link register save eliminated.
 159 0000 0020     		movs	r0, #0
 160 0002 7047     		bx	lr
 162              		.section	.text.USB_ActivateEndpoint,"ax",%progbits
 163              		.align	1
 164              		.global	USB_ActivateEndpoint
 165              		.syntax unified
 166              		.thumb
 167              		.thumb_func
 168              		.fpu softvfp
 170              	USB_ActivateEndpoint:
 171              		@ args = 0, pretend = 0, frame = 0
 172              		@ frame_needed = 0, uses_anonymous_args = 0
 173 0000 F0B5     		push	{r4, r5, r6, r7, lr}
 174 0002 0D78     		ldrb	r5, [r1]	@ zero_extendqisi2
 175 0004 0346     		mov	r3, r0
 176 0006 30F82520 		ldrh	r2, [r0, r5, lsl #2]
 177 000a C878     		ldrb	r0, [r1, #3]	@ zero_extendqisi2
 178 000c 22F4EC42 		bic	r2, r2, #30208
 179 0010 22F07002 		bic	r2, r2, #112
 180 0014 1204     		lsls	r2, r2, #16
 181 0016 120C     		lsrs	r2, r2, #16
 182 0018 0328     		cmp	r0, #3
 183 001a 4FD8     		bhi	.L34
 184 001c DFE800F0 		tbb	[pc, r0]
 185              	.L12:
 186 0020 02       		.byte	(.L15-.L12)/2
 187 0021 4B       		.byte	(.L14-.L12)/2
 188 0022 49       		.byte	(.L56-.L12)/2
ARM GAS  /tmp/cccbDMQQ.s 			page 4


 189 0023 47       		.byte	(.L11-.L12)/2
 190              		.p2align 1
 191              	.L15:
 192 0024 42F40072 		orr	r2, r2, #512
 193              	.L10:
 194 0028 48F28004 		movw	r4, #32896
 195 002c 2243     		orrs	r2, r2, r4
 196 002e 23F82520 		strh	r2, [r3, r5, lsl #2]	@ movhi
 197 0032 0E78     		ldrb	r6, [r1]	@ zero_extendqisi2
 198 0034 AA4D     		ldr	r5, .L60
 199 0036 33F82620 		ldrh	r2, [r3, r6, lsl #2]
 200 003a 92B2     		uxth	r2, r2
 201 003c 2A40     		ands	r2, r2, r5
 202 003e 3243     		orrs	r2, r2, r6
 203 0040 2243     		orrs	r2, r2, r4
 204 0042 23F82620 		strh	r2, [r3, r6, lsl #2]	@ movhi
 205 0046 0C7B     		ldrb	r4, [r1, #12]	@ zero_extendqisi2
 206 0048 0A78     		ldrb	r2, [r1]	@ zero_extendqisi2
 207 004a 002C     		cmp	r4, #0
 208 004c 40F08980 		bne	.L16
 209 0050 CC88     		ldrh	r4, [r1, #6]
 210 0052 4E78     		ldrb	r6, [r1, #1]	@ zero_extendqisi2
 211 0054 6408     		lsrs	r4, r4, #1
 212 0056 6400     		lsls	r4, r4, #1
 213 0058 03EB0212 		add	r2, r3, r2, lsl #4
 214 005c 86B3     		cbz	r6, .L17
 215 005e B3F85060 		ldrh	r6, [r3, #80]
 216 0062 B6B2     		uxth	r6, r6
 217 0064 3244     		add	r2, r2, r6
 218 0066 A2F80044 		strh	r4, [r2, #1024]	@ movhi
 219 006a 0C78     		ldrb	r4, [r1]	@ zero_extendqisi2
 220 006c 33F82420 		ldrh	r2, [r3, r4, lsl #2]
 221 0070 5206     		lsls	r2, r2, #25
 222 0072 09D5     		bpl	.L18
 223 0074 33F82420 		ldrh	r2, [r3, r4, lsl #2]
 224 0078 92B2     		uxth	r2, r2
 225 007a 2A40     		ands	r2, r2, r5
 226 007c 42F40042 		orr	r2, r2, #32768
 227 0080 42F0C002 		orr	r2, r2, #192
 228 0084 23F82420 		strh	r2, [r3, r4, lsl #2]	@ movhi
 229              	.L18:
 230 0088 CA78     		ldrb	r2, [r1, #3]	@ zero_extendqisi2
 231 008a 0C78     		ldrb	r4, [r1]	@ zero_extendqisi2
 232 008c 012A     		cmp	r2, #1
 233 008e 33F82420 		ldrh	r2, [r3, r4, lsl #2]
 234 0092 9449     		ldr	r1, .L60+4
 235 0094 92B2     		uxth	r2, r2
 236 0096 02EA0102 		and	r2, r2, r1
 237 009a 18BF     		it	ne
 238 009c 82F02002 		eorne	r2, r2, #32
 239 00a0 42F40042 		orr	r2, r2, #32768
 240 00a4 42F08002 		orr	r2, r2, #128
 241 00a8 23F82420 		strh	r2, [r3, r4, lsl #2]	@ movhi
 242              	.L20:
 243 00ac F0BD     		pop	{r4, r5, r6, r7, pc}
 244              	.L11:
 245 00ae 42F4C062 		orr	r2, r2, #1536
ARM GAS  /tmp/cccbDMQQ.s 			page 5


 246              	.L56:
 247 00b2 0020     		movs	r0, #0
 248 00b4 B8E7     		b	.L10
 249              	.L14:
 250 00b6 42F48062 		orr	r2, r2, #1024
 251 00ba FAE7     		b	.L56
 252              	.L34:
 253 00bc 0120     		movs	r0, #1
 254 00be B3E7     		b	.L10
 255              	.L17:
 256 00c0 B3F85050 		ldrh	r5, [r3, #80]
 257 00c4 0E69     		ldr	r6, [r1, #16]
 258 00c6 ADB2     		uxth	r5, r5
 259 00c8 2A44     		add	r2, r2, r5
 260 00ca A2F80844 		strh	r4, [r2, #1032]	@ movhi
 261 00ce 0A78     		ldrb	r2, [r1]	@ zero_extendqisi2
 262 00d0 B3F85040 		ldrh	r4, [r3, #80]
 263 00d4 03EB0212 		add	r2, r3, r2, lsl #4
 264 00d8 A4B2     		uxth	r4, r4
 265 00da 02F20C42 		addw	r2, r2, #1036
 266 00de 7EBB     		cbnz	r6, .L21
 267 00e0 155B     		ldrh	r5, [r2, r4]
 268 00e2 25F4F845 		bic	r5, r5, #31744
 269 00e6 2D04     		lsls	r5, r5, #16
 270 00e8 2D0C     		lsrs	r5, r5, #16
 271 00ea 1553     		strh	r5, [r2, r4]	@ movhi
 272 00ec 155B     		ldrh	r5, [r2, r4]
 273 00ee 6FEA4545 		mvn	r5, r5, lsl #17
 274 00f2 6FEA5545 		mvn	r5, r5, lsr #17
 275              	.L57:
 276 00f6 ADB2     		uxth	r5, r5
 277 00f8 1553     		strh	r5, [r2, r4]	@ movhi
 278 00fa 0C78     		ldrb	r4, [r1]	@ zero_extendqisi2
 279 00fc 33F82420 		ldrh	r2, [r3, r4, lsl #2]
 280 0100 5504     		lsls	r5, r2, #17
 281 0102 0DD5     		bpl	.L26
 282 0104 33F82420 		ldrh	r2, [r3, r4, lsl #2]
 283 0108 22F4E042 		bic	r2, r2, #28672
 284 010c 22F07002 		bic	r2, r2, #112
 285 0110 1204     		lsls	r2, r2, #16
 286 0112 120C     		lsrs	r2, r2, #16
 287 0114 42F44042 		orr	r2, r2, #49152
 288 0118 42F08002 		orr	r2, r2, #128
 289 011c 23F82420 		strh	r2, [r3, r4, lsl #2]	@ movhi
 290              	.L26:
 291 0120 0978     		ldrb	r1, [r1]	@ zero_extendqisi2
 292 0122 33F82120 		ldrh	r2, [r3, r1, lsl #2]
 293 0126 22F48042 		bic	r2, r2, #16384
 294 012a 22F07002 		bic	r2, r2, #112
 295 012e 1204     		lsls	r2, r2, #16
 296 0130 120C     		lsrs	r2, r2, #16
 297 0132 82F44052 		eor	r2, r2, #12288
 298              	.L58:
 299 0136 42F40042 		orr	r2, r2, #32768
 300 013a 42F08002 		orr	r2, r2, #128
 301 013e 80E0     		b	.L59
 302              	.L21:
ARM GAS  /tmp/cccbDMQQ.s 			page 6


 303 0140 3E2E     		cmp	r6, #62
 304 0142 05D8     		bhi	.L23
 305 0144 7508     		lsrs	r5, r6, #1
 306 0146 F707     		lsls	r7, r6, #31
 307 0148 48BF     		it	mi
 308 014a 0135     		addmi	r5, r5, #1
 309 014c AD02     		lsls	r5, r5, #10
 310 014e D2E7     		b	.L57
 311              	.L23:
 312 0150 7709     		lsrs	r7, r6, #5
 313 0152 654D     		ldr	r5, .L60+8
 314 0154 F606     		lsls	r6, r6, #27
 315 0156 08BF     		it	eq
 316 0158 07F1FF37 		addeq	r7, r7, #-1
 317 015c 45EA8725 		orr	r5, r5, r7, lsl #10
 318 0160 C9E7     		b	.L57
 319              	.L16:
 320 0162 33F82240 		ldrh	r4, [r3, r2, lsl #2]
 321 0166 A4B2     		uxth	r4, r4
 322 0168 2C40     		ands	r4, r4, r5
 323 016a 44F40144 		orr	r4, r4, #33024
 324 016e 44F08004 		orr	r4, r4, #128
 325 0172 23F82240 		strh	r4, [r3, r2, lsl #2]	@ movhi
 326 0176 0A78     		ldrb	r2, [r1]	@ zero_extendqisi2
 327 0178 0C89     		ldrh	r4, [r1, #8]
 328 017a B3F85060 		ldrh	r6, [r3, #80]
 329 017e 03EB0212 		add	r2, r3, r2, lsl #4
 330 0182 6408     		lsrs	r4, r4, #1
 331 0184 B6B2     		uxth	r6, r6
 332 0186 02F58062 		add	r2, r2, #1024
 333 018a 6400     		lsls	r4, r4, #1
 334 018c 9453     		strh	r4, [r2, r6]	@ movhi
 335 018e 0A78     		ldrb	r2, [r1]	@ zero_extendqisi2
 336 0190 4C89     		ldrh	r4, [r1, #10]
 337 0192 B3F85060 		ldrh	r6, [r3, #80]
 338 0196 03EB0212 		add	r2, r3, r2, lsl #4
 339 019a 6408     		lsrs	r4, r4, #1
 340 019c 02F58162 		add	r2, r2, #1032
 341 01a0 6400     		lsls	r4, r4, #1
 342 01a2 B6B2     		uxth	r6, r6
 343 01a4 9453     		strh	r4, [r2, r6]	@ movhi
 344 01a6 4A78     		ldrb	r2, [r1, #1]	@ zero_extendqisi2
 345 01a8 0C78     		ldrb	r4, [r1]	@ zero_extendqisi2
 346 01aa 002A     		cmp	r2, #0
 347 01ac 4CD1     		bne	.L27
 348 01ae 33F82420 		ldrh	r2, [r3, r4, lsl #2]
 349 01b2 5204     		lsls	r2, r2, #17
 350 01b4 09D5     		bpl	.L28
 351 01b6 33F82420 		ldrh	r2, [r3, r4, lsl #2]
 352 01ba 92B2     		uxth	r2, r2
 353 01bc 2A40     		ands	r2, r2, r5
 354 01be 42F44042 		orr	r2, r2, #49152
 355 01c2 42F08002 		orr	r2, r2, #128
 356 01c6 23F82420 		strh	r2, [r3, r4, lsl #2]	@ movhi
 357              	.L28:
 358 01ca 0C78     		ldrb	r4, [r1]	@ zero_extendqisi2
 359 01cc 33F82420 		ldrh	r2, [r3, r4, lsl #2]
ARM GAS  /tmp/cccbDMQQ.s 			page 7


 360 01d0 5706     		lsls	r7, r2, #25
 361 01d2 0DD5     		bpl	.L29
 362 01d4 33F82420 		ldrh	r2, [r3, r4, lsl #2]
 363 01d8 22F4E042 		bic	r2, r2, #28672
 364 01dc 22F07002 		bic	r2, r2, #112
 365 01e0 1204     		lsls	r2, r2, #16
 366 01e2 120C     		lsrs	r2, r2, #16
 367 01e4 42F40042 		orr	r2, r2, #32768
 368 01e8 42F0C002 		orr	r2, r2, #192
 369 01ec 23F82420 		strh	r2, [r3, r4, lsl #2]	@ movhi
 370              	.L29:
 371 01f0 0C78     		ldrb	r4, [r1]	@ zero_extendqisi2
 372 01f2 33F82420 		ldrh	r2, [r3, r4, lsl #2]
 373 01f6 22F4E042 		bic	r2, r2, #28672
 374 01fa 22F07002 		bic	r2, r2, #112
 375 01fe 1204     		lsls	r2, r2, #16
 376 0200 120C     		lsrs	r2, r2, #16
 377 0202 42F40042 		orr	r2, r2, #32768
 378 0206 42F0C002 		orr	r2, r2, #192
 379 020a 23F82420 		strh	r2, [r3, r4, lsl #2]	@ movhi
 380 020e 48F28004 		movw	r4, #32896
 381 0212 0D78     		ldrb	r5, [r1]	@ zero_extendqisi2
 382 0214 33F82520 		ldrh	r2, [r3, r5, lsl #2]
 383 0218 22F48042 		bic	r2, r2, #16384
 384 021c 22F07002 		bic	r2, r2, #112
 385 0220 1204     		lsls	r2, r2, #16
 386 0222 120C     		lsrs	r2, r2, #16
 387 0224 82F44052 		eor	r2, r2, #12288
 388 0228 2243     		orrs	r2, r2, r4
 389 022a 23F82520 		strh	r2, [r3, r5, lsl #2]	@ movhi
 390 022e 0978     		ldrb	r1, [r1]	@ zero_extendqisi2
 391 0230 33F82120 		ldrh	r2, [r3, r1, lsl #2]
 392 0234 22F4E042 		bic	r2, r2, #28672
 393 0238 22F04002 		bic	r2, r2, #64
 394 023c 1204     		lsls	r2, r2, #16
 395 023e 120C     		lsrs	r2, r2, #16
 396 0240 2243     		orrs	r2, r2, r4
 397              	.L59:
 398 0242 23F82120 		strh	r2, [r3, r1, lsl #2]	@ movhi
 399 0246 31E7     		b	.L20
 400              	.L27:
 401 0248 33F82420 		ldrh	r2, [r3, r4, lsl #2]
 402 024c 5604     		lsls	r6, r2, #17
 403 024e 09D5     		bpl	.L30
 404 0250 33F82420 		ldrh	r2, [r3, r4, lsl #2]
 405 0254 92B2     		uxth	r2, r2
 406 0256 2A40     		ands	r2, r2, r5
 407 0258 42F44042 		orr	r2, r2, #49152
 408 025c 42F08002 		orr	r2, r2, #128
 409 0260 23F82420 		strh	r2, [r3, r4, lsl #2]	@ movhi
 410              	.L30:
 411 0264 0C78     		ldrb	r4, [r1]	@ zero_extendqisi2
 412 0266 33F82420 		ldrh	r2, [r3, r4, lsl #2]
 413 026a 5206     		lsls	r2, r2, #25
 414 026c 0DD5     		bpl	.L31
 415 026e 33F82420 		ldrh	r2, [r3, r4, lsl #2]
 416 0272 22F4E042 		bic	r2, r2, #28672
ARM GAS  /tmp/cccbDMQQ.s 			page 8


 417 0276 22F07002 		bic	r2, r2, #112
 418 027a 1204     		lsls	r2, r2, #16
 419 027c 120C     		lsrs	r2, r2, #16
 420 027e 42F40042 		orr	r2, r2, #32768
 421 0282 42F0C002 		orr	r2, r2, #192
 422 0286 23F82420 		strh	r2, [r3, r4, lsl #2]	@ movhi
 423              	.L31:
 424 028a 0C78     		ldrb	r4, [r1]	@ zero_extendqisi2
 425 028c 154D     		ldr	r5, .L60+4
 426 028e 33F82420 		ldrh	r2, [r3, r4, lsl #2]
 427 0292 22F4E042 		bic	r2, r2, #28672
 428 0296 22F07002 		bic	r2, r2, #112
 429 029a 1204     		lsls	r2, r2, #16
 430 029c 120C     		lsrs	r2, r2, #16
 431 029e 42F44042 		orr	r2, r2, #49152
 432 02a2 42F08002 		orr	r2, r2, #128
 433 02a6 23F82420 		strh	r2, [r3, r4, lsl #2]	@ movhi
 434 02aa CA78     		ldrb	r2, [r1, #3]	@ zero_extendqisi2
 435 02ac 0C78     		ldrb	r4, [r1]	@ zero_extendqisi2
 436 02ae 012A     		cmp	r2, #1
 437 02b0 33F82420 		ldrh	r2, [r3, r4, lsl #2]
 438 02b4 92B2     		uxth	r2, r2
 439 02b6 02EA0502 		and	r2, r2, r5
 440 02ba 18BF     		it	ne
 441 02bc 82F02002 		eorne	r2, r2, #32
 442 02c0 42F40042 		orr	r2, r2, #32768
 443 02c4 42F08002 		orr	r2, r2, #128
 444 02c8 23F82420 		strh	r2, [r3, r4, lsl #2]	@ movhi
 445 02cc 0978     		ldrb	r1, [r1]	@ zero_extendqisi2
 446 02ce 33F82120 		ldrh	r2, [r3, r1, lsl #2]
 447 02d2 22F48042 		bic	r2, r2, #16384
 448 02d6 22F07002 		bic	r2, r2, #112
 449 02da 1204     		lsls	r2, r2, #16
 450 02dc 120C     		lsrs	r2, r2, #16
 451 02de 2AE7     		b	.L58
 452              	.L61:
 453              		.align	2
 454              	.L60:
 455 02e0 8F8FFFFF 		.word	-28785
 456 02e4 BF8FFFFF 		.word	-28737
 457 02e8 0080FFFF 		.word	-32768
 459              		.section	.text.USB_DeactivateEndpoint,"ax",%progbits
 460              		.align	1
 461              		.global	USB_DeactivateEndpoint
 462              		.syntax unified
 463              		.thumb
 464              		.thumb_func
 465              		.fpu softvfp
 467              	USB_DeactivateEndpoint:
 468              		@ args = 0, pretend = 0, frame = 0
 469              		@ frame_needed = 0, uses_anonymous_args = 0
 470 0000 10B5     		push	{r4, lr}
 471 0002 0C7B     		ldrb	r4, [r1, #12]	@ zero_extendqisi2
 472 0004 4B78     		ldrb	r3, [r1, #1]	@ zero_extendqisi2
 473 0006 0A78     		ldrb	r2, [r1]	@ zero_extendqisi2
 474 0008 002C     		cmp	r4, #0
 475 000a 3DD1     		bne	.L63
ARM GAS  /tmp/cccbDMQQ.s 			page 9


 476 000c 13B3     		cbz	r3, .L64
 477 000e 30F82230 		ldrh	r3, [r0, r2, lsl #2]
 478 0012 5C06     		lsls	r4, r3, #25
 479 0014 0DD5     		bpl	.L65
 480 0016 30F82230 		ldrh	r3, [r0, r2, lsl #2]
 481 001a 23F4E043 		bic	r3, r3, #28672
 482 001e 23F07003 		bic	r3, r3, #112
 483 0022 1B04     		lsls	r3, r3, #16
 484 0024 1B0C     		lsrs	r3, r3, #16
 485 0026 43F40043 		orr	r3, r3, #32768
 486 002a 43F0C003 		orr	r3, r3, #192
 487 002e 20F82230 		strh	r3, [r0, r2, lsl #2]	@ movhi
 488              	.L65:
 489 0032 0A78     		ldrb	r2, [r1]	@ zero_extendqisi2
 490 0034 30F82230 		ldrh	r3, [r0, r2, lsl #2]
 491 0038 23F4E043 		bic	r3, r3, #28672
 492 003c 23F04003 		bic	r3, r3, #64
 493              	.L91:
 494 0040 1B04     		lsls	r3, r3, #16
 495 0042 1B0C     		lsrs	r3, r3, #16
 496 0044 43F40043 		orr	r3, r3, #32768
 497 0048 43F08003 		orr	r3, r3, #128
 498 004c 20F82230 		strh	r3, [r0, r2, lsl #2]	@ movhi
 499              	.L66:
 500 0050 0020     		movs	r0, #0
 501 0052 10BD     		pop	{r4, pc}
 502              	.L64:
 503 0054 30F82230 		ldrh	r3, [r0, r2, lsl #2]
 504 0058 5B04     		lsls	r3, r3, #17
 505 005a 0DD5     		bpl	.L67
 506 005c 30F82230 		ldrh	r3, [r0, r2, lsl #2]
 507 0060 23F4E043 		bic	r3, r3, #28672
 508 0064 23F07003 		bic	r3, r3, #112
 509 0068 1B04     		lsls	r3, r3, #16
 510 006a 1B0C     		lsrs	r3, r3, #16
 511 006c 43F44043 		orr	r3, r3, #49152
 512 0070 43F08003 		orr	r3, r3, #128
 513 0074 20F82230 		strh	r3, [r0, r2, lsl #2]	@ movhi
 514              	.L67:
 515 0078 0A78     		ldrb	r2, [r1]	@ zero_extendqisi2
 516 007a 30F82230 		ldrh	r3, [r0, r2, lsl #2]
 517 007e 23F48043 		bic	r3, r3, #16384
 518 0082 23F07003 		bic	r3, r3, #112
 519 0086 DBE7     		b	.L91
 520              	.L63:
 521 0088 002B     		cmp	r3, #0
 522 008a 4ED1     		bne	.L68
 523 008c 30F82230 		ldrh	r3, [r0, r2, lsl #2]
 524 0090 5C04     		lsls	r4, r3, #17
 525 0092 0DD5     		bpl	.L69
 526 0094 30F82230 		ldrh	r3, [r0, r2, lsl #2]
 527 0098 23F4E043 		bic	r3, r3, #28672
 528 009c 23F07003 		bic	r3, r3, #112
 529 00a0 1B04     		lsls	r3, r3, #16
 530 00a2 1B0C     		lsrs	r3, r3, #16
 531 00a4 43F44043 		orr	r3, r3, #49152
 532 00a8 43F08003 		orr	r3, r3, #128
ARM GAS  /tmp/cccbDMQQ.s 			page 10


 533 00ac 20F82230 		strh	r3, [r0, r2, lsl #2]	@ movhi
 534              	.L69:
 535 00b0 0A78     		ldrb	r2, [r1]	@ zero_extendqisi2
 536 00b2 30F82230 		ldrh	r3, [r0, r2, lsl #2]
 537 00b6 5B06     		lsls	r3, r3, #25
 538 00b8 0DD5     		bpl	.L70
 539 00ba 30F82230 		ldrh	r3, [r0, r2, lsl #2]
 540 00be 23F4E043 		bic	r3, r3, #28672
 541 00c2 23F07003 		bic	r3, r3, #112
 542 00c6 1B04     		lsls	r3, r3, #16
 543 00c8 1B0C     		lsrs	r3, r3, #16
 544 00ca 43F40043 		orr	r3, r3, #32768
 545 00ce 43F0C003 		orr	r3, r3, #192
 546 00d2 20F82230 		strh	r3, [r0, r2, lsl #2]	@ movhi
 547              	.L70:
 548 00d6 0A78     		ldrb	r2, [r1]	@ zero_extendqisi2
 549 00d8 30F82230 		ldrh	r3, [r0, r2, lsl #2]
 550 00dc 23F4E043 		bic	r3, r3, #28672
 551 00e0 23F07003 		bic	r3, r3, #112
 552 00e4 1B04     		lsls	r3, r3, #16
 553 00e6 1B0C     		lsrs	r3, r3, #16
 554 00e8 43F40043 		orr	r3, r3, #32768
 555 00ec 43F0C003 		orr	r3, r3, #192
 556 00f0 20F82230 		strh	r3, [r0, r2, lsl #2]	@ movhi
 557 00f4 48F28002 		movw	r2, #32896
 558 00f8 0C78     		ldrb	r4, [r1]	@ zero_extendqisi2
 559 00fa 30F82430 		ldrh	r3, [r0, r4, lsl #2]
 560 00fe 23F48043 		bic	r3, r3, #16384
 561 0102 23F07003 		bic	r3, r3, #112
 562 0106 1B04     		lsls	r3, r3, #16
 563 0108 1B0C     		lsrs	r3, r3, #16
 564 010a 1343     		orrs	r3, r3, r2
 565 010c 20F82430 		strh	r3, [r0, r4, lsl #2]	@ movhi
 566 0110 0978     		ldrb	r1, [r1]	@ zero_extendqisi2
 567 0112 30F82130 		ldrh	r3, [r0, r1, lsl #2]
 568 0116 23F4E043 		bic	r3, r3, #28672
 569 011a 23F04003 		bic	r3, r3, #64
 570              	.L92:
 571 011e 1B04     		lsls	r3, r3, #16
 572 0120 1B0C     		lsrs	r3, r3, #16
 573 0122 1343     		orrs	r3, r3, r2
 574 0124 20F82130 		strh	r3, [r0, r1, lsl #2]	@ movhi
 575 0128 92E7     		b	.L66
 576              	.L68:
 577 012a 30F82230 		ldrh	r3, [r0, r2, lsl #2]
 578 012e 5C04     		lsls	r4, r3, #17
 579 0130 0DD5     		bpl	.L71
 580 0132 30F82230 		ldrh	r3, [r0, r2, lsl #2]
 581 0136 23F4E043 		bic	r3, r3, #28672
 582 013a 23F07003 		bic	r3, r3, #112
 583 013e 1B04     		lsls	r3, r3, #16
 584 0140 1B0C     		lsrs	r3, r3, #16
 585 0142 43F44043 		orr	r3, r3, #49152
 586 0146 43F08003 		orr	r3, r3, #128
 587 014a 20F82230 		strh	r3, [r0, r2, lsl #2]	@ movhi
 588              	.L71:
 589 014e 0A78     		ldrb	r2, [r1]	@ zero_extendqisi2
ARM GAS  /tmp/cccbDMQQ.s 			page 11


 590 0150 30F82230 		ldrh	r3, [r0, r2, lsl #2]
 591 0154 5B06     		lsls	r3, r3, #25
 592 0156 0DD5     		bpl	.L72
 593 0158 30F82230 		ldrh	r3, [r0, r2, lsl #2]
 594 015c 23F4E043 		bic	r3, r3, #28672
 595 0160 23F07003 		bic	r3, r3, #112
 596 0164 1B04     		lsls	r3, r3, #16
 597 0166 1B0C     		lsrs	r3, r3, #16
 598 0168 43F40043 		orr	r3, r3, #32768
 599 016c 43F0C003 		orr	r3, r3, #192
 600 0170 20F82230 		strh	r3, [r0, r2, lsl #2]	@ movhi
 601              	.L72:
 602 0174 0A78     		ldrb	r2, [r1]	@ zero_extendqisi2
 603 0176 30F82230 		ldrh	r3, [r0, r2, lsl #2]
 604 017a 23F4E043 		bic	r3, r3, #28672
 605 017e 23F07003 		bic	r3, r3, #112
 606 0182 1B04     		lsls	r3, r3, #16
 607 0184 1B0C     		lsrs	r3, r3, #16
 608 0186 43F44043 		orr	r3, r3, #49152
 609 018a 43F08003 		orr	r3, r3, #128
 610 018e 20F82230 		strh	r3, [r0, r2, lsl #2]	@ movhi
 611 0192 48F28002 		movw	r2, #32896
 612 0196 0C78     		ldrb	r4, [r1]	@ zero_extendqisi2
 613 0198 30F82430 		ldrh	r3, [r0, r4, lsl #2]
 614 019c 23F4E043 		bic	r3, r3, #28672
 615 01a0 23F04003 		bic	r3, r3, #64
 616 01a4 1B04     		lsls	r3, r3, #16
 617 01a6 1B0C     		lsrs	r3, r3, #16
 618 01a8 1343     		orrs	r3, r3, r2
 619 01aa 20F82430 		strh	r3, [r0, r4, lsl #2]	@ movhi
 620 01ae 0978     		ldrb	r1, [r1]	@ zero_extendqisi2
 621 01b0 30F82130 		ldrh	r3, [r0, r1, lsl #2]
 622 01b4 23F48043 		bic	r3, r3, #16384
 623 01b8 23F07003 		bic	r3, r3, #112
 624 01bc AFE7     		b	.L92
 626              		.section	.text.USB_WritePacket,"ax",%progbits
 627              		.align	1
 628              		.global	USB_WritePacket
 629              		.syntax unified
 630              		.thumb
 631              		.thumb_func
 632              		.fpu softvfp
 634              	USB_WritePacket:
 635              		@ args = 0, pretend = 0, frame = 0
 636              		@ frame_needed = 0, uses_anonymous_args = 0
 637              		@ link register save eliminated.
 638 0000 0020     		movs	r0, #0
 639 0002 7047     		bx	lr
 641              		.section	.text.USB_ReadPacket,"ax",%progbits
 642              		.align	1
 643              		.global	USB_ReadPacket
 644              		.syntax unified
 645              		.thumb
 646              		.thumb_func
 647              		.fpu softvfp
 649              	USB_ReadPacket:
 650              		@ args = 0, pretend = 0, frame = 0
ARM GAS  /tmp/cccbDMQQ.s 			page 12


 651              		@ frame_needed = 0, uses_anonymous_args = 0
 652              		@ link register save eliminated.
 653 0000 0020     		movs	r0, #0
 654 0002 7047     		bx	lr
 656              		.section	.text.USB_EPSetStall,"ax",%progbits
 657              		.align	1
 658              		.global	USB_EPSetStall
 659              		.syntax unified
 660              		.thumb
 661              		.thumb_func
 662              		.fpu softvfp
 664              	USB_EPSetStall:
 665              		@ args = 0, pretend = 0, frame = 0
 666              		@ frame_needed = 0, uses_anonymous_args = 0
 667              		@ link register save eliminated.
 668 0000 4B78     		ldrb	r3, [r1, #1]	@ zero_extendqisi2
 669 0002 0A78     		ldrb	r2, [r1]	@ zero_extendqisi2
 670 0004 8BB1     		cbz	r3, .L96
 671 0006 30F82230 		ldrh	r3, [r0, r2, lsl #2]
 672 000a 23F4E043 		bic	r3, r3, #28672
 673 000e 23F04003 		bic	r3, r3, #64
 674 0012 1B04     		lsls	r3, r3, #16
 675 0014 1B0C     		lsrs	r3, r3, #16
 676 0016 83F01003 		eor	r3, r3, #16
 677              	.L98:
 678 001a 43F40043 		orr	r3, r3, #32768
 679 001e 43F08003 		orr	r3, r3, #128
 680 0022 20F82230 		strh	r3, [r0, r2, lsl #2]	@ movhi
 681 0026 0020     		movs	r0, #0
 682 0028 7047     		bx	lr
 683              	.L96:
 684 002a 30F82230 		ldrh	r3, [r0, r2, lsl #2]
 685 002e 23F48043 		bic	r3, r3, #16384
 686 0032 23F07003 		bic	r3, r3, #112
 687 0036 1B04     		lsls	r3, r3, #16
 688 0038 1B0C     		lsrs	r3, r3, #16
 689 003a 83F48053 		eor	r3, r3, #4096
 690 003e ECE7     		b	.L98
 692              		.section	.text.USB_EPClearStall,"ax",%progbits
 693              		.align	1
 694              		.global	USB_EPClearStall
 695              		.syntax unified
 696              		.thumb
 697              		.thumb_func
 698              		.fpu softvfp
 700              	USB_EPClearStall:
 701              		@ args = 0, pretend = 0, frame = 0
 702              		@ frame_needed = 0, uses_anonymous_args = 0
 703              		@ link register save eliminated.
 704 0000 0B7B     		ldrb	r3, [r1, #12]	@ zero_extendqisi2
 705 0002 43BB     		cbnz	r3, .L101
 706 0004 4B78     		ldrb	r3, [r1, #1]	@ zero_extendqisi2
 707 0006 0A78     		ldrb	r2, [r1]	@ zero_extendqisi2
 708 0008 3BB3     		cbz	r3, .L102
 709 000a 30F82230 		ldrh	r3, [r0, r2, lsl #2]
 710 000e 5B06     		lsls	r3, r3, #25
 711 0010 0DD5     		bpl	.L103
ARM GAS  /tmp/cccbDMQQ.s 			page 13


 712 0012 30F82230 		ldrh	r3, [r0, r2, lsl #2]
 713 0016 23F4E043 		bic	r3, r3, #28672
 714 001a 23F07003 		bic	r3, r3, #112
 715 001e 1B04     		lsls	r3, r3, #16
 716 0020 1B0C     		lsrs	r3, r3, #16
 717 0022 43F40043 		orr	r3, r3, #32768
 718 0026 43F0C003 		orr	r3, r3, #192
 719 002a 20F82230 		strh	r3, [r0, r2, lsl #2]	@ movhi
 720              	.L103:
 721 002e CB78     		ldrb	r3, [r1, #3]	@ zero_extendqisi2
 722 0030 012B     		cmp	r3, #1
 723 0032 10D0     		beq	.L101
 724 0034 0A78     		ldrb	r2, [r1]	@ zero_extendqisi2
 725 0036 30F82230 		ldrh	r3, [r0, r2, lsl #2]
 726 003a 23F4E043 		bic	r3, r3, #28672
 727 003e 23F04003 		bic	r3, r3, #64
 728 0042 1B04     		lsls	r3, r3, #16
 729 0044 1B0C     		lsrs	r3, r3, #16
 730 0046 83F02003 		eor	r3, r3, #32
 731              	.L115:
 732 004a 43F40043 		orr	r3, r3, #32768
 733 004e 43F08003 		orr	r3, r3, #128
 734 0052 20F82230 		strh	r3, [r0, r2, lsl #2]	@ movhi
 735              	.L101:
 736 0056 0020     		movs	r0, #0
 737 0058 7047     		bx	lr
 738              	.L102:
 739 005a 30F82230 		ldrh	r3, [r0, r2, lsl #2]
 740 005e 5B04     		lsls	r3, r3, #17
 741 0060 0DD5     		bpl	.L105
 742 0062 30F82230 		ldrh	r3, [r0, r2, lsl #2]
 743 0066 23F4E043 		bic	r3, r3, #28672
 744 006a 23F07003 		bic	r3, r3, #112
 745 006e 1B04     		lsls	r3, r3, #16
 746 0070 1B0C     		lsrs	r3, r3, #16
 747 0072 43F44043 		orr	r3, r3, #49152
 748 0076 43F08003 		orr	r3, r3, #128
 749 007a 20F82230 		strh	r3, [r0, r2, lsl #2]	@ movhi
 750              	.L105:
 751 007e 0A78     		ldrb	r2, [r1]	@ zero_extendqisi2
 752 0080 30F82230 		ldrh	r3, [r0, r2, lsl #2]
 753 0084 23F48043 		bic	r3, r3, #16384
 754 0088 23F07003 		bic	r3, r3, #112
 755 008c 1B04     		lsls	r3, r3, #16
 756 008e 1B0C     		lsrs	r3, r3, #16
 757 0090 83F44053 		eor	r3, r3, #12288
 758 0094 D9E7     		b	.L115
 760              		.section	.text.USB_StopDevice,"ax",%progbits
 761              		.align	1
 762              		.global	USB_StopDevice
 763              		.syntax unified
 764              		.thumb
 765              		.thumb_func
 766              		.fpu softvfp
 768              	USB_StopDevice:
 769              		@ args = 0, pretend = 0, frame = 0
 770              		@ frame_needed = 0, uses_anonymous_args = 0
ARM GAS  /tmp/cccbDMQQ.s 			page 14


 771              		@ link register save eliminated.
 772 0000 0122     		movs	r2, #1
 773 0002 0346     		mov	r3, r0
 774 0004 A0F84020 		strh	r2, [r0, #64]	@ movhi
 775 0008 0020     		movs	r0, #0
 776 000a 0322     		movs	r2, #3
 777 000c A3F84400 		strh	r0, [r3, #68]	@ movhi
 778 0010 A3F84020 		strh	r2, [r3, #64]	@ movhi
 779 0014 7047     		bx	lr
 781              		.section	.text.USB_SetDevAddress,"ax",%progbits
 782              		.align	1
 783              		.global	USB_SetDevAddress
 784              		.syntax unified
 785              		.thumb
 786              		.thumb_func
 787              		.fpu softvfp
 789              	USB_SetDevAddress:
 790              		@ args = 0, pretend = 0, frame = 0
 791              		@ frame_needed = 0, uses_anonymous_args = 0
 792              		@ link register save eliminated.
 793 0000 11B9     		cbnz	r1, .L118
 794 0002 8023     		movs	r3, #128
 795 0004 A0F84C30 		strh	r3, [r0, #76]	@ movhi
 796              	.L118:
 797 0008 0020     		movs	r0, #0
 798 000a 7047     		bx	lr
 800              		.section	.text.USB_DevConnect,"ax",%progbits
 801              		.align	1
 802              		.global	USB_DevConnect
 803              		.syntax unified
 804              		.thumb
 805              		.thumb_func
 806              		.fpu softvfp
 808              	USB_DevConnect:
 809              		@ args = 0, pretend = 0, frame = 0
 810              		@ frame_needed = 0, uses_anonymous_args = 0
 811              		@ link register save eliminated.
 812 0000 0020     		movs	r0, #0
 813 0002 7047     		bx	lr
 815              		.section	.text.USB_DevDisconnect,"ax",%progbits
 816              		.align	1
 817              		.global	USB_DevDisconnect
 818              		.syntax unified
 819              		.thumb
 820              		.thumb_func
 821              		.fpu softvfp
 823              	USB_DevDisconnect:
 824              		@ args = 0, pretend = 0, frame = 0
 825              		@ frame_needed = 0, uses_anonymous_args = 0
 826              		@ link register save eliminated.
 827 0000 0020     		movs	r0, #0
 828 0002 7047     		bx	lr
 830              		.section	.text.USB_ReadInterrupts,"ax",%progbits
 831              		.align	1
 832              		.global	USB_ReadInterrupts
 833              		.syntax unified
 834              		.thumb
ARM GAS  /tmp/cccbDMQQ.s 			page 15


 835              		.thumb_func
 836              		.fpu softvfp
 838              	USB_ReadInterrupts:
 839              		@ args = 0, pretend = 0, frame = 0
 840              		@ frame_needed = 0, uses_anonymous_args = 0
 841              		@ link register save eliminated.
 842 0000 B0F84400 		ldrh	r0, [r0, #68]
 843 0004 80B2     		uxth	r0, r0
 844 0006 7047     		bx	lr
 846              		.section	.text.USB_ReadDevAllOutEpInterrupt,"ax",%progbits
 847              		.align	1
 848              		.global	USB_ReadDevAllOutEpInterrupt
 849              		.syntax unified
 850              		.thumb
 851              		.thumb_func
 852              		.fpu softvfp
 854              	USB_ReadDevAllOutEpInterrupt:
 855              		@ args = 0, pretend = 0, frame = 0
 856              		@ frame_needed = 0, uses_anonymous_args = 0
 857              		@ link register save eliminated.
 858 0000 0020     		movs	r0, #0
 859 0002 7047     		bx	lr
 861              		.section	.text.USB_ReadDevAllInEpInterrupt,"ax",%progbits
 862              		.align	1
 863              		.global	USB_ReadDevAllInEpInterrupt
 864              		.syntax unified
 865              		.thumb
 866              		.thumb_func
 867              		.fpu softvfp
 869              	USB_ReadDevAllInEpInterrupt:
 870              		@ args = 0, pretend = 0, frame = 0
 871              		@ frame_needed = 0, uses_anonymous_args = 0
 872              		@ link register save eliminated.
 873 0000 0020     		movs	r0, #0
 874 0002 7047     		bx	lr
 876              		.section	.text.USB_ReadDevOutEPInterrupt,"ax",%progbits
 877              		.align	1
 878              		.global	USB_ReadDevOutEPInterrupt
 879              		.syntax unified
 880              		.thumb
 881              		.thumb_func
 882              		.fpu softvfp
 884              	USB_ReadDevOutEPInterrupt:
 885              		@ args = 0, pretend = 0, frame = 0
 886              		@ frame_needed = 0, uses_anonymous_args = 0
 887              		@ link register save eliminated.
 888 0000 0020     		movs	r0, #0
 889 0002 7047     		bx	lr
 891              		.section	.text.USB_ReadDevInEPInterrupt,"ax",%progbits
 892              		.align	1
 893              		.global	USB_ReadDevInEPInterrupt
 894              		.syntax unified
 895              		.thumb
 896              		.thumb_func
 897              		.fpu softvfp
 899              	USB_ReadDevInEPInterrupt:
 900              		@ args = 0, pretend = 0, frame = 0
ARM GAS  /tmp/cccbDMQQ.s 			page 16


 901              		@ frame_needed = 0, uses_anonymous_args = 0
 902              		@ link register save eliminated.
 903 0000 0020     		movs	r0, #0
 904 0002 7047     		bx	lr
 906              		.section	.text.USB_ClearInterrupts,"ax",%progbits
 907              		.align	1
 908              		.global	USB_ClearInterrupts
 909              		.syntax unified
 910              		.thumb
 911              		.thumb_func
 912              		.fpu softvfp
 914              	USB_ClearInterrupts:
 915              		@ args = 0, pretend = 0, frame = 0
 916              		@ frame_needed = 0, uses_anonymous_args = 0
 917              		@ link register save eliminated.
 918 0000 7047     		bx	lr
 920              		.section	.text.USB_EP0_OutStart,"ax",%progbits
 921              		.align	1
 922              		.global	USB_EP0_OutStart
 923              		.syntax unified
 924              		.thumb
 925              		.thumb_func
 926              		.fpu softvfp
 928              	USB_EP0_OutStart:
 929              		@ args = 0, pretend = 0, frame = 0
 930              		@ frame_needed = 0, uses_anonymous_args = 0
 931              		@ link register save eliminated.
 932 0000 0020     		movs	r0, #0
 933 0002 7047     		bx	lr
 935              		.section	.text.USB_ActivateRemoteWakeup,"ax",%progbits
 936              		.align	1
 937              		.global	USB_ActivateRemoteWakeup
 938              		.syntax unified
 939              		.thumb
 940              		.thumb_func
 941              		.fpu softvfp
 943              	USB_ActivateRemoteWakeup:
 944              		@ args = 0, pretend = 0, frame = 0
 945              		@ frame_needed = 0, uses_anonymous_args = 0
 946              		@ link register save eliminated.
 947 0000 B0F84030 		ldrh	r3, [r0, #64]
 948 0004 9BB2     		uxth	r3, r3
 949 0006 43F01003 		orr	r3, r3, #16
 950 000a A0F84030 		strh	r3, [r0, #64]	@ movhi
 951 000e 0020     		movs	r0, #0
 952 0010 7047     		bx	lr
 954              		.section	.text.USB_DeActivateRemoteWakeup,"ax",%progbits
 955              		.align	1
 956              		.global	USB_DeActivateRemoteWakeup
 957              		.syntax unified
 958              		.thumb
 959              		.thumb_func
 960              		.fpu softvfp
 962              	USB_DeActivateRemoteWakeup:
 963              		@ args = 0, pretend = 0, frame = 0
 964              		@ frame_needed = 0, uses_anonymous_args = 0
 965              		@ link register save eliminated.
ARM GAS  /tmp/cccbDMQQ.s 			page 17


 966 0000 B0F84030 		ldrh	r3, [r0, #64]
 967 0004 23F01003 		bic	r3, r3, #16
 968 0008 1B04     		lsls	r3, r3, #16
 969 000a 1B0C     		lsrs	r3, r3, #16
 970 000c A0F84030 		strh	r3, [r0, #64]	@ movhi
 971 0010 0020     		movs	r0, #0
 972 0012 7047     		bx	lr
 974              		.section	.text.USB_WritePMA,"ax",%progbits
 975              		.align	1
 976              		.global	USB_WritePMA
 977              		.syntax unified
 978              		.thumb
 979              		.thumb_func
 980              		.fpu softvfp
 982              	USB_WritePMA:
 983              		@ args = 0, pretend = 0, frame = 0
 984              		@ frame_needed = 0, uses_anonymous_args = 0
 985              		@ link register save eliminated.
 986 0000 00EB4202 		add	r2, r0, r2, lsl #1
 987 0004 0133     		adds	r3, r3, #1
 988 0006 02F58062 		add	r2, r2, #1024
 989 000a 5B08     		lsrs	r3, r3, #1
 990 000c 02EB8303 		add	r3, r2, r3, lsl #2
 991              	.L131:
 992 0010 9A42     		cmp	r2, r3
 993 0012 00D1     		bne	.L132
 994 0014 7047     		bx	lr
 995              	.L132:
 996 0016 31F8020B 		ldrh	r0, [r1], #2	@ unaligned
 997 001a 22F8040B 		strh	r0, [r2], #4	@ movhi
 998 001e F7E7     		b	.L131
 1000              		.section	.text.USB_EPStartXfer,"ax",%progbits
 1001              		.align	1
 1002              		.global	USB_EPStartXfer
 1003              		.syntax unified
 1004              		.thumb
 1005              		.thumb_func
 1006              		.fpu softvfp
 1008              	USB_EPStartXfer:
 1009              		@ args = 0, pretend = 0, frame = 0
 1010              		@ frame_needed = 0, uses_anonymous_args = 0
 1011 0000 70B5     		push	{r4, r5, r6, lr}
 1012 0002 0D46     		mov	r5, r1
 1013 0004 4978     		ldrb	r1, [r1, #1]	@ zero_extendqisi2
 1014 0006 0446     		mov	r4, r0
 1015 0008 0129     		cmp	r1, #1
 1016 000a AB69     		ldr	r3, [r5, #24]
 1017 000c 2A69     		ldr	r2, [r5, #16]
 1018 000e 287B     		ldrb	r0, [r5, #12]	@ zero_extendqisi2
 1019 0010 64D1     		bne	.L134
 1020 0012 9342     		cmp	r3, r2
 1021 0014 8ABF     		itet	hi
 1022 0016 991A     		subhi	r1, r3, r2
 1023 0018 0021     		movls	r1, #0
 1024 001a 1346     		movhi	r3, r2
 1025 001c A961     		str	r1, [r5, #24]
 1026 001e 9EB2     		uxth	r6, r3
ARM GAS  /tmp/cccbDMQQ.s 			page 18


 1027 0020 6969     		ldr	r1, [r5, #20]
 1028 0022 00BB     		cbnz	r0, .L136
 1029 0024 3346     		mov	r3, r6
 1030 0026 EA88     		ldrh	r2, [r5, #6]
 1031 0028 2046     		mov	r0, r4
 1032 002a FFF7FEFF 		bl	USB_WritePMA
 1033 002e B4F85030 		ldrh	r3, [r4, #80]
 1034 0032 2A78     		ldrb	r2, [r5]	@ zero_extendqisi2
 1035 0034 99B2     		uxth	r1, r3
 1036 0036 04F20443 		addw	r3, r4, #1028
 1037 003a 1201     		lsls	r2, r2, #4
 1038 003c 0B44     		add	r3, r3, r1
 1039 003e D652     		strh	r6, [r2, r3]	@ movhi
 1040              	.L137:
 1041 0040 2A78     		ldrb	r2, [r5]	@ zero_extendqisi2
 1042 0042 34F82230 		ldrh	r3, [r4, r2, lsl #2]
 1043 0046 23F4E043 		bic	r3, r3, #28672
 1044 004a 23F04003 		bic	r3, r3, #64
 1045 004e 1B04     		lsls	r3, r3, #16
 1046 0050 1B0C     		lsrs	r3, r3, #16
 1047 0052 83F03003 		eor	r3, r3, #48
 1048              	.L173:
 1049 0056 43F40043 		orr	r3, r3, #32768
 1050 005a 43F08003 		orr	r3, r3, #128
 1051 005e 0020     		movs	r0, #0
 1052 0060 24F82230 		strh	r3, [r4, r2, lsl #2]	@ movhi
 1053 0064 70BD     		pop	{r4, r5, r6, pc}
 1054              	.L136:
 1055 0066 2B78     		ldrb	r3, [r5]	@ zero_extendqisi2
 1056 0068 34F82320 		ldrh	r2, [r4, r3, lsl #2]
 1057 006c 1B01     		lsls	r3, r3, #4
 1058 006e 12F0400F 		tst	r2, #64
 1059 0072 B4F85020 		ldrh	r2, [r4, #80]
 1060 0076 90B2     		uxth	r0, r2
 1061 0078 15BF     		itete	ne
 1062 007a 04F20C42 		addwne	r2, r4, #1036
 1063 007e 04F20442 		addweq	r2, r4, #1028
 1064 0082 1218     		addne	r2, r2, r0
 1065 0084 1218     		addeq	r2, r2, r0
 1066 0086 16BF     		itet	ne
 1067 0088 D652     		strhne	r6, [r2, r3]	@ movhi
 1068 008a D652     		strheq	r6, [r2, r3]	@ movhi
 1069 008c 6A89     		ldrhne	r2, [r5, #10]
 1070 008e 3346     		mov	r3, r6
 1071 0090 08BF     		it	eq
 1072 0092 2A89     		ldrheq	r2, [r5, #8]
 1073 0094 2046     		mov	r0, r4
 1074 0096 FFF7FEFF 		bl	USB_WritePMA
 1075 009a 6B78     		ldrb	r3, [r5, #1]	@ zero_extendqisi2
 1076 009c 2A78     		ldrb	r2, [r5]	@ zero_extendqisi2
 1077 009e 73B9     		cbnz	r3, .L140
 1078 00a0 34F82230 		ldrh	r3, [r4, r2, lsl #2]
 1079 00a4 23F4E043 		bic	r3, r3, #28672
 1080 00a8 23F07003 		bic	r3, r3, #112
 1081 00ac 1B04     		lsls	r3, r3, #16
 1082 00ae 1B0C     		lsrs	r3, r3, #16
 1083 00b0 43F40043 		orr	r3, r3, #32768
ARM GAS  /tmp/cccbDMQQ.s 			page 19


 1084 00b4 43F0C003 		orr	r3, r3, #192
 1085              	.L170:
 1086 00b8 24F82230 		strh	r3, [r4, r2, lsl #2]	@ movhi
 1087 00bc C0E7     		b	.L137
 1088              	.L140:
 1089 00be 012B     		cmp	r3, #1
 1090 00c0 BED1     		bne	.L137
 1091 00c2 34F82230 		ldrh	r3, [r4, r2, lsl #2]
 1092 00c6 23F4E043 		bic	r3, r3, #28672
 1093 00ca 23F07003 		bic	r3, r3, #112
 1094 00ce 1B04     		lsls	r3, r3, #16
 1095 00d0 1B0C     		lsrs	r3, r3, #16
 1096 00d2 43F44043 		orr	r3, r3, #49152
 1097 00d6 43F08003 		orr	r3, r3, #128
 1098 00da EDE7     		b	.L170
 1099              	.L134:
 1100 00dc 9342     		cmp	r3, r2
 1101 00de 94BF     		ite	ls
 1102 00e0 0026     		movls	r6, #0
 1103 00e2 9E1A     		subhi	r6, r3, r2
 1104 00e4 AE61     		str	r6, [r5, #24]
 1105 00e6 88BF     		it	hi
 1106 00e8 1346     		movhi	r3, r2
 1107 00ea 2A78     		ldrb	r2, [r5]	@ zero_extendqisi2
 1108 00ec B0B9     		cbnz	r0, .L143
 1109              	.L182:
 1110 00ee B4F85010 		ldrh	r1, [r4, #80]
 1111 00f2 04F20C40 		addw	r0, r4, #1036
 1112 00f6 89B2     		uxth	r1, r1
 1113 00f8 0144     		add	r1, r1, r0
 1114 00fa 1201     		lsls	r2, r2, #4
 1115 00fc 002B     		cmp	r3, #0
 1116 00fe 42D1     		bne	.L155
 1117 0100 8B5A     		ldrh	r3, [r1, r2]
 1118 0102 23F4F843 		bic	r3, r3, #31744
 1119 0106 1B04     		lsls	r3, r3, #16
 1120 0108 1B0C     		lsrs	r3, r3, #16
 1121 010a 8B52     		strh	r3, [r1, r2]	@ movhi
 1122 010c 8B5A     		ldrh	r3, [r1, r2]
 1123 010e 6FEA4343 		mvn	r3, r3, lsl #17
 1124 0112 6FEA5343 		mvn	r3, r3, lsr #17
 1125              	.L172:
 1126 0116 9BB2     		uxth	r3, r3
 1127 0118 8B52     		strh	r3, [r1, r2]	@ movhi
 1128 011a 3DE0     		b	.L145
 1129              	.L143:
 1130 011c A1B9     		cbnz	r1, .L149
 1131 011e B4F85010 		ldrh	r1, [r4, #80]
 1132 0122 04F20440 		addw	r0, r4, #1028
 1133 0126 89B2     		uxth	r1, r1
 1134 0128 0144     		add	r1, r1, r0
 1135 012a 1201     		lsls	r2, r2, #4
 1136 012c D3B9     		cbnz	r3, .L150
 1137 012e 885A     		ldrh	r0, [r1, r2]
 1138 0130 20F4F840 		bic	r0, r0, #31744
 1139 0134 0004     		lsls	r0, r0, #16
 1140 0136 000C     		lsrs	r0, r0, #16
ARM GAS  /tmp/cccbDMQQ.s 			page 20


 1141 0138 8852     		strh	r0, [r1, r2]	@ movhi
 1142 013a 885A     		ldrh	r0, [r1, r2]
 1143 013c 6FEA4040 		mvn	r0, r0, lsl #17
 1144 0140 6FEA5040 		mvn	r0, r0, lsr #17
 1145              	.L171:
 1146 0144 80B2     		uxth	r0, r0
 1147 0146 8852     		strh	r0, [r1, r2]	@ movhi
 1148              	.L149:
 1149 0148 6978     		ldrb	r1, [r5, #1]	@ zero_extendqisi2
 1150 014a 2A78     		ldrb	r2, [r5]	@ zero_extendqisi2
 1151 014c 0029     		cmp	r1, #0
 1152 014e CED0     		beq	.L182
 1153 0150 0129     		cmp	r1, #1
 1154 0152 21D1     		bne	.L145
 1155 0154 B4F85010 		ldrh	r1, [r4, #80]
 1156 0158 1201     		lsls	r2, r2, #4
 1157 015a 88B2     		uxth	r0, r1
 1158 015c 04F20C41 		addw	r1, r4, #1036
 1159 0160 0144     		add	r1, r1, r0
 1160 0162 D8E7     		b	.L172
 1161              	.L150:
 1162 0164 3E2B     		cmp	r3, #62
 1163 0166 05D8     		bhi	.L151
 1164 0168 5808     		lsrs	r0, r3, #1
 1165 016a DE07     		lsls	r6, r3, #31
 1166 016c 48BF     		it	mi
 1167 016e 0130     		addmi	r0, r0, #1
 1168 0170 8002     		lsls	r0, r0, #10
 1169 0172 E7E7     		b	.L171
 1170              	.L151:
 1171 0174 5E09     		lsrs	r6, r3, #5
 1172 0176 D806     		lsls	r0, r3, #27
 1173 0178 1248     		ldr	r0, .L183
 1174 017a 08BF     		it	eq
 1175 017c 06F1FF36 		addeq	r6, r6, #-1
 1176 0180 40EA8620 		orr	r0, r0, r6, lsl #10
 1177 0184 DEE7     		b	.L171
 1178              	.L155:
 1179 0186 3E2B     		cmp	r3, #62
 1180 0188 12D8     		bhi	.L156
 1181 018a 5808     		lsrs	r0, r3, #1
 1182 018c DE07     		lsls	r6, r3, #31
 1183 018e 48BF     		it	mi
 1184 0190 0130     		addmi	r0, r0, #1
 1185 0192 8002     		lsls	r0, r0, #10
 1186 0194 80B2     		uxth	r0, r0
 1187 0196 8852     		strh	r0, [r1, r2]	@ movhi
 1188              	.L145:
 1189 0198 2A78     		ldrb	r2, [r5]	@ zero_extendqisi2
 1190 019a 34F82230 		ldrh	r3, [r4, r2, lsl #2]
 1191 019e 23F48043 		bic	r3, r3, #16384
 1192 01a2 23F07003 		bic	r3, r3, #112
 1193 01a6 1B04     		lsls	r3, r3, #16
 1194 01a8 1B0C     		lsrs	r3, r3, #16
 1195 01aa 83F44053 		eor	r3, r3, #12288
 1196 01ae 52E7     		b	.L173
 1197              	.L156:
ARM GAS  /tmp/cccbDMQQ.s 			page 21


 1198 01b0 5809     		lsrs	r0, r3, #5
 1199 01b2 DB06     		lsls	r3, r3, #27
 1200 01b4 034B     		ldr	r3, .L183
 1201 01b6 08BF     		it	eq
 1202 01b8 00F1FF30 		addeq	r0, r0, #-1
 1203 01bc 43EA8023 		orr	r3, r3, r0, lsl #10
 1204 01c0 A9E7     		b	.L172
 1205              	.L184:
 1206 01c2 00BF     		.align	2
 1207              	.L183:
 1208 01c4 0080FFFF 		.word	-32768
 1210              		.section	.text.USB_ReadPMA,"ax",%progbits
 1211              		.align	1
 1212              		.global	USB_ReadPMA
 1213              		.syntax unified
 1214              		.thumb
 1215              		.thumb_func
 1216              		.fpu softvfp
 1218              	USB_ReadPMA:
 1219              		@ args = 0, pretend = 0, frame = 0
 1220              		@ frame_needed = 0, uses_anonymous_args = 0
 1221 0000 00EB4202 		add	r2, r0, r2, lsl #1
 1222 0004 F0B5     		push	{r4, r5, r6, r7, lr}
 1223 0006 02F58062 		add	r2, r2, #1024
 1224 000a 5D08     		lsrs	r5, r3, #1
 1225 000c 0C46     		mov	r4, r1
 1226 000e 1746     		mov	r7, r2
 1227 0010 2E46     		mov	r6, r5
 1228              	.L186:
 1229 0012 0234     		adds	r4, r4, #2
 1230 0014 36B9     		cbnz	r6, .L187
 1231 0016 DB07     		lsls	r3, r3, #31
 1232 0018 44BF     		itt	mi
 1233 001a 32F82530 		ldrhmi	r3, [r2, r5, lsl #2]
 1234 001e 01F81530 		strbmi	r3, [r1, r5, lsl #1]
 1235 0022 F0BD     		pop	{r4, r5, r6, r7, pc}
 1236              	.L187:
 1237 0024 37F8040B 		ldrh	r0, [r7], #4
 1238 0028 013E     		subs	r6, r6, #1
 1239 002a 80B2     		uxth	r0, r0
 1240 002c 04F8020C 		strb	r0, [r4, #-2]
 1241 0030 000A     		lsrs	r0, r0, #8
 1242 0032 04F8010C 		strb	r0, [r4, #-1]
 1243 0036 ECE7     		b	.L186
 1245              		.ident	"GCC: (GNU Tools for Arm Embedded Processors 9-2019-q4-major) 9.2.1 20191025 (release) [ARM
ARM GAS  /tmp/cccbDMQQ.s 			page 22

