ARM GAS  /tmp/ccgq9aUL.s 			page 1


   1              		.cpu cortex-m3
   2              		.eabi_attribute 20, 1
   3              		.eabi_attribute 21, 1
   4              		.eabi_attribute 23, 3
   5              		.eabi_attribute 24, 1
   6              		.eabi_attribute 25, 1
   7              		.eabi_attribute 26, 1
   8              		.eabi_attribute 30, 4
   9              		.eabi_attribute 34, 1
  10              		.eabi_attribute 18, 4
  11              		.file	"stm32f1xx_hal_tim.c"
  12              		.text
  13              		.section	.text.HAL_TIM_Base_MspInit,"ax",%progbits
  14              		.align	1
  15              		.weak	HAL_TIM_Base_MspInit
  16              		.arch armv7-m
  17              		.syntax unified
  18              		.thumb
  19              		.thumb_func
  20              		.fpu softvfp
  22              	HAL_TIM_Base_MspInit:
  23              		@ args = 0, pretend = 0, frame = 0
  24              		@ frame_needed = 0, uses_anonymous_args = 0
  25              		@ link register save eliminated.
  26 0000 7047     		bx	lr
  28              		.section	.text.TIM_DMAError,"ax",%progbits
  29              		.align	1
  30              		.global	TIM_DMAError
  31              		.syntax unified
  32              		.thumb
  33              		.thumb_func
  34              		.fpu softvfp
  36              	TIM_DMAError:
  37              		@ args = 0, pretend = 0, frame = 0
  38              		@ frame_needed = 0, uses_anonymous_args = 0
  39              		@ link register save eliminated.
  40 0000 0123     		movs	r3, #1
  41 0002 406A     		ldr	r0, [r0, #36]
  42 0004 80F83D30 		strb	r3, [r0, #61]
  43 0008 D0F89C30 		ldr	r3, [r0, #156]
  44 000c 1847     		bx	r3	@ indirect register sibling call
  46              		.section	.text.TIM_DMADelayPulseCplt,"ax",%progbits
  47              		.align	1
  48              		.global	TIM_DMADelayPulseCplt
  49              		.syntax unified
  50              		.thumb
  51              		.thumb_func
  52              		.fpu softvfp
  54              	TIM_DMADelayPulseCplt:
  55              		@ args = 0, pretend = 0, frame = 0
  56              		@ frame_needed = 0, uses_anonymous_args = 0
  57 0000 0123     		movs	r3, #1
  58 0002 10B5     		push	{r4, lr}
  59 0004 446A     		ldr	r4, [r0, #36]
  60 0006 626A     		ldr	r2, [r4, #36]
  61 0008 84F83D30 		strb	r3, [r4, #61]
  62 000c 8242     		cmp	r2, r0
ARM GAS  /tmp/ccgq9aUL.s 			page 2


  63 000e 07D1     		bne	.L4
  64              	.L8:
  65 0010 2377     		strb	r3, [r4, #28]
  66              	.L5:
  67 0012 D4F89430 		ldr	r3, [r4, #148]
  68 0016 2046     		mov	r0, r4
  69 0018 9847     		blx	r3
  70 001a 0023     		movs	r3, #0
  71 001c 2377     		strb	r3, [r4, #28]
  72 001e 10BD     		pop	{r4, pc}
  73              	.L4:
  74 0020 A36A     		ldr	r3, [r4, #40]
  75 0022 8342     		cmp	r3, r0
  76 0024 01D1     		bne	.L6
  77 0026 0223     		movs	r3, #2
  78 0028 F2E7     		b	.L8
  79              	.L6:
  80 002a E36A     		ldr	r3, [r4, #44]
  81 002c 8342     		cmp	r3, r0
  82 002e 01D1     		bne	.L7
  83 0030 0423     		movs	r3, #4
  84 0032 EDE7     		b	.L8
  85              	.L7:
  86 0034 236B     		ldr	r3, [r4, #48]
  87 0036 8342     		cmp	r3, r0
  88 0038 EBD1     		bne	.L5
  89 003a 0823     		movs	r3, #8
  90 003c E8E7     		b	.L8
  92              		.section	.text.TIM_DMADelayPulseHalfCplt,"ax",%progbits
  93              		.align	1
  94              		.global	TIM_DMADelayPulseHalfCplt
  95              		.syntax unified
  96              		.thumb
  97              		.thumb_func
  98              		.fpu softvfp
 100              	TIM_DMADelayPulseHalfCplt:
 101              		@ args = 0, pretend = 0, frame = 0
 102              		@ frame_needed = 0, uses_anonymous_args = 0
 103 0000 0123     		movs	r3, #1
 104 0002 10B5     		push	{r4, lr}
 105 0004 446A     		ldr	r4, [r0, #36]
 106 0006 626A     		ldr	r2, [r4, #36]
 107 0008 84F83D30 		strb	r3, [r4, #61]
 108 000c 8242     		cmp	r2, r0
 109 000e 07D1     		bne	.L10
 110              	.L14:
 111 0010 2377     		strb	r3, [r4, #28]
 112              	.L11:
 113 0012 D4F89830 		ldr	r3, [r4, #152]
 114 0016 2046     		mov	r0, r4
 115 0018 9847     		blx	r3
 116 001a 0023     		movs	r3, #0
 117 001c 2377     		strb	r3, [r4, #28]
 118 001e 10BD     		pop	{r4, pc}
 119              	.L10:
 120 0020 A36A     		ldr	r3, [r4, #40]
 121 0022 8342     		cmp	r3, r0
ARM GAS  /tmp/ccgq9aUL.s 			page 3


 122 0024 01D1     		bne	.L12
 123 0026 0223     		movs	r3, #2
 124 0028 F2E7     		b	.L14
 125              	.L12:
 126 002a E36A     		ldr	r3, [r4, #44]
 127 002c 8342     		cmp	r3, r0
 128 002e 01D1     		bne	.L13
 129 0030 0423     		movs	r3, #4
 130 0032 EDE7     		b	.L14
 131              	.L13:
 132 0034 236B     		ldr	r3, [r4, #48]
 133 0036 8342     		cmp	r3, r0
 134 0038 EBD1     		bne	.L11
 135 003a 0823     		movs	r3, #8
 136 003c E8E7     		b	.L14
 138              		.section	.text.TIM_DMACaptureCplt,"ax",%progbits
 139              		.align	1
 140              		.global	TIM_DMACaptureCplt
 141              		.syntax unified
 142              		.thumb
 143              		.thumb_func
 144              		.fpu softvfp
 146              	TIM_DMACaptureCplt:
 147              		@ args = 0, pretend = 0, frame = 0
 148              		@ frame_needed = 0, uses_anonymous_args = 0
 149 0000 0123     		movs	r3, #1
 150 0002 10B5     		push	{r4, lr}
 151 0004 446A     		ldr	r4, [r0, #36]
 152 0006 626A     		ldr	r2, [r4, #36]
 153 0008 84F83D30 		strb	r3, [r4, #61]
 154 000c 8242     		cmp	r2, r0
 155 000e 07D1     		bne	.L16
 156              	.L20:
 157 0010 2377     		strb	r3, [r4, #28]
 158              	.L17:
 159 0012 D4F88830 		ldr	r3, [r4, #136]
 160 0016 2046     		mov	r0, r4
 161 0018 9847     		blx	r3
 162 001a 0023     		movs	r3, #0
 163 001c 2377     		strb	r3, [r4, #28]
 164 001e 10BD     		pop	{r4, pc}
 165              	.L16:
 166 0020 A36A     		ldr	r3, [r4, #40]
 167 0022 8342     		cmp	r3, r0
 168 0024 01D1     		bne	.L18
 169 0026 0223     		movs	r3, #2
 170 0028 F2E7     		b	.L20
 171              	.L18:
 172 002a E36A     		ldr	r3, [r4, #44]
 173 002c 8342     		cmp	r3, r0
 174 002e 01D1     		bne	.L19
 175 0030 0423     		movs	r3, #4
 176 0032 EDE7     		b	.L20
 177              	.L19:
 178 0034 236B     		ldr	r3, [r4, #48]
 179 0036 8342     		cmp	r3, r0
 180 0038 EBD1     		bne	.L17
ARM GAS  /tmp/ccgq9aUL.s 			page 4


 181 003a 0823     		movs	r3, #8
 182 003c E8E7     		b	.L20
 184              		.section	.text.TIM_DMACaptureHalfCplt,"ax",%progbits
 185              		.align	1
 186              		.global	TIM_DMACaptureHalfCplt
 187              		.syntax unified
 188              		.thumb
 189              		.thumb_func
 190              		.fpu softvfp
 192              	TIM_DMACaptureHalfCplt:
 193              		@ args = 0, pretend = 0, frame = 0
 194              		@ frame_needed = 0, uses_anonymous_args = 0
 195 0000 0123     		movs	r3, #1
 196 0002 10B5     		push	{r4, lr}
 197 0004 446A     		ldr	r4, [r0, #36]
 198 0006 626A     		ldr	r2, [r4, #36]
 199 0008 84F83D30 		strb	r3, [r4, #61]
 200 000c 8242     		cmp	r2, r0
 201 000e 07D1     		bne	.L22
 202              	.L26:
 203 0010 2377     		strb	r3, [r4, #28]
 204              	.L23:
 205 0012 D4F88C30 		ldr	r3, [r4, #140]
 206 0016 2046     		mov	r0, r4
 207 0018 9847     		blx	r3
 208 001a 0023     		movs	r3, #0
 209 001c 2377     		strb	r3, [r4, #28]
 210 001e 10BD     		pop	{r4, pc}
 211              	.L22:
 212 0020 A36A     		ldr	r3, [r4, #40]
 213 0022 8342     		cmp	r3, r0
 214 0024 01D1     		bne	.L24
 215 0026 0223     		movs	r3, #2
 216 0028 F2E7     		b	.L26
 217              	.L24:
 218 002a E36A     		ldr	r3, [r4, #44]
 219 002c 8342     		cmp	r3, r0
 220 002e 01D1     		bne	.L25
 221 0030 0423     		movs	r3, #4
 222 0032 EDE7     		b	.L26
 223              	.L25:
 224 0034 236B     		ldr	r3, [r4, #48]
 225 0036 8342     		cmp	r3, r0
 226 0038 EBD1     		bne	.L23
 227 003a 0823     		movs	r3, #8
 228 003c E8E7     		b	.L26
 230              		.section	.text.TIM_DMAPeriodElapsedCplt,"ax",%progbits
 231              		.align	1
 232              		.syntax unified
 233              		.thumb
 234              		.thumb_func
 235              		.fpu softvfp
 237              	TIM_DMAPeriodElapsedCplt:
 238              		@ args = 0, pretend = 0, frame = 0
 239              		@ frame_needed = 0, uses_anonymous_args = 0
 240              		@ link register save eliminated.
 241 0000 0123     		movs	r3, #1
ARM GAS  /tmp/ccgq9aUL.s 			page 5


 242 0002 406A     		ldr	r0, [r0, #36]
 243 0004 80F83D30 		strb	r3, [r0, #61]
 244 0008 836F     		ldr	r3, [r0, #120]
 245 000a 1847     		bx	r3	@ indirect register sibling call
 247              		.section	.text.TIM_DMAPeriodElapsedHalfCplt,"ax",%progbits
 248              		.align	1
 249              		.syntax unified
 250              		.thumb
 251              		.thumb_func
 252              		.fpu softvfp
 254              	TIM_DMAPeriodElapsedHalfCplt:
 255              		@ args = 0, pretend = 0, frame = 0
 256              		@ frame_needed = 0, uses_anonymous_args = 0
 257              		@ link register save eliminated.
 258 0000 0123     		movs	r3, #1
 259 0002 406A     		ldr	r0, [r0, #36]
 260 0004 80F83D30 		strb	r3, [r0, #61]
 261 0008 C36F     		ldr	r3, [r0, #124]
 262 000a 1847     		bx	r3	@ indirect register sibling call
 264              		.section	.text.TIM_DMATriggerCplt,"ax",%progbits
 265              		.align	1
 266              		.syntax unified
 267              		.thumb
 268              		.thumb_func
 269              		.fpu softvfp
 271              	TIM_DMATriggerCplt:
 272              		@ args = 0, pretend = 0, frame = 0
 273              		@ frame_needed = 0, uses_anonymous_args = 0
 274              		@ link register save eliminated.
 275 0000 0123     		movs	r3, #1
 276 0002 406A     		ldr	r0, [r0, #36]
 277 0004 80F83D30 		strb	r3, [r0, #61]
 278 0008 D0F88030 		ldr	r3, [r0, #128]
 279 000c 1847     		bx	r3	@ indirect register sibling call
 281              		.section	.text.TIM_DMATriggerHalfCplt,"ax",%progbits
 282              		.align	1
 283              		.syntax unified
 284              		.thumb
 285              		.thumb_func
 286              		.fpu softvfp
 288              	TIM_DMATriggerHalfCplt:
 289              		@ args = 0, pretend = 0, frame = 0
 290              		@ frame_needed = 0, uses_anonymous_args = 0
 291              		@ link register save eliminated.
 292 0000 0123     		movs	r3, #1
 293 0002 406A     		ldr	r0, [r0, #36]
 294 0004 80F83D30 		strb	r3, [r0, #61]
 295 0008 D0F88430 		ldr	r3, [r0, #132]
 296 000c 1847     		bx	r3	@ indirect register sibling call
 298              		.section	.text.TIM_OC1_SetConfig,"ax",%progbits
 299              		.align	1
 300              		.syntax unified
 301              		.thumb
 302              		.thumb_func
 303              		.fpu softvfp
 305              	TIM_OC1_SetConfig:
 306              		@ args = 0, pretend = 0, frame = 0
ARM GAS  /tmp/ccgq9aUL.s 			page 6


 307              		@ frame_needed = 0, uses_anonymous_args = 0
 308 0000 036A     		ldr	r3, [r0, #32]
 309 0002 70B5     		push	{r4, r5, r6, lr}
 310 0004 23F00103 		bic	r3, r3, #1
 311 0008 0362     		str	r3, [r0, #32]
 312 000a 036A     		ldr	r3, [r0, #32]
 313 000c 4468     		ldr	r4, [r0, #4]
 314 000e 8269     		ldr	r2, [r0, #24]
 315 0010 0D68     		ldr	r5, [r1]
 316 0012 22F07302 		bic	r2, r2, #115
 317 0016 2A43     		orrs	r2, r2, r5
 318 0018 8D68     		ldr	r5, [r1, #8]
 319 001a 23F00203 		bic	r3, r3, #2
 320 001e 2B43     		orrs	r3, r3, r5
 321 0020 0E4D     		ldr	r5, .L35
 322 0022 A842     		cmp	r0, r5
 323 0024 02D0     		beq	.L32
 324 0026 0E4E     		ldr	r6, .L35+4
 325 0028 B042     		cmp	r0, r6
 326 002a 10D1     		bne	.L33
 327              	.L32:
 328 002c CE68     		ldr	r6, [r1, #12]
 329 002e 23F00803 		bic	r3, r3, #8
 330 0032 3343     		orrs	r3, r3, r6
 331 0034 A842     		cmp	r0, r5
 332 0036 23F00403 		bic	r3, r3, #4
 333 003a 02D0     		beq	.L34
 334 003c 084D     		ldr	r5, .L35+4
 335 003e A842     		cmp	r0, r5
 336 0040 05D1     		bne	.L33
 337              	.L34:
 338 0042 D1E90556 		ldrd	r5, r6, [r1, #20]
 339 0046 24F44074 		bic	r4, r4, #768
 340 004a 3543     		orrs	r5, r5, r6
 341 004c 2C43     		orrs	r4, r4, r5
 342              	.L33:
 343 004e 4460     		str	r4, [r0, #4]
 344 0050 8261     		str	r2, [r0, #24]
 345 0052 4A68     		ldr	r2, [r1, #4]
 346 0054 4263     		str	r2, [r0, #52]
 347 0056 0362     		str	r3, [r0, #32]
 348 0058 70BD     		pop	{r4, r5, r6, pc}
 349              	.L36:
 350 005a 00BF     		.align	2
 351              	.L35:
 352 005c 002C0140 		.word	1073818624
 353 0060 00340140 		.word	1073820672
 355              		.section	.text.TIM_OC3_SetConfig,"ax",%progbits
 356              		.align	1
 357              		.syntax unified
 358              		.thumb
 359              		.thumb_func
 360              		.fpu softvfp
 362              	TIM_OC3_SetConfig:
 363              		@ args = 0, pretend = 0, frame = 0
 364              		@ frame_needed = 0, uses_anonymous_args = 0
 365 0000 036A     		ldr	r3, [r0, #32]
ARM GAS  /tmp/ccgq9aUL.s 			page 7


 366 0002 70B5     		push	{r4, r5, r6, lr}
 367 0004 23F48073 		bic	r3, r3, #256
 368 0008 0362     		str	r3, [r0, #32]
 369 000a 036A     		ldr	r3, [r0, #32]
 370 000c 4468     		ldr	r4, [r0, #4]
 371 000e C269     		ldr	r2, [r0, #28]
 372 0010 0D68     		ldr	r5, [r1]
 373 0012 22F07302 		bic	r2, r2, #115
 374 0016 2A43     		orrs	r2, r2, r5
 375 0018 8D68     		ldr	r5, [r1, #8]
 376 001a 23F40073 		bic	r3, r3, #512
 377 001e 43EA0523 		orr	r3, r3, r5, lsl #8
 378 0022 114D     		ldr	r5, .L41
 379 0024 A842     		cmp	r0, r5
 380 0026 03D0     		beq	.L38
 381 0028 05F50065 		add	r5, r5, #2048
 382 002c A842     		cmp	r0, r5
 383 002e 14D1     		bne	.L39
 384              	.L38:
 385 0030 CD68     		ldr	r5, [r1, #12]
 386 0032 23F40063 		bic	r3, r3, #2048
 387 0036 43EA0523 		orr	r3, r3, r5, lsl #8
 388 003a 0B4D     		ldr	r5, .L41
 389 003c 23F48063 		bic	r3, r3, #1024
 390 0040 A842     		cmp	r0, r5
 391 0042 03D0     		beq	.L40
 392 0044 05F50065 		add	r5, r5, #2048
 393 0048 A842     		cmp	r0, r5
 394 004a 06D1     		bne	.L39
 395              	.L40:
 396 004c D1E90556 		ldrd	r5, r6, [r1, #20]
 397 0050 24F44054 		bic	r4, r4, #12288
 398 0054 3543     		orrs	r5, r5, r6
 399 0056 44EA0514 		orr	r4, r4, r5, lsl #4
 400              	.L39:
 401 005a 4460     		str	r4, [r0, #4]
 402 005c C261     		str	r2, [r0, #28]
 403 005e 4A68     		ldr	r2, [r1, #4]
 404 0060 C263     		str	r2, [r0, #60]
 405 0062 0362     		str	r3, [r0, #32]
 406 0064 70BD     		pop	{r4, r5, r6, pc}
 407              	.L42:
 408 0066 00BF     		.align	2
 409              	.L41:
 410 0068 002C0140 		.word	1073818624
 412              		.section	.text.TIM_OC4_SetConfig,"ax",%progbits
 413              		.align	1
 414              		.syntax unified
 415              		.thumb
 416              		.thumb_func
 417              		.fpu softvfp
 419              	TIM_OC4_SetConfig:
 420              		@ args = 0, pretend = 0, frame = 0
 421              		@ frame_needed = 0, uses_anonymous_args = 0
 422 0000 036A     		ldr	r3, [r0, #32]
 423 0002 30B5     		push	{r4, r5, lr}
 424 0004 23F48053 		bic	r3, r3, #4096
ARM GAS  /tmp/ccgq9aUL.s 			page 8


 425 0008 0362     		str	r3, [r0, #32]
 426 000a 036A     		ldr	r3, [r0, #32]
 427 000c 4468     		ldr	r4, [r0, #4]
 428 000e C269     		ldr	r2, [r0, #28]
 429 0010 0D68     		ldr	r5, [r1]
 430 0012 22F4E642 		bic	r2, r2, #29440
 431 0016 42EA0522 		orr	r2, r2, r5, lsl #8
 432 001a 8D68     		ldr	r5, [r1, #8]
 433 001c 23F40053 		bic	r3, r3, #8192
 434 0020 43EA0533 		orr	r3, r3, r5, lsl #12
 435 0024 084D     		ldr	r5, .L46
 436 0026 A842     		cmp	r0, r5
 437 0028 03D0     		beq	.L44
 438 002a 05F50065 		add	r5, r5, #2048
 439 002e A842     		cmp	r0, r5
 440 0030 04D1     		bne	.L45
 441              	.L44:
 442 0032 4D69     		ldr	r5, [r1, #20]
 443 0034 24F48044 		bic	r4, r4, #16384
 444 0038 44EA8514 		orr	r4, r4, r5, lsl #6
 445              	.L45:
 446 003c 4460     		str	r4, [r0, #4]
 447 003e C261     		str	r2, [r0, #28]
 448 0040 4A68     		ldr	r2, [r1, #4]
 449 0042 0264     		str	r2, [r0, #64]
 450 0044 0362     		str	r3, [r0, #32]
 451 0046 30BD     		pop	{r4, r5, pc}
 452              	.L47:
 453              		.align	2
 454              	.L46:
 455 0048 002C0140 		.word	1073818624
 457              		.section	.text.HAL_TIM_Base_MspDeInit,"ax",%progbits
 458              		.align	1
 459              		.weak	HAL_TIM_Base_MspDeInit
 460              		.syntax unified
 461              		.thumb
 462              		.thumb_func
 463              		.fpu softvfp
 465              	HAL_TIM_Base_MspDeInit:
 466              		@ args = 0, pretend = 0, frame = 0
 467              		@ frame_needed = 0, uses_anonymous_args = 0
 468              		@ link register save eliminated.
 469 0000 7047     		bx	lr
 471              		.section	.text.HAL_TIM_OC_MspInit,"ax",%progbits
 472              		.align	1
 473              		.weak	HAL_TIM_OC_MspInit
 474              		.syntax unified
 475              		.thumb
 476              		.thumb_func
 477              		.fpu softvfp
 479              	HAL_TIM_OC_MspInit:
 480              		@ args = 0, pretend = 0, frame = 0
 481              		@ frame_needed = 0, uses_anonymous_args = 0
 482              		@ link register save eliminated.
 483 0000 7047     		bx	lr
 485              		.section	.text.HAL_TIM_OC_MspDeInit,"ax",%progbits
 486              		.align	1
ARM GAS  /tmp/ccgq9aUL.s 			page 9


 487              		.weak	HAL_TIM_OC_MspDeInit
 488              		.syntax unified
 489              		.thumb
 490              		.thumb_func
 491              		.fpu softvfp
 493              	HAL_TIM_OC_MspDeInit:
 494              		@ args = 0, pretend = 0, frame = 0
 495              		@ frame_needed = 0, uses_anonymous_args = 0
 496              		@ link register save eliminated.
 497 0000 7047     		bx	lr
 499              		.section	.text.HAL_TIM_PWM_MspInit,"ax",%progbits
 500              		.align	1
 501              		.weak	HAL_TIM_PWM_MspInit
 502              		.syntax unified
 503              		.thumb
 504              		.thumb_func
 505              		.fpu softvfp
 507              	HAL_TIM_PWM_MspInit:
 508              		@ args = 0, pretend = 0, frame = 0
 509              		@ frame_needed = 0, uses_anonymous_args = 0
 510              		@ link register save eliminated.
 511 0000 7047     		bx	lr
 513              		.section	.text.HAL_TIM_PWM_MspDeInit,"ax",%progbits
 514              		.align	1
 515              		.weak	HAL_TIM_PWM_MspDeInit
 516              		.syntax unified
 517              		.thumb
 518              		.thumb_func
 519              		.fpu softvfp
 521              	HAL_TIM_PWM_MspDeInit:
 522              		@ args = 0, pretend = 0, frame = 0
 523              		@ frame_needed = 0, uses_anonymous_args = 0
 524              		@ link register save eliminated.
 525 0000 7047     		bx	lr
 527              		.section	.text.HAL_TIM_IC_MspInit,"ax",%progbits
 528              		.align	1
 529              		.weak	HAL_TIM_IC_MspInit
 530              		.syntax unified
 531              		.thumb
 532              		.thumb_func
 533              		.fpu softvfp
 535              	HAL_TIM_IC_MspInit:
 536              		@ args = 0, pretend = 0, frame = 0
 537              		@ frame_needed = 0, uses_anonymous_args = 0
 538              		@ link register save eliminated.
 539 0000 7047     		bx	lr
 541              		.section	.text.HAL_TIM_IC_MspDeInit,"ax",%progbits
 542              		.align	1
 543              		.weak	HAL_TIM_IC_MspDeInit
 544              		.syntax unified
 545              		.thumb
 546              		.thumb_func
 547              		.fpu softvfp
 549              	HAL_TIM_IC_MspDeInit:
 550              		@ args = 0, pretend = 0, frame = 0
 551              		@ frame_needed = 0, uses_anonymous_args = 0
 552              		@ link register save eliminated.
ARM GAS  /tmp/ccgq9aUL.s 			page 10


 553 0000 7047     		bx	lr
 555              		.section	.text.HAL_TIM_OnePulse_MspInit,"ax",%progbits
 556              		.align	1
 557              		.weak	HAL_TIM_OnePulse_MspInit
 558              		.syntax unified
 559              		.thumb
 560              		.thumb_func
 561              		.fpu softvfp
 563              	HAL_TIM_OnePulse_MspInit:
 564              		@ args = 0, pretend = 0, frame = 0
 565              		@ frame_needed = 0, uses_anonymous_args = 0
 566              		@ link register save eliminated.
 567 0000 7047     		bx	lr
 569              		.section	.text.HAL_TIM_OnePulse_MspDeInit,"ax",%progbits
 570              		.align	1
 571              		.weak	HAL_TIM_OnePulse_MspDeInit
 572              		.syntax unified
 573              		.thumb
 574              		.thumb_func
 575              		.fpu softvfp
 577              	HAL_TIM_OnePulse_MspDeInit:
 578              		@ args = 0, pretend = 0, frame = 0
 579              		@ frame_needed = 0, uses_anonymous_args = 0
 580              		@ link register save eliminated.
 581 0000 7047     		bx	lr
 583              		.section	.text.HAL_TIM_Encoder_MspInit,"ax",%progbits
 584              		.align	1
 585              		.weak	HAL_TIM_Encoder_MspInit
 586              		.syntax unified
 587              		.thumb
 588              		.thumb_func
 589              		.fpu softvfp
 591              	HAL_TIM_Encoder_MspInit:
 592              		@ args = 0, pretend = 0, frame = 0
 593              		@ frame_needed = 0, uses_anonymous_args = 0
 594              		@ link register save eliminated.
 595 0000 7047     		bx	lr
 597              		.section	.text.HAL_TIM_Encoder_MspDeInit,"ax",%progbits
 598              		.align	1
 599              		.weak	HAL_TIM_Encoder_MspDeInit
 600              		.syntax unified
 601              		.thumb
 602              		.thumb_func
 603              		.fpu softvfp
 605              	HAL_TIM_Encoder_MspDeInit:
 606              		@ args = 0, pretend = 0, frame = 0
 607              		@ frame_needed = 0, uses_anonymous_args = 0
 608              		@ link register save eliminated.
 609 0000 7047     		bx	lr
 611              		.section	.text.HAL_TIM_PeriodElapsedCallback,"ax",%progbits
 612              		.align	1
 613              		.weak	HAL_TIM_PeriodElapsedCallback
 614              		.syntax unified
 615              		.thumb
 616              		.thumb_func
 617              		.fpu softvfp
 619              	HAL_TIM_PeriodElapsedCallback:
ARM GAS  /tmp/ccgq9aUL.s 			page 11


 620              		@ args = 0, pretend = 0, frame = 0
 621              		@ frame_needed = 0, uses_anonymous_args = 0
 622              		@ link register save eliminated.
 623 0000 7047     		bx	lr
 625              		.section	.text.HAL_TIM_PeriodElapsedHalfCpltCallback,"ax",%progbits
 626              		.align	1
 627              		.weak	HAL_TIM_PeriodElapsedHalfCpltCallback
 628              		.syntax unified
 629              		.thumb
 630              		.thumb_func
 631              		.fpu softvfp
 633              	HAL_TIM_PeriodElapsedHalfCpltCallback:
 634              		@ args = 0, pretend = 0, frame = 0
 635              		@ frame_needed = 0, uses_anonymous_args = 0
 636              		@ link register save eliminated.
 637 0000 7047     		bx	lr
 639              		.section	.text.HAL_TIM_OC_DelayElapsedCallback,"ax",%progbits
 640              		.align	1
 641              		.weak	HAL_TIM_OC_DelayElapsedCallback
 642              		.syntax unified
 643              		.thumb
 644              		.thumb_func
 645              		.fpu softvfp
 647              	HAL_TIM_OC_DelayElapsedCallback:
 648              		@ args = 0, pretend = 0, frame = 0
 649              		@ frame_needed = 0, uses_anonymous_args = 0
 650              		@ link register save eliminated.
 651 0000 7047     		bx	lr
 653              		.section	.text.HAL_TIM_IC_CaptureCallback,"ax",%progbits
 654              		.align	1
 655              		.weak	HAL_TIM_IC_CaptureCallback
 656              		.syntax unified
 657              		.thumb
 658              		.thumb_func
 659              		.fpu softvfp
 661              	HAL_TIM_IC_CaptureCallback:
 662              		@ args = 0, pretend = 0, frame = 0
 663              		@ frame_needed = 0, uses_anonymous_args = 0
 664              		@ link register save eliminated.
 665 0000 7047     		bx	lr
 667              		.section	.text.HAL_TIM_IC_CaptureHalfCpltCallback,"ax",%progbits
 668              		.align	1
 669              		.weak	HAL_TIM_IC_CaptureHalfCpltCallback
 670              		.syntax unified
 671              		.thumb
 672              		.thumb_func
 673              		.fpu softvfp
 675              	HAL_TIM_IC_CaptureHalfCpltCallback:
 676              		@ args = 0, pretend = 0, frame = 0
 677              		@ frame_needed = 0, uses_anonymous_args = 0
 678              		@ link register save eliminated.
 679 0000 7047     		bx	lr
 681              		.section	.text.HAL_TIM_PWM_PulseFinishedCallback,"ax",%progbits
 682              		.align	1
 683              		.weak	HAL_TIM_PWM_PulseFinishedCallback
 684              		.syntax unified
 685              		.thumb
ARM GAS  /tmp/ccgq9aUL.s 			page 12


 686              		.thumb_func
 687              		.fpu softvfp
 689              	HAL_TIM_PWM_PulseFinishedCallback:
 690              		@ args = 0, pretend = 0, frame = 0
 691              		@ frame_needed = 0, uses_anonymous_args = 0
 692              		@ link register save eliminated.
 693 0000 7047     		bx	lr
 695              		.section	.text.HAL_TIM_PWM_PulseFinishedHalfCpltCallback,"ax",%progbits
 696              		.align	1
 697              		.weak	HAL_TIM_PWM_PulseFinishedHalfCpltCallback
 698              		.syntax unified
 699              		.thumb
 700              		.thumb_func
 701              		.fpu softvfp
 703              	HAL_TIM_PWM_PulseFinishedHalfCpltCallback:
 704              		@ args = 0, pretend = 0, frame = 0
 705              		@ frame_needed = 0, uses_anonymous_args = 0
 706              		@ link register save eliminated.
 707 0000 7047     		bx	lr
 709              		.section	.text.HAL_TIM_TriggerCallback,"ax",%progbits
 710              		.align	1
 711              		.weak	HAL_TIM_TriggerCallback
 712              		.syntax unified
 713              		.thumb
 714              		.thumb_func
 715              		.fpu softvfp
 717              	HAL_TIM_TriggerCallback:
 718              		@ args = 0, pretend = 0, frame = 0
 719              		@ frame_needed = 0, uses_anonymous_args = 0
 720              		@ link register save eliminated.
 721 0000 7047     		bx	lr
 723              		.section	.text.HAL_TIM_TriggerHalfCpltCallback,"ax",%progbits
 724              		.align	1
 725              		.weak	HAL_TIM_TriggerHalfCpltCallback
 726              		.syntax unified
 727              		.thumb
 728              		.thumb_func
 729              		.fpu softvfp
 731              	HAL_TIM_TriggerHalfCpltCallback:
 732              		@ args = 0, pretend = 0, frame = 0
 733              		@ frame_needed = 0, uses_anonymous_args = 0
 734              		@ link register save eliminated.
 735 0000 7047     		bx	lr
 737              		.section	.text.HAL_TIM_ErrorCallback,"ax",%progbits
 738              		.align	1
 739              		.weak	HAL_TIM_ErrorCallback
 740              		.syntax unified
 741              		.thumb
 742              		.thumb_func
 743              		.fpu softvfp
 745              	HAL_TIM_ErrorCallback:
 746              		@ args = 0, pretend = 0, frame = 0
 747              		@ frame_needed = 0, uses_anonymous_args = 0
 748              		@ link register save eliminated.
 749 0000 7047     		bx	lr
 751              		.section	.text.HAL_TIM_Base_DeInit,"ax",%progbits
 752              		.align	1
ARM GAS  /tmp/ccgq9aUL.s 			page 13


 753              		.global	HAL_TIM_Base_DeInit
 754              		.syntax unified
 755              		.thumb
 756              		.thumb_func
 757              		.fpu softvfp
 759              	HAL_TIM_Base_DeInit:
 760              		@ args = 0, pretend = 0, frame = 0
 761              		@ frame_needed = 0, uses_anonymous_args = 0
 762 0000 0223     		movs	r3, #2
 763 0002 41F21112 		movw	r2, #4369
 764 0006 10B5     		push	{r4, lr}
 765 0008 80F83D30 		strb	r3, [r0, #61]
 766 000c 0368     		ldr	r3, [r0]
 767 000e 0446     		mov	r4, r0
 768 0010 196A     		ldr	r1, [r3, #32]
 769 0012 1142     		tst	r1, r2
 770 0014 08D1     		bne	.L70
 771 0016 40F24442 		movw	r2, #1092
 772 001a 196A     		ldr	r1, [r3, #32]
 773 001c 1142     		tst	r1, r2
 774 001e 02BF     		ittt	eq
 775 0020 1A68     		ldreq	r2, [r3]
 776 0022 22F00102 		biceq	r2, r2, #1
 777 0026 1A60     		streq	r2, [r3]
 778              	.L70:
 779 0028 636C     		ldr	r3, [r4, #68]
 780 002a 0BB9     		cbnz	r3, .L71
 781 002c 054B     		ldr	r3, .L72
 782 002e 6364     		str	r3, [r4, #68]
 783              	.L71:
 784 0030 2046     		mov	r0, r4
 785 0032 636C     		ldr	r3, [r4, #68]
 786 0034 9847     		blx	r3
 787 0036 0020     		movs	r0, #0
 788 0038 84F83D00 		strb	r0, [r4, #61]
 789 003c 84F83C00 		strb	r0, [r4, #60]
 790 0040 10BD     		pop	{r4, pc}
 791              	.L73:
 792 0042 00BF     		.align	2
 793              	.L72:
 794 0044 00000000 		.word	HAL_TIM_Base_MspDeInit
 796              		.section	.text.HAL_TIM_Base_Start,"ax",%progbits
 797              		.align	1
 798              		.global	HAL_TIM_Base_Start
 799              		.syntax unified
 800              		.thumb
 801              		.thumb_func
 802              		.fpu softvfp
 804              	HAL_TIM_Base_Start:
 805              		@ args = 0, pretend = 0, frame = 0
 806              		@ frame_needed = 0, uses_anonymous_args = 0
 807              		@ link register save eliminated.
 808 0000 0223     		movs	r3, #2
 809 0002 80F83D30 		strb	r3, [r0, #61]
 810 0006 0368     		ldr	r3, [r0]
 811 0008 9A68     		ldr	r2, [r3, #8]
 812 000a 02F00702 		and	r2, r2, #7
ARM GAS  /tmp/ccgq9aUL.s 			page 14


 813 000e 062A     		cmp	r2, #6
 814 0010 1EBF     		ittt	ne
 815 0012 1A68     		ldrne	r2, [r3]
 816 0014 42F00102 		orrne	r2, r2, #1
 817 0018 1A60     		strne	r2, [r3]
 818 001a 0123     		movs	r3, #1
 819 001c 80F83D30 		strb	r3, [r0, #61]
 820 0020 0020     		movs	r0, #0
 821 0022 7047     		bx	lr
 823              		.section	.text.HAL_TIM_Base_Stop,"ax",%progbits
 824              		.align	1
 825              		.global	HAL_TIM_Base_Stop
 826              		.syntax unified
 827              		.thumb
 828              		.thumb_func
 829              		.fpu softvfp
 831              	HAL_TIM_Base_Stop:
 832              		@ args = 0, pretend = 0, frame = 0
 833              		@ frame_needed = 0, uses_anonymous_args = 0
 834              		@ link register save eliminated.
 835 0000 0223     		movs	r3, #2
 836 0002 41F21112 		movw	r2, #4369
 837 0006 80F83D30 		strb	r3, [r0, #61]
 838 000a 0368     		ldr	r3, [r0]
 839 000c 196A     		ldr	r1, [r3, #32]
 840 000e 1142     		tst	r1, r2
 841 0010 08D1     		bne	.L80
 842 0012 40F24442 		movw	r2, #1092
 843 0016 196A     		ldr	r1, [r3, #32]
 844 0018 1142     		tst	r1, r2
 845 001a 02BF     		ittt	eq
 846 001c 1A68     		ldreq	r2, [r3]
 847 001e 22F00102 		biceq	r2, r2, #1
 848 0022 1A60     		streq	r2, [r3]
 849              	.L80:
 850 0024 0123     		movs	r3, #1
 851 0026 80F83D30 		strb	r3, [r0, #61]
 852 002a 0020     		movs	r0, #0
 853 002c 7047     		bx	lr
 855              		.section	.text.HAL_TIM_Base_Start_IT,"ax",%progbits
 856              		.align	1
 857              		.global	HAL_TIM_Base_Start_IT
 858              		.syntax unified
 859              		.thumb
 860              		.thumb_func
 861              		.fpu softvfp
 863              	HAL_TIM_Base_Start_IT:
 864              		@ args = 0, pretend = 0, frame = 0
 865              		@ frame_needed = 0, uses_anonymous_args = 0
 866              		@ link register save eliminated.
 867 0000 0368     		ldr	r3, [r0]
 868 0002 0020     		movs	r0, #0
 869 0004 DA68     		ldr	r2, [r3, #12]
 870 0006 42F00102 		orr	r2, r2, #1
 871 000a DA60     		str	r2, [r3, #12]
 872 000c 9A68     		ldr	r2, [r3, #8]
 873 000e 02F00702 		and	r2, r2, #7
ARM GAS  /tmp/ccgq9aUL.s 			page 15


 874 0012 062A     		cmp	r2, #6
 875 0014 1EBF     		ittt	ne
 876 0016 1A68     		ldrne	r2, [r3]
 877 0018 42F00102 		orrne	r2, r2, #1
 878 001c 1A60     		strne	r2, [r3]
 879 001e 7047     		bx	lr
 881              		.section	.text.HAL_TIM_Base_Stop_IT,"ax",%progbits
 882              		.align	1
 883              		.global	HAL_TIM_Base_Stop_IT
 884              		.syntax unified
 885              		.thumb
 886              		.thumb_func
 887              		.fpu softvfp
 889              	HAL_TIM_Base_Stop_IT:
 890              		@ args = 0, pretend = 0, frame = 0
 891              		@ frame_needed = 0, uses_anonymous_args = 0
 892              		@ link register save eliminated.
 893 0000 0368     		ldr	r3, [r0]
 894 0002 DA68     		ldr	r2, [r3, #12]
 895 0004 22F00102 		bic	r2, r2, #1
 896 0008 DA60     		str	r2, [r3, #12]
 897 000a 41F21112 		movw	r2, #4369
 898 000e 196A     		ldr	r1, [r3, #32]
 899 0010 1142     		tst	r1, r2
 900 0012 08D1     		bne	.L87
 901 0014 40F24442 		movw	r2, #1092
 902 0018 196A     		ldr	r1, [r3, #32]
 903 001a 1142     		tst	r1, r2
 904 001c 02BF     		ittt	eq
 905 001e 1A68     		ldreq	r2, [r3]
 906 0020 22F00102 		biceq	r2, r2, #1
 907 0024 1A60     		streq	r2, [r3]
 908              	.L87:
 909 0026 0020     		movs	r0, #0
 910 0028 7047     		bx	lr
 912              		.section	.text.HAL_TIM_Base_Start_DMA,"ax",%progbits
 913              		.align	1
 914              		.global	HAL_TIM_Base_Start_DMA
 915              		.syntax unified
 916              		.thumb
 917              		.thumb_func
 918              		.fpu softvfp
 920              	HAL_TIM_Base_Start_DMA:
 921              		@ args = 0, pretend = 0, frame = 0
 922              		@ frame_needed = 0, uses_anonymous_args = 0
 923 0000 10B5     		push	{r4, lr}
 924 0002 1346     		mov	r3, r2
 925 0004 90F83D20 		ldrb	r2, [r0, #61]	@ zero_extendqisi2
 926 0008 0446     		mov	r4, r0
 927 000a 022A     		cmp	r2, #2
 928 000c D0B2     		uxtb	r0, r2
 929 000e 06D0     		beq	.L89
 930 0010 94F83D20 		ldrb	r2, [r4, #61]	@ zero_extendqisi2
 931 0014 012A     		cmp	r2, #1
 932 0016 06D1     		bne	.L90
 933 0018 11B9     		cbnz	r1, .L91
 934 001a 0BB1     		cbz	r3, .L91
ARM GAS  /tmp/ccgq9aUL.s 			page 16


 935              	.L92:
 936 001c 0120     		movs	r0, #1
 937              	.L89:
 938 001e 10BD     		pop	{r4, pc}
 939              	.L91:
 940 0020 0222     		movs	r2, #2
 941 0022 84F83D20 		strb	r2, [r4, #61]
 942              	.L90:
 943 0026 206A     		ldr	r0, [r4, #32]
 944 0028 0D4A     		ldr	r2, .L102
 945 002a 8262     		str	r2, [r0, #40]
 946 002c 0D4A     		ldr	r2, .L102+4
 947 002e C262     		str	r2, [r0, #44]
 948 0030 0D4A     		ldr	r2, .L102+8
 949 0032 0263     		str	r2, [r0, #48]
 950 0034 2268     		ldr	r2, [r4]
 951 0036 2C32     		adds	r2, r2, #44
 952 0038 FFF7FEFF 		bl	HAL_DMA_Start_IT
 953 003c 0028     		cmp	r0, #0
 954 003e EDD1     		bne	.L92
 955 0040 2368     		ldr	r3, [r4]
 956 0042 DA68     		ldr	r2, [r3, #12]
 957 0044 42F48072 		orr	r2, r2, #256
 958 0048 DA60     		str	r2, [r3, #12]
 959 004a 9A68     		ldr	r2, [r3, #8]
 960 004c 02F00702 		and	r2, r2, #7
 961 0050 062A     		cmp	r2, #6
 962 0052 1EBF     		ittt	ne
 963 0054 1A68     		ldrne	r2, [r3]
 964 0056 42F00102 		orrne	r2, r2, #1
 965 005a 1A60     		strne	r2, [r3]
 966 005c DFE7     		b	.L89
 967              	.L103:
 968 005e 00BF     		.align	2
 969              	.L102:
 970 0060 00000000 		.word	TIM_DMAPeriodElapsedCplt
 971 0064 00000000 		.word	TIM_DMAPeriodElapsedHalfCplt
 972 0068 00000000 		.word	TIM_DMAError
 974              		.section	.text.HAL_TIM_Base_Stop_DMA,"ax",%progbits
 975              		.align	1
 976              		.global	HAL_TIM_Base_Stop_DMA
 977              		.syntax unified
 978              		.thumb
 979              		.thumb_func
 980              		.fpu softvfp
 982              	HAL_TIM_Base_Stop_DMA:
 983              		@ args = 0, pretend = 0, frame = 0
 984              		@ frame_needed = 0, uses_anonymous_args = 0
 985 0000 0268     		ldr	r2, [r0]
 986 0002 10B5     		push	{r4, lr}
 987 0004 D368     		ldr	r3, [r2, #12]
 988 0006 0446     		mov	r4, r0
 989 0008 23F48073 		bic	r3, r3, #256
 990 000c D360     		str	r3, [r2, #12]
 991 000e 006A     		ldr	r0, [r0, #32]
 992 0010 FFF7FEFF 		bl	HAL_DMA_Abort_IT
 993 0014 41F21112 		movw	r2, #4369
ARM GAS  /tmp/ccgq9aUL.s 			page 17


 994 0018 2368     		ldr	r3, [r4]
 995 001a 196A     		ldr	r1, [r3, #32]
 996 001c 1142     		tst	r1, r2
 997 001e 08D1     		bne	.L105
 998 0020 40F24442 		movw	r2, #1092
 999 0024 196A     		ldr	r1, [r3, #32]
 1000 0026 1142     		tst	r1, r2
 1001 0028 02BF     		ittt	eq
 1002 002a 1A68     		ldreq	r2, [r3]
 1003 002c 22F00102 		biceq	r2, r2, #1
 1004 0030 1A60     		streq	r2, [r3]
 1005              	.L105:
 1006 0032 0123     		movs	r3, #1
 1007 0034 0020     		movs	r0, #0
 1008 0036 84F83D30 		strb	r3, [r4, #61]
 1009 003a 10BD     		pop	{r4, pc}
 1011              		.section	.text.HAL_TIM_OC_DeInit,"ax",%progbits
 1012              		.align	1
 1013              		.global	HAL_TIM_OC_DeInit
 1014              		.syntax unified
 1015              		.thumb
 1016              		.thumb_func
 1017              		.fpu softvfp
 1019              	HAL_TIM_OC_DeInit:
 1020              		@ args = 0, pretend = 0, frame = 0
 1021              		@ frame_needed = 0, uses_anonymous_args = 0
 1022 0000 0223     		movs	r3, #2
 1023 0002 41F21112 		movw	r2, #4369
 1024 0006 10B5     		push	{r4, lr}
 1025 0008 80F83D30 		strb	r3, [r0, #61]
 1026 000c 0368     		ldr	r3, [r0]
 1027 000e 0446     		mov	r4, r0
 1028 0010 196A     		ldr	r1, [r3, #32]
 1029 0012 1142     		tst	r1, r2
 1030 0014 08D1     		bne	.L107
 1031 0016 40F24442 		movw	r2, #1092
 1032 001a 196A     		ldr	r1, [r3, #32]
 1033 001c 1142     		tst	r1, r2
 1034 001e 02BF     		ittt	eq
 1035 0020 1A68     		ldreq	r2, [r3]
 1036 0022 22F00102 		biceq	r2, r2, #1
 1037 0026 1A60     		streq	r2, [r3]
 1038              	.L107:
 1039 0028 636D     		ldr	r3, [r4, #84]
 1040 002a 0BB9     		cbnz	r3, .L108
 1041 002c 054B     		ldr	r3, .L109
 1042 002e 6365     		str	r3, [r4, #84]
 1043              	.L108:
 1044 0030 2046     		mov	r0, r4
 1045 0032 636D     		ldr	r3, [r4, #84]
 1046 0034 9847     		blx	r3
 1047 0036 0020     		movs	r0, #0
 1048 0038 84F83D00 		strb	r0, [r4, #61]
 1049 003c 84F83C00 		strb	r0, [r4, #60]
 1050 0040 10BD     		pop	{r4, pc}
 1051              	.L110:
 1052 0042 00BF     		.align	2
ARM GAS  /tmp/ccgq9aUL.s 			page 18


 1053              	.L109:
 1054 0044 00000000 		.word	HAL_TIM_OC_MspDeInit
 1056              		.section	.text.HAL_TIM_PWM_DeInit,"ax",%progbits
 1057              		.align	1
 1058              		.global	HAL_TIM_PWM_DeInit
 1059              		.syntax unified
 1060              		.thumb
 1061              		.thumb_func
 1062              		.fpu softvfp
 1064              	HAL_TIM_PWM_DeInit:
 1065              		@ args = 0, pretend = 0, frame = 0
 1066              		@ frame_needed = 0, uses_anonymous_args = 0
 1067 0000 0223     		movs	r3, #2
 1068 0002 41F21112 		movw	r2, #4369
 1069 0006 10B5     		push	{r4, lr}
 1070 0008 80F83D30 		strb	r3, [r0, #61]
 1071 000c 0368     		ldr	r3, [r0]
 1072 000e 0446     		mov	r4, r0
 1073 0010 196A     		ldr	r1, [r3, #32]
 1074 0012 1142     		tst	r1, r2
 1075 0014 08D1     		bne	.L112
 1076 0016 40F24442 		movw	r2, #1092
 1077 001a 196A     		ldr	r1, [r3, #32]
 1078 001c 1142     		tst	r1, r2
 1079 001e 02BF     		ittt	eq
 1080 0020 1A68     		ldreq	r2, [r3]
 1081 0022 22F00102 		biceq	r2, r2, #1
 1082 0026 1A60     		streq	r2, [r3]
 1083              	.L112:
 1084 0028 E36D     		ldr	r3, [r4, #92]
 1085 002a 0BB9     		cbnz	r3, .L113
 1086 002c 054B     		ldr	r3, .L114
 1087 002e E365     		str	r3, [r4, #92]
 1088              	.L113:
 1089 0030 2046     		mov	r0, r4
 1090 0032 E36D     		ldr	r3, [r4, #92]
 1091 0034 9847     		blx	r3
 1092 0036 0020     		movs	r0, #0
 1093 0038 84F83D00 		strb	r0, [r4, #61]
 1094 003c 84F83C00 		strb	r0, [r4, #60]
 1095 0040 10BD     		pop	{r4, pc}
 1096              	.L115:
 1097 0042 00BF     		.align	2
 1098              	.L114:
 1099 0044 00000000 		.word	HAL_TIM_PWM_MspDeInit
 1101              		.section	.text.HAL_TIM_IC_DeInit,"ax",%progbits
 1102              		.align	1
 1103              		.global	HAL_TIM_IC_DeInit
 1104              		.syntax unified
 1105              		.thumb
 1106              		.thumb_func
 1107              		.fpu softvfp
 1109              	HAL_TIM_IC_DeInit:
 1110              		@ args = 0, pretend = 0, frame = 0
 1111              		@ frame_needed = 0, uses_anonymous_args = 0
 1112 0000 0223     		movs	r3, #2
 1113 0002 41F21112 		movw	r2, #4369
ARM GAS  /tmp/ccgq9aUL.s 			page 19


 1114 0006 10B5     		push	{r4, lr}
 1115 0008 80F83D30 		strb	r3, [r0, #61]
 1116 000c 0368     		ldr	r3, [r0]
 1117 000e 0446     		mov	r4, r0
 1118 0010 196A     		ldr	r1, [r3, #32]
 1119 0012 1142     		tst	r1, r2
 1120 0014 08D1     		bne	.L117
 1121 0016 40F24442 		movw	r2, #1092
 1122 001a 196A     		ldr	r1, [r3, #32]
 1123 001c 1142     		tst	r1, r2
 1124 001e 02BF     		ittt	eq
 1125 0020 1A68     		ldreq	r2, [r3]
 1126 0022 22F00102 		biceq	r2, r2, #1
 1127 0026 1A60     		streq	r2, [r3]
 1128              	.L117:
 1129 0028 E36C     		ldr	r3, [r4, #76]
 1130 002a 0BB9     		cbnz	r3, .L118
 1131 002c 054B     		ldr	r3, .L119
 1132 002e E364     		str	r3, [r4, #76]
 1133              	.L118:
 1134 0030 2046     		mov	r0, r4
 1135 0032 E36C     		ldr	r3, [r4, #76]
 1136 0034 9847     		blx	r3
 1137 0036 0020     		movs	r0, #0
 1138 0038 84F83D00 		strb	r0, [r4, #61]
 1139 003c 84F83C00 		strb	r0, [r4, #60]
 1140 0040 10BD     		pop	{r4, pc}
 1141              	.L120:
 1142 0042 00BF     		.align	2
 1143              	.L119:
 1144 0044 00000000 		.word	HAL_TIM_IC_MspDeInit
 1146              		.section	.text.HAL_TIM_OnePulse_DeInit,"ax",%progbits
 1147              		.align	1
 1148              		.global	HAL_TIM_OnePulse_DeInit
 1149              		.syntax unified
 1150              		.thumb
 1151              		.thumb_func
 1152              		.fpu softvfp
 1154              	HAL_TIM_OnePulse_DeInit:
 1155              		@ args = 0, pretend = 0, frame = 0
 1156              		@ frame_needed = 0, uses_anonymous_args = 0
 1157 0000 0223     		movs	r3, #2
 1158 0002 41F21112 		movw	r2, #4369
 1159 0006 10B5     		push	{r4, lr}
 1160 0008 80F83D30 		strb	r3, [r0, #61]
 1161 000c 0368     		ldr	r3, [r0]
 1162 000e 0446     		mov	r4, r0
 1163 0010 196A     		ldr	r1, [r3, #32]
 1164 0012 1142     		tst	r1, r2
 1165 0014 08D1     		bne	.L122
 1166 0016 40F24442 		movw	r2, #1092
 1167 001a 196A     		ldr	r1, [r3, #32]
 1168 001c 1142     		tst	r1, r2
 1169 001e 02BF     		ittt	eq
 1170 0020 1A68     		ldreq	r2, [r3]
 1171 0022 22F00102 		biceq	r2, r2, #1
 1172 0026 1A60     		streq	r2, [r3]
ARM GAS  /tmp/ccgq9aUL.s 			page 20


 1173              	.L122:
 1174 0028 636E     		ldr	r3, [r4, #100]
 1175 002a 0BB9     		cbnz	r3, .L123
 1176 002c 054B     		ldr	r3, .L124
 1177 002e 6366     		str	r3, [r4, #100]
 1178              	.L123:
 1179 0030 2046     		mov	r0, r4
 1180 0032 636E     		ldr	r3, [r4, #100]
 1181 0034 9847     		blx	r3
 1182 0036 0020     		movs	r0, #0
 1183 0038 84F83D00 		strb	r0, [r4, #61]
 1184 003c 84F83C00 		strb	r0, [r4, #60]
 1185 0040 10BD     		pop	{r4, pc}
 1186              	.L125:
 1187 0042 00BF     		.align	2
 1188              	.L124:
 1189 0044 00000000 		.word	HAL_TIM_OnePulse_MspDeInit
 1191              		.section	.text.HAL_TIM_OnePulse_Start,"ax",%progbits
 1192              		.align	1
 1193              		.global	HAL_TIM_OnePulse_Start
 1194              		.syntax unified
 1195              		.thumb
 1196              		.thumb_func
 1197              		.fpu softvfp
 1199              	HAL_TIM_OnePulse_Start:
 1200              		@ args = 0, pretend = 0, frame = 0
 1201              		@ frame_needed = 0, uses_anonymous_args = 0
 1202              		@ link register save eliminated.
 1203 0000 0368     		ldr	r3, [r0]
 1204 0002 1A6A     		ldr	r2, [r3, #32]
 1205 0004 22F00102 		bic	r2, r2, #1
 1206 0008 1A62     		str	r2, [r3, #32]
 1207 000a 1A6A     		ldr	r2, [r3, #32]
 1208 000c 42F00102 		orr	r2, r2, #1
 1209 0010 1A62     		str	r2, [r3, #32]
 1210 0012 1A6A     		ldr	r2, [r3, #32]
 1211 0014 22F01002 		bic	r2, r2, #16
 1212 0018 1A62     		str	r2, [r3, #32]
 1213 001a 1A6A     		ldr	r2, [r3, #32]
 1214 001c 42F01002 		orr	r2, r2, #16
 1215 0020 1A62     		str	r2, [r3, #32]
 1216 0022 064A     		ldr	r2, .L129
 1217 0024 9342     		cmp	r3, r2
 1218 0026 03D0     		beq	.L127
 1219 0028 02F50062 		add	r2, r2, #2048
 1220 002c 9342     		cmp	r3, r2
 1221 002e 03D1     		bne	.L128
 1222              	.L127:
 1223 0030 5A6C     		ldr	r2, [r3, #68]
 1224 0032 42F40042 		orr	r2, r2, #32768
 1225 0036 5A64     		str	r2, [r3, #68]
 1226              	.L128:
 1227 0038 0020     		movs	r0, #0
 1228 003a 7047     		bx	lr
 1229              	.L130:
 1230              		.align	2
 1231              	.L129:
ARM GAS  /tmp/ccgq9aUL.s 			page 21


 1232 003c 002C0140 		.word	1073818624
 1234              		.section	.text.HAL_TIM_OnePulse_Stop,"ax",%progbits
 1235              		.align	1
 1236              		.global	HAL_TIM_OnePulse_Stop
 1237              		.syntax unified
 1238              		.thumb
 1239              		.thumb_func
 1240              		.fpu softvfp
 1242              	HAL_TIM_OnePulse_Stop:
 1243              		@ args = 0, pretend = 0, frame = 0
 1244              		@ frame_needed = 0, uses_anonymous_args = 0
 1245              		@ link register save eliminated.
 1246 0000 0368     		ldr	r3, [r0]
 1247 0002 1A6A     		ldr	r2, [r3, #32]
 1248 0004 22F00102 		bic	r2, r2, #1
 1249 0008 1A62     		str	r2, [r3, #32]
 1250 000a 1A6A     		ldr	r2, [r3, #32]
 1251 000c 1A62     		str	r2, [r3, #32]
 1252 000e 1A6A     		ldr	r2, [r3, #32]
 1253 0010 22F01002 		bic	r2, r2, #16
 1254 0014 1A62     		str	r2, [r3, #32]
 1255 0016 1A6A     		ldr	r2, [r3, #32]
 1256 0018 1A62     		str	r2, [r3, #32]
 1257 001a 124A     		ldr	r2, .L135
 1258 001c 9342     		cmp	r3, r2
 1259 001e 03D0     		beq	.L132
 1260 0020 02F50062 		add	r2, r2, #2048
 1261 0024 9342     		cmp	r3, r2
 1262 0026 0DD1     		bne	.L133
 1263              	.L132:
 1264 0028 41F21112 		movw	r2, #4369
 1265 002c 196A     		ldr	r1, [r3, #32]
 1266 002e 1142     		tst	r1, r2
 1267 0030 08D1     		bne	.L133
 1268 0032 40F24442 		movw	r2, #1092
 1269 0036 196A     		ldr	r1, [r3, #32]
 1270 0038 1142     		tst	r1, r2
 1271 003a 02BF     		ittt	eq
 1272 003c 5A6C     		ldreq	r2, [r3, #68]
 1273 003e 22F40042 		biceq	r2, r2, #32768
 1274 0042 5A64     		streq	r2, [r3, #68]
 1275              	.L133:
 1276 0044 41F21112 		movw	r2, #4369
 1277 0048 196A     		ldr	r1, [r3, #32]
 1278 004a 1142     		tst	r1, r2
 1279 004c 08D1     		bne	.L134
 1280 004e 40F24442 		movw	r2, #1092
 1281 0052 196A     		ldr	r1, [r3, #32]
 1282 0054 1142     		tst	r1, r2
 1283 0056 02BF     		ittt	eq
 1284 0058 1A68     		ldreq	r2, [r3]
 1285 005a 22F00102 		biceq	r2, r2, #1
 1286 005e 1A60     		streq	r2, [r3]
 1287              	.L134:
 1288 0060 0020     		movs	r0, #0
 1289 0062 7047     		bx	lr
 1290              	.L136:
ARM GAS  /tmp/ccgq9aUL.s 			page 22


 1291              		.align	2
 1292              	.L135:
 1293 0064 002C0140 		.word	1073818624
 1295              		.section	.text.HAL_TIM_OnePulse_Start_IT,"ax",%progbits
 1296              		.align	1
 1297              		.global	HAL_TIM_OnePulse_Start_IT
 1298              		.syntax unified
 1299              		.thumb
 1300              		.thumb_func
 1301              		.fpu softvfp
 1303              	HAL_TIM_OnePulse_Start_IT:
 1304              		@ args = 0, pretend = 0, frame = 0
 1305              		@ frame_needed = 0, uses_anonymous_args = 0
 1306              		@ link register save eliminated.
 1307 0000 0368     		ldr	r3, [r0]
 1308 0002 DA68     		ldr	r2, [r3, #12]
 1309 0004 42F00202 		orr	r2, r2, #2
 1310 0008 DA60     		str	r2, [r3, #12]
 1311 000a DA68     		ldr	r2, [r3, #12]
 1312 000c 42F00402 		orr	r2, r2, #4
 1313 0010 DA60     		str	r2, [r3, #12]
 1314 0012 1A6A     		ldr	r2, [r3, #32]
 1315 0014 22F00102 		bic	r2, r2, #1
 1316 0018 1A62     		str	r2, [r3, #32]
 1317 001a 1A6A     		ldr	r2, [r3, #32]
 1318 001c 42F00102 		orr	r2, r2, #1
 1319 0020 1A62     		str	r2, [r3, #32]
 1320 0022 1A6A     		ldr	r2, [r3, #32]
 1321 0024 22F01002 		bic	r2, r2, #16
 1322 0028 1A62     		str	r2, [r3, #32]
 1323 002a 1A6A     		ldr	r2, [r3, #32]
 1324 002c 42F01002 		orr	r2, r2, #16
 1325 0030 1A62     		str	r2, [r3, #32]
 1326 0032 064A     		ldr	r2, .L140
 1327 0034 9342     		cmp	r3, r2
 1328 0036 03D0     		beq	.L138
 1329 0038 02F50062 		add	r2, r2, #2048
 1330 003c 9342     		cmp	r3, r2
 1331 003e 03D1     		bne	.L139
 1332              	.L138:
 1333 0040 5A6C     		ldr	r2, [r3, #68]
 1334 0042 42F40042 		orr	r2, r2, #32768
 1335 0046 5A64     		str	r2, [r3, #68]
 1336              	.L139:
 1337 0048 0020     		movs	r0, #0
 1338 004a 7047     		bx	lr
 1339              	.L141:
 1340              		.align	2
 1341              	.L140:
 1342 004c 002C0140 		.word	1073818624
 1344              		.section	.text.HAL_TIM_OnePulse_Stop_IT,"ax",%progbits
 1345              		.align	1
 1346              		.global	HAL_TIM_OnePulse_Stop_IT
 1347              		.syntax unified
 1348              		.thumb
 1349              		.thumb_func
 1350              		.fpu softvfp
ARM GAS  /tmp/ccgq9aUL.s 			page 23


 1352              	HAL_TIM_OnePulse_Stop_IT:
 1353              		@ args = 0, pretend = 0, frame = 0
 1354              		@ frame_needed = 0, uses_anonymous_args = 0
 1355              		@ link register save eliminated.
 1356 0000 0368     		ldr	r3, [r0]
 1357 0002 DA68     		ldr	r2, [r3, #12]
 1358 0004 22F00202 		bic	r2, r2, #2
 1359 0008 DA60     		str	r2, [r3, #12]
 1360 000a DA68     		ldr	r2, [r3, #12]
 1361 000c 22F00402 		bic	r2, r2, #4
 1362 0010 DA60     		str	r2, [r3, #12]
 1363 0012 1A6A     		ldr	r2, [r3, #32]
 1364 0014 22F00102 		bic	r2, r2, #1
 1365 0018 1A62     		str	r2, [r3, #32]
 1366 001a 1A6A     		ldr	r2, [r3, #32]
 1367 001c 1A62     		str	r2, [r3, #32]
 1368 001e 1A6A     		ldr	r2, [r3, #32]
 1369 0020 22F01002 		bic	r2, r2, #16
 1370 0024 1A62     		str	r2, [r3, #32]
 1371 0026 1A6A     		ldr	r2, [r3, #32]
 1372 0028 1A62     		str	r2, [r3, #32]
 1373 002a 124A     		ldr	r2, .L146
 1374 002c 9342     		cmp	r3, r2
 1375 002e 03D0     		beq	.L143
 1376 0030 02F50062 		add	r2, r2, #2048
 1377 0034 9342     		cmp	r3, r2
 1378 0036 0DD1     		bne	.L144
 1379              	.L143:
 1380 0038 41F21112 		movw	r2, #4369
 1381 003c 196A     		ldr	r1, [r3, #32]
 1382 003e 1142     		tst	r1, r2
 1383 0040 08D1     		bne	.L144
 1384 0042 40F24442 		movw	r2, #1092
 1385 0046 196A     		ldr	r1, [r3, #32]
 1386 0048 1142     		tst	r1, r2
 1387 004a 02BF     		ittt	eq
 1388 004c 5A6C     		ldreq	r2, [r3, #68]
 1389 004e 22F40042 		biceq	r2, r2, #32768
 1390 0052 5A64     		streq	r2, [r3, #68]
 1391              	.L144:
 1392 0054 41F21112 		movw	r2, #4369
 1393 0058 196A     		ldr	r1, [r3, #32]
 1394 005a 1142     		tst	r1, r2
 1395 005c 08D1     		bne	.L145
 1396 005e 40F24442 		movw	r2, #1092
 1397 0062 196A     		ldr	r1, [r3, #32]
 1398 0064 1142     		tst	r1, r2
 1399 0066 02BF     		ittt	eq
 1400 0068 1A68     		ldreq	r2, [r3]
 1401 006a 22F00102 		biceq	r2, r2, #1
 1402 006e 1A60     		streq	r2, [r3]
 1403              	.L145:
 1404 0070 0020     		movs	r0, #0
 1405 0072 7047     		bx	lr
 1406              	.L147:
 1407              		.align	2
 1408              	.L146:
ARM GAS  /tmp/ccgq9aUL.s 			page 24


 1409 0074 002C0140 		.word	1073818624
 1411              		.section	.text.HAL_TIM_Encoder_DeInit,"ax",%progbits
 1412              		.align	1
 1413              		.global	HAL_TIM_Encoder_DeInit
 1414              		.syntax unified
 1415              		.thumb
 1416              		.thumb_func
 1417              		.fpu softvfp
 1419              	HAL_TIM_Encoder_DeInit:
 1420              		@ args = 0, pretend = 0, frame = 0
 1421              		@ frame_needed = 0, uses_anonymous_args = 0
 1422 0000 0223     		movs	r3, #2
 1423 0002 41F21112 		movw	r2, #4369
 1424 0006 10B5     		push	{r4, lr}
 1425 0008 80F83D30 		strb	r3, [r0, #61]
 1426 000c 0368     		ldr	r3, [r0]
 1427 000e 0446     		mov	r4, r0
 1428 0010 196A     		ldr	r1, [r3, #32]
 1429 0012 1142     		tst	r1, r2
 1430 0014 08D1     		bne	.L149
 1431 0016 40F24442 		movw	r2, #1092
 1432 001a 196A     		ldr	r1, [r3, #32]
 1433 001c 1142     		tst	r1, r2
 1434 001e 02BF     		ittt	eq
 1435 0020 1A68     		ldreq	r2, [r3]
 1436 0022 22F00102 		biceq	r2, r2, #1
 1437 0026 1A60     		streq	r2, [r3]
 1438              	.L149:
 1439 0028 E36E     		ldr	r3, [r4, #108]
 1440 002a 0BB9     		cbnz	r3, .L150
 1441 002c 054B     		ldr	r3, .L151
 1442 002e E366     		str	r3, [r4, #108]
 1443              	.L150:
 1444 0030 2046     		mov	r0, r4
 1445 0032 E36E     		ldr	r3, [r4, #108]
 1446 0034 9847     		blx	r3
 1447 0036 0020     		movs	r0, #0
 1448 0038 84F83D00 		strb	r0, [r4, #61]
 1449 003c 84F83C00 		strb	r0, [r4, #60]
 1450 0040 10BD     		pop	{r4, pc}
 1451              	.L152:
 1452 0042 00BF     		.align	2
 1453              	.L151:
 1454 0044 00000000 		.word	HAL_TIM_Encoder_MspDeInit
 1456              		.section	.text.HAL_TIM_Encoder_Start,"ax",%progbits
 1457              		.align	1
 1458              		.global	HAL_TIM_Encoder_Start
 1459              		.syntax unified
 1460              		.thumb
 1461              		.thumb_func
 1462              		.fpu softvfp
 1464              	HAL_TIM_Encoder_Start:
 1465              		@ args = 0, pretend = 0, frame = 0
 1466              		@ frame_needed = 0, uses_anonymous_args = 0
 1467              		@ link register save eliminated.
 1468 0000 0368     		ldr	r3, [r0]
 1469 0002 89B1     		cbz	r1, .L154
ARM GAS  /tmp/ccgq9aUL.s 			page 25


 1470 0004 0429     		cmp	r1, #4
 1471 0006 07D0     		beq	.L160
 1472 0008 1A6A     		ldr	r2, [r3, #32]
 1473 000a 22F00102 		bic	r2, r2, #1
 1474 000e 1A62     		str	r2, [r3, #32]
 1475 0010 1A6A     		ldr	r2, [r3, #32]
 1476 0012 42F00102 		orr	r2, r2, #1
 1477 0016 1A62     		str	r2, [r3, #32]
 1478              	.L160:
 1479 0018 1A6A     		ldr	r2, [r3, #32]
 1480 001a 22F01002 		bic	r2, r2, #16
 1481 001e 1A62     		str	r2, [r3, #32]
 1482 0020 1A6A     		ldr	r2, [r3, #32]
 1483 0022 42F01002 		orr	r2, r2, #16
 1484 0026 06E0     		b	.L159
 1485              	.L154:
 1486 0028 1A6A     		ldr	r2, [r3, #32]
 1487 002a 22F00102 		bic	r2, r2, #1
 1488 002e 1A62     		str	r2, [r3, #32]
 1489 0030 1A6A     		ldr	r2, [r3, #32]
 1490 0032 42F00102 		orr	r2, r2, #1
 1491              	.L159:
 1492 0036 1A62     		str	r2, [r3, #32]
 1493 0038 1A68     		ldr	r2, [r3]
 1494 003a 0020     		movs	r0, #0
 1495 003c 42F00102 		orr	r2, r2, #1
 1496 0040 1A60     		str	r2, [r3]
 1497 0042 7047     		bx	lr
 1499              		.section	.text.HAL_TIM_Encoder_Stop,"ax",%progbits
 1500              		.align	1
 1501              		.global	HAL_TIM_Encoder_Stop
 1502              		.syntax unified
 1503              		.thumb
 1504              		.thumb_func
 1505              		.fpu softvfp
 1507              	HAL_TIM_Encoder_Stop:
 1508              		@ args = 0, pretend = 0, frame = 0
 1509              		@ frame_needed = 0, uses_anonymous_args = 0
 1510              		@ link register save eliminated.
 1511 0000 0368     		ldr	r3, [r0]
 1512 0002 59B1     		cbz	r1, .L162
 1513 0004 0429     		cmp	r1, #4
 1514 0006 05D0     		beq	.L169
 1515 0008 1A6A     		ldr	r2, [r3, #32]
 1516 000a 22F00102 		bic	r2, r2, #1
 1517 000e 1A62     		str	r2, [r3, #32]
 1518 0010 1A6A     		ldr	r2, [r3, #32]
 1519 0012 1A62     		str	r2, [r3, #32]
 1520              	.L169:
 1521 0014 1A6A     		ldr	r2, [r3, #32]
 1522 0016 22F01002 		bic	r2, r2, #16
 1523 001a 02E0     		b	.L168
 1524              	.L162:
 1525 001c 1A6A     		ldr	r2, [r3, #32]
 1526 001e 22F00102 		bic	r2, r2, #1
 1527              	.L168:
 1528 0022 1A62     		str	r2, [r3, #32]
ARM GAS  /tmp/ccgq9aUL.s 			page 26


 1529 0024 1A6A     		ldr	r2, [r3, #32]
 1530 0026 1A62     		str	r2, [r3, #32]
 1531 0028 41F21112 		movw	r2, #4369
 1532 002c 196A     		ldr	r1, [r3, #32]
 1533 002e 1142     		tst	r1, r2
 1534 0030 08D1     		bne	.L166
 1535 0032 40F24442 		movw	r2, #1092
 1536 0036 196A     		ldr	r1, [r3, #32]
 1537 0038 1142     		tst	r1, r2
 1538 003a 02BF     		ittt	eq
 1539 003c 1A68     		ldreq	r2, [r3]
 1540 003e 22F00102 		biceq	r2, r2, #1
 1541 0042 1A60     		streq	r2, [r3]
 1542              	.L166:
 1543 0044 0020     		movs	r0, #0
 1544 0046 7047     		bx	lr
 1546              		.section	.text.HAL_TIM_Encoder_Start_IT,"ax",%progbits
 1547              		.align	1
 1548              		.global	HAL_TIM_Encoder_Start_IT
 1549              		.syntax unified
 1550              		.thumb
 1551              		.thumb_func
 1552              		.fpu softvfp
 1554              	HAL_TIM_Encoder_Start_IT:
 1555              		@ args = 0, pretend = 0, frame = 0
 1556              		@ frame_needed = 0, uses_anonymous_args = 0
 1557              		@ link register save eliminated.
 1558 0000 0368     		ldr	r3, [r0]
 1559 0002 B1B1     		cbz	r1, .L171
 1560 0004 0429     		cmp	r1, #4
 1561 0006 26D0     		beq	.L172
 1562 0008 1A6A     		ldr	r2, [r3, #32]
 1563 000a 22F00102 		bic	r2, r2, #1
 1564 000e 1A62     		str	r2, [r3, #32]
 1565 0010 1A6A     		ldr	r2, [r3, #32]
 1566 0012 42F00102 		orr	r2, r2, #1
 1567 0016 1A62     		str	r2, [r3, #32]
 1568 0018 1A6A     		ldr	r2, [r3, #32]
 1569 001a 22F01002 		bic	r2, r2, #16
 1570 001e 1A62     		str	r2, [r3, #32]
 1571 0020 1A6A     		ldr	r2, [r3, #32]
 1572 0022 42F01002 		orr	r2, r2, #16
 1573 0026 1A62     		str	r2, [r3, #32]
 1574 0028 DA68     		ldr	r2, [r3, #12]
 1575 002a 42F00202 		orr	r2, r2, #2
 1576 002e DA60     		str	r2, [r3, #12]
 1577 0030 19E0     		b	.L177
 1578              	.L171:
 1579 0032 1A6A     		ldr	r2, [r3, #32]
 1580 0034 22F00102 		bic	r2, r2, #1
 1581 0038 1A62     		str	r2, [r3, #32]
 1582 003a 1A6A     		ldr	r2, [r3, #32]
 1583 003c 42F00102 		orr	r2, r2, #1
 1584 0040 1A62     		str	r2, [r3, #32]
 1585 0042 DA68     		ldr	r2, [r3, #12]
 1586 0044 42F00202 		orr	r2, r2, #2
 1587              	.L176:
ARM GAS  /tmp/ccgq9aUL.s 			page 27


 1588 0048 DA60     		str	r2, [r3, #12]
 1589 004a 1A68     		ldr	r2, [r3]
 1590 004c 0020     		movs	r0, #0
 1591 004e 42F00102 		orr	r2, r2, #1
 1592 0052 1A60     		str	r2, [r3]
 1593 0054 7047     		bx	lr
 1594              	.L172:
 1595 0056 1A6A     		ldr	r2, [r3, #32]
 1596 0058 22F01002 		bic	r2, r2, #16
 1597 005c 1A62     		str	r2, [r3, #32]
 1598 005e 1A6A     		ldr	r2, [r3, #32]
 1599 0060 42F01002 		orr	r2, r2, #16
 1600 0064 1A62     		str	r2, [r3, #32]
 1601              	.L177:
 1602 0066 DA68     		ldr	r2, [r3, #12]
 1603 0068 42F00402 		orr	r2, r2, #4
 1604 006c ECE7     		b	.L176
 1606              		.section	.text.HAL_TIM_Encoder_Stop_IT,"ax",%progbits
 1607              		.align	1
 1608              		.global	HAL_TIM_Encoder_Stop_IT
 1609              		.syntax unified
 1610              		.thumb
 1611              		.thumb_func
 1612              		.fpu softvfp
 1614              	HAL_TIM_Encoder_Stop_IT:
 1615              		@ args = 0, pretend = 0, frame = 0
 1616              		@ frame_needed = 0, uses_anonymous_args = 0
 1617              		@ link register save eliminated.
 1618 0000 0368     		ldr	r3, [r0]
 1619 0002 1A6A     		ldr	r2, [r3, #32]
 1620 0004 D9B9     		cbnz	r1, .L179
 1621 0006 22F00102 		bic	r2, r2, #1
 1622 000a 1A62     		str	r2, [r3, #32]
 1623 000c 1A6A     		ldr	r2, [r3, #32]
 1624 000e 1A62     		str	r2, [r3, #32]
 1625 0010 DA68     		ldr	r2, [r3, #12]
 1626 0012 22F00202 		bic	r2, r2, #2
 1627              	.L183:
 1628 0016 DA60     		str	r2, [r3, #12]
 1629 0018 41F21112 		movw	r2, #4369
 1630 001c 196A     		ldr	r1, [r3, #32]
 1631 001e 1142     		tst	r1, r2
 1632 0020 08D1     		bne	.L182
 1633 0022 40F24442 		movw	r2, #1092
 1634 0026 196A     		ldr	r1, [r3, #32]
 1635 0028 1142     		tst	r1, r2
 1636 002a 02BF     		ittt	eq
 1637 002c 1A68     		ldreq	r2, [r3]
 1638 002e 22F00102 		biceq	r2, r2, #1
 1639 0032 1A60     		streq	r2, [r3]
 1640              	.L182:
 1641 0034 0123     		movs	r3, #1
 1642 0036 80F83D30 		strb	r3, [r0, #61]
 1643 003a 0020     		movs	r0, #0
 1644 003c 7047     		bx	lr
 1645              	.L179:
 1646 003e 0429     		cmp	r1, #4
ARM GAS  /tmp/ccgq9aUL.s 			page 28


 1647 0040 08D1     		bne	.L181
 1648 0042 22F01002 		bic	r2, r2, #16
 1649 0046 1A62     		str	r2, [r3, #32]
 1650 0048 1A6A     		ldr	r2, [r3, #32]
 1651 004a 1A62     		str	r2, [r3, #32]
 1652              	.L184:
 1653 004c DA68     		ldr	r2, [r3, #12]
 1654 004e 22F00402 		bic	r2, r2, #4
 1655 0052 E0E7     		b	.L183
 1656              	.L181:
 1657 0054 22F00102 		bic	r2, r2, #1
 1658 0058 1A62     		str	r2, [r3, #32]
 1659 005a 1A6A     		ldr	r2, [r3, #32]
 1660 005c 1A62     		str	r2, [r3, #32]
 1661 005e 1A6A     		ldr	r2, [r3, #32]
 1662 0060 22F01002 		bic	r2, r2, #16
 1663 0064 1A62     		str	r2, [r3, #32]
 1664 0066 1A6A     		ldr	r2, [r3, #32]
 1665 0068 1A62     		str	r2, [r3, #32]
 1666 006a DA68     		ldr	r2, [r3, #12]
 1667 006c 22F00202 		bic	r2, r2, #2
 1668 0070 DA60     		str	r2, [r3, #12]
 1669 0072 EBE7     		b	.L184
 1671              		.section	.text.HAL_TIM_Encoder_Start_DMA,"ax",%progbits
 1672              		.align	1
 1673              		.global	HAL_TIM_Encoder_Start_DMA
 1674              		.syntax unified
 1675              		.thumb
 1676              		.thumb_func
 1677              		.fpu softvfp
 1679              	HAL_TIM_Encoder_Start_DMA:
 1680              		@ args = 4, pretend = 0, frame = 0
 1681              		@ frame_needed = 0, uses_anonymous_args = 0
 1682 0000 2DE9F843 		push	{r3, r4, r5, r6, r7, r8, r9, lr}
 1683 0004 1D46     		mov	r5, r3
 1684 0006 90F83D30 		ldrb	r3, [r0, #61]	@ zero_extendqisi2
 1685 000a 0446     		mov	r4, r0
 1686 000c 022B     		cmp	r3, #2
 1687 000e BDF82060 		ldrh	r6, [sp, #32]
 1688 0012 D8B2     		uxtb	r0, r3
 1689 0014 07D0     		beq	.L186
 1690 0016 94F83D30 		ldrb	r3, [r4, #61]	@ zero_extendqisi2
 1691 001a 012B     		cmp	r3, #1
 1692 001c 08D1     		bne	.L187
 1693 001e 02B1     		cbz	r2, .L188
 1694 0020 1DB9     		cbnz	r5, .L189
 1695              	.L188:
 1696 0022 16B1     		cbz	r6, .L189
 1697              	.L192:
 1698 0024 0120     		movs	r0, #1
 1699              	.L186:
 1700 0026 BDE8F883 		pop	{r3, r4, r5, r6, r7, r8, r9, pc}
 1701              	.L189:
 1702 002a 0223     		movs	r3, #2
 1703 002c 84F83D30 		strb	r3, [r4, #61]
 1704              	.L187:
 1705 0030 0429     		cmp	r1, #4
ARM GAS  /tmp/ccgq9aUL.s 			page 29


 1706 0032 23D0     		beq	.L190
 1707 0034 3C29     		cmp	r1, #60
 1708 0036 41D0     		beq	.L191
 1709 0038 0029     		cmp	r1, #0
 1710 003a 7BD1     		bne	.L193
 1711 003c 606A     		ldr	r0, [r4, #36]
 1712 003e 3E4B     		ldr	r3, .L204
 1713 0040 2168     		ldr	r1, [r4]
 1714 0042 8362     		str	r3, [r0, #40]
 1715 0044 3D4B     		ldr	r3, .L204+4
 1716 0046 3431     		adds	r1, r1, #52
 1717 0048 C362     		str	r3, [r0, #44]
 1718 004a 3D4B     		ldr	r3, .L204+8
 1719 004c 0363     		str	r3, [r0, #48]
 1720 004e 3346     		mov	r3, r6
 1721 0050 FFF7FEFF 		bl	HAL_DMA_Start_IT
 1722 0054 0028     		cmp	r0, #0
 1723 0056 E5D1     		bne	.L192
 1724 0058 2368     		ldr	r3, [r4]
 1725 005a DA68     		ldr	r2, [r3, #12]
 1726 005c 42F40072 		orr	r2, r2, #512
 1727 0060 DA60     		str	r2, [r3, #12]
 1728 0062 1A68     		ldr	r2, [r3]
 1729 0064 42F00102 		orr	r2, r2, #1
 1730 0068 1A60     		str	r2, [r3]
 1731 006a 1A6A     		ldr	r2, [r3, #32]
 1732 006c 22F00102 		bic	r2, r2, #1
 1733 0070 1A62     		str	r2, [r3, #32]
 1734 0072 1A6A     		ldr	r2, [r3, #32]
 1735 0074 42F00102 		orr	r2, r2, #1
 1736              	.L203:
 1737 0078 1A62     		str	r2, [r3, #32]
 1738 007a D4E7     		b	.L186
 1739              	.L190:
 1740 007c A06A     		ldr	r0, [r4, #40]
 1741 007e 2E4B     		ldr	r3, .L204
 1742 0080 2168     		ldr	r1, [r4]
 1743 0082 8362     		str	r3, [r0, #40]
 1744 0084 2D4B     		ldr	r3, .L204+4
 1745 0086 2A46     		mov	r2, r5
 1746 0088 C362     		str	r3, [r0, #44]
 1747 008a 2D4B     		ldr	r3, .L204+8
 1748 008c 3831     		adds	r1, r1, #56
 1749 008e 0363     		str	r3, [r0, #48]
 1750 0090 3346     		mov	r3, r6
 1751 0092 FFF7FEFF 		bl	HAL_DMA_Start_IT
 1752 0096 0028     		cmp	r0, #0
 1753 0098 C4D1     		bne	.L192
 1754 009a 2368     		ldr	r3, [r4]
 1755 009c DA68     		ldr	r2, [r3, #12]
 1756 009e 42F48062 		orr	r2, r2, #1024
 1757 00a2 DA60     		str	r2, [r3, #12]
 1758 00a4 1A68     		ldr	r2, [r3]
 1759 00a6 42F00102 		orr	r2, r2, #1
 1760 00aa 1A60     		str	r2, [r3]
 1761 00ac 1A6A     		ldr	r2, [r3, #32]
 1762 00ae 22F01002 		bic	r2, r2, #16
ARM GAS  /tmp/ccgq9aUL.s 			page 30


 1763 00b2 1A62     		str	r2, [r3, #32]
 1764 00b4 1A6A     		ldr	r2, [r3, #32]
 1765 00b6 42F01002 		orr	r2, r2, #16
 1766 00ba DDE7     		b	.L203
 1767              	.L191:
 1768 00bc 606A     		ldr	r0, [r4, #36]
 1769 00be DFF87890 		ldr	r9, .L204
 1770 00c2 DFF87880 		ldr	r8, .L204+4
 1771 00c6 1E4F     		ldr	r7, .L204+8
 1772 00c8 2168     		ldr	r1, [r4]
 1773 00ca 3346     		mov	r3, r6
 1774 00cc C0F82890 		str	r9, [r0, #40]
 1775 00d0 C0F82C80 		str	r8, [r0, #44]
 1776 00d4 0763     		str	r7, [r0, #48]
 1777 00d6 3431     		adds	r1, r1, #52
 1778 00d8 FFF7FEFF 		bl	HAL_DMA_Start_IT
 1779 00dc 0028     		cmp	r0, #0
 1780 00de A1D1     		bne	.L192
 1781 00e0 A06A     		ldr	r0, [r4, #40]
 1782 00e2 2168     		ldr	r1, [r4]
 1783 00e4 3346     		mov	r3, r6
 1784 00e6 2A46     		mov	r2, r5
 1785 00e8 C0E90A98 		strd	r9, r8, [r0, #40]
 1786 00ec 0763     		str	r7, [r0, #48]
 1787 00ee 3831     		adds	r1, r1, #56
 1788 00f0 FFF7FEFF 		bl	HAL_DMA_Start_IT
 1789 00f4 0028     		cmp	r0, #0
 1790 00f6 95D1     		bne	.L192
 1791 00f8 2368     		ldr	r3, [r4]
 1792 00fa 1A68     		ldr	r2, [r3]
 1793 00fc 42F00102 		orr	r2, r2, #1
 1794 0100 1A60     		str	r2, [r3]
 1795 0102 1A6A     		ldr	r2, [r3, #32]
 1796 0104 22F00102 		bic	r2, r2, #1
 1797 0108 1A62     		str	r2, [r3, #32]
 1798 010a 1A6A     		ldr	r2, [r3, #32]
 1799 010c 42F00102 		orr	r2, r2, #1
 1800 0110 1A62     		str	r2, [r3, #32]
 1801 0112 1A6A     		ldr	r2, [r3, #32]
 1802 0114 22F01002 		bic	r2, r2, #16
 1803 0118 1A62     		str	r2, [r3, #32]
 1804 011a 1A6A     		ldr	r2, [r3, #32]
 1805 011c 42F01002 		orr	r2, r2, #16
 1806 0120 1A62     		str	r2, [r3, #32]
 1807 0122 DA68     		ldr	r2, [r3, #12]
 1808 0124 42F40072 		orr	r2, r2, #512
 1809 0128 DA60     		str	r2, [r3, #12]
 1810 012a DA68     		ldr	r2, [r3, #12]
 1811 012c 42F48062 		orr	r2, r2, #1024
 1812 0130 DA60     		str	r2, [r3, #12]
 1813 0132 78E7     		b	.L186
 1814              	.L193:
 1815 0134 0020     		movs	r0, #0
 1816 0136 76E7     		b	.L186
 1817              	.L205:
 1818              		.align	2
 1819              	.L204:
ARM GAS  /tmp/ccgq9aUL.s 			page 31


 1820 0138 00000000 		.word	TIM_DMACaptureCplt
 1821 013c 00000000 		.word	TIM_DMACaptureHalfCplt
 1822 0140 00000000 		.word	TIM_DMAError
 1824              		.section	.text.HAL_TIM_Encoder_Stop_DMA,"ax",%progbits
 1825              		.align	1
 1826              		.global	HAL_TIM_Encoder_Stop_DMA
 1827              		.syntax unified
 1828              		.thumb
 1829              		.thumb_func
 1830              		.fpu softvfp
 1832              	HAL_TIM_Encoder_Stop_DMA:
 1833              		@ args = 0, pretend = 0, frame = 0
 1834              		@ frame_needed = 0, uses_anonymous_args = 0
 1835 0000 0368     		ldr	r3, [r0]
 1836 0002 10B5     		push	{r4, lr}
 1837 0004 1A6A     		ldr	r2, [r3, #32]
 1838 0006 0446     		mov	r4, r0
 1839 0008 F9B9     		cbnz	r1, .L207
 1840 000a 22F00102 		bic	r2, r2, #1
 1841 000e 1A62     		str	r2, [r3, #32]
 1842 0010 1A6A     		ldr	r2, [r3, #32]
 1843 0012 406A     		ldr	r0, [r0, #36]
 1844 0014 1A62     		str	r2, [r3, #32]
 1845 0016 DA68     		ldr	r2, [r3, #12]
 1846 0018 22F40072 		bic	r2, r2, #512
 1847 001c DA60     		str	r2, [r3, #12]
 1848              	.L211:
 1849 001e FFF7FEFF 		bl	HAL_DMA_Abort_IT
 1850 0022 41F21112 		movw	r2, #4369
 1851 0026 2368     		ldr	r3, [r4]
 1852 0028 196A     		ldr	r1, [r3, #32]
 1853 002a 1142     		tst	r1, r2
 1854 002c 08D1     		bne	.L210
 1855 002e 40F24442 		movw	r2, #1092
 1856 0032 196A     		ldr	r1, [r3, #32]
 1857 0034 1142     		tst	r1, r2
 1858 0036 02BF     		ittt	eq
 1859 0038 1A68     		ldreq	r2, [r3]
 1860 003a 22F00102 		biceq	r2, r2, #1
 1861 003e 1A60     		streq	r2, [r3]
 1862              	.L210:
 1863 0040 0123     		movs	r3, #1
 1864 0042 0020     		movs	r0, #0
 1865 0044 84F83D30 		strb	r3, [r4, #61]
 1866 0048 10BD     		pop	{r4, pc}
 1867              	.L207:
 1868 004a 0429     		cmp	r1, #4
 1869 004c 0AD1     		bne	.L209
 1870 004e 22F01002 		bic	r2, r2, #16
 1871 0052 1A62     		str	r2, [r3, #32]
 1872 0054 1A6A     		ldr	r2, [r3, #32]
 1873 0056 1A62     		str	r2, [r3, #32]
 1874 0058 DA68     		ldr	r2, [r3, #12]
 1875 005a 22F48062 		bic	r2, r2, #1024
 1876 005e DA60     		str	r2, [r3, #12]
 1877              	.L212:
 1878 0060 A06A     		ldr	r0, [r4, #40]
ARM GAS  /tmp/ccgq9aUL.s 			page 32


 1879 0062 DCE7     		b	.L211
 1880              	.L209:
 1881 0064 22F00102 		bic	r2, r2, #1
 1882 0068 1A62     		str	r2, [r3, #32]
 1883 006a 1A6A     		ldr	r2, [r3, #32]
 1884 006c 406A     		ldr	r0, [r0, #36]
 1885 006e 1A62     		str	r2, [r3, #32]
 1886 0070 1A6A     		ldr	r2, [r3, #32]
 1887 0072 22F01002 		bic	r2, r2, #16
 1888 0076 1A62     		str	r2, [r3, #32]
 1889 0078 1A6A     		ldr	r2, [r3, #32]
 1890 007a 1A62     		str	r2, [r3, #32]
 1891 007c DA68     		ldr	r2, [r3, #12]
 1892 007e 22F40072 		bic	r2, r2, #512
 1893 0082 DA60     		str	r2, [r3, #12]
 1894 0084 DA68     		ldr	r2, [r3, #12]
 1895 0086 22F48062 		bic	r2, r2, #1024
 1896 008a DA60     		str	r2, [r3, #12]
 1897 008c FFF7FEFF 		bl	HAL_DMA_Abort_IT
 1898 0090 E6E7     		b	.L212
 1900              		.section	.text.HAL_TIM_IRQHandler,"ax",%progbits
 1901              		.align	1
 1902              		.global	HAL_TIM_IRQHandler
 1903              		.syntax unified
 1904              		.thumb
 1905              		.thumb_func
 1906              		.fpu softvfp
 1908              	HAL_TIM_IRQHandler:
 1909              		@ args = 0, pretend = 0, frame = 0
 1910              		@ frame_needed = 0, uses_anonymous_args = 0
 1911 0000 0368     		ldr	r3, [r0]
 1912 0002 10B5     		push	{r4, lr}
 1913 0004 1A69     		ldr	r2, [r3, #16]
 1914 0006 0446     		mov	r4, r0
 1915 0008 9107     		lsls	r1, r2, #30
 1916 000a 0FD5     		bpl	.L214
 1917 000c DA68     		ldr	r2, [r3, #12]
 1918 000e 9207     		lsls	r2, r2, #30
 1919 0010 0CD5     		bpl	.L214
 1920 0012 6FF00202 		mvn	r2, #2
 1921 0016 1A61     		str	r2, [r3, #16]
 1922 0018 0122     		movs	r2, #1
 1923 001a 0277     		strb	r2, [r0, #28]
 1924 001c 9B69     		ldr	r3, [r3, #24]
 1925 001e 9B07     		lsls	r3, r3, #30
 1926 0020 7ED0     		beq	.L215
 1927 0022 D0F88830 		ldr	r3, [r0, #136]
 1928              	.L278:
 1929 0026 9847     		blx	r3
 1930 0028 0023     		movs	r3, #0
 1931 002a 2377     		strb	r3, [r4, #28]
 1932              	.L214:
 1933 002c 2368     		ldr	r3, [r4]
 1934 002e 1A69     		ldr	r2, [r3, #16]
 1935 0030 5007     		lsls	r0, r2, #29
 1936 0032 11D5     		bpl	.L217
 1937 0034 DA68     		ldr	r2, [r3, #12]
ARM GAS  /tmp/ccgq9aUL.s 			page 33


 1938 0036 5107     		lsls	r1, r2, #29
 1939 0038 0ED5     		bpl	.L217
 1940 003a 6FF00402 		mvn	r2, #4
 1941 003e 1A61     		str	r2, [r3, #16]
 1942 0040 0222     		movs	r2, #2
 1943 0042 2277     		strb	r2, [r4, #28]
 1944 0044 9B69     		ldr	r3, [r3, #24]
 1945 0046 13F4407F 		tst	r3, #768
 1946 004a 70D0     		beq	.L218
 1947 004c D4F88830 		ldr	r3, [r4, #136]
 1948              	.L279:
 1949 0050 2046     		mov	r0, r4
 1950 0052 9847     		blx	r3
 1951 0054 0023     		movs	r3, #0
 1952 0056 2377     		strb	r3, [r4, #28]
 1953              	.L217:
 1954 0058 2368     		ldr	r3, [r4]
 1955 005a 1A69     		ldr	r2, [r3, #16]
 1956 005c 1207     		lsls	r2, r2, #28
 1957 005e 10D5     		bpl	.L220
 1958 0060 DA68     		ldr	r2, [r3, #12]
 1959 0062 1007     		lsls	r0, r2, #28
 1960 0064 0DD5     		bpl	.L220
 1961 0066 6FF00802 		mvn	r2, #8
 1962 006a 1A61     		str	r2, [r3, #16]
 1963 006c 0422     		movs	r2, #4
 1964 006e 2277     		strb	r2, [r4, #28]
 1965 0070 DB69     		ldr	r3, [r3, #28]
 1966 0072 9907     		lsls	r1, r3, #30
 1967 0074 62D0     		beq	.L221
 1968 0076 D4F88830 		ldr	r3, [r4, #136]
 1969              	.L280:
 1970 007a 2046     		mov	r0, r4
 1971 007c 9847     		blx	r3
 1972 007e 0023     		movs	r3, #0
 1973 0080 2377     		strb	r3, [r4, #28]
 1974              	.L220:
 1975 0082 2368     		ldr	r3, [r4]
 1976 0084 1A69     		ldr	r2, [r3, #16]
 1977 0086 D206     		lsls	r2, r2, #27
 1978 0088 11D5     		bpl	.L223
 1979 008a DA68     		ldr	r2, [r3, #12]
 1980 008c D006     		lsls	r0, r2, #27
 1981 008e 0ED5     		bpl	.L223
 1982 0090 6FF01002 		mvn	r2, #16
 1983 0094 1A61     		str	r2, [r3, #16]
 1984 0096 0822     		movs	r2, #8
 1985 0098 2277     		strb	r2, [r4, #28]
 1986 009a DB69     		ldr	r3, [r3, #28]
 1987 009c 13F4407F 		tst	r3, #768
 1988 00a0 53D0     		beq	.L224
 1989 00a2 D4F88830 		ldr	r3, [r4, #136]
 1990              	.L281:
 1991 00a6 2046     		mov	r0, r4
 1992 00a8 9847     		blx	r3
 1993 00aa 0023     		movs	r3, #0
 1994 00ac 2377     		strb	r3, [r4, #28]
ARM GAS  /tmp/ccgq9aUL.s 			page 34


 1995              	.L223:
 1996 00ae 2368     		ldr	r3, [r4]
 1997 00b0 1A69     		ldr	r2, [r3, #16]
 1998 00b2 D107     		lsls	r1, r2, #31
 1999 00b4 08D5     		bpl	.L226
 2000 00b6 DA68     		ldr	r2, [r3, #12]
 2001 00b8 D207     		lsls	r2, r2, #31
 2002 00ba 05D5     		bpl	.L226
 2003 00bc 6FF00102 		mvn	r2, #1
 2004 00c0 2046     		mov	r0, r4
 2005 00c2 1A61     		str	r2, [r3, #16]
 2006 00c4 A36F     		ldr	r3, [r4, #120]
 2007 00c6 9847     		blx	r3
 2008              	.L226:
 2009 00c8 2368     		ldr	r3, [r4]
 2010 00ca 1A69     		ldr	r2, [r3, #16]
 2011 00cc 1006     		lsls	r0, r2, #24
 2012 00ce 09D5     		bpl	.L227
 2013 00d0 DA68     		ldr	r2, [r3, #12]
 2014 00d2 1106     		lsls	r1, r2, #24
 2015 00d4 06D5     		bpl	.L227
 2016 00d6 6FF08002 		mvn	r2, #128
 2017 00da 2046     		mov	r0, r4
 2018 00dc 1A61     		str	r2, [r3, #16]
 2019 00de D4F8A830 		ldr	r3, [r4, #168]
 2020 00e2 9847     		blx	r3
 2021              	.L227:
 2022 00e4 2368     		ldr	r3, [r4]
 2023 00e6 1A69     		ldr	r2, [r3, #16]
 2024 00e8 5206     		lsls	r2, r2, #25
 2025 00ea 09D5     		bpl	.L228
 2026 00ec DA68     		ldr	r2, [r3, #12]
 2027 00ee 5006     		lsls	r0, r2, #25
 2028 00f0 06D5     		bpl	.L228
 2029 00f2 6FF04002 		mvn	r2, #64
 2030 00f6 2046     		mov	r0, r4
 2031 00f8 1A61     		str	r2, [r3, #16]
 2032 00fa D4F88030 		ldr	r3, [r4, #128]
 2033 00fe 9847     		blx	r3
 2034              	.L228:
 2035 0100 2368     		ldr	r3, [r4]
 2036 0102 1A69     		ldr	r2, [r3, #16]
 2037 0104 9106     		lsls	r1, r2, #26
 2038 0106 27D5     		bpl	.L213
 2039 0108 DA68     		ldr	r2, [r3, #12]
 2040 010a 9206     		lsls	r2, r2, #26
 2041 010c 24D5     		bpl	.L213
 2042 010e 6FF02002 		mvn	r2, #32
 2043 0112 2046     		mov	r0, r4
 2044 0114 1A61     		str	r2, [r3, #16]
 2045 0116 D4F8A030 		ldr	r3, [r4, #160]
 2046 011a BDE81040 		pop	{r4, lr}
 2047 011e 1847     		bx	r3	@ indirect register sibling call
 2048              	.L215:
 2049 0120 D0F89030 		ldr	r3, [r0, #144]
 2050 0124 9847     		blx	r3
 2051 0126 2046     		mov	r0, r4
ARM GAS  /tmp/ccgq9aUL.s 			page 35


 2052 0128 D4F89430 		ldr	r3, [r4, #148]
 2053 012c 7BE7     		b	.L278
 2054              	.L218:
 2055 012e D4F89030 		ldr	r3, [r4, #144]
 2056 0132 2046     		mov	r0, r4
 2057 0134 9847     		blx	r3
 2058 0136 D4F89430 		ldr	r3, [r4, #148]
 2059 013a 89E7     		b	.L279
 2060              	.L221:
 2061 013c D4F89030 		ldr	r3, [r4, #144]
 2062 0140 2046     		mov	r0, r4
 2063 0142 9847     		blx	r3
 2064 0144 D4F89430 		ldr	r3, [r4, #148]
 2065 0148 97E7     		b	.L280
 2066              	.L224:
 2067 014a D4F89030 		ldr	r3, [r4, #144]
 2068 014e 2046     		mov	r0, r4
 2069 0150 9847     		blx	r3
 2070 0152 D4F89430 		ldr	r3, [r4, #148]
 2071 0156 A6E7     		b	.L281
 2072              	.L213:
 2073 0158 10BD     		pop	{r4, pc}
 2075              		.section	.text.HAL_TIM_DMABurst_WriteStart,"ax",%progbits
 2076              		.align	1
 2077              		.global	HAL_TIM_DMABurst_WriteStart
 2078              		.syntax unified
 2079              		.thumb
 2080              		.thumb_func
 2081              		.fpu softvfp
 2083              	HAL_TIM_DMABurst_WriteStart:
 2084              		@ args = 4, pretend = 0, frame = 0
 2085              		@ frame_needed = 0, uses_anonymous_args = 0
 2086 0000 F8B5     		push	{r3, r4, r5, r6, r7, lr}
 2087 0002 0F46     		mov	r7, r1
 2088 0004 1946     		mov	r1, r3
 2089 0006 90F83D30 		ldrb	r3, [r0, #61]	@ zero_extendqisi2
 2090 000a 0446     		mov	r4, r0
 2091 000c 022B     		cmp	r3, #2
 2092 000e 1646     		mov	r6, r2
 2093 0010 069D     		ldr	r5, [sp, #24]
 2094 0012 D8B2     		uxtb	r0, r3
 2095 0014 06D0     		beq	.L283
 2096 0016 94F83D30 		ldrb	r3, [r4, #61]	@ zero_extendqisi2
 2097 001a 012B     		cmp	r3, #1
 2098 001c 06D1     		bne	.L284
 2099 001e 11B9     		cbnz	r1, .L285
 2100 0020 0DB1     		cbz	r5, .L285
 2101              	.L295:
 2102 0022 0120     		movs	r0, #1
 2103              	.L283:
 2104 0024 F8BD     		pop	{r3, r4, r5, r6, r7, pc}
 2105              	.L285:
 2106 0026 0223     		movs	r3, #2
 2107 0028 84F83D30 		strb	r3, [r4, #61]
 2108              	.L284:
 2109 002c B6F5006F 		cmp	r6, #2048
 2110 0030 2268     		ldr	r2, [r4]
ARM GAS  /tmp/ccgq9aUL.s 			page 36


 2111 0032 35D0     		beq	.L286
 2112 0034 13D8     		bhi	.L287
 2113 0036 B6F5007F 		cmp	r6, #512
 2114 003a 2AD0     		beq	.L288
 2115 003c B6F5806F 		cmp	r6, #1024
 2116 0040 2CD0     		beq	.L289
 2117 0042 B6F5807F 		cmp	r6, #256
 2118 0046 15D0     		beq	.L290
 2119              	.L291:
 2120 0048 2368     		ldr	r3, [r4]
 2121 004a 3D43     		orrs	r5, r5, r7
 2122 004c 9D64     		str	r5, [r3, #72]
 2123 004e DA68     		ldr	r2, [r3, #12]
 2124 0050 0020     		movs	r0, #0
 2125 0052 1643     		orrs	r6, r6, r2
 2126 0054 DE60     		str	r6, [r3, #12]
 2127 0056 0123     		movs	r3, #1
 2128 0058 84F83D30 		strb	r3, [r4, #61]
 2129 005c E2E7     		b	.L283
 2130              	.L287:
 2131 005e B6F5005F 		cmp	r6, #8192
 2132 0062 1FD0     		beq	.L292
 2133 0064 B6F5804F 		cmp	r6, #16384
 2134 0068 21D0     		beq	.L293
 2135 006a B6F5805F 		cmp	r6, #4096
 2136 006e EBD1     		bne	.L291
 2137 0070 206B     		ldr	r0, [r4, #48]
 2138 0072 0FE0     		b	.L304
 2139              	.L290:
 2140 0074 104B     		ldr	r3, .L311
 2141 0076 206A     		ldr	r0, [r4, #32]
 2142 0078 8362     		str	r3, [r0, #40]
 2143 007a 104B     		ldr	r3, .L311+4
 2144              	.L306:
 2145 007c C362     		str	r3, [r0, #44]
 2146 007e 104B     		ldr	r3, .L311+8
 2147 0080 4C32     		adds	r2, r2, #76
 2148 0082 0363     		str	r3, [r0, #48]
 2149 0084 2B0A     		lsrs	r3, r5, #8
 2150 0086 0133     		adds	r3, r3, #1
 2151 0088 FFF7FEFF 		bl	HAL_DMA_Start_IT
 2152 008c 0028     		cmp	r0, #0
 2153 008e DBD0     		beq	.L291
 2154 0090 C7E7     		b	.L295
 2155              	.L288:
 2156 0092 606A     		ldr	r0, [r4, #36]
 2157              	.L304:
 2158 0094 0B4B     		ldr	r3, .L311+12
 2159 0096 8362     		str	r3, [r0, #40]
 2160 0098 0B4B     		ldr	r3, .L311+16
 2161 009a EFE7     		b	.L306
 2162              	.L289:
 2163 009c A06A     		ldr	r0, [r4, #40]
 2164 009e F9E7     		b	.L304
 2165              	.L286:
 2166 00a0 E06A     		ldr	r0, [r4, #44]
 2167 00a2 F7E7     		b	.L304
ARM GAS  /tmp/ccgq9aUL.s 			page 37


 2168              	.L292:
 2169 00a4 094B     		ldr	r3, .L311+20
 2170 00a6 606B     		ldr	r0, [r4, #52]
 2171 00a8 8362     		str	r3, [r0, #40]
 2172 00aa 094B     		ldr	r3, .L311+24
 2173 00ac E6E7     		b	.L306
 2174              	.L293:
 2175 00ae 094B     		ldr	r3, .L311+28
 2176 00b0 A06B     		ldr	r0, [r4, #56]
 2177 00b2 8362     		str	r3, [r0, #40]
 2178 00b4 084B     		ldr	r3, .L311+32
 2179 00b6 E1E7     		b	.L306
 2180              	.L312:
 2181              		.align	2
 2182              	.L311:
 2183 00b8 00000000 		.word	TIM_DMAPeriodElapsedCplt
 2184 00bc 00000000 		.word	TIM_DMAPeriodElapsedHalfCplt
 2185 00c0 00000000 		.word	TIM_DMAError
 2186 00c4 00000000 		.word	TIM_DMADelayPulseCplt
 2187 00c8 00000000 		.word	TIM_DMADelayPulseHalfCplt
 2188 00cc 00000000 		.word	TIMEx_DMACommutationCplt
 2189 00d0 00000000 		.word	TIMEx_DMACommutationHalfCplt
 2190 00d4 00000000 		.word	TIM_DMATriggerCplt
 2191 00d8 00000000 		.word	TIM_DMATriggerHalfCplt
 2193              		.section	.text.HAL_TIM_DMABurst_WriteStop,"ax",%progbits
 2194              		.align	1
 2195              		.global	HAL_TIM_DMABurst_WriteStop
 2196              		.syntax unified
 2197              		.thumb
 2198              		.thumb_func
 2199              		.fpu softvfp
 2201              	HAL_TIM_DMABurst_WriteStop:
 2202              		@ args = 0, pretend = 0, frame = 0
 2203              		@ frame_needed = 0, uses_anonymous_args = 0
 2204 0000 B1F5006F 		cmp	r1, #2048
 2205 0004 38B5     		push	{r3, r4, r5, lr}
 2206 0006 0546     		mov	r5, r0
 2207 0008 0C46     		mov	r4, r1
 2208 000a 25D0     		beq	.L314
 2209 000c 0FD8     		bhi	.L315
 2210 000e B1F5007F 		cmp	r1, #512
 2211 0012 1DD0     		beq	.L316
 2212 0014 B1F5806F 		cmp	r1, #1024
 2213 0018 1CD0     		beq	.L317
 2214 001a B1F5807F 		cmp	r1, #256
 2215 001e 11D0     		beq	.L318
 2216              	.L319:
 2217 0020 2B68     		ldr	r3, [r5]
 2218 0022 0020     		movs	r0, #0
 2219 0024 D968     		ldr	r1, [r3, #12]
 2220 0026 21EA0404 		bic	r4, r1, r4
 2221 002a DC60     		str	r4, [r3, #12]
 2222 002c 0FE0     		b	.L324
 2223              	.L315:
 2224 002e B1F5005F 		cmp	r1, #8192
 2225 0032 13D0     		beq	.L320
 2226 0034 B1F5804F 		cmp	r1, #16384
ARM GAS  /tmp/ccgq9aUL.s 			page 38


 2227 0038 12D0     		beq	.L321
 2228 003a B1F5805F 		cmp	r1, #4096
 2229 003e EFD1     		bne	.L319
 2230 0040 006B     		ldr	r0, [r0, #48]
 2231 0042 00E0     		b	.L325
 2232              	.L318:
 2233 0044 006A     		ldr	r0, [r0, #32]
 2234              	.L325:
 2235 0046 FFF7FEFF 		bl	HAL_DMA_Abort_IT
 2236 004a 0028     		cmp	r0, #0
 2237 004c E8D0     		beq	.L319
 2238              	.L324:
 2239 004e 38BD     		pop	{r3, r4, r5, pc}
 2240              	.L316:
 2241 0050 406A     		ldr	r0, [r0, #36]
 2242 0052 F8E7     		b	.L325
 2243              	.L317:
 2244 0054 806A     		ldr	r0, [r0, #40]
 2245 0056 F6E7     		b	.L325
 2246              	.L314:
 2247 0058 C06A     		ldr	r0, [r0, #44]
 2248 005a F4E7     		b	.L325
 2249              	.L320:
 2250 005c 406B     		ldr	r0, [r0, #52]
 2251 005e F2E7     		b	.L325
 2252              	.L321:
 2253 0060 806B     		ldr	r0, [r0, #56]
 2254 0062 F0E7     		b	.L325
 2256              		.section	.text.HAL_TIM_DMABurst_ReadStart,"ax",%progbits
 2257              		.align	1
 2258              		.global	HAL_TIM_DMABurst_ReadStart
 2259              		.syntax unified
 2260              		.thumb
 2261              		.thumb_func
 2262              		.fpu softvfp
 2264              	HAL_TIM_DMABurst_ReadStart:
 2265              		@ args = 4, pretend = 0, frame = 0
 2266              		@ frame_needed = 0, uses_anonymous_args = 0
 2267 0000 F8B5     		push	{r3, r4, r5, r6, r7, lr}
 2268 0002 1646     		mov	r6, r2
 2269 0004 1A46     		mov	r2, r3
 2270 0006 90F83D30 		ldrb	r3, [r0, #61]	@ zero_extendqisi2
 2271 000a 0446     		mov	r4, r0
 2272 000c 022B     		cmp	r3, #2
 2273 000e 0F46     		mov	r7, r1
 2274 0010 069D     		ldr	r5, [sp, #24]
 2275 0012 D8B2     		uxtb	r0, r3
 2276 0014 06D0     		beq	.L327
 2277 0016 94F83D30 		ldrb	r3, [r4, #61]	@ zero_extendqisi2
 2278 001a 012B     		cmp	r3, #1
 2279 001c 06D1     		bne	.L328
 2280 001e 12B9     		cbnz	r2, .L329
 2281 0020 0DB1     		cbz	r5, .L329
 2282              	.L339:
 2283 0022 0120     		movs	r0, #1
 2284              	.L327:
 2285 0024 F8BD     		pop	{r3, r4, r5, r6, r7, pc}
ARM GAS  /tmp/ccgq9aUL.s 			page 39


 2286              	.L329:
 2287 0026 0223     		movs	r3, #2
 2288 0028 84F83D30 		strb	r3, [r4, #61]
 2289              	.L328:
 2290 002c B6F5006F 		cmp	r6, #2048
 2291 0030 2168     		ldr	r1, [r4]
 2292 0032 35D0     		beq	.L330
 2293 0034 13D8     		bhi	.L331
 2294 0036 B6F5007F 		cmp	r6, #512
 2295 003a 2AD0     		beq	.L332
 2296 003c B6F5806F 		cmp	r6, #1024
 2297 0040 2CD0     		beq	.L333
 2298 0042 B6F5807F 		cmp	r6, #256
 2299 0046 15D0     		beq	.L334
 2300              	.L335:
 2301 0048 2368     		ldr	r3, [r4]
 2302 004a 3D43     		orrs	r5, r5, r7
 2303 004c 9D64     		str	r5, [r3, #72]
 2304 004e DA68     		ldr	r2, [r3, #12]
 2305 0050 0020     		movs	r0, #0
 2306 0052 1643     		orrs	r6, r6, r2
 2307 0054 DE60     		str	r6, [r3, #12]
 2308 0056 0123     		movs	r3, #1
 2309 0058 84F83D30 		strb	r3, [r4, #61]
 2310 005c E2E7     		b	.L327
 2311              	.L331:
 2312 005e B6F5005F 		cmp	r6, #8192
 2313 0062 1FD0     		beq	.L336
 2314 0064 B6F5804F 		cmp	r6, #16384
 2315 0068 21D0     		beq	.L337
 2316 006a B6F5805F 		cmp	r6, #4096
 2317 006e EBD1     		bne	.L335
 2318 0070 206B     		ldr	r0, [r4, #48]
 2319 0072 0FE0     		b	.L348
 2320              	.L334:
 2321 0074 104B     		ldr	r3, .L355
 2322 0076 206A     		ldr	r0, [r4, #32]
 2323 0078 8362     		str	r3, [r0, #40]
 2324 007a 104B     		ldr	r3, .L355+4
 2325              	.L350:
 2326 007c C362     		str	r3, [r0, #44]
 2327 007e 104B     		ldr	r3, .L355+8
 2328 0080 4C31     		adds	r1, r1, #76
 2329 0082 0363     		str	r3, [r0, #48]
 2330 0084 2B0A     		lsrs	r3, r5, #8
 2331 0086 0133     		adds	r3, r3, #1
 2332 0088 FFF7FEFF 		bl	HAL_DMA_Start_IT
 2333 008c 0028     		cmp	r0, #0
 2334 008e DBD0     		beq	.L335
 2335 0090 C7E7     		b	.L339
 2336              	.L332:
 2337 0092 606A     		ldr	r0, [r4, #36]
 2338              	.L348:
 2339 0094 0B4B     		ldr	r3, .L355+12
 2340 0096 8362     		str	r3, [r0, #40]
 2341 0098 0B4B     		ldr	r3, .L355+16
 2342 009a EFE7     		b	.L350
ARM GAS  /tmp/ccgq9aUL.s 			page 40


 2343              	.L333:
 2344 009c A06A     		ldr	r0, [r4, #40]
 2345 009e F9E7     		b	.L348
 2346              	.L330:
 2347 00a0 E06A     		ldr	r0, [r4, #44]
 2348 00a2 F7E7     		b	.L348
 2349              	.L336:
 2350 00a4 094B     		ldr	r3, .L355+20
 2351 00a6 606B     		ldr	r0, [r4, #52]
 2352 00a8 8362     		str	r3, [r0, #40]
 2353 00aa 094B     		ldr	r3, .L355+24
 2354 00ac E6E7     		b	.L350
 2355              	.L337:
 2356 00ae 094B     		ldr	r3, .L355+28
 2357 00b0 A06B     		ldr	r0, [r4, #56]
 2358 00b2 8362     		str	r3, [r0, #40]
 2359 00b4 084B     		ldr	r3, .L355+32
 2360 00b6 E1E7     		b	.L350
 2361              	.L356:
 2362              		.align	2
 2363              	.L355:
 2364 00b8 00000000 		.word	TIM_DMAPeriodElapsedCplt
 2365 00bc 00000000 		.word	TIM_DMAPeriodElapsedHalfCplt
 2366 00c0 00000000 		.word	TIM_DMAError
 2367 00c4 00000000 		.word	TIM_DMACaptureCplt
 2368 00c8 00000000 		.word	TIM_DMACaptureHalfCplt
 2369 00cc 00000000 		.word	TIMEx_DMACommutationCplt
 2370 00d0 00000000 		.word	TIMEx_DMACommutationHalfCplt
 2371 00d4 00000000 		.word	TIM_DMATriggerCplt
 2372 00d8 00000000 		.word	TIM_DMATriggerHalfCplt
 2374              		.section	.text.HAL_TIM_DMABurst_ReadStop,"ax",%progbits
 2375              		.align	1
 2376              		.global	HAL_TIM_DMABurst_ReadStop
 2377              		.syntax unified
 2378              		.thumb
 2379              		.thumb_func
 2380              		.fpu softvfp
 2382              	HAL_TIM_DMABurst_ReadStop:
 2383              		@ args = 0, pretend = 0, frame = 0
 2384              		@ frame_needed = 0, uses_anonymous_args = 0
 2385              		@ link register save eliminated.
 2386 0000 FFF7FEBF 		b	HAL_TIM_DMABurst_WriteStop
 2388              		.section	.text.HAL_TIM_GenerateEvent,"ax",%progbits
 2389              		.align	1
 2390              		.global	HAL_TIM_GenerateEvent
 2391              		.syntax unified
 2392              		.thumb
 2393              		.thumb_func
 2394              		.fpu softvfp
 2396              	HAL_TIM_GenerateEvent:
 2397              		@ args = 0, pretend = 0, frame = 0
 2398              		@ frame_needed = 0, uses_anonymous_args = 0
 2399              		@ link register save eliminated.
 2400 0000 90F83C20 		ldrb	r2, [r0, #60]	@ zero_extendqisi2
 2401 0004 0346     		mov	r3, r0
 2402 0006 012A     		cmp	r2, #1
 2403 0008 4FF00200 		mov	r0, #2
ARM GAS  /tmp/ccgq9aUL.s 			page 41


 2404 000c 09D0     		beq	.L359
 2405 000e 1A68     		ldr	r2, [r3]
 2406 0010 83F83D00 		strb	r0, [r3, #61]
 2407 0014 5161     		str	r1, [r2, #20]
 2408 0016 0020     		movs	r0, #0
 2409 0018 0122     		movs	r2, #1
 2410 001a 83F83C00 		strb	r0, [r3, #60]
 2411 001e 83F83D20 		strb	r2, [r3, #61]
 2412              	.L359:
 2413 0022 7047     		bx	lr
 2415              		.section	.text.HAL_TIM_ConfigTI1Input,"ax",%progbits
 2416              		.align	1
 2417              		.global	HAL_TIM_ConfigTI1Input
 2418              		.syntax unified
 2419              		.thumb
 2420              		.thumb_func
 2421              		.fpu softvfp
 2423              	HAL_TIM_ConfigTI1Input:
 2424              		@ args = 0, pretend = 0, frame = 0
 2425              		@ frame_needed = 0, uses_anonymous_args = 0
 2426              		@ link register save eliminated.
 2427 0000 0268     		ldr	r2, [r0]
 2428 0002 0020     		movs	r0, #0
 2429 0004 5368     		ldr	r3, [r2, #4]
 2430 0006 23F08003 		bic	r3, r3, #128
 2431 000a 0B43     		orrs	r3, r3, r1
 2432 000c 5360     		str	r3, [r2, #4]
 2433 000e 7047     		bx	lr
 2435              		.section	.text.HAL_TIM_ReadCapturedValue,"ax",%progbits
 2436              		.align	1
 2437              		.global	HAL_TIM_ReadCapturedValue
 2438              		.syntax unified
 2439              		.thumb
 2440              		.thumb_func
 2441              		.fpu softvfp
 2443              	HAL_TIM_ReadCapturedValue:
 2444              		@ args = 0, pretend = 0, frame = 0
 2445              		@ frame_needed = 0, uses_anonymous_args = 0
 2446              		@ link register save eliminated.
 2447 0000 0829     		cmp	r1, #8
 2448 0002 10D0     		beq	.L363
 2449 0004 04D8     		bhi	.L364
 2450 0006 41B1     		cbz	r1, .L365
 2451 0008 0429     		cmp	r1, #4
 2452 000a 09D0     		beq	.L366
 2453              	.L369:
 2454 000c 0020     		movs	r0, #0
 2455 000e 7047     		bx	lr
 2456              	.L364:
 2457 0010 0C29     		cmp	r1, #12
 2458 0012 FBD1     		bne	.L369
 2459 0014 0368     		ldr	r3, [r0]
 2460 0016 186C     		ldr	r0, [r3, #64]
 2461 0018 7047     		bx	lr
 2462              	.L365:
 2463 001a 0368     		ldr	r3, [r0]
 2464 001c 586B     		ldr	r0, [r3, #52]
ARM GAS  /tmp/ccgq9aUL.s 			page 42


 2465 001e 7047     		bx	lr
 2466              	.L366:
 2467 0020 0368     		ldr	r3, [r0]
 2468 0022 986B     		ldr	r0, [r3, #56]
 2469 0024 7047     		bx	lr
 2470              	.L363:
 2471 0026 0368     		ldr	r3, [r0]
 2472 0028 D86B     		ldr	r0, [r3, #60]
 2473 002a 7047     		bx	lr
 2475              		.section	.text.HAL_TIM_RegisterCallback,"ax",%progbits
 2476              		.align	1
 2477              		.global	HAL_TIM_RegisterCallback
 2478              		.syntax unified
 2479              		.thumb
 2480              		.thumb_func
 2481              		.fpu softvfp
 2483              	HAL_TIM_RegisterCallback:
 2484              		@ args = 0, pretend = 0, frame = 0
 2485              		@ frame_needed = 0, uses_anonymous_args = 0
 2486 0000 0346     		mov	r3, r0
 2487 0002 10B5     		push	{r4, lr}
 2488 0004 002A     		cmp	r2, #0
 2489 0006 00F08E80 		beq	.L417
 2490 000a 90F83C00 		ldrb	r0, [r0, #60]	@ zero_extendqisi2
 2491 000e 0128     		cmp	r0, #1
 2492 0010 00F08B80 		beq	.L418
 2493 0014 93F83D40 		ldrb	r4, [r3, #61]	@ zero_extendqisi2
 2494 0018 012C     		cmp	r4, #1
 2495 001a E0B2     		uxtb	r0, r4
 2496 001c 54D1     		bne	.L372
 2497 001e 1A29     		cmp	r1, #26
 2498 0020 11D8     		bhi	.L373
 2499 0022 DFE801F0 		tbb	[pc, r1]
 2500              	.L375:
 2501 0026 61       		.byte	(.L416-.L375)/2
 2502 0027 0E       		.byte	(.L400-.L375)/2
 2503 0028 14       		.byte	(.L399-.L375)/2
 2504 0029 16       		.byte	(.L398-.L375)/2
 2505 002a 18       		.byte	(.L397-.L375)/2
 2506 002b 1A       		.byte	(.L396-.L375)/2
 2507 002c 1C       		.byte	(.L395-.L375)/2
 2508 002d 1E       		.byte	(.L394-.L375)/2
 2509 002e 20       		.byte	(.L393-.L375)/2
 2510 002f 22       		.byte	(.L392-.L375)/2
 2511 0030 24       		.byte	(.L391-.L375)/2
 2512 0031 26       		.byte	(.L390-.L375)/2
 2513 0032 28       		.byte	(.L389-.L375)/2
 2514 0033 2A       		.byte	(.L388-.L375)/2
 2515 0034 2C       		.byte	(.L387-.L375)/2
 2516 0035 2E       		.byte	(.L386-.L375)/2
 2517 0036 30       		.byte	(.L385-.L375)/2
 2518 0037 33       		.byte	(.L384-.L375)/2
 2519 0038 36       		.byte	(.L383-.L375)/2
 2520 0039 39       		.byte	(.L382-.L375)/2
 2521 003a 3C       		.byte	(.L381-.L375)/2
 2522 003b 3F       		.byte	(.L380-.L375)/2
 2523 003c 42       		.byte	(.L379-.L375)/2
ARM GAS  /tmp/ccgq9aUL.s 			page 43


 2524 003d 45       		.byte	(.L378-.L375)/2
 2525 003e 48       		.byte	(.L377-.L375)/2
 2526 003f 4B       		.byte	(.L376-.L375)/2
 2527 0040 4E       		.byte	(.L374-.L375)/2
 2528 0041 00       		.p2align 1
 2529              	.L400:
 2530 0042 5A64     		str	r2, [r3, #68]
 2531              	.L421:
 2532 0044 0020     		movs	r0, #0
 2533              	.L373:
 2534 0046 0022     		movs	r2, #0
 2535 0048 83F83C20 		strb	r2, [r3, #60]
 2536              	.L371:
 2537 004c 10BD     		pop	{r4, pc}
 2538              	.L399:
 2539 004e 9A64     		str	r2, [r3, #72]
 2540 0050 F8E7     		b	.L421
 2541              	.L398:
 2542 0052 DA64     		str	r2, [r3, #76]
 2543 0054 F6E7     		b	.L421
 2544              	.L397:
 2545 0056 1A65     		str	r2, [r3, #80]
 2546 0058 F4E7     		b	.L421
 2547              	.L396:
 2548 005a 5A65     		str	r2, [r3, #84]
 2549 005c F2E7     		b	.L421
 2550              	.L395:
 2551 005e 9A65     		str	r2, [r3, #88]
 2552 0060 F0E7     		b	.L421
 2553              	.L394:
 2554 0062 DA65     		str	r2, [r3, #92]
 2555 0064 EEE7     		b	.L421
 2556              	.L393:
 2557 0066 1A66     		str	r2, [r3, #96]
 2558 0068 ECE7     		b	.L421
 2559              	.L392:
 2560 006a 5A66     		str	r2, [r3, #100]
 2561 006c EAE7     		b	.L421
 2562              	.L391:
 2563 006e 9A66     		str	r2, [r3, #104]
 2564 0070 E8E7     		b	.L421
 2565              	.L390:
 2566 0072 DA66     		str	r2, [r3, #108]
 2567 0074 E6E7     		b	.L421
 2568              	.L389:
 2569 0076 1A67     		str	r2, [r3, #112]
 2570 0078 E4E7     		b	.L421
 2571              	.L388:
 2572 007a 5A67     		str	r2, [r3, #116]
 2573 007c E2E7     		b	.L421
 2574              	.L387:
 2575 007e 9A67     		str	r2, [r3, #120]
 2576 0080 E0E7     		b	.L421
 2577              	.L386:
 2578 0082 DA67     		str	r2, [r3, #124]
 2579 0084 DEE7     		b	.L421
 2580              	.L385:
ARM GAS  /tmp/ccgq9aUL.s 			page 44


 2581 0086 C3F88020 		str	r2, [r3, #128]
 2582 008a DBE7     		b	.L421
 2583              	.L384:
 2584 008c C3F88420 		str	r2, [r3, #132]
 2585 0090 D8E7     		b	.L421
 2586              	.L383:
 2587 0092 C3F88820 		str	r2, [r3, #136]
 2588 0096 D5E7     		b	.L421
 2589              	.L382:
 2590 0098 C3F88C20 		str	r2, [r3, #140]
 2591 009c D2E7     		b	.L421
 2592              	.L381:
 2593 009e C3F89020 		str	r2, [r3, #144]
 2594 00a2 CFE7     		b	.L421
 2595              	.L380:
 2596 00a4 C3F89420 		str	r2, [r3, #148]
 2597 00a8 CCE7     		b	.L421
 2598              	.L379:
 2599 00aa C3F89820 		str	r2, [r3, #152]
 2600 00ae C9E7     		b	.L421
 2601              	.L378:
 2602 00b0 C3F89C20 		str	r2, [r3, #156]
 2603 00b4 C6E7     		b	.L421
 2604              	.L377:
 2605 00b6 C3F8A020 		str	r2, [r3, #160]
 2606 00ba C3E7     		b	.L421
 2607              	.L376:
 2608 00bc C3F8A420 		str	r2, [r3, #164]
 2609 00c0 C0E7     		b	.L421
 2610              	.L374:
 2611 00c2 C3F8A820 		str	r2, [r3, #168]
 2612 00c6 BDE7     		b	.L421
 2613              	.L372:
 2614 00c8 93F83D40 		ldrb	r4, [r3, #61]	@ zero_extendqisi2
 2615 00cc 04F0FF00 		and	r0, r4, #255
 2616 00d0 3CBB     		cbnz	r4, .L420
 2617 00d2 0D29     		cmp	r1, #13
 2618 00d4 25D8     		bhi	.L420
 2619 00d6 DFE801F0 		tbb	[pc, r1]
 2620              	.L403:
 2621 00da 07       		.byte	(.L416-.L403)/2
 2622 00db 0A       		.byte	(.L415-.L403)/2
 2623 00dc 0C       		.byte	(.L414-.L403)/2
 2624 00dd 0E       		.byte	(.L413-.L403)/2
 2625 00de 10       		.byte	(.L412-.L403)/2
 2626 00df 12       		.byte	(.L411-.L403)/2
 2627 00e0 14       		.byte	(.L410-.L403)/2
 2628 00e1 16       		.byte	(.L409-.L403)/2
 2629 00e2 18       		.byte	(.L408-.L403)/2
 2630 00e3 1A       		.byte	(.L407-.L403)/2
 2631 00e4 1C       		.byte	(.L406-.L403)/2
 2632 00e5 1E       		.byte	(.L405-.L403)/2
 2633 00e6 20       		.byte	(.L404-.L403)/2
 2634 00e7 22       		.byte	(.L402-.L403)/2
 2635              		.p2align 1
 2636              	.L416:
 2637 00e8 0846     		mov	r0, r1
ARM GAS  /tmp/ccgq9aUL.s 			page 45


 2638 00ea 1A64     		str	r2, [r3, #64]
 2639 00ec ABE7     		b	.L373
 2640              	.L415:
 2641 00ee 5A64     		str	r2, [r3, #68]
 2642 00f0 A9E7     		b	.L373
 2643              	.L414:
 2644 00f2 9A64     		str	r2, [r3, #72]
 2645 00f4 A7E7     		b	.L373
 2646              	.L413:
 2647 00f6 DA64     		str	r2, [r3, #76]
 2648 00f8 A5E7     		b	.L373
 2649              	.L412:
 2650 00fa 1A65     		str	r2, [r3, #80]
 2651 00fc A3E7     		b	.L373
 2652              	.L411:
 2653 00fe 5A65     		str	r2, [r3, #84]
 2654 0100 A1E7     		b	.L373
 2655              	.L410:
 2656 0102 9A65     		str	r2, [r3, #88]
 2657 0104 9FE7     		b	.L373
 2658              	.L409:
 2659 0106 DA65     		str	r2, [r3, #92]
 2660 0108 9DE7     		b	.L373
 2661              	.L408:
 2662 010a 1A66     		str	r2, [r3, #96]
 2663 010c 9BE7     		b	.L373
 2664              	.L407:
 2665 010e 5A66     		str	r2, [r3, #100]
 2666 0110 99E7     		b	.L373
 2667              	.L406:
 2668 0112 9A66     		str	r2, [r3, #104]
 2669 0114 97E7     		b	.L373
 2670              	.L405:
 2671 0116 DA66     		str	r2, [r3, #108]
 2672 0118 95E7     		b	.L373
 2673              	.L404:
 2674 011a 1A67     		str	r2, [r3, #112]
 2675 011c 93E7     		b	.L373
 2676              	.L402:
 2677 011e 5A67     		str	r2, [r3, #116]
 2678 0120 91E7     		b	.L373
 2679              	.L420:
 2680 0122 0120     		movs	r0, #1
 2681 0124 8FE7     		b	.L373
 2682              	.L417:
 2683 0126 0120     		movs	r0, #1
 2684 0128 90E7     		b	.L371
 2685              	.L418:
 2686 012a 0220     		movs	r0, #2
 2687 012c 8EE7     		b	.L371
 2689              		.section	.text.HAL_TIM_UnRegisterCallback,"ax",%progbits
 2690              		.align	1
 2691              		.global	HAL_TIM_UnRegisterCallback
 2692              		.syntax unified
 2693              		.thumb
 2694              		.thumb_func
 2695              		.fpu softvfp
ARM GAS  /tmp/ccgq9aUL.s 			page 46


 2697              	HAL_TIM_UnRegisterCallback:
 2698              		@ args = 0, pretend = 0, frame = 0
 2699              		@ frame_needed = 0, uses_anonymous_args = 0
 2700              		@ link register save eliminated.
 2701 0000 90F83C20 		ldrb	r2, [r0, #60]	@ zero_extendqisi2
 2702 0004 0346     		mov	r3, r0
 2703 0006 012A     		cmp	r2, #1
 2704 0008 00F0B280 		beq	.L469
 2705 000c 90F83D20 		ldrb	r2, [r0, #61]	@ zero_extendqisi2
 2706 0010 012A     		cmp	r2, #1
 2707 0012 D0B2     		uxtb	r0, r2
 2708 0014 6ED1     		bne	.L424
 2709 0016 1A29     		cmp	r1, #26
 2710 0018 12D8     		bhi	.L425
 2711 001a DFE801F0 		tbb	[pc, r1]
 2712              	.L427:
 2713 001e 7C       		.byte	(.L468-.L427)/2
 2714 001f 0E       		.byte	(.L452-.L427)/2
 2715 0020 15       		.byte	(.L451-.L427)/2
 2716 0021 18       		.byte	(.L450-.L427)/2
 2717 0022 1B       		.byte	(.L449-.L427)/2
 2718 0023 1E       		.byte	(.L448-.L427)/2
 2719 0024 21       		.byte	(.L447-.L427)/2
 2720 0025 24       		.byte	(.L446-.L427)/2
 2721 0026 27       		.byte	(.L445-.L427)/2
 2722 0027 2A       		.byte	(.L444-.L427)/2
 2723 0028 2D       		.byte	(.L443-.L427)/2
 2724 0029 30       		.byte	(.L442-.L427)/2
 2725 002a 33       		.byte	(.L441-.L427)/2
 2726 002b 36       		.byte	(.L440-.L427)/2
 2727 002c 39       		.byte	(.L439-.L427)/2
 2728 002d 3C       		.byte	(.L438-.L427)/2
 2729 002e 3F       		.byte	(.L437-.L427)/2
 2730 002f 43       		.byte	(.L436-.L427)/2
 2731 0030 47       		.byte	(.L435-.L427)/2
 2732 0031 4B       		.byte	(.L434-.L427)/2
 2733 0032 4F       		.byte	(.L433-.L427)/2
 2734 0033 53       		.byte	(.L432-.L427)/2
 2735 0034 57       		.byte	(.L431-.L427)/2
 2736 0035 5B       		.byte	(.L430-.L427)/2
 2737 0036 5F       		.byte	(.L429-.L427)/2
 2738 0037 63       		.byte	(.L428-.L427)/2
 2739 0038 67       		.byte	(.L426-.L427)/2
 2740 0039 00       		.p2align 1
 2741              	.L452:
 2742 003a 4E4A     		ldr	r2, .L473
 2743 003c 5A64     		str	r2, [r3, #68]
 2744              	.L472:
 2745 003e 0020     		movs	r0, #0
 2746              	.L425:
 2747 0040 0022     		movs	r2, #0
 2748 0042 83F83C20 		strb	r2, [r3, #60]
 2749 0046 7047     		bx	lr
 2750              	.L451:
 2751 0048 4B4A     		ldr	r2, .L473+4
 2752 004a 9A64     		str	r2, [r3, #72]
 2753 004c F7E7     		b	.L472
ARM GAS  /tmp/ccgq9aUL.s 			page 47


 2754              	.L450:
 2755 004e 4B4A     		ldr	r2, .L473+8
 2756 0050 DA64     		str	r2, [r3, #76]
 2757 0052 F4E7     		b	.L472
 2758              	.L449:
 2759 0054 4A4A     		ldr	r2, .L473+12
 2760 0056 1A65     		str	r2, [r3, #80]
 2761 0058 F1E7     		b	.L472
 2762              	.L448:
 2763 005a 4A4A     		ldr	r2, .L473+16
 2764 005c 5A65     		str	r2, [r3, #84]
 2765 005e EEE7     		b	.L472
 2766              	.L447:
 2767 0060 494A     		ldr	r2, .L473+20
 2768 0062 9A65     		str	r2, [r3, #88]
 2769 0064 EBE7     		b	.L472
 2770              	.L446:
 2771 0066 494A     		ldr	r2, .L473+24
 2772 0068 DA65     		str	r2, [r3, #92]
 2773 006a E8E7     		b	.L472
 2774              	.L445:
 2775 006c 484A     		ldr	r2, .L473+28
 2776 006e 1A66     		str	r2, [r3, #96]
 2777 0070 E5E7     		b	.L472
 2778              	.L444:
 2779 0072 484A     		ldr	r2, .L473+32
 2780 0074 5A66     		str	r2, [r3, #100]
 2781 0076 E2E7     		b	.L472
 2782              	.L443:
 2783 0078 474A     		ldr	r2, .L473+36
 2784 007a 9A66     		str	r2, [r3, #104]
 2785 007c DFE7     		b	.L472
 2786              	.L442:
 2787 007e 474A     		ldr	r2, .L473+40
 2788 0080 DA66     		str	r2, [r3, #108]
 2789 0082 DCE7     		b	.L472
 2790              	.L441:
 2791 0084 464A     		ldr	r2, .L473+44
 2792 0086 1A67     		str	r2, [r3, #112]
 2793 0088 D9E7     		b	.L472
 2794              	.L440:
 2795 008a 464A     		ldr	r2, .L473+48
 2796 008c 5A67     		str	r2, [r3, #116]
 2797 008e D6E7     		b	.L472
 2798              	.L439:
 2799 0090 454A     		ldr	r2, .L473+52
 2800 0092 9A67     		str	r2, [r3, #120]
 2801 0094 D3E7     		b	.L472
 2802              	.L438:
 2803 0096 454A     		ldr	r2, .L473+56
 2804 0098 DA67     		str	r2, [r3, #124]
 2805 009a D0E7     		b	.L472
 2806              	.L437:
 2807 009c 444A     		ldr	r2, .L473+60
 2808 009e C3F88020 		str	r2, [r3, #128]
 2809 00a2 CCE7     		b	.L472
 2810              	.L436:
ARM GAS  /tmp/ccgq9aUL.s 			page 48


 2811 00a4 434A     		ldr	r2, .L473+64
 2812 00a6 C3F88420 		str	r2, [r3, #132]
 2813 00aa C8E7     		b	.L472
 2814              	.L435:
 2815 00ac 424A     		ldr	r2, .L473+68
 2816 00ae C3F88820 		str	r2, [r3, #136]
 2817 00b2 C4E7     		b	.L472
 2818              	.L434:
 2819 00b4 414A     		ldr	r2, .L473+72
 2820 00b6 C3F88C20 		str	r2, [r3, #140]
 2821 00ba C0E7     		b	.L472
 2822              	.L433:
 2823 00bc 404A     		ldr	r2, .L473+76
 2824 00be C3F89020 		str	r2, [r3, #144]
 2825 00c2 BCE7     		b	.L472
 2826              	.L432:
 2827 00c4 3F4A     		ldr	r2, .L473+80
 2828 00c6 C3F89420 		str	r2, [r3, #148]
 2829 00ca B8E7     		b	.L472
 2830              	.L431:
 2831 00cc 3E4A     		ldr	r2, .L473+84
 2832 00ce C3F89820 		str	r2, [r3, #152]
 2833 00d2 B4E7     		b	.L472
 2834              	.L430:
 2835 00d4 3D4A     		ldr	r2, .L473+88
 2836 00d6 C3F89C20 		str	r2, [r3, #156]
 2837 00da B0E7     		b	.L472
 2838              	.L429:
 2839 00dc 3C4A     		ldr	r2, .L473+92
 2840 00de C3F8A020 		str	r2, [r3, #160]
 2841 00e2 ACE7     		b	.L472
 2842              	.L428:
 2843 00e4 3B4A     		ldr	r2, .L473+96
 2844 00e6 C3F8A420 		str	r2, [r3, #164]
 2845 00ea A8E7     		b	.L472
 2846              	.L426:
 2847 00ec 3A4A     		ldr	r2, .L473+100
 2848 00ee C3F8A820 		str	r2, [r3, #168]
 2849 00f2 A4E7     		b	.L472
 2850              	.L424:
 2851 00f4 93F83D20 		ldrb	r2, [r3, #61]	@ zero_extendqisi2
 2852 00f8 02F0FF00 		and	r0, r2, #255
 2853 00fc 002A     		cmp	r2, #0
 2854 00fe 35D1     		bne	.L471
 2855 0100 0D29     		cmp	r1, #13
 2856 0102 33D8     		bhi	.L471
 2857 0104 DFE801F0 		tbb	[pc, r1]
 2858              	.L455:
 2859 0108 07       		.byte	(.L468-.L455)/2
 2860 0109 0B       		.byte	(.L467-.L455)/2
 2861 010a 0E       		.byte	(.L466-.L455)/2
 2862 010b 11       		.byte	(.L465-.L455)/2
 2863 010c 14       		.byte	(.L464-.L455)/2
 2864 010d 17       		.byte	(.L463-.L455)/2
 2865 010e 1A       		.byte	(.L462-.L455)/2
 2866 010f 1D       		.byte	(.L461-.L455)/2
 2867 0110 20       		.byte	(.L460-.L455)/2
ARM GAS  /tmp/ccgq9aUL.s 			page 49


 2868 0111 23       		.byte	(.L459-.L455)/2
 2869 0112 26       		.byte	(.L458-.L455)/2
 2870 0113 29       		.byte	(.L457-.L455)/2
 2871 0114 2C       		.byte	(.L456-.L455)/2
 2872 0115 2F       		.byte	(.L454-.L455)/2
 2873              		.p2align 1
 2874              	.L468:
 2875 0116 314A     		ldr	r2, .L473+104
 2876 0118 0846     		mov	r0, r1
 2877 011a 1A64     		str	r2, [r3, #64]
 2878 011c 90E7     		b	.L425
 2879              	.L467:
 2880 011e 154A     		ldr	r2, .L473
 2881 0120 5A64     		str	r2, [r3, #68]
 2882 0122 8DE7     		b	.L425
 2883              	.L466:
 2884 0124 144A     		ldr	r2, .L473+4
 2885 0126 9A64     		str	r2, [r3, #72]
 2886 0128 8AE7     		b	.L425
 2887              	.L465:
 2888 012a 144A     		ldr	r2, .L473+8
 2889 012c DA64     		str	r2, [r3, #76]
 2890 012e 87E7     		b	.L425
 2891              	.L464:
 2892 0130 134A     		ldr	r2, .L473+12
 2893 0132 1A65     		str	r2, [r3, #80]
 2894 0134 84E7     		b	.L425
 2895              	.L463:
 2896 0136 134A     		ldr	r2, .L473+16
 2897 0138 5A65     		str	r2, [r3, #84]
 2898 013a 81E7     		b	.L425
 2899              	.L462:
 2900 013c 124A     		ldr	r2, .L473+20
 2901 013e 9A65     		str	r2, [r3, #88]
 2902 0140 7EE7     		b	.L425
 2903              	.L461:
 2904 0142 124A     		ldr	r2, .L473+24
 2905 0144 DA65     		str	r2, [r3, #92]
 2906 0146 7BE7     		b	.L425
 2907              	.L460:
 2908 0148 114A     		ldr	r2, .L473+28
 2909 014a 1A66     		str	r2, [r3, #96]
 2910 014c 78E7     		b	.L425
 2911              	.L459:
 2912 014e 114A     		ldr	r2, .L473+32
 2913 0150 5A66     		str	r2, [r3, #100]
 2914 0152 75E7     		b	.L425
 2915              	.L458:
 2916 0154 104A     		ldr	r2, .L473+36
 2917 0156 9A66     		str	r2, [r3, #104]
 2918 0158 72E7     		b	.L425
 2919              	.L457:
 2920 015a 104A     		ldr	r2, .L473+40
 2921 015c DA66     		str	r2, [r3, #108]
 2922 015e 6FE7     		b	.L425
 2923              	.L456:
 2924 0160 0F4A     		ldr	r2, .L473+44
ARM GAS  /tmp/ccgq9aUL.s 			page 50


 2925 0162 1A67     		str	r2, [r3, #112]
 2926 0164 6CE7     		b	.L425
 2927              	.L454:
 2928 0166 0F4A     		ldr	r2, .L473+48
 2929 0168 5A67     		str	r2, [r3, #116]
 2930 016a 69E7     		b	.L425
 2931              	.L471:
 2932 016c 0120     		movs	r0, #1
 2933 016e 67E7     		b	.L425
 2934              	.L469:
 2935 0170 0220     		movs	r0, #2
 2936 0172 7047     		bx	lr
 2937              	.L474:
 2938              		.align	2
 2939              	.L473:
 2940 0174 00000000 		.word	HAL_TIM_Base_MspDeInit
 2941 0178 00000000 		.word	HAL_TIM_IC_MspInit
 2942 017c 00000000 		.word	HAL_TIM_IC_MspDeInit
 2943 0180 00000000 		.word	HAL_TIM_OC_MspInit
 2944 0184 00000000 		.word	HAL_TIM_OC_MspDeInit
 2945 0188 00000000 		.word	HAL_TIM_PWM_MspInit
 2946 018c 00000000 		.word	HAL_TIM_PWM_MspDeInit
 2947 0190 00000000 		.word	HAL_TIM_OnePulse_MspInit
 2948 0194 00000000 		.word	HAL_TIM_OnePulse_MspDeInit
 2949 0198 00000000 		.word	HAL_TIM_Encoder_MspInit
 2950 019c 00000000 		.word	HAL_TIM_Encoder_MspDeInit
 2951 01a0 00000000 		.word	HAL_TIMEx_HallSensor_MspInit
 2952 01a4 00000000 		.word	HAL_TIMEx_HallSensor_MspDeInit
 2953 01a8 00000000 		.word	HAL_TIM_PeriodElapsedCallback
 2954 01ac 00000000 		.word	HAL_TIM_PeriodElapsedHalfCpltCallback
 2955 01b0 00000000 		.word	HAL_TIM_TriggerCallback
 2956 01b4 00000000 		.word	HAL_TIM_TriggerHalfCpltCallback
 2957 01b8 00000000 		.word	HAL_TIM_IC_CaptureCallback
 2958 01bc 00000000 		.word	HAL_TIM_IC_CaptureHalfCpltCallback
 2959 01c0 00000000 		.word	HAL_TIM_OC_DelayElapsedCallback
 2960 01c4 00000000 		.word	HAL_TIM_PWM_PulseFinishedCallback
 2961 01c8 00000000 		.word	HAL_TIM_PWM_PulseFinishedHalfCpltCallback
 2962 01cc 00000000 		.word	HAL_TIM_ErrorCallback
 2963 01d0 00000000 		.word	HAL_TIMEx_CommutCallback
 2964 01d4 00000000 		.word	HAL_TIMEx_CommutHalfCpltCallback
 2965 01d8 00000000 		.word	HAL_TIMEx_BreakCallback
 2966 01dc 00000000 		.word	HAL_TIM_Base_MspInit
 2968              		.section	.text.HAL_TIM_Base_GetState,"ax",%progbits
 2969              		.align	1
 2970              		.global	HAL_TIM_Base_GetState
 2971              		.syntax unified
 2972              		.thumb
 2973              		.thumb_func
 2974              		.fpu softvfp
 2976              	HAL_TIM_Base_GetState:
 2977              		@ args = 0, pretend = 0, frame = 0
 2978              		@ frame_needed = 0, uses_anonymous_args = 0
 2979              		@ link register save eliminated.
 2980 0000 90F83D00 		ldrb	r0, [r0, #61]	@ zero_extendqisi2
 2981 0004 7047     		bx	lr
 2983              		.section	.text.HAL_TIM_OC_GetState,"ax",%progbits
 2984              		.align	1
ARM GAS  /tmp/ccgq9aUL.s 			page 51


 2985              		.global	HAL_TIM_OC_GetState
 2986              		.syntax unified
 2987              		.thumb
 2988              		.thumb_func
 2989              		.fpu softvfp
 2991              	HAL_TIM_OC_GetState:
 2992              		@ args = 0, pretend = 0, frame = 0
 2993              		@ frame_needed = 0, uses_anonymous_args = 0
 2994              		@ link register save eliminated.
 2995 0000 90F83D00 		ldrb	r0, [r0, #61]	@ zero_extendqisi2
 2996 0004 7047     		bx	lr
 2998              		.section	.text.HAL_TIM_PWM_GetState,"ax",%progbits
 2999              		.align	1
 3000              		.global	HAL_TIM_PWM_GetState
 3001              		.syntax unified
 3002              		.thumb
 3003              		.thumb_func
 3004              		.fpu softvfp
 3006              	HAL_TIM_PWM_GetState:
 3007              		@ args = 0, pretend = 0, frame = 0
 3008              		@ frame_needed = 0, uses_anonymous_args = 0
 3009              		@ link register save eliminated.
 3010 0000 90F83D00 		ldrb	r0, [r0, #61]	@ zero_extendqisi2
 3011 0004 7047     		bx	lr
 3013              		.section	.text.HAL_TIM_IC_GetState,"ax",%progbits
 3014              		.align	1
 3015              		.global	HAL_TIM_IC_GetState
 3016              		.syntax unified
 3017              		.thumb
 3018              		.thumb_func
 3019              		.fpu softvfp
 3021              	HAL_TIM_IC_GetState:
 3022              		@ args = 0, pretend = 0, frame = 0
 3023              		@ frame_needed = 0, uses_anonymous_args = 0
 3024              		@ link register save eliminated.
 3025 0000 90F83D00 		ldrb	r0, [r0, #61]	@ zero_extendqisi2
 3026 0004 7047     		bx	lr
 3028              		.section	.text.HAL_TIM_OnePulse_GetState,"ax",%progbits
 3029              		.align	1
 3030              		.global	HAL_TIM_OnePulse_GetState
 3031              		.syntax unified
 3032              		.thumb
 3033              		.thumb_func
 3034              		.fpu softvfp
 3036              	HAL_TIM_OnePulse_GetState:
 3037              		@ args = 0, pretend = 0, frame = 0
 3038              		@ frame_needed = 0, uses_anonymous_args = 0
 3039              		@ link register save eliminated.
 3040 0000 90F83D00 		ldrb	r0, [r0, #61]	@ zero_extendqisi2
 3041 0004 7047     		bx	lr
 3043              		.section	.text.HAL_TIM_Encoder_GetState,"ax",%progbits
 3044              		.align	1
 3045              		.global	HAL_TIM_Encoder_GetState
 3046              		.syntax unified
 3047              		.thumb
 3048              		.thumb_func
 3049              		.fpu softvfp
ARM GAS  /tmp/ccgq9aUL.s 			page 52


 3051              	HAL_TIM_Encoder_GetState:
 3052              		@ args = 0, pretend = 0, frame = 0
 3053              		@ frame_needed = 0, uses_anonymous_args = 0
 3054              		@ link register save eliminated.
 3055 0000 90F83D00 		ldrb	r0, [r0, #61]	@ zero_extendqisi2
 3056 0004 7047     		bx	lr
 3058              		.section	.text.TIM_Base_SetConfig,"ax",%progbits
 3059              		.align	1
 3060              		.global	TIM_Base_SetConfig
 3061              		.syntax unified
 3062              		.thumb
 3063              		.thumb_func
 3064              		.fpu softvfp
 3066              	TIM_Base_SetConfig:
 3067              		@ args = 0, pretend = 0, frame = 0
 3068              		@ frame_needed = 0, uses_anonymous_args = 0
 3069              		@ link register save eliminated.
 3070 0000 244A     		ldr	r2, .L493
 3071 0002 0368     		ldr	r3, [r0]
 3072 0004 9042     		cmp	r0, r2
 3073 0006 12D0     		beq	.L482
 3074 0008 02F50062 		add	r2, r2, #2048
 3075 000c 9042     		cmp	r0, r2
 3076 000e 0ED0     		beq	.L482
 3077 0010 B0F1804F 		cmp	r0, #1073741824
 3078 0014 0BD0     		beq	.L482
 3079 0016 A2F59832 		sub	r2, r2, #77824
 3080 001a 9042     		cmp	r0, r2
 3081 001c 07D0     		beq	.L482
 3082 001e 02F58062 		add	r2, r2, #1024
 3083 0022 9042     		cmp	r0, r2
 3084 0024 03D0     		beq	.L482
 3085 0026 02F58062 		add	r2, r2, #1024
 3086 002a 9042     		cmp	r0, r2
 3087 002c 1DD1     		bne	.L483
 3088              	.L482:
 3089 002e 4A68     		ldr	r2, [r1, #4]
 3090 0030 23F07003 		bic	r3, r3, #112
 3091 0034 1343     		orrs	r3, r3, r2
 3092 0036 174A     		ldr	r2, .L493
 3093 0038 9042     		cmp	r0, r2
 3094 003a 12D0     		beq	.L484
 3095 003c 02F50062 		add	r2, r2, #2048
 3096 0040 9042     		cmp	r0, r2
 3097 0042 0ED0     		beq	.L484
 3098 0044 B0F1804F 		cmp	r0, #1073741824
 3099 0048 0BD0     		beq	.L484
 3100 004a A2F59832 		sub	r2, r2, #77824
 3101 004e 9042     		cmp	r0, r2
 3102 0050 07D0     		beq	.L484
 3103 0052 02F58062 		add	r2, r2, #1024
 3104 0056 9042     		cmp	r0, r2
 3105 0058 03D0     		beq	.L484
 3106 005a 02F58062 		add	r2, r2, #1024
 3107 005e 9042     		cmp	r0, r2
 3108 0060 03D1     		bne	.L483
 3109              	.L484:
ARM GAS  /tmp/ccgq9aUL.s 			page 53


 3110 0062 CA68     		ldr	r2, [r1, #12]
 3111 0064 23F44073 		bic	r3, r3, #768
 3112 0068 1343     		orrs	r3, r3, r2
 3113              	.L483:
 3114 006a 4A69     		ldr	r2, [r1, #20]
 3115 006c 23F08003 		bic	r3, r3, #128
 3116 0070 1343     		orrs	r3, r3, r2
 3117 0072 0360     		str	r3, [r0]
 3118 0074 8B68     		ldr	r3, [r1, #8]
 3119 0076 C362     		str	r3, [r0, #44]
 3120 0078 0B68     		ldr	r3, [r1]
 3121 007a 8362     		str	r3, [r0, #40]
 3122 007c 054B     		ldr	r3, .L493
 3123 007e 9842     		cmp	r0, r3
 3124 0080 03D0     		beq	.L485
 3125 0082 03F50063 		add	r3, r3, #2048
 3126 0086 9842     		cmp	r0, r3
 3127 0088 01D1     		bne	.L486
 3128              	.L485:
 3129 008a 0B69     		ldr	r3, [r1, #16]
 3130 008c 0363     		str	r3, [r0, #48]
 3131              	.L486:
 3132 008e 0123     		movs	r3, #1
 3133 0090 4361     		str	r3, [r0, #20]
 3134 0092 7047     		bx	lr
 3135              	.L494:
 3136              		.align	2
 3137              	.L493:
 3138 0094 002C0140 		.word	1073818624
 3140              		.section	.text.TIM_OC2_SetConfig,"ax",%progbits
 3141              		.align	1
 3142              		.global	TIM_OC2_SetConfig
 3143              		.syntax unified
 3144              		.thumb
 3145              		.thumb_func
 3146              		.fpu softvfp
 3148              	TIM_OC2_SetConfig:
 3149              		@ args = 0, pretend = 0, frame = 0
 3150              		@ frame_needed = 0, uses_anonymous_args = 0
 3151 0000 036A     		ldr	r3, [r0, #32]
 3152 0002 70B5     		push	{r4, r5, r6, lr}
 3153 0004 23F01003 		bic	r3, r3, #16
 3154 0008 0362     		str	r3, [r0, #32]
 3155 000a 036A     		ldr	r3, [r0, #32]
 3156 000c 4468     		ldr	r4, [r0, #4]
 3157 000e 8269     		ldr	r2, [r0, #24]
 3158 0010 0D68     		ldr	r5, [r1]
 3159 0012 22F4E642 		bic	r2, r2, #29440
 3160 0016 42EA0522 		orr	r2, r2, r5, lsl #8
 3161 001a 8D68     		ldr	r5, [r1, #8]
 3162 001c 23F02003 		bic	r3, r3, #32
 3163 0020 43EA0513 		orr	r3, r3, r5, lsl #4
 3164 0024 104D     		ldr	r5, .L499
 3165 0026 A842     		cmp	r0, r5
 3166 0028 03D0     		beq	.L496
 3167 002a 05F50065 		add	r5, r5, #2048
 3168 002e A842     		cmp	r0, r5
ARM GAS  /tmp/ccgq9aUL.s 			page 54


 3169 0030 14D1     		bne	.L497
 3170              	.L496:
 3171 0032 CD68     		ldr	r5, [r1, #12]
 3172 0034 23F08003 		bic	r3, r3, #128
 3173 0038 43EA0513 		orr	r3, r3, r5, lsl #4
 3174 003c 0A4D     		ldr	r5, .L499
 3175 003e 23F04003 		bic	r3, r3, #64
 3176 0042 A842     		cmp	r0, r5
 3177 0044 03D0     		beq	.L498
 3178 0046 05F50065 		add	r5, r5, #2048
 3179 004a A842     		cmp	r0, r5
 3180 004c 06D1     		bne	.L497
 3181              	.L498:
 3182 004e D1E90556 		ldrd	r5, r6, [r1, #20]
 3183 0052 24F44064 		bic	r4, r4, #3072
 3184 0056 3543     		orrs	r5, r5, r6
 3185 0058 44EA8504 		orr	r4, r4, r5, lsl #2
 3186              	.L497:
 3187 005c 4460     		str	r4, [r0, #4]
 3188 005e 8261     		str	r2, [r0, #24]
 3189 0060 4A68     		ldr	r2, [r1, #4]
 3190 0062 8263     		str	r2, [r0, #56]
 3191 0064 0362     		str	r3, [r0, #32]
 3192 0066 70BD     		pop	{r4, r5, r6, pc}
 3193              	.L500:
 3194              		.align	2
 3195              	.L499:
 3196 0068 002C0140 		.word	1073818624
 3198              		.section	.text.HAL_TIM_OC_ConfigChannel,"ax",%progbits
 3199              		.align	1
 3200              		.global	HAL_TIM_OC_ConfigChannel
 3201              		.syntax unified
 3202              		.thumb
 3203              		.thumb_func
 3204              		.fpu softvfp
 3206              	HAL_TIM_OC_ConfigChannel:
 3207              		@ args = 0, pretend = 0, frame = 0
 3208              		@ frame_needed = 0, uses_anonymous_args = 0
 3209 0000 10B5     		push	{r4, lr}
 3210 0002 90F83C30 		ldrb	r3, [r0, #60]	@ zero_extendqisi2
 3211 0006 0446     		mov	r4, r0
 3212 0008 012B     		cmp	r3, #1
 3213 000a 4FF00200 		mov	r0, #2
 3214 000e 10D0     		beq	.L502
 3215 0010 0123     		movs	r3, #1
 3216 0012 082A     		cmp	r2, #8
 3217 0014 84F83C30 		strb	r3, [r4, #60]
 3218 0018 84F83D00 		strb	r0, [r4, #61]
 3219 001c 18D0     		beq	.L503
 3220 001e 09D8     		bhi	.L504
 3221 0020 72B1     		cbz	r2, .L505
 3222 0022 042A     		cmp	r2, #4
 3223 0024 10D0     		beq	.L506
 3224              	.L507:
 3225 0026 0123     		movs	r3, #1
 3226 0028 0020     		movs	r0, #0
 3227 002a 84F83D30 		strb	r3, [r4, #61]
ARM GAS  /tmp/ccgq9aUL.s 			page 55


 3228 002e 84F83C00 		strb	r0, [r4, #60]
 3229              	.L502:
 3230 0032 10BD     		pop	{r4, pc}
 3231              	.L504:
 3232 0034 0C2A     		cmp	r2, #12
 3233 0036 F6D1     		bne	.L507
 3234 0038 2068     		ldr	r0, [r4]
 3235 003a FFF7FEFF 		bl	TIM_OC4_SetConfig
 3236 003e F2E7     		b	.L507
 3237              	.L505:
 3238 0040 2068     		ldr	r0, [r4]
 3239 0042 FFF7FEFF 		bl	TIM_OC1_SetConfig
 3240 0046 EEE7     		b	.L507
 3241              	.L506:
 3242 0048 2068     		ldr	r0, [r4]
 3243 004a FFF7FEFF 		bl	TIM_OC2_SetConfig
 3244 004e EAE7     		b	.L507
 3245              	.L503:
 3246 0050 2068     		ldr	r0, [r4]
 3247 0052 FFF7FEFF 		bl	TIM_OC3_SetConfig
 3248 0056 E6E7     		b	.L507
 3250              		.section	.text.HAL_TIM_PWM_ConfigChannel,"ax",%progbits
 3251              		.align	1
 3252              		.global	HAL_TIM_PWM_ConfigChannel
 3253              		.syntax unified
 3254              		.thumb
 3255              		.thumb_func
 3256              		.fpu softvfp
 3258              	HAL_TIM_PWM_ConfigChannel:
 3259              		@ args = 0, pretend = 0, frame = 0
 3260              		@ frame_needed = 0, uses_anonymous_args = 0
 3261 0000 38B5     		push	{r3, r4, r5, lr}
 3262 0002 90F83C30 		ldrb	r3, [r0, #60]	@ zero_extendqisi2
 3263 0006 0446     		mov	r4, r0
 3264 0008 012B     		cmp	r3, #1
 3265 000a 4FF00200 		mov	r0, #2
 3266 000e 10D0     		beq	.L511
 3267 0010 0123     		movs	r3, #1
 3268 0012 082A     		cmp	r2, #8
 3269 0014 84F83C30 		strb	r3, [r4, #60]
 3270 0018 84F83D00 		strb	r0, [r4, #61]
 3271 001c 3FD0     		beq	.L512
 3272 001e 09D8     		bhi	.L513
 3273 0020 DAB1     		cbz	r2, .L514
 3274 0022 042A     		cmp	r2, #4
 3275 0024 2AD0     		beq	.L515
 3276              	.L516:
 3277 0026 0123     		movs	r3, #1
 3278 0028 0020     		movs	r0, #0
 3279 002a 84F83D30 		strb	r3, [r4, #61]
 3280 002e 84F83C00 		strb	r0, [r4, #60]
 3281              	.L511:
 3282 0032 38BD     		pop	{r3, r4, r5, pc}
 3283              	.L513:
 3284 0034 0C2A     		cmp	r2, #12
 3285 0036 F6D1     		bne	.L516
 3286 0038 2068     		ldr	r0, [r4]
ARM GAS  /tmp/ccgq9aUL.s 			page 56


 3287 003a FFF7FEFF 		bl	TIM_OC4_SetConfig
 3288 003e 2368     		ldr	r3, [r4]
 3289 0040 0969     		ldr	r1, [r1, #16]
 3290 0042 DA69     		ldr	r2, [r3, #28]
 3291 0044 42F40062 		orr	r2, r2, #2048
 3292 0048 DA61     		str	r2, [r3, #28]
 3293 004a DA69     		ldr	r2, [r3, #28]
 3294 004c 22F48062 		bic	r2, r2, #1024
 3295 0050 DA61     		str	r2, [r3, #28]
 3296 0052 DA69     		ldr	r2, [r3, #28]
 3297 0054 42EA0122 		orr	r2, r2, r1, lsl #8
 3298 0058 30E0     		b	.L520
 3299              	.L514:
 3300 005a 2068     		ldr	r0, [r4]
 3301 005c FFF7FEFF 		bl	TIM_OC1_SetConfig
 3302 0060 2368     		ldr	r3, [r4]
 3303 0062 0969     		ldr	r1, [r1, #16]
 3304 0064 9A69     		ldr	r2, [r3, #24]
 3305 0066 42F00802 		orr	r2, r2, #8
 3306 006a 9A61     		str	r2, [r3, #24]
 3307 006c 9A69     		ldr	r2, [r3, #24]
 3308 006e 22F00402 		bic	r2, r2, #4
 3309 0072 9A61     		str	r2, [r3, #24]
 3310 0074 9A69     		ldr	r2, [r3, #24]
 3311 0076 0A43     		orrs	r2, r2, r1
 3312              	.L519:
 3313 0078 9A61     		str	r2, [r3, #24]
 3314 007a D4E7     		b	.L516
 3315              	.L515:
 3316 007c 2068     		ldr	r0, [r4]
 3317 007e FFF7FEFF 		bl	TIM_OC2_SetConfig
 3318 0082 2368     		ldr	r3, [r4]
 3319 0084 0969     		ldr	r1, [r1, #16]
 3320 0086 9A69     		ldr	r2, [r3, #24]
 3321 0088 42F40062 		orr	r2, r2, #2048
 3322 008c 9A61     		str	r2, [r3, #24]
 3323 008e 9A69     		ldr	r2, [r3, #24]
 3324 0090 22F48062 		bic	r2, r2, #1024
 3325 0094 9A61     		str	r2, [r3, #24]
 3326 0096 9A69     		ldr	r2, [r3, #24]
 3327 0098 42EA0122 		orr	r2, r2, r1, lsl #8
 3328 009c ECE7     		b	.L519
 3329              	.L512:
 3330 009e 2068     		ldr	r0, [r4]
 3331 00a0 FFF7FEFF 		bl	TIM_OC3_SetConfig
 3332 00a4 2368     		ldr	r3, [r4]
 3333 00a6 0969     		ldr	r1, [r1, #16]
 3334 00a8 DA69     		ldr	r2, [r3, #28]
 3335 00aa 42F00802 		orr	r2, r2, #8
 3336 00ae DA61     		str	r2, [r3, #28]
 3337 00b0 DA69     		ldr	r2, [r3, #28]
 3338 00b2 22F00402 		bic	r2, r2, #4
 3339 00b6 DA61     		str	r2, [r3, #28]
 3340 00b8 DA69     		ldr	r2, [r3, #28]
 3341 00ba 0A43     		orrs	r2, r2, r1
 3342              	.L520:
 3343 00bc DA61     		str	r2, [r3, #28]
ARM GAS  /tmp/ccgq9aUL.s 			page 57


 3344 00be B2E7     		b	.L516
 3346              		.section	.text.TIM_TI1_SetConfig,"ax",%progbits
 3347              		.align	1
 3348              		.global	TIM_TI1_SetConfig
 3349              		.syntax unified
 3350              		.thumb
 3351              		.thumb_func
 3352              		.fpu softvfp
 3354              	TIM_TI1_SetConfig:
 3355              		@ args = 0, pretend = 0, frame = 0
 3356              		@ frame_needed = 0, uses_anonymous_args = 0
 3357 0000 70B5     		push	{r4, r5, r6, lr}
 3358 0002 046A     		ldr	r4, [r0, #32]
 3359 0004 164E     		ldr	r6, .L527
 3360 0006 24F00104 		bic	r4, r4, #1
 3361 000a 0462     		str	r4, [r0, #32]
 3362 000c B042     		cmp	r0, r6
 3363 000e 8469     		ldr	r4, [r0, #24]
 3364 0010 056A     		ldr	r5, [r0, #32]
 3365 0012 21D0     		beq	.L522
 3366 0014 06F50066 		add	r6, r6, #2048
 3367 0018 B042     		cmp	r0, r6
 3368 001a 1DD0     		beq	.L522
 3369 001c B0F1804F 		cmp	r0, #1073741824
 3370 0020 1AD0     		beq	.L522
 3371 0022 A6F59836 		sub	r6, r6, #77824
 3372 0026 B042     		cmp	r0, r6
 3373 0028 16D0     		beq	.L522
 3374 002a 06F58066 		add	r6, r6, #1024
 3375 002e B042     		cmp	r0, r6
 3376 0030 12D0     		beq	.L522
 3377 0032 06F58066 		add	r6, r6, #1024
 3378 0036 B042     		cmp	r0, r6
 3379 0038 0ED0     		beq	.L522
 3380 003a 44F00102 		orr	r2, r4, #1
 3381              	.L523:
 3382 003e 1B01     		lsls	r3, r3, #4
 3383 0040 DBB2     		uxtb	r3, r3
 3384 0042 22F0F002 		bic	r2, r2, #240
 3385 0046 1A43     		orrs	r2, r2, r3
 3386 0048 01F00A01 		and	r1, r1, #10
 3387 004c 25F00A03 		bic	r3, r5, #10
 3388 0050 1943     		orrs	r1, r1, r3
 3389 0052 8261     		str	r2, [r0, #24]
 3390 0054 0162     		str	r1, [r0, #32]
 3391 0056 70BD     		pop	{r4, r5, r6, pc}
 3392              	.L522:
 3393 0058 24F00304 		bic	r4, r4, #3
 3394 005c 2243     		orrs	r2, r2, r4
 3395 005e EEE7     		b	.L523
 3396              	.L528:
 3397              		.align	2
 3398              	.L527:
 3399 0060 002C0140 		.word	1073818624
 3401              		.section	.text.HAL_TIM_IC_ConfigChannel,"ax",%progbits
 3402              		.align	1
 3403              		.global	HAL_TIM_IC_ConfigChannel
ARM GAS  /tmp/ccgq9aUL.s 			page 58


 3404              		.syntax unified
 3405              		.thumb
 3406              		.thumb_func
 3407              		.fpu softvfp
 3409              	HAL_TIM_IC_ConfigChannel:
 3410              		@ args = 0, pretend = 0, frame = 0
 3411              		@ frame_needed = 0, uses_anonymous_args = 0
 3412 0000 F8B5     		push	{r3, r4, r5, r6, r7, lr}
 3413 0002 90F83C30 		ldrb	r3, [r0, #60]	@ zero_extendqisi2
 3414 0006 0446     		mov	r4, r0
 3415 0008 012B     		cmp	r3, #1
 3416 000a 0E46     		mov	r6, r1
 3417 000c 1546     		mov	r5, r2
 3418 000e 4FF00200 		mov	r0, #2
 3419 0012 19D0     		beq	.L530
 3420 0014 0123     		movs	r3, #1
 3421 0016 84F83D00 		strb	r0, [r4, #61]
 3422 001a 84F83C30 		strb	r3, [r4, #60]
 3423 001e 2068     		ldr	r0, [r4]
 3424 0020 F368     		ldr	r3, [r6, #12]
 3425 0022 06C9     		ldm	r1, {r1, r2}
 3426 0024 8DB9     		cbnz	r5, .L531
 3427 0026 FFF7FEFF 		bl	TIM_TI1_SetConfig
 3428 002a 2368     		ldr	r3, [r4]
 3429 002c B168     		ldr	r1, [r6, #8]
 3430 002e 9A69     		ldr	r2, [r3, #24]
 3431 0030 22F00C02 		bic	r2, r2, #12
 3432 0034 9A61     		str	r2, [r3, #24]
 3433 0036 9A69     		ldr	r2, [r3, #24]
 3434 0038 0A43     		orrs	r2, r2, r1
 3435 003a 9A61     		str	r2, [r3, #24]
 3436              	.L532:
 3437 003c 0123     		movs	r3, #1
 3438 003e 0020     		movs	r0, #0
 3439 0040 84F83D30 		strb	r3, [r4, #61]
 3440 0044 84F83C00 		strb	r0, [r4, #60]
 3441              	.L530:
 3442 0048 F8BD     		pop	{r3, r4, r5, r6, r7, pc}
 3443              	.L531:
 3444 004a 042D     		cmp	r5, #4
 3445 004c B668     		ldr	r6, [r6, #8]
 3446 004e 22D1     		bne	.L533
 3447 0050 056A     		ldr	r5, [r0, #32]
 3448 0052 0901     		lsls	r1, r1, #4
 3449 0054 25F01005 		bic	r5, r5, #16
 3450 0058 0562     		str	r5, [r0, #32]
 3451 005a 8769     		ldr	r7, [r0, #24]
 3452 005c D0F820E0 		ldr	lr, [r0, #32]
 3453 0060 27F4407C 		bic	ip, r7, #768
 3454 0064 1D03     		lsls	r5, r3, #12
 3455 0066 4CEA022C 		orr	ip, ip, r2, lsl #8
 3456 006a 2CF4704C 		bic	ip, ip, #61440
 3457 006e ADB2     		uxth	r5, r5
 3458 0070 2EF0A00E 		bic	lr, lr, #160
 3459 0074 01F0A001 		and	r1, r1, #160
 3460 0078 45EA0C05 		orr	r5, r5, ip
 3461 007c 41EA0E01 		orr	r1, r1, lr
ARM GAS  /tmp/ccgq9aUL.s 			page 59


 3462 0080 8561     		str	r5, [r0, #24]
 3463 0082 0162     		str	r1, [r0, #32]
 3464 0084 8369     		ldr	r3, [r0, #24]
 3465 0086 23F44063 		bic	r3, r3, #3072
 3466 008a 8361     		str	r3, [r0, #24]
 3467 008c 8369     		ldr	r3, [r0, #24]
 3468 008e 43EA0626 		orr	r6, r3, r6, lsl #8
 3469 0092 8661     		str	r6, [r0, #24]
 3470 0094 D2E7     		b	.L532
 3471              	.L533:
 3472 0096 082D     		cmp	r5, #8
 3473 0098 056A     		ldr	r5, [r0, #32]
 3474 009a 1CD1     		bne	.L534
 3475 009c 25F48075 		bic	r5, r5, #256
 3476 00a0 0562     		str	r5, [r0, #32]
 3477 00a2 C769     		ldr	r7, [r0, #28]
 3478 00a4 056A     		ldr	r5, [r0, #32]
 3479 00a6 27F00307 		bic	r7, r7, #3
 3480 00aa 1743     		orrs	r7, r7, r2
 3481 00ac 1B01     		lsls	r3, r3, #4
 3482 00ae 0902     		lsls	r1, r1, #8
 3483 00b0 DBB2     		uxtb	r3, r3
 3484 00b2 27F0F007 		bic	r7, r7, #240
 3485 00b6 25F40075 		bic	r5, r5, #512
 3486 00ba 01F40071 		and	r1, r1, #512
 3487 00be 1F43     		orrs	r7, r7, r3
 3488 00c0 2943     		orrs	r1, r1, r5
 3489 00c2 C761     		str	r7, [r0, #28]
 3490 00c4 0162     		str	r1, [r0, #32]
 3491 00c6 C369     		ldr	r3, [r0, #28]
 3492 00c8 23F00C03 		bic	r3, r3, #12
 3493 00cc C361     		str	r3, [r0, #28]
 3494 00ce C369     		ldr	r3, [r0, #28]
 3495 00d0 1E43     		orrs	r6, r6, r3
 3496              	.L536:
 3497 00d2 C661     		str	r6, [r0, #28]
 3498 00d4 B2E7     		b	.L532
 3499              	.L534:
 3500 00d6 25F48055 		bic	r5, r5, #4096
 3501 00da 0562     		str	r5, [r0, #32]
 3502 00dc C569     		ldr	r5, [r0, #28]
 3503 00de 076A     		ldr	r7, [r0, #32]
 3504 00e0 25F44075 		bic	r5, r5, #768
 3505 00e4 45EA0225 		orr	r5, r5, r2, lsl #8
 3506 00e8 1B03     		lsls	r3, r3, #12
 3507 00ea 0903     		lsls	r1, r1, #12
 3508 00ec 25F47045 		bic	r5, r5, #61440
 3509 00f0 9BB2     		uxth	r3, r3
 3510 00f2 27F40057 		bic	r7, r7, #8192
 3511 00f6 01F40051 		and	r1, r1, #8192
 3512 00fa 2B43     		orrs	r3, r3, r5
 3513 00fc 3943     		orrs	r1, r1, r7
 3514 00fe C361     		str	r3, [r0, #28]
 3515 0100 0162     		str	r1, [r0, #32]
 3516 0102 C369     		ldr	r3, [r0, #28]
 3517 0104 23F44063 		bic	r3, r3, #3072
 3518 0108 C361     		str	r3, [r0, #28]
ARM GAS  /tmp/ccgq9aUL.s 			page 60


 3519 010a C369     		ldr	r3, [r0, #28]
 3520 010c 43EA0626 		orr	r6, r3, r6, lsl #8
 3521 0110 DFE7     		b	.L536
 3523              		.section	.text.HAL_TIM_OnePulse_ConfigChannel,"ax",%progbits
 3524              		.align	1
 3525              		.global	HAL_TIM_OnePulse_ConfigChannel
 3526              		.syntax unified
 3527              		.thumb
 3528              		.thumb_func
 3529              		.fpu softvfp
 3531              	HAL_TIM_OnePulse_ConfigChannel:
 3532              		@ args = 0, pretend = 0, frame = 32
 3533              		@ frame_needed = 0, uses_anonymous_args = 0
 3534 0000 70B5     		push	{r4, r5, r6, lr}
 3535 0002 9A42     		cmp	r2, r3
 3536 0004 0546     		mov	r5, r0
 3537 0006 0C46     		mov	r4, r1
 3538 0008 1E46     		mov	r6, r3
 3539 000a 88B0     		sub	sp, sp, #32
 3540 000c 70D0     		beq	.L545
 3541 000e 90F83C30 		ldrb	r3, [r0, #60]	@ zero_extendqisi2
 3542 0012 0220     		movs	r0, #2
 3543 0014 012B     		cmp	r3, #1
 3544 0016 1CD0     		beq	.L538
 3545 0018 0123     		movs	r3, #1
 3546 001a 85F83D00 		strb	r0, [r5, #61]
 3547 001e 85F83C30 		strb	r3, [r5, #60]
 3548 0022 0B68     		ldr	r3, [r1]
 3549 0024 0193     		str	r3, [sp, #4]
 3550 0026 4B68     		ldr	r3, [r1, #4]
 3551 0028 0293     		str	r3, [sp, #8]
 3552 002a 8B68     		ldr	r3, [r1, #8]
 3553 002c 0393     		str	r3, [sp, #12]
 3554 002e CB68     		ldr	r3, [r1, #12]
 3555 0030 0493     		str	r3, [sp, #16]
 3556 0032 0B69     		ldr	r3, [r1, #16]
 3557 0034 0693     		str	r3, [sp, #24]
 3558 0036 4B69     		ldr	r3, [r1, #20]
 3559 0038 0793     		str	r3, [sp, #28]
 3560 003a 62B1     		cbz	r2, .L539
 3561 003c 042A     		cmp	r2, #4
 3562 003e 0FD0     		beq	.L540
 3563              	.L541:
 3564 0040 9EB1     		cbz	r6, .L542
 3565 0042 042E     		cmp	r6, #4
 3566 0044 2DD0     		beq	.L543
 3567              	.L544:
 3568 0046 0123     		movs	r3, #1
 3569 0048 0020     		movs	r0, #0
 3570 004a 85F83D30 		strb	r3, [r5, #61]
 3571 004e 85F83C00 		strb	r0, [r5, #60]
 3572              	.L538:
 3573 0052 08B0     		add	sp, sp, #32
 3574              		@ sp needed
 3575 0054 70BD     		pop	{r4, r5, r6, pc}
 3576              	.L539:
 3577 0056 2868     		ldr	r0, [r5]
ARM GAS  /tmp/ccgq9aUL.s 			page 61


 3578 0058 01A9     		add	r1, sp, #4
 3579 005a FFF7FEFF 		bl	TIM_OC1_SetConfig
 3580 005e EFE7     		b	.L541
 3581              	.L540:
 3582 0060 2868     		ldr	r0, [r5]
 3583 0062 01A9     		add	r1, sp, #4
 3584 0064 FFF7FEFF 		bl	TIM_OC2_SetConfig
 3585 0068 EAE7     		b	.L541
 3586              	.L542:
 3587 006a D4E90723 		ldrd	r2, r3, [r4, #28]
 3588 006e A169     		ldr	r1, [r4, #24]
 3589 0070 2868     		ldr	r0, [r5]
 3590 0072 FFF7FEFF 		bl	TIM_TI1_SetConfig
 3591 0076 2B68     		ldr	r3, [r5]
 3592 0078 9A69     		ldr	r2, [r3, #24]
 3593 007a 22F00C02 		bic	r2, r2, #12
 3594 007e 9A61     		str	r2, [r3, #24]
 3595 0080 9A68     		ldr	r2, [r3, #8]
 3596 0082 22F07002 		bic	r2, r2, #112
 3597 0086 9A60     		str	r2, [r3, #8]
 3598 0088 9A68     		ldr	r2, [r3, #8]
 3599 008a 42F05002 		orr	r2, r2, #80
 3600              	.L547:
 3601 008e 9A60     		str	r2, [r3, #8]
 3602 0090 9A68     		ldr	r2, [r3, #8]
 3603 0092 22F00702 		bic	r2, r2, #7
 3604 0096 9A60     		str	r2, [r3, #8]
 3605 0098 9A68     		ldr	r2, [r3, #8]
 3606 009a 42F00602 		orr	r2, r2, #6
 3607 009e 9A60     		str	r2, [r3, #8]
 3608 00a0 D1E7     		b	.L544
 3609              	.L543:
 3610 00a2 2B68     		ldr	r3, [r5]
 3611 00a4 D4E90626 		ldrd	r2, r6, [r4, #24]
 3612 00a8 216A     		ldr	r1, [r4, #32]
 3613 00aa 1C6A     		ldr	r4, [r3, #32]
 3614 00ac 0903     		lsls	r1, r1, #12
 3615 00ae 24F01004 		bic	r4, r4, #16
 3616 00b2 1C62     		str	r4, [r3, #32]
 3617 00b4 9869     		ldr	r0, [r3, #24]
 3618 00b6 1C6A     		ldr	r4, [r3, #32]
 3619 00b8 20F44070 		bic	r0, r0, #768
 3620 00bc 40EA0620 		orr	r0, r0, r6, lsl #8
 3621 00c0 20F47040 		bic	r0, r0, #61440
 3622 00c4 89B2     		uxth	r1, r1
 3623 00c6 1201     		lsls	r2, r2, #4
 3624 00c8 0143     		orrs	r1, r1, r0
 3625 00ca 02F0A002 		and	r2, r2, #160
 3626 00ce 24F0A000 		bic	r0, r4, #160
 3627 00d2 0243     		orrs	r2, r2, r0
 3628 00d4 9961     		str	r1, [r3, #24]
 3629 00d6 1A62     		str	r2, [r3, #32]
 3630 00d8 9A69     		ldr	r2, [r3, #24]
 3631 00da 22F44062 		bic	r2, r2, #3072
 3632 00de 9A61     		str	r2, [r3, #24]
 3633 00e0 9A68     		ldr	r2, [r3, #8]
 3634 00e2 22F07002 		bic	r2, r2, #112
ARM GAS  /tmp/ccgq9aUL.s 			page 62


 3635 00e6 9A60     		str	r2, [r3, #8]
 3636 00e8 9A68     		ldr	r2, [r3, #8]
 3637 00ea 42F06002 		orr	r2, r2, #96
 3638 00ee CEE7     		b	.L547
 3639              	.L545:
 3640 00f0 0120     		movs	r0, #1
 3641 00f2 AEE7     		b	.L538
 3643              		.section	.text.TIM_ETR_SetConfig,"ax",%progbits
 3644              		.align	1
 3645              		.global	TIM_ETR_SetConfig
 3646              		.syntax unified
 3647              		.thumb
 3648              		.thumb_func
 3649              		.fpu softvfp
 3651              	TIM_ETR_SetConfig:
 3652              		@ args = 0, pretend = 0, frame = 0
 3653              		@ frame_needed = 0, uses_anonymous_args = 0
 3654 0000 10B5     		push	{r4, lr}
 3655 0002 8468     		ldr	r4, [r0, #8]
 3656 0004 0A43     		orrs	r2, r2, r1
 3657 0006 24F47F44 		bic	r4, r4, #65280
 3658 000a 42EA0322 		orr	r2, r2, r3, lsl #8
 3659 000e 2243     		orrs	r2, r2, r4
 3660 0010 8260     		str	r2, [r0, #8]
 3661 0012 10BD     		pop	{r4, pc}
 3663              		.section	.text.HAL_TIM_ConfigOCrefClear,"ax",%progbits
 3664              		.align	1
 3665              		.global	HAL_TIM_ConfigOCrefClear
 3666              		.syntax unified
 3667              		.thumb
 3668              		.thumb_func
 3669              		.fpu softvfp
 3671              	HAL_TIM_ConfigOCrefClear:
 3672              		@ args = 0, pretend = 0, frame = 0
 3673              		@ frame_needed = 0, uses_anonymous_args = 0
 3674 0000 70B5     		push	{r4, r5, r6, lr}
 3675 0002 90F83C30 		ldrb	r3, [r0, #60]	@ zero_extendqisi2
 3676 0006 0446     		mov	r4, r0
 3677 0008 012B     		cmp	r3, #1
 3678 000a 0D46     		mov	r5, r1
 3679 000c 1646     		mov	r6, r2
 3680 000e 4FF00200 		mov	r0, #2
 3681 0012 22D0     		beq	.L550
 3682 0014 0123     		movs	r3, #1
 3683 0016 84F83D00 		strb	r0, [r4, #61]
 3684 001a 84F83C30 		strb	r3, [r4, #60]
 3685 001e 4868     		ldr	r0, [r1, #4]
 3686 0020 70B1     		cbz	r0, .L551
 3687 0022 9842     		cmp	r0, r3
 3688 0024 12D0     		beq	.L552
 3689              	.L553:
 3690 0026 082E     		cmp	r6, #8
 3691 0028 3ED0     		beq	.L555
 3692 002a 1DD8     		bhi	.L556
 3693 002c 2EB3     		cbz	r6, .L557
 3694 002e 042E     		cmp	r6, #4
 3695 0030 2FD0     		beq	.L558
ARM GAS  /tmp/ccgq9aUL.s 			page 63


 3696              	.L559:
 3697 0032 0123     		movs	r3, #1
 3698 0034 0020     		movs	r0, #0
 3699 0036 84F83D30 		strb	r3, [r4, #61]
 3700 003a 84F83C00 		strb	r0, [r4, #60]
 3701 003e 0CE0     		b	.L550
 3702              	.L551:
 3703 0040 2268     		ldr	r2, [r4]
 3704 0042 9368     		ldr	r3, [r2, #8]
 3705 0044 23F47F43 		bic	r3, r3, #65280
 3706 0048 9360     		str	r3, [r2, #8]
 3707 004a ECE7     		b	.L553
 3708              	.L552:
 3709 004c C968     		ldr	r1, [r1, #12]
 3710 004e 29B1     		cbz	r1, .L554
 3711 0050 0023     		movs	r3, #0
 3712 0052 84F83D00 		strb	r0, [r4, #61]
 3713 0056 84F83C30 		strb	r3, [r4, #60]
 3714              	.L550:
 3715 005a 70BD     		pop	{r4, r5, r6, pc}
 3716              	.L554:
 3717 005c 2B69     		ldr	r3, [r5, #16]
 3718 005e AA68     		ldr	r2, [r5, #8]
 3719 0060 2068     		ldr	r0, [r4]
 3720 0062 FFF7FEFF 		bl	TIM_ETR_SetConfig
 3721 0066 DEE7     		b	.L553
 3722              	.L556:
 3723 0068 0C2E     		cmp	r6, #12
 3724 006a E2D1     		bne	.L559
 3725 006c 2A68     		ldr	r2, [r5]
 3726 006e 2368     		ldr	r3, [r4]
 3727 0070 32B3     		cbz	r2, .L564
 3728 0072 DA69     		ldr	r2, [r3, #28]
 3729 0074 42F40042 		orr	r2, r2, #32768
 3730 0078 1CE0     		b	.L567
 3731              	.L557:
 3732 007a 2A68     		ldr	r2, [r5]
 3733 007c 2368     		ldr	r3, [r4]
 3734 007e 22B1     		cbz	r2, .L561
 3735 0080 9A69     		ldr	r2, [r3, #24]
 3736 0082 42F08002 		orr	r2, r2, #128
 3737              	.L566:
 3738 0086 9A61     		str	r2, [r3, #24]
 3739 0088 D3E7     		b	.L559
 3740              	.L561:
 3741 008a 9A69     		ldr	r2, [r3, #24]
 3742 008c 22F08002 		bic	r2, r2, #128
 3743 0090 F9E7     		b	.L566
 3744              	.L558:
 3745 0092 2A68     		ldr	r2, [r5]
 3746 0094 2368     		ldr	r3, [r4]
 3747 0096 1AB1     		cbz	r2, .L562
 3748 0098 9A69     		ldr	r2, [r3, #24]
 3749 009a 42F40042 		orr	r2, r2, #32768
 3750 009e F2E7     		b	.L566
 3751              	.L562:
 3752 00a0 9A69     		ldr	r2, [r3, #24]
ARM GAS  /tmp/ccgq9aUL.s 			page 64


 3753 00a2 22F40042 		bic	r2, r2, #32768
 3754 00a6 EEE7     		b	.L566
 3755              	.L555:
 3756 00a8 2A68     		ldr	r2, [r5]
 3757 00aa 2368     		ldr	r3, [r4]
 3758 00ac 22B1     		cbz	r2, .L563
 3759 00ae DA69     		ldr	r2, [r3, #28]
 3760 00b0 42F08002 		orr	r2, r2, #128
 3761              	.L567:
 3762 00b4 DA61     		str	r2, [r3, #28]
 3763 00b6 BCE7     		b	.L559
 3764              	.L563:
 3765 00b8 DA69     		ldr	r2, [r3, #28]
 3766 00ba 22F08002 		bic	r2, r2, #128
 3767 00be F9E7     		b	.L567
 3768              	.L564:
 3769 00c0 DA69     		ldr	r2, [r3, #28]
 3770 00c2 22F40042 		bic	r2, r2, #32768
 3771 00c6 F5E7     		b	.L567
 3773              		.section	.text.HAL_TIM_ConfigClockSource,"ax",%progbits
 3774              		.align	1
 3775              		.global	HAL_TIM_ConfigClockSource
 3776              		.syntax unified
 3777              		.thumb
 3778              		.thumb_func
 3779              		.fpu softvfp
 3781              	HAL_TIM_ConfigClockSource:
 3782              		@ args = 0, pretend = 0, frame = 0
 3783              		@ frame_needed = 0, uses_anonymous_args = 0
 3784 0000 70B5     		push	{r4, r5, r6, lr}
 3785 0002 90F83C30 		ldrb	r3, [r0, #60]	@ zero_extendqisi2
 3786 0006 0446     		mov	r4, r0
 3787 0008 012B     		cmp	r3, #1
 3788 000a 4FF00200 		mov	r0, #2
 3789 000e 27D0     		beq	.L569
 3790 0010 0123     		movs	r3, #1
 3791 0012 84F83D00 		strb	r0, [r4, #61]
 3792 0016 2068     		ldr	r0, [r4]
 3793 0018 84F83C30 		strb	r3, [r4, #60]
 3794 001c 8368     		ldr	r3, [r0, #8]
 3795 001e 23F47F43 		bic	r3, r3, #65280
 3796 0022 23F07703 		bic	r3, r3, #119
 3797 0026 8360     		str	r3, [r0, #8]
 3798 0028 0B68     		ldr	r3, [r1]
 3799 002a 602B     		cmp	r3, #96
 3800 002c 4DD0     		beq	.L570
 3801 002e 32D8     		bhi	.L571
 3802 0030 402B     		cmp	r3, #64
 3803 0032 62D0     		beq	.L572
 3804 0034 15D8     		bhi	.L573
 3805 0036 202B     		cmp	r3, #32
 3806 0038 03D0     		beq	.L574
 3807 003a 09D8     		bhi	.L575
 3808 003c 33F01002 		bics	r2, r3, #16
 3809 0040 08D1     		bne	.L576
 3810              	.L574:
 3811 0042 8268     		ldr	r2, [r0, #8]
ARM GAS  /tmp/ccgq9aUL.s 			page 65


 3812 0044 22F07002 		bic	r2, r2, #112
 3813 0048 1343     		orrs	r3, r3, r2
 3814 004a 43F00703 		orr	r3, r3, #7
 3815 004e 20E0     		b	.L591
 3816              	.L575:
 3817 0050 302B     		cmp	r3, #48
 3818 0052 F6D0     		beq	.L574
 3819              	.L576:
 3820 0054 0123     		movs	r3, #1
 3821 0056 0020     		movs	r0, #0
 3822 0058 84F83D30 		strb	r3, [r4, #61]
 3823 005c 84F83C00 		strb	r0, [r4, #60]
 3824              	.L569:
 3825 0060 70BD     		pop	{r4, r5, r6, pc}
 3826              	.L573:
 3827 0062 502B     		cmp	r3, #80
 3828 0064 F6D1     		bne	.L576
 3829 0066 4A68     		ldr	r2, [r1, #4]
 3830 0068 CE68     		ldr	r6, [r1, #12]
 3831 006a 016A     		ldr	r1, [r0, #32]
 3832 006c 056A     		ldr	r5, [r0, #32]
 3833 006e 21F00A01 		bic	r1, r1, #10
 3834 0072 25F00105 		bic	r5, r5, #1
 3835 0076 0562     		str	r5, [r0, #32]
 3836 0078 8369     		ldr	r3, [r0, #24]
 3837 007a 0A43     		orrs	r2, r2, r1
 3838 007c 23F0F003 		bic	r3, r3, #240
 3839 0080 43EA0613 		orr	r3, r3, r6, lsl #4
 3840 0084 8361     		str	r3, [r0, #24]
 3841 0086 0262     		str	r2, [r0, #32]
 3842 0088 8368     		ldr	r3, [r0, #8]
 3843 008a 23F07003 		bic	r3, r3, #112
 3844 008e 43F05703 		orr	r3, r3, #87
 3845              	.L591:
 3846 0092 8360     		str	r3, [r0, #8]
 3847 0094 DEE7     		b	.L576
 3848              	.L571:
 3849 0096 702B     		cmp	r3, #112
 3850 0098 0CD0     		beq	.L578
 3851 009a B3F5005F 		cmp	r3, #8192
 3852 009e D9D1     		bne	.L576
 3853 00a0 CB68     		ldr	r3, [r1, #12]
 3854 00a2 D1E90121 		ldrd	r2, r1, [r1, #4]
 3855 00a6 FFF7FEFF 		bl	TIM_ETR_SetConfig
 3856 00aa 2268     		ldr	r2, [r4]
 3857 00ac 9368     		ldr	r3, [r2, #8]
 3858 00ae 43F48043 		orr	r3, r3, #16384
 3859 00b2 08E0     		b	.L590
 3860              	.L578:
 3861 00b4 CB68     		ldr	r3, [r1, #12]
 3862 00b6 D1E90121 		ldrd	r2, r1, [r1, #4]
 3863 00ba FFF7FEFF 		bl	TIM_ETR_SetConfig
 3864 00be 2268     		ldr	r2, [r4]
 3865 00c0 9368     		ldr	r3, [r2, #8]
 3866 00c2 43F07703 		orr	r3, r3, #119
 3867              	.L590:
 3868 00c6 9360     		str	r3, [r2, #8]
ARM GAS  /tmp/ccgq9aUL.s 			page 66


 3869 00c8 C4E7     		b	.L576
 3870              	.L570:
 3871 00ca 4D68     		ldr	r5, [r1, #4]
 3872 00cc CE68     		ldr	r6, [r1, #12]
 3873 00ce 016A     		ldr	r1, [r0, #32]
 3874 00d0 21F01001 		bic	r1, r1, #16
 3875 00d4 0162     		str	r1, [r0, #32]
 3876 00d6 8269     		ldr	r2, [r0, #24]
 3877 00d8 036A     		ldr	r3, [r0, #32]
 3878 00da 22F47042 		bic	r2, r2, #61440
 3879 00de 23F0A003 		bic	r3, r3, #160
 3880 00e2 43EA0513 		orr	r3, r3, r5, lsl #4
 3881 00e6 42EA0632 		orr	r2, r2, r6, lsl #12
 3882 00ea 8261     		str	r2, [r0, #24]
 3883 00ec 0362     		str	r3, [r0, #32]
 3884 00ee 8368     		ldr	r3, [r0, #8]
 3885 00f0 23F07003 		bic	r3, r3, #112
 3886 00f4 43F06703 		orr	r3, r3, #103
 3887 00f8 CBE7     		b	.L591
 3888              	.L572:
 3889 00fa 4A68     		ldr	r2, [r1, #4]
 3890 00fc CE68     		ldr	r6, [r1, #12]
 3891 00fe 016A     		ldr	r1, [r0, #32]
 3892 0100 056A     		ldr	r5, [r0, #32]
 3893 0102 21F00A01 		bic	r1, r1, #10
 3894 0106 25F00105 		bic	r5, r5, #1
 3895 010a 0562     		str	r5, [r0, #32]
 3896 010c 8369     		ldr	r3, [r0, #24]
 3897 010e 0A43     		orrs	r2, r2, r1
 3898 0110 23F0F003 		bic	r3, r3, #240
 3899 0114 43EA0613 		orr	r3, r3, r6, lsl #4
 3900 0118 8361     		str	r3, [r0, #24]
 3901 011a 0262     		str	r2, [r0, #32]
 3902 011c 8368     		ldr	r3, [r0, #8]
 3903 011e 23F07003 		bic	r3, r3, #112
 3904 0122 43F04703 		orr	r3, r3, #71
 3905 0126 B4E7     		b	.L591
 3907              		.section	.text.TIM_SlaveTimer_SetConfig,"ax",%progbits
 3908              		.align	1
 3909              		.syntax unified
 3910              		.thumb
 3911              		.thumb_func
 3912              		.fpu softvfp
 3914              	TIM_SlaveTimer_SetConfig:
 3915              		@ args = 0, pretend = 0, frame = 0
 3916              		@ frame_needed = 0, uses_anonymous_args = 0
 3917 0000 0068     		ldr	r0, [r0]
 3918 0002 38B5     		push	{r3, r4, r5, lr}
 3919 0004 8368     		ldr	r3, [r0, #8]
 3920 0006 4A68     		ldr	r2, [r1, #4]
 3921 0008 23F07003 		bic	r3, r3, #112
 3922 000c 0C68     		ldr	r4, [r1]
 3923 000e 1343     		orrs	r3, r3, r2
 3924 0010 23F00703 		bic	r3, r3, #7
 3925 0014 2343     		orrs	r3, r3, r4
 3926 0016 602A     		cmp	r2, #96
 3927 0018 8360     		str	r3, [r0, #8]
ARM GAS  /tmp/ccgq9aUL.s 			page 67


 3928 001a 2ED0     		beq	.L593
 3929 001c 05D8     		bhi	.L594
 3930 001e 402A     		cmp	r2, #64
 3931 0020 0BD0     		beq	.L595
 3932 0022 502A     		cmp	r2, #80
 3933 0024 19D0     		beq	.L596
 3934              	.L600:
 3935 0026 0020     		movs	r0, #0
 3936              	.L597:
 3937 0028 38BD     		pop	{r3, r4, r5, pc}
 3938              	.L594:
 3939 002a 702A     		cmp	r2, #112
 3940 002c FBD1     		bne	.L600
 3941 002e 0B69     		ldr	r3, [r1, #16]
 3942 0030 D1E90221 		ldrd	r2, r1, [r1, #8]
 3943 0034 FFF7FEFF 		bl	TIM_ETR_SetConfig
 3944 0038 F5E7     		b	.L600
 3945              	.L595:
 3946 003a 052C     		cmp	r4, #5
 3947 003c 30D0     		beq	.L599
 3948 003e 026A     		ldr	r2, [r0, #32]
 3949 0040 036A     		ldr	r3, [r0, #32]
 3950 0042 0969     		ldr	r1, [r1, #16]
 3951 0044 23F00103 		bic	r3, r3, #1
 3952 0048 0362     		str	r3, [r0, #32]
 3953 004a 8369     		ldr	r3, [r0, #24]
 3954 004c 23F0F003 		bic	r3, r3, #240
 3955 0050 43EA0113 		orr	r3, r3, r1, lsl #4
 3956              	.L601:
 3957 0054 8361     		str	r3, [r0, #24]
 3958 0056 0262     		str	r2, [r0, #32]
 3959 0058 E5E7     		b	.L600
 3960              	.L596:
 3961 005a 8A68     		ldr	r2, [r1, #8]
 3962 005c 0D69     		ldr	r5, [r1, #16]
 3963 005e 016A     		ldr	r1, [r0, #32]
 3964 0060 046A     		ldr	r4, [r0, #32]
 3965 0062 21F00A01 		bic	r1, r1, #10
 3966 0066 24F00104 		bic	r4, r4, #1
 3967 006a 0462     		str	r4, [r0, #32]
 3968 006c 8369     		ldr	r3, [r0, #24]
 3969 006e 0A43     		orrs	r2, r2, r1
 3970 0070 23F0F003 		bic	r3, r3, #240
 3971 0074 43EA0513 		orr	r3, r3, r5, lsl #4
 3972 0078 ECE7     		b	.L601
 3973              	.L593:
 3974 007a 8C68     		ldr	r4, [r1, #8]
 3975 007c 0D69     		ldr	r5, [r1, #16]
 3976 007e 016A     		ldr	r1, [r0, #32]
 3977 0080 21F01001 		bic	r1, r1, #16
 3978 0084 0162     		str	r1, [r0, #32]
 3979 0086 8269     		ldr	r2, [r0, #24]
 3980 0088 036A     		ldr	r3, [r0, #32]
 3981 008a 22F47042 		bic	r2, r2, #61440
 3982 008e 23F0A003 		bic	r3, r3, #160
 3983 0092 42EA0532 		orr	r2, r2, r5, lsl #12
 3984 0096 43EA0413 		orr	r3, r3, r4, lsl #4
ARM GAS  /tmp/ccgq9aUL.s 			page 68


 3985 009a 8261     		str	r2, [r0, #24]
 3986 009c 0362     		str	r3, [r0, #32]
 3987 009e C2E7     		b	.L600
 3988              	.L599:
 3989 00a0 0120     		movs	r0, #1
 3990 00a2 C1E7     		b	.L597
 3992              		.section	.text.HAL_TIM_SlaveConfigSynchro,"ax",%progbits
 3993              		.align	1
 3994              		.global	HAL_TIM_SlaveConfigSynchro
 3995              		.syntax unified
 3996              		.thumb
 3997              		.thumb_func
 3998              		.fpu softvfp
 4000              	HAL_TIM_SlaveConfigSynchro:
 4001              		@ args = 0, pretend = 0, frame = 0
 4002              		@ frame_needed = 0, uses_anonymous_args = 0
 4003 0000 38B5     		push	{r3, r4, r5, lr}
 4004 0002 90F83C30 		ldrb	r3, [r0, #60]	@ zero_extendqisi2
 4005 0006 0446     		mov	r4, r0
 4006 0008 012B     		cmp	r3, #1
 4007 000a 4FF00203 		mov	r3, #2
 4008 000e 1CD0     		beq	.L605
 4009 0010 0125     		movs	r5, #1
 4010 0012 80F83D30 		strb	r3, [r0, #61]
 4011 0016 80F83C50 		strb	r5, [r0, #60]
 4012 001a FFF7FEFF 		bl	TIM_SlaveTimer_SetConfig
 4013 001e 30B1     		cbz	r0, .L604
 4014 0020 0023     		movs	r3, #0
 4015 0022 2846     		mov	r0, r5
 4016 0024 84F83D50 		strb	r5, [r4, #61]
 4017 0028 84F83C30 		strb	r3, [r4, #60]
 4018              	.L603:
 4019 002c 38BD     		pop	{r3, r4, r5, pc}
 4020              	.L604:
 4021 002e 2368     		ldr	r3, [r4]
 4022 0030 DA68     		ldr	r2, [r3, #12]
 4023 0032 22F04002 		bic	r2, r2, #64
 4024 0036 DA60     		str	r2, [r3, #12]
 4025 0038 DA68     		ldr	r2, [r3, #12]
 4026 003a 22F48042 		bic	r2, r2, #16384
 4027 003e DA60     		str	r2, [r3, #12]
 4028 0040 84F83D50 		strb	r5, [r4, #61]
 4029 0044 84F83C00 		strb	r0, [r4, #60]
 4030 0048 F0E7     		b	.L603
 4031              	.L605:
 4032 004a 1846     		mov	r0, r3
 4033 004c EEE7     		b	.L603
 4035              		.section	.text.HAL_TIM_SlaveConfigSynchro_IT,"ax",%progbits
 4036              		.align	1
 4037              		.global	HAL_TIM_SlaveConfigSynchro_IT
 4038              		.syntax unified
 4039              		.thumb
 4040              		.thumb_func
 4041              		.fpu softvfp
 4043              	HAL_TIM_SlaveConfigSynchro_IT:
 4044              		@ args = 0, pretend = 0, frame = 0
 4045              		@ frame_needed = 0, uses_anonymous_args = 0
ARM GAS  /tmp/ccgq9aUL.s 			page 69


 4046 0000 38B5     		push	{r3, r4, r5, lr}
 4047 0002 90F83C30 		ldrb	r3, [r0, #60]	@ zero_extendqisi2
 4048 0006 0446     		mov	r4, r0
 4049 0008 012B     		cmp	r3, #1
 4050 000a 4FF00203 		mov	r3, #2
 4051 000e 1CD0     		beq	.L609
 4052 0010 0125     		movs	r5, #1
 4053 0012 80F83D30 		strb	r3, [r0, #61]
 4054 0016 80F83C50 		strb	r5, [r0, #60]
 4055 001a FFF7FEFF 		bl	TIM_SlaveTimer_SetConfig
 4056 001e 30B1     		cbz	r0, .L608
 4057 0020 0023     		movs	r3, #0
 4058 0022 2846     		mov	r0, r5
 4059 0024 84F83D50 		strb	r5, [r4, #61]
 4060 0028 84F83C30 		strb	r3, [r4, #60]
 4061              	.L607:
 4062 002c 38BD     		pop	{r3, r4, r5, pc}
 4063              	.L608:
 4064 002e 2368     		ldr	r3, [r4]
 4065 0030 DA68     		ldr	r2, [r3, #12]
 4066 0032 42F04002 		orr	r2, r2, #64
 4067 0036 DA60     		str	r2, [r3, #12]
 4068 0038 DA68     		ldr	r2, [r3, #12]
 4069 003a 22F48042 		bic	r2, r2, #16384
 4070 003e DA60     		str	r2, [r3, #12]
 4071 0040 84F83D50 		strb	r5, [r4, #61]
 4072 0044 84F83C00 		strb	r0, [r4, #60]
 4073 0048 F0E7     		b	.L607
 4074              	.L609:
 4075 004a 1846     		mov	r0, r3
 4076 004c EEE7     		b	.L607
 4078              		.section	.text.TIM_CCxChannelCmd,"ax",%progbits
 4079              		.align	1
 4080              		.global	TIM_CCxChannelCmd
 4081              		.syntax unified
 4082              		.thumb
 4083              		.thumb_func
 4084              		.fpu softvfp
 4086              	TIM_CCxChannelCmd:
 4087              		@ args = 0, pretend = 0, frame = 0
 4088              		@ frame_needed = 0, uses_anonymous_args = 0
 4089 0000 10B5     		push	{r4, lr}
 4090 0002 0124     		movs	r4, #1
 4091 0004 036A     		ldr	r3, [r0, #32]
 4092 0006 01F01F01 		and	r1, r1, #31
 4093 000a 8C40     		lsls	r4, r4, r1
 4094 000c 23EA0403 		bic	r3, r3, r4
 4095 0010 0362     		str	r3, [r0, #32]
 4096 0012 036A     		ldr	r3, [r0, #32]
 4097 0014 8A40     		lsls	r2, r2, r1
 4098 0016 1A43     		orrs	r2, r2, r3
 4099 0018 0262     		str	r2, [r0, #32]
 4100 001a 10BD     		pop	{r4, pc}
 4102              		.section	.text.HAL_TIM_OC_Start,"ax",%progbits
 4103              		.align	1
 4104              		.global	HAL_TIM_OC_Start
 4105              		.syntax unified
ARM GAS  /tmp/ccgq9aUL.s 			page 70


 4106              		.thumb
 4107              		.thumb_func
 4108              		.fpu softvfp
 4110              	HAL_TIM_OC_Start:
 4111              		@ args = 0, pretend = 0, frame = 0
 4112              		@ frame_needed = 0, uses_anonymous_args = 0
 4113 0000 10B5     		push	{r4, lr}
 4114 0002 0446     		mov	r4, r0
 4115 0004 0122     		movs	r2, #1
 4116 0006 0068     		ldr	r0, [r0]
 4117 0008 FFF7FEFF 		bl	TIM_CCxChannelCmd
 4118 000c 2368     		ldr	r3, [r4]
 4119 000e 0B4A     		ldr	r2, .L618
 4120 0010 9342     		cmp	r3, r2
 4121 0012 03D0     		beq	.L612
 4122 0014 02F50062 		add	r2, r2, #2048
 4123 0018 9342     		cmp	r3, r2
 4124 001a 03D1     		bne	.L613
 4125              	.L612:
 4126 001c 5A6C     		ldr	r2, [r3, #68]
 4127 001e 42F40042 		orr	r2, r2, #32768
 4128 0022 5A64     		str	r2, [r3, #68]
 4129              	.L613:
 4130 0024 9A68     		ldr	r2, [r3, #8]
 4131 0026 0020     		movs	r0, #0
 4132 0028 02F00702 		and	r2, r2, #7
 4133 002c 062A     		cmp	r2, #6
 4134 002e 1EBF     		ittt	ne
 4135 0030 1A68     		ldrne	r2, [r3]
 4136 0032 42F00102 		orrne	r2, r2, #1
 4137 0036 1A60     		strne	r2, [r3]
 4138 0038 10BD     		pop	{r4, pc}
 4139              	.L619:
 4140 003a 00BF     		.align	2
 4141              	.L618:
 4142 003c 002C0140 		.word	1073818624
 4144              		.section	.text.HAL_TIM_PWM_Start,"ax",%progbits
 4145              		.align	1
 4146              		.global	HAL_TIM_PWM_Start
 4147              		.syntax unified
 4148              		.thumb
 4149              		.thumb_func
 4150              		.fpu softvfp
 4152              	HAL_TIM_PWM_Start:
 4153              		@ args = 0, pretend = 0, frame = 0
 4154              		@ frame_needed = 0, uses_anonymous_args = 0
 4155              		@ link register save eliminated.
 4156 0000 FFF7FEBF 		b	HAL_TIM_OC_Start
 4158              		.section	.text.HAL_TIM_OC_Stop,"ax",%progbits
 4159              		.align	1
 4160              		.global	HAL_TIM_OC_Stop
 4161              		.syntax unified
 4162              		.thumb
 4163              		.thumb_func
 4164              		.fpu softvfp
 4166              	HAL_TIM_OC_Stop:
 4167              		@ args = 0, pretend = 0, frame = 0
ARM GAS  /tmp/ccgq9aUL.s 			page 71


 4168              		@ frame_needed = 0, uses_anonymous_args = 0
 4169 0000 10B5     		push	{r4, lr}
 4170 0002 0446     		mov	r4, r0
 4171 0004 0022     		movs	r2, #0
 4172 0006 0068     		ldr	r0, [r0]
 4173 0008 FFF7FEFF 		bl	TIM_CCxChannelCmd
 4174 000c 2368     		ldr	r3, [r4]
 4175 000e 124A     		ldr	r2, .L625
 4176 0010 9342     		cmp	r3, r2
 4177 0012 03D0     		beq	.L622
 4178 0014 02F50062 		add	r2, r2, #2048
 4179 0018 9342     		cmp	r3, r2
 4180 001a 0DD1     		bne	.L623
 4181              	.L622:
 4182 001c 41F21112 		movw	r2, #4369
 4183 0020 196A     		ldr	r1, [r3, #32]
 4184 0022 1142     		tst	r1, r2
 4185 0024 08D1     		bne	.L623
 4186 0026 40F24442 		movw	r2, #1092
 4187 002a 196A     		ldr	r1, [r3, #32]
 4188 002c 1142     		tst	r1, r2
 4189 002e 02BF     		ittt	eq
 4190 0030 5A6C     		ldreq	r2, [r3, #68]
 4191 0032 22F40042 		biceq	r2, r2, #32768
 4192 0036 5A64     		streq	r2, [r3, #68]
 4193              	.L623:
 4194 0038 41F21112 		movw	r2, #4369
 4195 003c 196A     		ldr	r1, [r3, #32]
 4196 003e 1142     		tst	r1, r2
 4197 0040 08D1     		bne	.L624
 4198 0042 40F24442 		movw	r2, #1092
 4199 0046 196A     		ldr	r1, [r3, #32]
 4200 0048 1142     		tst	r1, r2
 4201 004a 02BF     		ittt	eq
 4202 004c 1A68     		ldreq	r2, [r3]
 4203 004e 22F00102 		biceq	r2, r2, #1
 4204 0052 1A60     		streq	r2, [r3]
 4205              	.L624:
 4206 0054 0020     		movs	r0, #0
 4207 0056 10BD     		pop	{r4, pc}
 4208              	.L626:
 4209              		.align	2
 4210              	.L625:
 4211 0058 002C0140 		.word	1073818624
 4213              		.section	.text.HAL_TIM_OC_Start_IT,"ax",%progbits
 4214              		.align	1
 4215              		.global	HAL_TIM_OC_Start_IT
 4216              		.syntax unified
 4217              		.thumb
 4218              		.thumb_func
 4219              		.fpu softvfp
 4221              	HAL_TIM_OC_Start_IT:
 4222              		@ args = 0, pretend = 0, frame = 0
 4223              		@ frame_needed = 0, uses_anonymous_args = 0
 4224 0000 0829     		cmp	r1, #8
 4225 0002 10B5     		push	{r4, lr}
 4226 0004 0446     		mov	r4, r0
ARM GAS  /tmp/ccgq9aUL.s 			page 72


 4227 0006 0068     		ldr	r0, [r0]
 4228 0008 2CD0     		beq	.L628
 4229 000a 1CD8     		bhi	.L629
 4230 000c 09B3     		cbz	r1, .L630
 4231 000e 0429     		cmp	r1, #4
 4232 0010 24D0     		beq	.L631
 4233              	.L632:
 4234 0012 0122     		movs	r2, #1
 4235 0014 FFF7FEFF 		bl	TIM_CCxChannelCmd
 4236 0018 2368     		ldr	r3, [r4]
 4237 001a 144A     		ldr	r2, .L641
 4238 001c 9342     		cmp	r3, r2
 4239 001e 03D0     		beq	.L634
 4240 0020 02F50062 		add	r2, r2, #2048
 4241 0024 9342     		cmp	r3, r2
 4242 0026 03D1     		bne	.L635
 4243              	.L634:
 4244 0028 5A6C     		ldr	r2, [r3, #68]
 4245 002a 42F40042 		orr	r2, r2, #32768
 4246 002e 5A64     		str	r2, [r3, #68]
 4247              	.L635:
 4248 0030 9A68     		ldr	r2, [r3, #8]
 4249 0032 0020     		movs	r0, #0
 4250 0034 02F00702 		and	r2, r2, #7
 4251 0038 062A     		cmp	r2, #6
 4252 003a 1EBF     		ittt	ne
 4253 003c 1A68     		ldrne	r2, [r3]
 4254 003e 42F00102 		orrne	r2, r2, #1
 4255 0042 1A60     		strne	r2, [r3]
 4256 0044 10BD     		pop	{r4, pc}
 4257              	.L629:
 4258 0046 0C29     		cmp	r1, #12
 4259 0048 E3D1     		bne	.L632
 4260 004a C368     		ldr	r3, [r0, #12]
 4261 004c 43F01003 		orr	r3, r3, #16
 4262 0050 02E0     		b	.L640
 4263              	.L630:
 4264 0052 C368     		ldr	r3, [r0, #12]
 4265 0054 43F00203 		orr	r3, r3, #2
 4266              	.L640:
 4267 0058 C360     		str	r3, [r0, #12]
 4268 005a DAE7     		b	.L632
 4269              	.L631:
 4270 005c C368     		ldr	r3, [r0, #12]
 4271 005e 43F00403 		orr	r3, r3, #4
 4272 0062 F9E7     		b	.L640
 4273              	.L628:
 4274 0064 C368     		ldr	r3, [r0, #12]
 4275 0066 43F00803 		orr	r3, r3, #8
 4276 006a F5E7     		b	.L640
 4277              	.L642:
 4278              		.align	2
 4279              	.L641:
 4280 006c 002C0140 		.word	1073818624
 4282              		.section	.text.HAL_TIM_PWM_Start_IT,"ax",%progbits
 4283              		.align	1
 4284              		.global	HAL_TIM_PWM_Start_IT
ARM GAS  /tmp/ccgq9aUL.s 			page 73


 4285              		.syntax unified
 4286              		.thumb
 4287              		.thumb_func
 4288              		.fpu softvfp
 4290              	HAL_TIM_PWM_Start_IT:
 4291              		@ args = 0, pretend = 0, frame = 0
 4292              		@ frame_needed = 0, uses_anonymous_args = 0
 4293              		@ link register save eliminated.
 4294 0000 FFF7FEBF 		b	HAL_TIM_OC_Start_IT
 4296              		.section	.text.HAL_TIM_OC_Stop_IT,"ax",%progbits
 4297              		.align	1
 4298              		.global	HAL_TIM_OC_Stop_IT
 4299              		.syntax unified
 4300              		.thumb
 4301              		.thumb_func
 4302              		.fpu softvfp
 4304              	HAL_TIM_OC_Stop_IT:
 4305              		@ args = 0, pretend = 0, frame = 0
 4306              		@ frame_needed = 0, uses_anonymous_args = 0
 4307 0000 0829     		cmp	r1, #8
 4308 0002 10B5     		push	{r4, lr}
 4309 0004 0446     		mov	r4, r0
 4310 0006 0068     		ldr	r0, [r0]
 4311 0008 3CD0     		beq	.L645
 4312 000a 2CD8     		bhi	.L646
 4313 000c 0029     		cmp	r1, #0
 4314 000e 30D0     		beq	.L647
 4315 0010 0429     		cmp	r1, #4
 4316 0012 33D0     		beq	.L648
 4317              	.L649:
 4318 0014 0022     		movs	r2, #0
 4319 0016 FFF7FEFF 		bl	TIM_CCxChannelCmd
 4320 001a 2368     		ldr	r3, [r4]
 4321 001c 1B4A     		ldr	r2, .L655
 4322 001e 9342     		cmp	r3, r2
 4323 0020 03D0     		beq	.L651
 4324 0022 02F50062 		add	r2, r2, #2048
 4325 0026 9342     		cmp	r3, r2
 4326 0028 0DD1     		bne	.L652
 4327              	.L651:
 4328 002a 41F21112 		movw	r2, #4369
 4329 002e 196A     		ldr	r1, [r3, #32]
 4330 0030 1142     		tst	r1, r2
 4331 0032 08D1     		bne	.L652
 4332 0034 40F24442 		movw	r2, #1092
 4333 0038 196A     		ldr	r1, [r3, #32]
 4334 003a 1142     		tst	r1, r2
 4335 003c 02BF     		ittt	eq
 4336 003e 5A6C     		ldreq	r2, [r3, #68]
 4337 0040 22F40042 		biceq	r2, r2, #32768
 4338 0044 5A64     		streq	r2, [r3, #68]
 4339              	.L652:
 4340 0046 41F21112 		movw	r2, #4369
 4341 004a 196A     		ldr	r1, [r3, #32]
 4342 004c 1142     		tst	r1, r2
 4343 004e 08D1     		bne	.L653
 4344 0050 40F24442 		movw	r2, #1092
ARM GAS  /tmp/ccgq9aUL.s 			page 74


 4345 0054 196A     		ldr	r1, [r3, #32]
 4346 0056 1142     		tst	r1, r2
 4347 0058 02BF     		ittt	eq
 4348 005a 1A68     		ldreq	r2, [r3]
 4349 005c 22F00102 		biceq	r2, r2, #1
 4350 0060 1A60     		streq	r2, [r3]
 4351              	.L653:
 4352 0062 0020     		movs	r0, #0
 4353 0064 10BD     		pop	{r4, pc}
 4354              	.L646:
 4355 0066 0C29     		cmp	r1, #12
 4356 0068 D4D1     		bne	.L649
 4357 006a C368     		ldr	r3, [r0, #12]
 4358 006c 23F01003 		bic	r3, r3, #16
 4359 0070 02E0     		b	.L654
 4360              	.L647:
 4361 0072 C368     		ldr	r3, [r0, #12]
 4362 0074 23F00203 		bic	r3, r3, #2
 4363              	.L654:
 4364 0078 C360     		str	r3, [r0, #12]
 4365 007a CBE7     		b	.L649
 4366              	.L648:
 4367 007c C368     		ldr	r3, [r0, #12]
 4368 007e 23F00403 		bic	r3, r3, #4
 4369 0082 F9E7     		b	.L654
 4370              	.L645:
 4371 0084 C368     		ldr	r3, [r0, #12]
 4372 0086 23F00803 		bic	r3, r3, #8
 4373 008a F5E7     		b	.L654
 4374              	.L656:
 4375              		.align	2
 4376              	.L655:
 4377 008c 002C0140 		.word	1073818624
 4379              		.section	.text.HAL_TIM_PWM_Stop_IT,"ax",%progbits
 4380              		.align	1
 4381              		.global	HAL_TIM_PWM_Stop_IT
 4382              		.syntax unified
 4383              		.thumb
 4384              		.thumb_func
 4385              		.fpu softvfp
 4387              	HAL_TIM_PWM_Stop_IT:
 4388              		@ args = 0, pretend = 0, frame = 0
 4389              		@ frame_needed = 0, uses_anonymous_args = 0
 4390              		@ link register save eliminated.
 4391 0000 FFF7FEBF 		b	HAL_TIM_OC_Stop_IT
 4393              		.section	.text.HAL_TIM_OC_Start_DMA,"ax",%progbits
 4394              		.align	1
 4395              		.global	HAL_TIM_OC_Start_DMA
 4396              		.syntax unified
 4397              		.thumb
 4398              		.thumb_func
 4399              		.fpu softvfp
 4401              	HAL_TIM_OC_Start_DMA:
 4402              		@ args = 0, pretend = 0, frame = 0
 4403              		@ frame_needed = 0, uses_anonymous_args = 0
 4404 0000 70B5     		push	{r4, r5, r6, lr}
 4405 0002 0D46     		mov	r5, r1
ARM GAS  /tmp/ccgq9aUL.s 			page 75


 4406 0004 1146     		mov	r1, r2
 4407 0006 90F83D20 		ldrb	r2, [r0, #61]	@ zero_extendqisi2
 4408 000a 0446     		mov	r4, r0
 4409 000c 022A     		cmp	r2, #2
 4410 000e D0B2     		uxtb	r0, r2
 4411 0010 06D0     		beq	.L659
 4412 0012 94F83D20 		ldrb	r2, [r4, #61]	@ zero_extendqisi2
 4413 0016 012A     		cmp	r2, #1
 4414 0018 06D1     		bne	.L660
 4415 001a 11B9     		cbnz	r1, .L661
 4416 001c 0BB1     		cbz	r3, .L661
 4417              	.L668:
 4418 001e 0120     		movs	r0, #1
 4419              	.L659:
 4420 0020 70BD     		pop	{r4, r5, r6, pc}
 4421              	.L661:
 4422 0022 0222     		movs	r2, #2
 4423 0024 84F83D20 		strb	r2, [r4, #61]
 4424              	.L660:
 4425 0028 082D     		cmp	r5, #8
 4426 002a 2268     		ldr	r2, [r4]
 4427 002c 56D0     		beq	.L662
 4428 002e 1FD8     		bhi	.L663
 4429 0030 002D     		cmp	r5, #0
 4430 0032 30D0     		beq	.L664
 4431 0034 042D     		cmp	r5, #4
 4432 0036 40D0     		beq	.L665
 4433              	.L666:
 4434 0038 0122     		movs	r2, #1
 4435 003a 2946     		mov	r1, r5
 4436 003c 2068     		ldr	r0, [r4]
 4437 003e FFF7FEFF 		bl	TIM_CCxChannelCmd
 4438 0042 2368     		ldr	r3, [r4]
 4439 0044 2E4A     		ldr	r2, .L679
 4440 0046 9342     		cmp	r3, r2
 4441 0048 03D0     		beq	.L669
 4442 004a 02F50062 		add	r2, r2, #2048
 4443 004e 9342     		cmp	r3, r2
 4444 0050 03D1     		bne	.L670
 4445              	.L669:
 4446 0052 5A6C     		ldr	r2, [r3, #68]
 4447 0054 42F40042 		orr	r2, r2, #32768
 4448 0058 5A64     		str	r2, [r3, #68]
 4449              	.L670:
 4450 005a 9A68     		ldr	r2, [r3, #8]
 4451 005c 0020     		movs	r0, #0
 4452 005e 02F00702 		and	r2, r2, #7
 4453 0062 062A     		cmp	r2, #6
 4454 0064 1EBF     		ittt	ne
 4455 0066 1A68     		ldrne	r2, [r3]
 4456 0068 42F00102 		orrne	r2, r2, #1
 4457 006c 1A60     		strne	r2, [r3]
 4458 006e D7E7     		b	.L659
 4459              	.L663:
 4460 0070 0C2D     		cmp	r5, #12
 4461 0072 E1D1     		bne	.L666
 4462 0074 206B     		ldr	r0, [r4, #48]
ARM GAS  /tmp/ccgq9aUL.s 			page 76


 4463 0076 234E     		ldr	r6, .L679+4
 4464 0078 4032     		adds	r2, r2, #64
 4465 007a 8662     		str	r6, [r0, #40]
 4466 007c 224E     		ldr	r6, .L679+8
 4467 007e C662     		str	r6, [r0, #44]
 4468 0080 224E     		ldr	r6, .L679+12
 4469 0082 0663     		str	r6, [r0, #48]
 4470 0084 FFF7FEFF 		bl	HAL_DMA_Start_IT
 4471 0088 0028     		cmp	r0, #0
 4472 008a C8D1     		bne	.L668
 4473 008c 2268     		ldr	r2, [r4]
 4474 008e D368     		ldr	r3, [r2, #12]
 4475 0090 43F48053 		orr	r3, r3, #4096
 4476 0094 0FE0     		b	.L678
 4477              	.L664:
 4478 0096 606A     		ldr	r0, [r4, #36]
 4479 0098 1A4E     		ldr	r6, .L679+4
 4480 009a 3432     		adds	r2, r2, #52
 4481 009c 8662     		str	r6, [r0, #40]
 4482 009e 1A4E     		ldr	r6, .L679+8
 4483 00a0 C662     		str	r6, [r0, #44]
 4484 00a2 1A4E     		ldr	r6, .L679+12
 4485 00a4 0663     		str	r6, [r0, #48]
 4486 00a6 FFF7FEFF 		bl	HAL_DMA_Start_IT
 4487 00aa 0028     		cmp	r0, #0
 4488 00ac B7D1     		bne	.L668
 4489 00ae 2268     		ldr	r2, [r4]
 4490 00b0 D368     		ldr	r3, [r2, #12]
 4491 00b2 43F40073 		orr	r3, r3, #512
 4492              	.L678:
 4493 00b6 D360     		str	r3, [r2, #12]
 4494 00b8 BEE7     		b	.L666
 4495              	.L665:
 4496 00ba A06A     		ldr	r0, [r4, #40]
 4497 00bc 114E     		ldr	r6, .L679+4
 4498 00be 3832     		adds	r2, r2, #56
 4499 00c0 8662     		str	r6, [r0, #40]
 4500 00c2 114E     		ldr	r6, .L679+8
 4501 00c4 C662     		str	r6, [r0, #44]
 4502 00c6 114E     		ldr	r6, .L679+12
 4503 00c8 0663     		str	r6, [r0, #48]
 4504 00ca FFF7FEFF 		bl	HAL_DMA_Start_IT
 4505 00ce 0028     		cmp	r0, #0
 4506 00d0 A5D1     		bne	.L668
 4507 00d2 2268     		ldr	r2, [r4]
 4508 00d4 D368     		ldr	r3, [r2, #12]
 4509 00d6 43F48063 		orr	r3, r3, #1024
 4510 00da ECE7     		b	.L678
 4511              	.L662:
 4512 00dc E06A     		ldr	r0, [r4, #44]
 4513 00de 094E     		ldr	r6, .L679+4
 4514 00e0 3C32     		adds	r2, r2, #60
 4515 00e2 8662     		str	r6, [r0, #40]
 4516 00e4 084E     		ldr	r6, .L679+8
 4517 00e6 C662     		str	r6, [r0, #44]
 4518 00e8 084E     		ldr	r6, .L679+12
 4519 00ea 0663     		str	r6, [r0, #48]
ARM GAS  /tmp/ccgq9aUL.s 			page 77


 4520 00ec FFF7FEFF 		bl	HAL_DMA_Start_IT
 4521 00f0 0028     		cmp	r0, #0
 4522 00f2 94D1     		bne	.L668
 4523 00f4 2268     		ldr	r2, [r4]
 4524 00f6 D368     		ldr	r3, [r2, #12]
 4525 00f8 43F40063 		orr	r3, r3, #2048
 4526 00fc DBE7     		b	.L678
 4527              	.L680:
 4528 00fe 00BF     		.align	2
 4529              	.L679:
 4530 0100 002C0140 		.word	1073818624
 4531 0104 00000000 		.word	TIM_DMADelayPulseCplt
 4532 0108 00000000 		.word	TIM_DMADelayPulseHalfCplt
 4533 010c 00000000 		.word	TIM_DMAError
 4535              		.section	.text.HAL_TIM_PWM_Start_DMA,"ax",%progbits
 4536              		.align	1
 4537              		.global	HAL_TIM_PWM_Start_DMA
 4538              		.syntax unified
 4539              		.thumb
 4540              		.thumb_func
 4541              		.fpu softvfp
 4543              	HAL_TIM_PWM_Start_DMA:
 4544              		@ args = 0, pretend = 0, frame = 0
 4545              		@ frame_needed = 0, uses_anonymous_args = 0
 4546              		@ link register save eliminated.
 4547 0000 FFF7FEBF 		b	HAL_TIM_OC_Start_DMA
 4549              		.section	.text.HAL_TIM_OC_Stop_DMA,"ax",%progbits
 4550              		.align	1
 4551              		.global	HAL_TIM_OC_Stop_DMA
 4552              		.syntax unified
 4553              		.thumb
 4554              		.thumb_func
 4555              		.fpu softvfp
 4557              	HAL_TIM_OC_Stop_DMA:
 4558              		@ args = 0, pretend = 0, frame = 0
 4559              		@ frame_needed = 0, uses_anonymous_args = 0
 4560 0000 0829     		cmp	r1, #8
 4561 0002 38B5     		push	{r3, r4, r5, lr}
 4562 0004 0446     		mov	r4, r0
 4563 0006 0D46     		mov	r5, r1
 4564 0008 0368     		ldr	r3, [r0]
 4565 000a 48D0     		beq	.L683
 4566 000c 31D8     		bhi	.L684
 4567 000e 0029     		cmp	r1, #0
 4568 0010 37D0     		beq	.L685
 4569 0012 0429     		cmp	r1, #4
 4570 0014 3DD0     		beq	.L686
 4571              	.L687:
 4572 0016 0022     		movs	r2, #0
 4573 0018 2946     		mov	r1, r5
 4574 001a 2068     		ldr	r0, [r4]
 4575 001c FFF7FEFF 		bl	TIM_CCxChannelCmd
 4576 0020 2368     		ldr	r3, [r4]
 4577 0022 224A     		ldr	r2, .L693
 4578 0024 9342     		cmp	r3, r2
 4579 0026 03D0     		beq	.L689
 4580 0028 02F50062 		add	r2, r2, #2048
ARM GAS  /tmp/ccgq9aUL.s 			page 78


 4581 002c 9342     		cmp	r3, r2
 4582 002e 0DD1     		bne	.L690
 4583              	.L689:
 4584 0030 41F21112 		movw	r2, #4369
 4585 0034 196A     		ldr	r1, [r3, #32]
 4586 0036 1142     		tst	r1, r2
 4587 0038 08D1     		bne	.L690
 4588 003a 40F24442 		movw	r2, #1092
 4589 003e 196A     		ldr	r1, [r3, #32]
 4590 0040 1142     		tst	r1, r2
 4591 0042 02BF     		ittt	eq
 4592 0044 5A6C     		ldreq	r2, [r3, #68]
 4593 0046 22F40042 		biceq	r2, r2, #32768
 4594 004a 5A64     		streq	r2, [r3, #68]
 4595              	.L690:
 4596 004c 41F21112 		movw	r2, #4369
 4597 0050 196A     		ldr	r1, [r3, #32]
 4598 0052 1142     		tst	r1, r2
 4599 0054 08D1     		bne	.L691
 4600 0056 40F24442 		movw	r2, #1092
 4601 005a 196A     		ldr	r1, [r3, #32]
 4602 005c 1142     		tst	r1, r2
 4603 005e 02BF     		ittt	eq
 4604 0060 1A68     		ldreq	r2, [r3]
 4605 0062 22F00102 		biceq	r2, r2, #1
 4606 0066 1A60     		streq	r2, [r3]
 4607              	.L691:
 4608 0068 0123     		movs	r3, #1
 4609 006a 0020     		movs	r0, #0
 4610 006c 84F83D30 		strb	r3, [r4, #61]
 4611 0070 38BD     		pop	{r3, r4, r5, pc}
 4612              	.L684:
 4613 0072 0C29     		cmp	r1, #12
 4614 0074 CFD1     		bne	.L687
 4615 0076 DA68     		ldr	r2, [r3, #12]
 4616 0078 006B     		ldr	r0, [r0, #48]
 4617 007a 22F48052 		bic	r2, r2, #4096
 4618 007e DA60     		str	r2, [r3, #12]
 4619 0080 04E0     		b	.L692
 4620              	.L685:
 4621 0082 DA68     		ldr	r2, [r3, #12]
 4622 0084 406A     		ldr	r0, [r0, #36]
 4623 0086 22F40072 		bic	r2, r2, #512
 4624 008a DA60     		str	r2, [r3, #12]
 4625              	.L692:
 4626 008c FFF7FEFF 		bl	HAL_DMA_Abort_IT
 4627 0090 C1E7     		b	.L687
 4628              	.L686:
 4629 0092 DA68     		ldr	r2, [r3, #12]
 4630 0094 806A     		ldr	r0, [r0, #40]
 4631 0096 22F48062 		bic	r2, r2, #1024
 4632 009a DA60     		str	r2, [r3, #12]
 4633 009c F6E7     		b	.L692
 4634              	.L683:
 4635 009e DA68     		ldr	r2, [r3, #12]
 4636 00a0 C06A     		ldr	r0, [r0, #44]
 4637 00a2 22F40062 		bic	r2, r2, #2048
ARM GAS  /tmp/ccgq9aUL.s 			page 79


 4638 00a6 DA60     		str	r2, [r3, #12]
 4639 00a8 F0E7     		b	.L692
 4640              	.L694:
 4641 00aa 00BF     		.align	2
 4642              	.L693:
 4643 00ac 002C0140 		.word	1073818624
 4645              		.section	.text.HAL_TIM_PWM_Stop_DMA,"ax",%progbits
 4646              		.align	1
 4647              		.global	HAL_TIM_PWM_Stop_DMA
 4648              		.syntax unified
 4649              		.thumb
 4650              		.thumb_func
 4651              		.fpu softvfp
 4653              	HAL_TIM_PWM_Stop_DMA:
 4654              		@ args = 0, pretend = 0, frame = 0
 4655              		@ frame_needed = 0, uses_anonymous_args = 0
 4656              		@ link register save eliminated.
 4657 0000 FFF7FEBF 		b	HAL_TIM_OC_Stop_DMA
 4659              		.section	.text.HAL_TIM_PWM_Stop,"ax",%progbits
 4660              		.align	1
 4661              		.global	HAL_TIM_PWM_Stop
 4662              		.syntax unified
 4663              		.thumb
 4664              		.thumb_func
 4665              		.fpu softvfp
 4667              	HAL_TIM_PWM_Stop:
 4668              		@ args = 0, pretend = 0, frame = 0
 4669              		@ frame_needed = 0, uses_anonymous_args = 0
 4670 0000 10B5     		push	{r4, lr}
 4671 0002 0446     		mov	r4, r0
 4672 0004 0022     		movs	r2, #0
 4673 0006 0068     		ldr	r0, [r0]
 4674 0008 FFF7FEFF 		bl	TIM_CCxChannelCmd
 4675 000c 2368     		ldr	r3, [r4]
 4676 000e 144A     		ldr	r2, .L700
 4677 0010 9342     		cmp	r3, r2
 4678 0012 03D0     		beq	.L697
 4679 0014 02F50062 		add	r2, r2, #2048
 4680 0018 9342     		cmp	r3, r2
 4681 001a 0DD1     		bne	.L698
 4682              	.L697:
 4683 001c 41F21112 		movw	r2, #4369
 4684 0020 196A     		ldr	r1, [r3, #32]
 4685 0022 1142     		tst	r1, r2
 4686 0024 08D1     		bne	.L698
 4687 0026 40F24442 		movw	r2, #1092
 4688 002a 196A     		ldr	r1, [r3, #32]
 4689 002c 1142     		tst	r1, r2
 4690 002e 02BF     		ittt	eq
 4691 0030 5A6C     		ldreq	r2, [r3, #68]
 4692 0032 22F40042 		biceq	r2, r2, #32768
 4693 0036 5A64     		streq	r2, [r3, #68]
 4694              	.L698:
 4695 0038 41F21112 		movw	r2, #4369
 4696 003c 196A     		ldr	r1, [r3, #32]
 4697 003e 1142     		tst	r1, r2
 4698 0040 08D1     		bne	.L699
ARM GAS  /tmp/ccgq9aUL.s 			page 80


 4699 0042 40F24442 		movw	r2, #1092
 4700 0046 196A     		ldr	r1, [r3, #32]
 4701 0048 1142     		tst	r1, r2
 4702 004a 02BF     		ittt	eq
 4703 004c 1A68     		ldreq	r2, [r3]
 4704 004e 22F00102 		biceq	r2, r2, #1
 4705 0052 1A60     		streq	r2, [r3]
 4706              	.L699:
 4707 0054 0123     		movs	r3, #1
 4708 0056 0020     		movs	r0, #0
 4709 0058 84F83D30 		strb	r3, [r4, #61]
 4710 005c 10BD     		pop	{r4, pc}
 4711              	.L701:
 4712 005e 00BF     		.align	2
 4713              	.L700:
 4714 0060 002C0140 		.word	1073818624
 4716              		.section	.text.HAL_TIM_IC_Start,"ax",%progbits
 4717              		.align	1
 4718              		.global	HAL_TIM_IC_Start
 4719              		.syntax unified
 4720              		.thumb
 4721              		.thumb_func
 4722              		.fpu softvfp
 4724              	HAL_TIM_IC_Start:
 4725              		@ args = 0, pretend = 0, frame = 0
 4726              		@ frame_needed = 0, uses_anonymous_args = 0
 4727 0000 10B5     		push	{r4, lr}
 4728 0002 0446     		mov	r4, r0
 4729 0004 0122     		movs	r2, #1
 4730 0006 0068     		ldr	r0, [r0]
 4731 0008 FFF7FEFF 		bl	TIM_CCxChannelCmd
 4732 000c 2368     		ldr	r3, [r4]
 4733 000e 0020     		movs	r0, #0
 4734 0010 9A68     		ldr	r2, [r3, #8]
 4735 0012 02F00702 		and	r2, r2, #7
 4736 0016 062A     		cmp	r2, #6
 4737 0018 1EBF     		ittt	ne
 4738 001a 1A68     		ldrne	r2, [r3]
 4739 001c 42F00102 		orrne	r2, r2, #1
 4740 0020 1A60     		strne	r2, [r3]
 4741 0022 10BD     		pop	{r4, pc}
 4743              		.section	.text.HAL_TIM_IC_Stop,"ax",%progbits
 4744              		.align	1
 4745              		.global	HAL_TIM_IC_Stop
 4746              		.syntax unified
 4747              		.thumb
 4748              		.thumb_func
 4749              		.fpu softvfp
 4751              	HAL_TIM_IC_Stop:
 4752              		@ args = 0, pretend = 0, frame = 0
 4753              		@ frame_needed = 0, uses_anonymous_args = 0
 4754 0000 10B5     		push	{r4, lr}
 4755 0002 0446     		mov	r4, r0
 4756 0004 0022     		movs	r2, #0
 4757 0006 0068     		ldr	r0, [r0]
 4758 0008 FFF7FEFF 		bl	TIM_CCxChannelCmd
 4759 000c 41F21112 		movw	r2, #4369
ARM GAS  /tmp/ccgq9aUL.s 			page 81


 4760 0010 2368     		ldr	r3, [r4]
 4761 0012 196A     		ldr	r1, [r3, #32]
 4762 0014 1142     		tst	r1, r2
 4763 0016 08D1     		bne	.L708
 4764 0018 40F24442 		movw	r2, #1092
 4765 001c 196A     		ldr	r1, [r3, #32]
 4766 001e 1142     		tst	r1, r2
 4767 0020 02BF     		ittt	eq
 4768 0022 1A68     		ldreq	r2, [r3]
 4769 0024 22F00102 		biceq	r2, r2, #1
 4770 0028 1A60     		streq	r2, [r3]
 4771              	.L708:
 4772 002a 0020     		movs	r0, #0
 4773 002c 10BD     		pop	{r4, pc}
 4775              		.section	.text.HAL_TIM_IC_Start_IT,"ax",%progbits
 4776              		.align	1
 4777              		.global	HAL_TIM_IC_Start_IT
 4778              		.syntax unified
 4779              		.thumb
 4780              		.thumb_func
 4781              		.fpu softvfp
 4783              	HAL_TIM_IC_Start_IT:
 4784              		@ args = 0, pretend = 0, frame = 0
 4785              		@ frame_needed = 0, uses_anonymous_args = 0
 4786 0000 0829     		cmp	r1, #8
 4787 0002 10B5     		push	{r4, lr}
 4788 0004 0446     		mov	r4, r0
 4789 0006 0068     		ldr	r0, [r0]
 4790 0008 21D0     		beq	.L710
 4791 000a 11D8     		bhi	.L711
 4792 000c B1B1     		cbz	r1, .L712
 4793 000e 0429     		cmp	r1, #4
 4794 0010 19D0     		beq	.L713
 4795              	.L714:
 4796 0012 0122     		movs	r2, #1
 4797 0014 FFF7FEFF 		bl	TIM_CCxChannelCmd
 4798 0018 2368     		ldr	r3, [r4]
 4799 001a 0020     		movs	r0, #0
 4800 001c 9A68     		ldr	r2, [r3, #8]
 4801 001e 02F00702 		and	r2, r2, #7
 4802 0022 062A     		cmp	r2, #6
 4803 0024 1EBF     		ittt	ne
 4804 0026 1A68     		ldrne	r2, [r3]
 4805 0028 42F00102 		orrne	r2, r2, #1
 4806 002c 1A60     		strne	r2, [r3]
 4807 002e 10BD     		pop	{r4, pc}
 4808              	.L711:
 4809 0030 0C29     		cmp	r1, #12
 4810 0032 EED1     		bne	.L714
 4811 0034 C368     		ldr	r3, [r0, #12]
 4812 0036 43F01003 		orr	r3, r3, #16
 4813 003a 02E0     		b	.L720
 4814              	.L712:
 4815 003c C368     		ldr	r3, [r0, #12]
 4816 003e 43F00203 		orr	r3, r3, #2
 4817              	.L720:
 4818 0042 C360     		str	r3, [r0, #12]
ARM GAS  /tmp/ccgq9aUL.s 			page 82


 4819 0044 E5E7     		b	.L714
 4820              	.L713:
 4821 0046 C368     		ldr	r3, [r0, #12]
 4822 0048 43F00403 		orr	r3, r3, #4
 4823 004c F9E7     		b	.L720
 4824              	.L710:
 4825 004e C368     		ldr	r3, [r0, #12]
 4826 0050 43F00803 		orr	r3, r3, #8
 4827 0054 F5E7     		b	.L720
 4829              		.section	.text.HAL_TIM_IC_Stop_IT,"ax",%progbits
 4830              		.align	1
 4831              		.global	HAL_TIM_IC_Stop_IT
 4832              		.syntax unified
 4833              		.thumb
 4834              		.thumb_func
 4835              		.fpu softvfp
 4837              	HAL_TIM_IC_Stop_IT:
 4838              		@ args = 0, pretend = 0, frame = 0
 4839              		@ frame_needed = 0, uses_anonymous_args = 0
 4840 0000 0829     		cmp	r1, #8
 4841 0002 10B5     		push	{r4, lr}
 4842 0004 0446     		mov	r4, r0
 4843 0006 0068     		ldr	r0, [r0]
 4844 0008 26D0     		beq	.L722
 4845 000a 16D8     		bhi	.L723
 4846 000c D9B1     		cbz	r1, .L724
 4847 000e 0429     		cmp	r1, #4
 4848 0010 1ED0     		beq	.L725
 4849              	.L726:
 4850 0012 0022     		movs	r2, #0
 4851 0014 FFF7FEFF 		bl	TIM_CCxChannelCmd
 4852 0018 41F21112 		movw	r2, #4369
 4853 001c 2368     		ldr	r3, [r4]
 4854 001e 196A     		ldr	r1, [r3, #32]
 4855 0020 1142     		tst	r1, r2
 4856 0022 08D1     		bne	.L728
 4857 0024 40F24442 		movw	r2, #1092
 4858 0028 196A     		ldr	r1, [r3, #32]
 4859 002a 1142     		tst	r1, r2
 4860 002c 02BF     		ittt	eq
 4861 002e 1A68     		ldreq	r2, [r3]
 4862 0030 22F00102 		biceq	r2, r2, #1
 4863 0034 1A60     		streq	r2, [r3]
 4864              	.L728:
 4865 0036 0020     		movs	r0, #0
 4866 0038 10BD     		pop	{r4, pc}
 4867              	.L723:
 4868 003a 0C29     		cmp	r1, #12
 4869 003c E9D1     		bne	.L726
 4870 003e C368     		ldr	r3, [r0, #12]
 4871 0040 23F01003 		bic	r3, r3, #16
 4872 0044 02E0     		b	.L729
 4873              	.L724:
 4874 0046 C368     		ldr	r3, [r0, #12]
 4875 0048 23F00203 		bic	r3, r3, #2
 4876              	.L729:
 4877 004c C360     		str	r3, [r0, #12]
ARM GAS  /tmp/ccgq9aUL.s 			page 83


 4878 004e E0E7     		b	.L726
 4879              	.L725:
 4880 0050 C368     		ldr	r3, [r0, #12]
 4881 0052 23F00403 		bic	r3, r3, #4
 4882 0056 F9E7     		b	.L729
 4883              	.L722:
 4884 0058 C368     		ldr	r3, [r0, #12]
 4885 005a 23F00803 		bic	r3, r3, #8
 4886 005e F5E7     		b	.L729
 4888              		.section	.text.HAL_TIM_IC_Start_DMA,"ax",%progbits
 4889              		.align	1
 4890              		.global	HAL_TIM_IC_Start_DMA
 4891              		.syntax unified
 4892              		.thumb
 4893              		.thumb_func
 4894              		.fpu softvfp
 4896              	HAL_TIM_IC_Start_DMA:
 4897              		@ args = 0, pretend = 0, frame = 0
 4898              		@ frame_needed = 0, uses_anonymous_args = 0
 4899 0000 70B5     		push	{r4, r5, r6, lr}
 4900 0002 0D46     		mov	r5, r1
 4901 0004 90F83D10 		ldrb	r1, [r0, #61]	@ zero_extendqisi2
 4902 0008 0446     		mov	r4, r0
 4903 000a 0229     		cmp	r1, #2
 4904 000c C8B2     		uxtb	r0, r1
 4905 000e 06D0     		beq	.L731
 4906 0010 94F83D10 		ldrb	r1, [r4, #61]	@ zero_extendqisi2
 4907 0014 0129     		cmp	r1, #1
 4908 0016 06D1     		bne	.L732
 4909 0018 12B9     		cbnz	r2, .L733
 4910 001a 0BB1     		cbz	r3, .L733
 4911              	.L740:
 4912 001c 0120     		movs	r0, #1
 4913              	.L731:
 4914 001e 70BD     		pop	{r4, r5, r6, pc}
 4915              	.L733:
 4916 0020 0221     		movs	r1, #2
 4917 0022 84F83D10 		strb	r1, [r4, #61]
 4918              	.L732:
 4919 0026 082D     		cmp	r5, #8
 4920 0028 2168     		ldr	r1, [r4]
 4921 002a 4AD0     		beq	.L734
 4922 002c 13D8     		bhi	.L735
 4923 002e 2DB3     		cbz	r5, .L736
 4924 0030 042D     		cmp	r5, #4
 4925 0032 35D0     		beq	.L737
 4926              	.L738:
 4927 0034 0122     		movs	r2, #1
 4928 0036 2068     		ldr	r0, [r4]
 4929 0038 2946     		mov	r1, r5
 4930 003a FFF7FEFF 		bl	TIM_CCxChannelCmd
 4931 003e 2368     		ldr	r3, [r4]
 4932 0040 0020     		movs	r0, #0
 4933 0042 9A68     		ldr	r2, [r3, #8]
 4934 0044 02F00702 		and	r2, r2, #7
 4935 0048 062A     		cmp	r2, #6
 4936 004a 1EBF     		ittt	ne
ARM GAS  /tmp/ccgq9aUL.s 			page 84


 4937 004c 1A68     		ldrne	r2, [r3]
 4938 004e 42F00102 		orrne	r2, r2, #1
 4939 0052 1A60     		strne	r2, [r3]
 4940 0054 E3E7     		b	.L731
 4941              	.L735:
 4942 0056 0C2D     		cmp	r5, #12
 4943 0058 ECD1     		bne	.L738
 4944 005a 206B     		ldr	r0, [r4, #48]
 4945 005c 214E     		ldr	r6, .L749
 4946 005e 4031     		adds	r1, r1, #64
 4947 0060 8662     		str	r6, [r0, #40]
 4948 0062 214E     		ldr	r6, .L749+4
 4949 0064 C662     		str	r6, [r0, #44]
 4950 0066 214E     		ldr	r6, .L749+8
 4951 0068 0663     		str	r6, [r0, #48]
 4952 006a FFF7FEFF 		bl	HAL_DMA_Start_IT
 4953 006e 0028     		cmp	r0, #0
 4954 0070 D4D1     		bne	.L740
 4955 0072 2268     		ldr	r2, [r4]
 4956 0074 D368     		ldr	r3, [r2, #12]
 4957 0076 43F48053 		orr	r3, r3, #4096
 4958 007a 0FE0     		b	.L748
 4959              	.L736:
 4960 007c 606A     		ldr	r0, [r4, #36]
 4961 007e 194E     		ldr	r6, .L749
 4962 0080 3431     		adds	r1, r1, #52
 4963 0082 8662     		str	r6, [r0, #40]
 4964 0084 184E     		ldr	r6, .L749+4
 4965 0086 C662     		str	r6, [r0, #44]
 4966 0088 184E     		ldr	r6, .L749+8
 4967 008a 0663     		str	r6, [r0, #48]
 4968 008c FFF7FEFF 		bl	HAL_DMA_Start_IT
 4969 0090 0028     		cmp	r0, #0
 4970 0092 C3D1     		bne	.L740
 4971 0094 2268     		ldr	r2, [r4]
 4972 0096 D368     		ldr	r3, [r2, #12]
 4973 0098 43F40073 		orr	r3, r3, #512
 4974              	.L748:
 4975 009c D360     		str	r3, [r2, #12]
 4976 009e C9E7     		b	.L738
 4977              	.L737:
 4978 00a0 A06A     		ldr	r0, [r4, #40]
 4979 00a2 104E     		ldr	r6, .L749
 4980 00a4 3831     		adds	r1, r1, #56
 4981 00a6 8662     		str	r6, [r0, #40]
 4982 00a8 0F4E     		ldr	r6, .L749+4
 4983 00aa C662     		str	r6, [r0, #44]
 4984 00ac 0F4E     		ldr	r6, .L749+8
 4985 00ae 0663     		str	r6, [r0, #48]
 4986 00b0 FFF7FEFF 		bl	HAL_DMA_Start_IT
 4987 00b4 0028     		cmp	r0, #0
 4988 00b6 B1D1     		bne	.L740
 4989 00b8 2268     		ldr	r2, [r4]
 4990 00ba D368     		ldr	r3, [r2, #12]
 4991 00bc 43F48063 		orr	r3, r3, #1024
 4992 00c0 ECE7     		b	.L748
 4993              	.L734:
ARM GAS  /tmp/ccgq9aUL.s 			page 85


 4994 00c2 E06A     		ldr	r0, [r4, #44]
 4995 00c4 074E     		ldr	r6, .L749
 4996 00c6 3C31     		adds	r1, r1, #60
 4997 00c8 8662     		str	r6, [r0, #40]
 4998 00ca 074E     		ldr	r6, .L749+4
 4999 00cc C662     		str	r6, [r0, #44]
 5000 00ce 074E     		ldr	r6, .L749+8
 5001 00d0 0663     		str	r6, [r0, #48]
 5002 00d2 FFF7FEFF 		bl	HAL_DMA_Start_IT
 5003 00d6 0028     		cmp	r0, #0
 5004 00d8 A0D1     		bne	.L740
 5005 00da 2268     		ldr	r2, [r4]
 5006 00dc D368     		ldr	r3, [r2, #12]
 5007 00de 43F40063 		orr	r3, r3, #2048
 5008 00e2 DBE7     		b	.L748
 5009              	.L750:
 5010              		.align	2
 5011              	.L749:
 5012 00e4 00000000 		.word	TIM_DMACaptureCplt
 5013 00e8 00000000 		.word	TIM_DMACaptureHalfCplt
 5014 00ec 00000000 		.word	TIM_DMAError
 5016              		.section	.text.HAL_TIM_IC_Stop_DMA,"ax",%progbits
 5017              		.align	1
 5018              		.global	HAL_TIM_IC_Stop_DMA
 5019              		.syntax unified
 5020              		.thumb
 5021              		.thumb_func
 5022              		.fpu softvfp
 5024              	HAL_TIM_IC_Stop_DMA:
 5025              		@ args = 0, pretend = 0, frame = 0
 5026              		@ frame_needed = 0, uses_anonymous_args = 0
 5027 0000 0829     		cmp	r1, #8
 5028 0002 38B5     		push	{r3, r4, r5, lr}
 5029 0004 0446     		mov	r4, r0
 5030 0006 0D46     		mov	r5, r1
 5031 0008 0368     		ldr	r3, [r0]
 5032 000a 32D0     		beq	.L752
 5033 000c 1BD8     		bhi	.L753
 5034 000e 11B3     		cbz	r1, .L754
 5035 0010 0429     		cmp	r1, #4
 5036 0012 28D0     		beq	.L755
 5037              	.L756:
 5038 0014 0022     		movs	r2, #0
 5039 0016 2946     		mov	r1, r5
 5040 0018 2068     		ldr	r0, [r4]
 5041 001a FFF7FEFF 		bl	TIM_CCxChannelCmd
 5042 001e 41F21112 		movw	r2, #4369
 5043 0022 2368     		ldr	r3, [r4]
 5044 0024 196A     		ldr	r1, [r3, #32]
 5045 0026 1142     		tst	r1, r2
 5046 0028 08D1     		bne	.L758
 5047 002a 40F24442 		movw	r2, #1092
 5048 002e 196A     		ldr	r1, [r3, #32]
 5049 0030 1142     		tst	r1, r2
 5050 0032 02BF     		ittt	eq
 5051 0034 1A68     		ldreq	r2, [r3]
 5052 0036 22F00102 		biceq	r2, r2, #1
ARM GAS  /tmp/ccgq9aUL.s 			page 86


 5053 003a 1A60     		streq	r2, [r3]
 5054              	.L758:
 5055 003c 0123     		movs	r3, #1
 5056 003e 0020     		movs	r0, #0
 5057 0040 84F83D30 		strb	r3, [r4, #61]
 5058 0044 38BD     		pop	{r3, r4, r5, pc}
 5059              	.L753:
 5060 0046 0C29     		cmp	r1, #12
 5061 0048 E4D1     		bne	.L756
 5062 004a DA68     		ldr	r2, [r3, #12]
 5063 004c 006B     		ldr	r0, [r0, #48]
 5064 004e 22F48052 		bic	r2, r2, #4096
 5065 0052 DA60     		str	r2, [r3, #12]
 5066 0054 04E0     		b	.L759
 5067              	.L754:
 5068 0056 DA68     		ldr	r2, [r3, #12]
 5069 0058 406A     		ldr	r0, [r0, #36]
 5070 005a 22F40072 		bic	r2, r2, #512
 5071 005e DA60     		str	r2, [r3, #12]
 5072              	.L759:
 5073 0060 FFF7FEFF 		bl	HAL_DMA_Abort_IT
 5074 0064 D6E7     		b	.L756
 5075              	.L755:
 5076 0066 DA68     		ldr	r2, [r3, #12]
 5077 0068 806A     		ldr	r0, [r0, #40]
 5078 006a 22F48062 		bic	r2, r2, #1024
 5079 006e DA60     		str	r2, [r3, #12]
 5080 0070 F6E7     		b	.L759
 5081              	.L752:
 5082 0072 DA68     		ldr	r2, [r3, #12]
 5083 0074 C06A     		ldr	r0, [r0, #44]
 5084 0076 22F40062 		bic	r2, r2, #2048
 5085 007a DA60     		str	r2, [r3, #12]
 5086 007c F0E7     		b	.L759
 5088              		.section	.text.TIM_ResetCallback,"ax",%progbits
 5089              		.align	1
 5090              		.global	TIM_ResetCallback
 5091              		.syntax unified
 5092              		.thumb
 5093              		.thumb_func
 5094              		.fpu softvfp
 5096              	TIM_ResetCallback:
 5097              		@ args = 0, pretend = 0, frame = 0
 5098              		@ frame_needed = 0, uses_anonymous_args = 0
 5099              		@ link register save eliminated.
 5100 0000 124B     		ldr	r3, .L761
 5101 0002 8367     		str	r3, [r0, #120]
 5102 0004 124B     		ldr	r3, .L761+4
 5103 0006 C367     		str	r3, [r0, #124]
 5104 0008 124B     		ldr	r3, .L761+8
 5105 000a C0F88030 		str	r3, [r0, #128]
 5106 000e 124B     		ldr	r3, .L761+12
 5107 0010 C0F88430 		str	r3, [r0, #132]
 5108 0014 114B     		ldr	r3, .L761+16
 5109 0016 C0F88830 		str	r3, [r0, #136]
 5110 001a 114B     		ldr	r3, .L761+20
 5111 001c C0F88C30 		str	r3, [r0, #140]
ARM GAS  /tmp/ccgq9aUL.s 			page 87


 5112 0020 104B     		ldr	r3, .L761+24
 5113 0022 C0F89030 		str	r3, [r0, #144]
 5114 0026 104B     		ldr	r3, .L761+28
 5115 0028 C0F89430 		str	r3, [r0, #148]
 5116 002c 0F4B     		ldr	r3, .L761+32
 5117 002e C0F89830 		str	r3, [r0, #152]
 5118 0032 0F4B     		ldr	r3, .L761+36
 5119 0034 C0F89C30 		str	r3, [r0, #156]
 5120 0038 0E4B     		ldr	r3, .L761+40
 5121 003a C0F8A030 		str	r3, [r0, #160]
 5122 003e 0E4B     		ldr	r3, .L761+44
 5123 0040 C0F8A430 		str	r3, [r0, #164]
 5124 0044 0D4B     		ldr	r3, .L761+48
 5125 0046 C0F8A830 		str	r3, [r0, #168]
 5126 004a 7047     		bx	lr
 5127              	.L762:
 5128              		.align	2
 5129              	.L761:
 5130 004c 00000000 		.word	HAL_TIM_PeriodElapsedCallback
 5131 0050 00000000 		.word	HAL_TIM_PeriodElapsedHalfCpltCallback
 5132 0054 00000000 		.word	HAL_TIM_TriggerCallback
 5133 0058 00000000 		.word	HAL_TIM_TriggerHalfCpltCallback
 5134 005c 00000000 		.word	HAL_TIM_IC_CaptureCallback
 5135 0060 00000000 		.word	HAL_TIM_IC_CaptureHalfCpltCallback
 5136 0064 00000000 		.word	HAL_TIM_OC_DelayElapsedCallback
 5137 0068 00000000 		.word	HAL_TIM_PWM_PulseFinishedCallback
 5138 006c 00000000 		.word	HAL_TIM_PWM_PulseFinishedHalfCpltCallback
 5139 0070 00000000 		.word	HAL_TIM_ErrorCallback
 5140 0074 00000000 		.word	HAL_TIMEx_CommutCallback
 5141 0078 00000000 		.word	HAL_TIMEx_CommutHalfCpltCallback
 5142 007c 00000000 		.word	HAL_TIMEx_BreakCallback
 5144              		.section	.text.HAL_TIM_Base_Init,"ax",%progbits
 5145              		.align	1
 5146              		.global	HAL_TIM_Base_Init
 5147              		.syntax unified
 5148              		.thumb
 5149              		.thumb_func
 5150              		.fpu softvfp
 5152              	HAL_TIM_Base_Init:
 5153              		@ args = 0, pretend = 0, frame = 0
 5154              		@ frame_needed = 0, uses_anonymous_args = 0
 5155 0000 10B5     		push	{r4, lr}
 5156 0002 0446     		mov	r4, r0
 5157 0004 D8B1     		cbz	r0, .L767
 5158 0006 90F83D30 		ldrb	r3, [r0, #61]	@ zero_extendqisi2
 5159 000a 03F0FF02 		and	r2, r3, #255
 5160 000e 53B9     		cbnz	r3, .L765
 5161 0010 80F83C20 		strb	r2, [r0, #60]
 5162 0014 FFF7FEFF 		bl	TIM_ResetCallback
 5163 0018 036C     		ldr	r3, [r0, #64]
 5164 001a 0BB9     		cbnz	r3, .L766
 5165 001c 094B     		ldr	r3, .L768
 5166 001e 0364     		str	r3, [r0, #64]
 5167              	.L766:
 5168 0020 2046     		mov	r0, r4
 5169 0022 236C     		ldr	r3, [r4, #64]
 5170 0024 9847     		blx	r3
ARM GAS  /tmp/ccgq9aUL.s 			page 88


 5171              	.L765:
 5172 0026 0223     		movs	r3, #2
 5173 0028 2068     		ldr	r0, [r4]
 5174 002a 84F83D30 		strb	r3, [r4, #61]
 5175 002e 211D     		adds	r1, r4, #4
 5176 0030 FFF7FEFF 		bl	TIM_Base_SetConfig
 5177 0034 0123     		movs	r3, #1
 5178 0036 0020     		movs	r0, #0
 5179 0038 84F83D30 		strb	r3, [r4, #61]
 5180              	.L764:
 5181 003c 10BD     		pop	{r4, pc}
 5182              	.L767:
 5183 003e 0120     		movs	r0, #1
 5184 0040 FCE7     		b	.L764
 5185              	.L769:
 5186 0042 00BF     		.align	2
 5187              	.L768:
 5188 0044 00000000 		.word	HAL_TIM_Base_MspInit
 5190              		.section	.text.HAL_TIM_OC_Init,"ax",%progbits
 5191              		.align	1
 5192              		.global	HAL_TIM_OC_Init
 5193              		.syntax unified
 5194              		.thumb
 5195              		.thumb_func
 5196              		.fpu softvfp
 5198              	HAL_TIM_OC_Init:
 5199              		@ args = 0, pretend = 0, frame = 0
 5200              		@ frame_needed = 0, uses_anonymous_args = 0
 5201 0000 10B5     		push	{r4, lr}
 5202 0002 0446     		mov	r4, r0
 5203 0004 D8B1     		cbz	r0, .L774
 5204 0006 90F83D30 		ldrb	r3, [r0, #61]	@ zero_extendqisi2
 5205 000a 03F0FF02 		and	r2, r3, #255
 5206 000e 53B9     		cbnz	r3, .L772
 5207 0010 80F83C20 		strb	r2, [r0, #60]
 5208 0014 FFF7FEFF 		bl	TIM_ResetCallback
 5209 0018 036D     		ldr	r3, [r0, #80]
 5210 001a 0BB9     		cbnz	r3, .L773
 5211 001c 094B     		ldr	r3, .L775
 5212 001e 0365     		str	r3, [r0, #80]
 5213              	.L773:
 5214 0020 2046     		mov	r0, r4
 5215 0022 236D     		ldr	r3, [r4, #80]
 5216 0024 9847     		blx	r3
 5217              	.L772:
 5218 0026 0223     		movs	r3, #2
 5219 0028 2068     		ldr	r0, [r4]
 5220 002a 84F83D30 		strb	r3, [r4, #61]
 5221 002e 211D     		adds	r1, r4, #4
 5222 0030 FFF7FEFF 		bl	TIM_Base_SetConfig
 5223 0034 0123     		movs	r3, #1
 5224 0036 0020     		movs	r0, #0
 5225 0038 84F83D30 		strb	r3, [r4, #61]
 5226              	.L771:
 5227 003c 10BD     		pop	{r4, pc}
 5228              	.L774:
 5229 003e 0120     		movs	r0, #1
ARM GAS  /tmp/ccgq9aUL.s 			page 89


 5230 0040 FCE7     		b	.L771
 5231              	.L776:
 5232 0042 00BF     		.align	2
 5233              	.L775:
 5234 0044 00000000 		.word	HAL_TIM_OC_MspInit
 5236              		.section	.text.HAL_TIM_PWM_Init,"ax",%progbits
 5237              		.align	1
 5238              		.global	HAL_TIM_PWM_Init
 5239              		.syntax unified
 5240              		.thumb
 5241              		.thumb_func
 5242              		.fpu softvfp
 5244              	HAL_TIM_PWM_Init:
 5245              		@ args = 0, pretend = 0, frame = 0
 5246              		@ frame_needed = 0, uses_anonymous_args = 0
 5247 0000 10B5     		push	{r4, lr}
 5248 0002 0446     		mov	r4, r0
 5249 0004 D8B1     		cbz	r0, .L781
 5250 0006 90F83D30 		ldrb	r3, [r0, #61]	@ zero_extendqisi2
 5251 000a 03F0FF02 		and	r2, r3, #255
 5252 000e 53B9     		cbnz	r3, .L779
 5253 0010 80F83C20 		strb	r2, [r0, #60]
 5254 0014 FFF7FEFF 		bl	TIM_ResetCallback
 5255 0018 836D     		ldr	r3, [r0, #88]
 5256 001a 0BB9     		cbnz	r3, .L780
 5257 001c 094B     		ldr	r3, .L782
 5258 001e 8365     		str	r3, [r0, #88]
 5259              	.L780:
 5260 0020 2046     		mov	r0, r4
 5261 0022 A36D     		ldr	r3, [r4, #88]
 5262 0024 9847     		blx	r3
 5263              	.L779:
 5264 0026 0223     		movs	r3, #2
 5265 0028 2068     		ldr	r0, [r4]
 5266 002a 84F83D30 		strb	r3, [r4, #61]
 5267 002e 211D     		adds	r1, r4, #4
 5268 0030 FFF7FEFF 		bl	TIM_Base_SetConfig
 5269 0034 0123     		movs	r3, #1
 5270 0036 0020     		movs	r0, #0
 5271 0038 84F83D30 		strb	r3, [r4, #61]
 5272              	.L778:
 5273 003c 10BD     		pop	{r4, pc}
 5274              	.L781:
 5275 003e 0120     		movs	r0, #1
 5276 0040 FCE7     		b	.L778
 5277              	.L783:
 5278 0042 00BF     		.align	2
 5279              	.L782:
 5280 0044 00000000 		.word	HAL_TIM_PWM_MspInit
 5282              		.section	.text.HAL_TIM_IC_Init,"ax",%progbits
 5283              		.align	1
 5284              		.global	HAL_TIM_IC_Init
 5285              		.syntax unified
 5286              		.thumb
 5287              		.thumb_func
 5288              		.fpu softvfp
 5290              	HAL_TIM_IC_Init:
ARM GAS  /tmp/ccgq9aUL.s 			page 90


 5291              		@ args = 0, pretend = 0, frame = 0
 5292              		@ frame_needed = 0, uses_anonymous_args = 0
 5293 0000 10B5     		push	{r4, lr}
 5294 0002 0446     		mov	r4, r0
 5295 0004 D8B1     		cbz	r0, .L788
 5296 0006 90F83D30 		ldrb	r3, [r0, #61]	@ zero_extendqisi2
 5297 000a 03F0FF02 		and	r2, r3, #255
 5298 000e 53B9     		cbnz	r3, .L786
 5299 0010 80F83C20 		strb	r2, [r0, #60]
 5300 0014 FFF7FEFF 		bl	TIM_ResetCallback
 5301 0018 836C     		ldr	r3, [r0, #72]
 5302 001a 0BB9     		cbnz	r3, .L787
 5303 001c 094B     		ldr	r3, .L789
 5304 001e 8364     		str	r3, [r0, #72]
 5305              	.L787:
 5306 0020 2046     		mov	r0, r4
 5307 0022 A36C     		ldr	r3, [r4, #72]
 5308 0024 9847     		blx	r3
 5309              	.L786:
 5310 0026 0223     		movs	r3, #2
 5311 0028 2068     		ldr	r0, [r4]
 5312 002a 84F83D30 		strb	r3, [r4, #61]
 5313 002e 211D     		adds	r1, r4, #4
 5314 0030 FFF7FEFF 		bl	TIM_Base_SetConfig
 5315 0034 0123     		movs	r3, #1
 5316 0036 0020     		movs	r0, #0
 5317 0038 84F83D30 		strb	r3, [r4, #61]
 5318              	.L785:
 5319 003c 10BD     		pop	{r4, pc}
 5320              	.L788:
 5321 003e 0120     		movs	r0, #1
 5322 0040 FCE7     		b	.L785
 5323              	.L790:
 5324 0042 00BF     		.align	2
 5325              	.L789:
 5326 0044 00000000 		.word	HAL_TIM_IC_MspInit
 5328              		.section	.text.HAL_TIM_OnePulse_Init,"ax",%progbits
 5329              		.align	1
 5330              		.global	HAL_TIM_OnePulse_Init
 5331              		.syntax unified
 5332              		.thumb
 5333              		.thumb_func
 5334              		.fpu softvfp
 5336              	HAL_TIM_OnePulse_Init:
 5337              		@ args = 0, pretend = 0, frame = 0
 5338              		@ frame_needed = 0, uses_anonymous_args = 0
 5339 0000 38B5     		push	{r3, r4, r5, lr}
 5340 0002 0D46     		mov	r5, r1
 5341 0004 0446     		mov	r4, r0
 5342 0006 18B3     		cbz	r0, .L795
 5343 0008 90F83D30 		ldrb	r3, [r0, #61]	@ zero_extendqisi2
 5344 000c 03F0FF02 		and	r2, r3, #255
 5345 0010 53B9     		cbnz	r3, .L793
 5346 0012 80F83C20 		strb	r2, [r0, #60]
 5347 0016 FFF7FEFF 		bl	TIM_ResetCallback
 5348 001a 036E     		ldr	r3, [r0, #96]
 5349 001c 0BB9     		cbnz	r3, .L794
ARM GAS  /tmp/ccgq9aUL.s 			page 91


 5350 001e 0D4B     		ldr	r3, .L796
 5351 0020 0366     		str	r3, [r0, #96]
 5352              	.L794:
 5353 0022 2046     		mov	r0, r4
 5354 0024 236E     		ldr	r3, [r4, #96]
 5355 0026 9847     		blx	r3
 5356              	.L793:
 5357 0028 0223     		movs	r3, #2
 5358 002a 2068     		ldr	r0, [r4]
 5359 002c 84F83D30 		strb	r3, [r4, #61]
 5360 0030 211D     		adds	r1, r4, #4
 5361 0032 FFF7FEFF 		bl	TIM_Base_SetConfig
 5362 0036 2368     		ldr	r3, [r4]
 5363 0038 0020     		movs	r0, #0
 5364 003a 1A68     		ldr	r2, [r3]
 5365 003c 22F00802 		bic	r2, r2, #8
 5366 0040 1A60     		str	r2, [r3]
 5367 0042 1A68     		ldr	r2, [r3]
 5368 0044 2A43     		orrs	r2, r2, r5
 5369 0046 1A60     		str	r2, [r3]
 5370 0048 0123     		movs	r3, #1
 5371 004a 84F83D30 		strb	r3, [r4, #61]
 5372              	.L792:
 5373 004e 38BD     		pop	{r3, r4, r5, pc}
 5374              	.L795:
 5375 0050 0120     		movs	r0, #1
 5376 0052 FCE7     		b	.L792
 5377              	.L797:
 5378              		.align	2
 5379              	.L796:
 5380 0054 00000000 		.word	HAL_TIM_OnePulse_MspInit
 5382              		.section	.text.HAL_TIM_Encoder_Init,"ax",%progbits
 5383              		.align	1
 5384              		.global	HAL_TIM_Encoder_Init
 5385              		.syntax unified
 5386              		.thumb
 5387              		.thumb_func
 5388              		.fpu softvfp
 5390              	HAL_TIM_Encoder_Init:
 5391              		@ args = 0, pretend = 0, frame = 0
 5392              		@ frame_needed = 0, uses_anonymous_args = 0
 5393 0000 F8B5     		push	{r3, r4, r5, r6, r7, lr}
 5394 0002 0D46     		mov	r5, r1
 5395 0004 0446     		mov	r4, r0
 5396 0006 0028     		cmp	r0, #0
 5397 0008 4AD0     		beq	.L802
 5398 000a 90F83D30 		ldrb	r3, [r0, #61]	@ zero_extendqisi2
 5399 000e 03F0FF02 		and	r2, r3, #255
 5400 0012 53B9     		cbnz	r3, .L800
 5401 0014 80F83C20 		strb	r2, [r0, #60]
 5402 0018 FFF7FEFF 		bl	TIM_ResetCallback
 5403 001c 836E     		ldr	r3, [r0, #104]
 5404 001e 0BB9     		cbnz	r3, .L801
 5405 0020 204B     		ldr	r3, .L803
 5406 0022 8366     		str	r3, [r0, #104]
 5407              	.L801:
 5408 0024 2046     		mov	r0, r4
ARM GAS  /tmp/ccgq9aUL.s 			page 92


 5409 0026 A36E     		ldr	r3, [r4, #104]
 5410 0028 9847     		blx	r3
 5411              	.L800:
 5412 002a 0223     		movs	r3, #2
 5413 002c 2146     		mov	r1, r4
 5414 002e 84F83D30 		strb	r3, [r4, #61]
 5415 0032 51F8040B 		ldr	r0, [r1], #4
 5416 0036 8368     		ldr	r3, [r0, #8]
 5417 0038 23F48043 		bic	r3, r3, #16384
 5418 003c 23F00703 		bic	r3, r3, #7
 5419 0040 8360     		str	r3, [r0, #8]
 5420 0042 FFF7FEFF 		bl	TIM_Base_SetConfig
 5421 0046 2068     		ldr	r0, [r4]
 5422 0048 2B68     		ldr	r3, [r5]
 5423 004a 8668     		ldr	r6, [r0, #8]
 5424 004c 8269     		ldr	r2, [r0, #24]
 5425 004e A968     		ldr	r1, [r5, #8]
 5426 0050 1E43     		orrs	r6, r6, r3
 5427 0052 AB69     		ldr	r3, [r5, #24]
 5428 0054 22F44072 		bic	r2, r2, #768
 5429 0058 22F00302 		bic	r2, r2, #3
 5430 005c 41EA0323 		orr	r3, r1, r3, lsl #8
 5431 0060 1343     		orrs	r3, r3, r2
 5432 0062 23F47C42 		bic	r2, r3, #64512
 5433 0066 2B69     		ldr	r3, [r5, #16]
 5434 0068 E969     		ldr	r1, [r5, #28]
 5435 006a 1B01     		lsls	r3, r3, #4
 5436 006c 43EA0123 		orr	r3, r3, r1, lsl #8
 5437 0070 E968     		ldr	r1, [r5, #12]
 5438 0072 076A     		ldr	r7, [r0, #32]
 5439 0074 0B43     		orrs	r3, r3, r1
 5440 0076 296A     		ldr	r1, [r5, #32]
 5441 0078 22F0FC02 		bic	r2, r2, #252
 5442 007c 43EA0133 		orr	r3, r3, r1, lsl #12
 5443 0080 1343     		orrs	r3, r3, r2
 5444 0082 6969     		ldr	r1, [r5, #20]
 5445 0084 27F02202 		bic	r2, r7, #34
 5446 0088 6F68     		ldr	r7, [r5, #4]
 5447 008a 8660     		str	r6, [r0, #8]
 5448 008c 47EA0117 		orr	r7, r7, r1, lsl #4
 5449 0090 8361     		str	r3, [r0, #24]
 5450 0092 1743     		orrs	r7, r7, r2
 5451 0094 0123     		movs	r3, #1
 5452 0096 0762     		str	r7, [r0, #32]
 5453 0098 0020     		movs	r0, #0
 5454 009a 84F83D30 		strb	r3, [r4, #61]
 5455              	.L799:
 5456 009e F8BD     		pop	{r3, r4, r5, r6, r7, pc}
 5457              	.L802:
 5458 00a0 0120     		movs	r0, #1
 5459 00a2 FCE7     		b	.L799
 5460              	.L804:
 5461              		.align	2
 5462              	.L803:
 5463 00a4 00000000 		.word	HAL_TIM_Encoder_MspInit
 5465              		.ident	"GCC: (GNU Tools for Arm Embedded Processors 9-2019-q4-major) 9.2.1 20191025 (release) [ARM
ARM GAS  /tmp/ccgq9aUL.s 			page 93


DEFINED SYMBOLS
                            *ABS*:0000000000000000 stm32f1xx_hal_tim.c
     /tmp/ccgq9aUL.s:14     .text.HAL_TIM_Base_MspInit:0000000000000000 $t
     /tmp/ccgq9aUL.s:22     .text.HAL_TIM_Base_MspInit:0000000000000000 HAL_TIM_Base_MspInit
     /tmp/ccgq9aUL.s:29     .text.TIM_DMAError:0000000000000000 $t
     /tmp/ccgq9aUL.s:36     .text.TIM_DMAError:0000000000000000 TIM_DMAError
     /tmp/ccgq9aUL.s:47     .text.TIM_DMADelayPulseCplt:0000000000000000 $t
     /tmp/ccgq9aUL.s:54     .text.TIM_DMADelayPulseCplt:0000000000000000 TIM_DMADelayPulseCplt
     /tmp/ccgq9aUL.s:93     .text.TIM_DMADelayPulseHalfCplt:0000000000000000 $t
     /tmp/ccgq9aUL.s:100    .text.TIM_DMADelayPulseHalfCplt:0000000000000000 TIM_DMADelayPulseHalfCplt
     /tmp/ccgq9aUL.s:139    .text.TIM_DMACaptureCplt:0000000000000000 $t
     /tmp/ccgq9aUL.s:146    .text.TIM_DMACaptureCplt:0000000000000000 TIM_DMACaptureCplt
     /tmp/ccgq9aUL.s:185    .text.TIM_DMACaptureHalfCplt:0000000000000000 $t
     /tmp/ccgq9aUL.s:192    .text.TIM_DMACaptureHalfCplt:0000000000000000 TIM_DMACaptureHalfCplt
     /tmp/ccgq9aUL.s:231    .text.TIM_DMAPeriodElapsedCplt:0000000000000000 $t
     /tmp/ccgq9aUL.s:237    .text.TIM_DMAPeriodElapsedCplt:0000000000000000 TIM_DMAPeriodElapsedCplt
     /tmp/ccgq9aUL.s:248    .text.TIM_DMAPeriodElapsedHalfCplt:0000000000000000 $t
     /tmp/ccgq9aUL.s:254    .text.TIM_DMAPeriodElapsedHalfCplt:0000000000000000 TIM_DMAPeriodElapsedHalfCplt
     /tmp/ccgq9aUL.s:265    .text.TIM_DMATriggerCplt:0000000000000000 $t
     /tmp/ccgq9aUL.s:271    .text.TIM_DMATriggerCplt:0000000000000000 TIM_DMATriggerCplt
     /tmp/ccgq9aUL.s:282    .text.TIM_DMATriggerHalfCplt:0000000000000000 $t
     /tmp/ccgq9aUL.s:288    .text.TIM_DMATriggerHalfCplt:0000000000000000 TIM_DMATriggerHalfCplt
     /tmp/ccgq9aUL.s:299    .text.TIM_OC1_SetConfig:0000000000000000 $t
     /tmp/ccgq9aUL.s:305    .text.TIM_OC1_SetConfig:0000000000000000 TIM_OC1_SetConfig
     /tmp/ccgq9aUL.s:352    .text.TIM_OC1_SetConfig:000000000000005c $d
     /tmp/ccgq9aUL.s:356    .text.TIM_OC3_SetConfig:0000000000000000 $t
     /tmp/ccgq9aUL.s:362    .text.TIM_OC3_SetConfig:0000000000000000 TIM_OC3_SetConfig
     /tmp/ccgq9aUL.s:410    .text.TIM_OC3_SetConfig:0000000000000068 $d
     /tmp/ccgq9aUL.s:413    .text.TIM_OC4_SetConfig:0000000000000000 $t
     /tmp/ccgq9aUL.s:419    .text.TIM_OC4_SetConfig:0000000000000000 TIM_OC4_SetConfig
     /tmp/ccgq9aUL.s:455    .text.TIM_OC4_SetConfig:0000000000000048 $d
     /tmp/ccgq9aUL.s:458    .text.HAL_TIM_Base_MspDeInit:0000000000000000 $t
     /tmp/ccgq9aUL.s:465    .text.HAL_TIM_Base_MspDeInit:0000000000000000 HAL_TIM_Base_MspDeInit
     /tmp/ccgq9aUL.s:472    .text.HAL_TIM_OC_MspInit:0000000000000000 $t
     /tmp/ccgq9aUL.s:479    .text.HAL_TIM_OC_MspInit:0000000000000000 HAL_TIM_OC_MspInit
     /tmp/ccgq9aUL.s:486    .text.HAL_TIM_OC_MspDeInit:0000000000000000 $t
     /tmp/ccgq9aUL.s:493    .text.HAL_TIM_OC_MspDeInit:0000000000000000 HAL_TIM_OC_MspDeInit
     /tmp/ccgq9aUL.s:500    .text.HAL_TIM_PWM_MspInit:0000000000000000 $t
     /tmp/ccgq9aUL.s:507    .text.HAL_TIM_PWM_MspInit:0000000000000000 HAL_TIM_PWM_MspInit
     /tmp/ccgq9aUL.s:514    .text.HAL_TIM_PWM_MspDeInit:0000000000000000 $t
     /tmp/ccgq9aUL.s:521    .text.HAL_TIM_PWM_MspDeInit:0000000000000000 HAL_TIM_PWM_MspDeInit
     /tmp/ccgq9aUL.s:528    .text.HAL_TIM_IC_MspInit:0000000000000000 $t
     /tmp/ccgq9aUL.s:535    .text.HAL_TIM_IC_MspInit:0000000000000000 HAL_TIM_IC_MspInit
     /tmp/ccgq9aUL.s:542    .text.HAL_TIM_IC_MspDeInit:0000000000000000 $t
     /tmp/ccgq9aUL.s:549    .text.HAL_TIM_IC_MspDeInit:0000000000000000 HAL_TIM_IC_MspDeInit
     /tmp/ccgq9aUL.s:556    .text.HAL_TIM_OnePulse_MspInit:0000000000000000 $t
     /tmp/ccgq9aUL.s:563    .text.HAL_TIM_OnePulse_MspInit:0000000000000000 HAL_TIM_OnePulse_MspInit
     /tmp/ccgq9aUL.s:570    .text.HAL_TIM_OnePulse_MspDeInit:0000000000000000 $t
     /tmp/ccgq9aUL.s:577    .text.HAL_TIM_OnePulse_MspDeInit:0000000000000000 HAL_TIM_OnePulse_MspDeInit
     /tmp/ccgq9aUL.s:584    .text.HAL_TIM_Encoder_MspInit:0000000000000000 $t
     /tmp/ccgq9aUL.s:591    .text.HAL_TIM_Encoder_MspInit:0000000000000000 HAL_TIM_Encoder_MspInit
     /tmp/ccgq9aUL.s:598    .text.HAL_TIM_Encoder_MspDeInit:0000000000000000 $t
     /tmp/ccgq9aUL.s:605    .text.HAL_TIM_Encoder_MspDeInit:0000000000000000 HAL_TIM_Encoder_MspDeInit
     /tmp/ccgq9aUL.s:612    .text.HAL_TIM_PeriodElapsedCallback:0000000000000000 $t
     /tmp/ccgq9aUL.s:619    .text.HAL_TIM_PeriodElapsedCallback:0000000000000000 HAL_TIM_PeriodElapsedCallback
     /tmp/ccgq9aUL.s:626    .text.HAL_TIM_PeriodElapsedHalfCpltCallback:0000000000000000 $t
     /tmp/ccgq9aUL.s:633    .text.HAL_TIM_PeriodElapsedHalfCpltCallback:0000000000000000 HAL_TIM_PeriodElapsedHalfCpltCallback
ARM GAS  /tmp/ccgq9aUL.s 			page 94


     /tmp/ccgq9aUL.s:640    .text.HAL_TIM_OC_DelayElapsedCallback:0000000000000000 $t
     /tmp/ccgq9aUL.s:647    .text.HAL_TIM_OC_DelayElapsedCallback:0000000000000000 HAL_TIM_OC_DelayElapsedCallback
     /tmp/ccgq9aUL.s:654    .text.HAL_TIM_IC_CaptureCallback:0000000000000000 $t
     /tmp/ccgq9aUL.s:661    .text.HAL_TIM_IC_CaptureCallback:0000000000000000 HAL_TIM_IC_CaptureCallback
     /tmp/ccgq9aUL.s:668    .text.HAL_TIM_IC_CaptureHalfCpltCallback:0000000000000000 $t
     /tmp/ccgq9aUL.s:675    .text.HAL_TIM_IC_CaptureHalfCpltCallback:0000000000000000 HAL_TIM_IC_CaptureHalfCpltCallback
     /tmp/ccgq9aUL.s:682    .text.HAL_TIM_PWM_PulseFinishedCallback:0000000000000000 $t
     /tmp/ccgq9aUL.s:689    .text.HAL_TIM_PWM_PulseFinishedCallback:0000000000000000 HAL_TIM_PWM_PulseFinishedCallback
     /tmp/ccgq9aUL.s:696    .text.HAL_TIM_PWM_PulseFinishedHalfCpltCallback:0000000000000000 $t
     /tmp/ccgq9aUL.s:703    .text.HAL_TIM_PWM_PulseFinishedHalfCpltCallback:0000000000000000 HAL_TIM_PWM_PulseFinishedHalfCpltCallback
     /tmp/ccgq9aUL.s:710    .text.HAL_TIM_TriggerCallback:0000000000000000 $t
     /tmp/ccgq9aUL.s:717    .text.HAL_TIM_TriggerCallback:0000000000000000 HAL_TIM_TriggerCallback
     /tmp/ccgq9aUL.s:724    .text.HAL_TIM_TriggerHalfCpltCallback:0000000000000000 $t
     /tmp/ccgq9aUL.s:731    .text.HAL_TIM_TriggerHalfCpltCallback:0000000000000000 HAL_TIM_TriggerHalfCpltCallback
     /tmp/ccgq9aUL.s:738    .text.HAL_TIM_ErrorCallback:0000000000000000 $t
     /tmp/ccgq9aUL.s:745    .text.HAL_TIM_ErrorCallback:0000000000000000 HAL_TIM_ErrorCallback
     /tmp/ccgq9aUL.s:752    .text.HAL_TIM_Base_DeInit:0000000000000000 $t
     /tmp/ccgq9aUL.s:759    .text.HAL_TIM_Base_DeInit:0000000000000000 HAL_TIM_Base_DeInit
     /tmp/ccgq9aUL.s:794    .text.HAL_TIM_Base_DeInit:0000000000000044 $d
     /tmp/ccgq9aUL.s:797    .text.HAL_TIM_Base_Start:0000000000000000 $t
     /tmp/ccgq9aUL.s:804    .text.HAL_TIM_Base_Start:0000000000000000 HAL_TIM_Base_Start
     /tmp/ccgq9aUL.s:824    .text.HAL_TIM_Base_Stop:0000000000000000 $t
     /tmp/ccgq9aUL.s:831    .text.HAL_TIM_Base_Stop:0000000000000000 HAL_TIM_Base_Stop
     /tmp/ccgq9aUL.s:856    .text.HAL_TIM_Base_Start_IT:0000000000000000 $t
     /tmp/ccgq9aUL.s:863    .text.HAL_TIM_Base_Start_IT:0000000000000000 HAL_TIM_Base_Start_IT
     /tmp/ccgq9aUL.s:882    .text.HAL_TIM_Base_Stop_IT:0000000000000000 $t
     /tmp/ccgq9aUL.s:889    .text.HAL_TIM_Base_Stop_IT:0000000000000000 HAL_TIM_Base_Stop_IT
     /tmp/ccgq9aUL.s:913    .text.HAL_TIM_Base_Start_DMA:0000000000000000 $t
     /tmp/ccgq9aUL.s:920    .text.HAL_TIM_Base_Start_DMA:0000000000000000 HAL_TIM_Base_Start_DMA
     /tmp/ccgq9aUL.s:970    .text.HAL_TIM_Base_Start_DMA:0000000000000060 $d
     /tmp/ccgq9aUL.s:975    .text.HAL_TIM_Base_Stop_DMA:0000000000000000 $t
     /tmp/ccgq9aUL.s:982    .text.HAL_TIM_Base_Stop_DMA:0000000000000000 HAL_TIM_Base_Stop_DMA
     /tmp/ccgq9aUL.s:1012   .text.HAL_TIM_OC_DeInit:0000000000000000 $t
     /tmp/ccgq9aUL.s:1019   .text.HAL_TIM_OC_DeInit:0000000000000000 HAL_TIM_OC_DeInit
     /tmp/ccgq9aUL.s:1054   .text.HAL_TIM_OC_DeInit:0000000000000044 $d
     /tmp/ccgq9aUL.s:1057   .text.HAL_TIM_PWM_DeInit:0000000000000000 $t
     /tmp/ccgq9aUL.s:1064   .text.HAL_TIM_PWM_DeInit:0000000000000000 HAL_TIM_PWM_DeInit
     /tmp/ccgq9aUL.s:1099   .text.HAL_TIM_PWM_DeInit:0000000000000044 $d
     /tmp/ccgq9aUL.s:1102   .text.HAL_TIM_IC_DeInit:0000000000000000 $t
     /tmp/ccgq9aUL.s:1109   .text.HAL_TIM_IC_DeInit:0000000000000000 HAL_TIM_IC_DeInit
     /tmp/ccgq9aUL.s:1144   .text.HAL_TIM_IC_DeInit:0000000000000044 $d
     /tmp/ccgq9aUL.s:1147   .text.HAL_TIM_OnePulse_DeInit:0000000000000000 $t
     /tmp/ccgq9aUL.s:1154   .text.HAL_TIM_OnePulse_DeInit:0000000000000000 HAL_TIM_OnePulse_DeInit
     /tmp/ccgq9aUL.s:1189   .text.HAL_TIM_OnePulse_DeInit:0000000000000044 $d
     /tmp/ccgq9aUL.s:1192   .text.HAL_TIM_OnePulse_Start:0000000000000000 $t
     /tmp/ccgq9aUL.s:1199   .text.HAL_TIM_OnePulse_Start:0000000000000000 HAL_TIM_OnePulse_Start
     /tmp/ccgq9aUL.s:1232   .text.HAL_TIM_OnePulse_Start:000000000000003c $d
     /tmp/ccgq9aUL.s:1235   .text.HAL_TIM_OnePulse_Stop:0000000000000000 $t
     /tmp/ccgq9aUL.s:1242   .text.HAL_TIM_OnePulse_Stop:0000000000000000 HAL_TIM_OnePulse_Stop
     /tmp/ccgq9aUL.s:1293   .text.HAL_TIM_OnePulse_Stop:0000000000000064 $d
     /tmp/ccgq9aUL.s:1296   .text.HAL_TIM_OnePulse_Start_IT:0000000000000000 $t
     /tmp/ccgq9aUL.s:1303   .text.HAL_TIM_OnePulse_Start_IT:0000000000000000 HAL_TIM_OnePulse_Start_IT
     /tmp/ccgq9aUL.s:1342   .text.HAL_TIM_OnePulse_Start_IT:000000000000004c $d
     /tmp/ccgq9aUL.s:1345   .text.HAL_TIM_OnePulse_Stop_IT:0000000000000000 $t
     /tmp/ccgq9aUL.s:1352   .text.HAL_TIM_OnePulse_Stop_IT:0000000000000000 HAL_TIM_OnePulse_Stop_IT
     /tmp/ccgq9aUL.s:1409   .text.HAL_TIM_OnePulse_Stop_IT:0000000000000074 $d
     /tmp/ccgq9aUL.s:1412   .text.HAL_TIM_Encoder_DeInit:0000000000000000 $t
ARM GAS  /tmp/ccgq9aUL.s 			page 95


     /tmp/ccgq9aUL.s:1419   .text.HAL_TIM_Encoder_DeInit:0000000000000000 HAL_TIM_Encoder_DeInit
     /tmp/ccgq9aUL.s:1454   .text.HAL_TIM_Encoder_DeInit:0000000000000044 $d
     /tmp/ccgq9aUL.s:1457   .text.HAL_TIM_Encoder_Start:0000000000000000 $t
     /tmp/ccgq9aUL.s:1464   .text.HAL_TIM_Encoder_Start:0000000000000000 HAL_TIM_Encoder_Start
     /tmp/ccgq9aUL.s:1500   .text.HAL_TIM_Encoder_Stop:0000000000000000 $t
     /tmp/ccgq9aUL.s:1507   .text.HAL_TIM_Encoder_Stop:0000000000000000 HAL_TIM_Encoder_Stop
     /tmp/ccgq9aUL.s:1547   .text.HAL_TIM_Encoder_Start_IT:0000000000000000 $t
     /tmp/ccgq9aUL.s:1554   .text.HAL_TIM_Encoder_Start_IT:0000000000000000 HAL_TIM_Encoder_Start_IT
     /tmp/ccgq9aUL.s:1607   .text.HAL_TIM_Encoder_Stop_IT:0000000000000000 $t
     /tmp/ccgq9aUL.s:1614   .text.HAL_TIM_Encoder_Stop_IT:0000000000000000 HAL_TIM_Encoder_Stop_IT
     /tmp/ccgq9aUL.s:1672   .text.HAL_TIM_Encoder_Start_DMA:0000000000000000 $t
     /tmp/ccgq9aUL.s:1679   .text.HAL_TIM_Encoder_Start_DMA:0000000000000000 HAL_TIM_Encoder_Start_DMA
     /tmp/ccgq9aUL.s:1820   .text.HAL_TIM_Encoder_Start_DMA:0000000000000138 $d
     /tmp/ccgq9aUL.s:1825   .text.HAL_TIM_Encoder_Stop_DMA:0000000000000000 $t
     /tmp/ccgq9aUL.s:1832   .text.HAL_TIM_Encoder_Stop_DMA:0000000000000000 HAL_TIM_Encoder_Stop_DMA
     /tmp/ccgq9aUL.s:1901   .text.HAL_TIM_IRQHandler:0000000000000000 $t
     /tmp/ccgq9aUL.s:1908   .text.HAL_TIM_IRQHandler:0000000000000000 HAL_TIM_IRQHandler
     /tmp/ccgq9aUL.s:2076   .text.HAL_TIM_DMABurst_WriteStart:0000000000000000 $t
     /tmp/ccgq9aUL.s:2083   .text.HAL_TIM_DMABurst_WriteStart:0000000000000000 HAL_TIM_DMABurst_WriteStart
     /tmp/ccgq9aUL.s:2183   .text.HAL_TIM_DMABurst_WriteStart:00000000000000b8 $d
     /tmp/ccgq9aUL.s:2194   .text.HAL_TIM_DMABurst_WriteStop:0000000000000000 $t
     /tmp/ccgq9aUL.s:2201   .text.HAL_TIM_DMABurst_WriteStop:0000000000000000 HAL_TIM_DMABurst_WriteStop
     /tmp/ccgq9aUL.s:2257   .text.HAL_TIM_DMABurst_ReadStart:0000000000000000 $t
     /tmp/ccgq9aUL.s:2264   .text.HAL_TIM_DMABurst_ReadStart:0000000000000000 HAL_TIM_DMABurst_ReadStart
     /tmp/ccgq9aUL.s:2364   .text.HAL_TIM_DMABurst_ReadStart:00000000000000b8 $d
     /tmp/ccgq9aUL.s:2375   .text.HAL_TIM_DMABurst_ReadStop:0000000000000000 $t
     /tmp/ccgq9aUL.s:2382   .text.HAL_TIM_DMABurst_ReadStop:0000000000000000 HAL_TIM_DMABurst_ReadStop
     /tmp/ccgq9aUL.s:2389   .text.HAL_TIM_GenerateEvent:0000000000000000 $t
     /tmp/ccgq9aUL.s:2396   .text.HAL_TIM_GenerateEvent:0000000000000000 HAL_TIM_GenerateEvent
     /tmp/ccgq9aUL.s:2416   .text.HAL_TIM_ConfigTI1Input:0000000000000000 $t
     /tmp/ccgq9aUL.s:2423   .text.HAL_TIM_ConfigTI1Input:0000000000000000 HAL_TIM_ConfigTI1Input
     /tmp/ccgq9aUL.s:2436   .text.HAL_TIM_ReadCapturedValue:0000000000000000 $t
     /tmp/ccgq9aUL.s:2443   .text.HAL_TIM_ReadCapturedValue:0000000000000000 HAL_TIM_ReadCapturedValue
     /tmp/ccgq9aUL.s:2476   .text.HAL_TIM_RegisterCallback:0000000000000000 $t
     /tmp/ccgq9aUL.s:2483   .text.HAL_TIM_RegisterCallback:0000000000000000 HAL_TIM_RegisterCallback
     /tmp/ccgq9aUL.s:2501   .text.HAL_TIM_RegisterCallback:0000000000000026 $d
     /tmp/ccgq9aUL.s:2621   .text.HAL_TIM_RegisterCallback:00000000000000da $d
     /tmp/ccgq9aUL.s:2635   .text.HAL_TIM_RegisterCallback:00000000000000e8 $t
     /tmp/ccgq9aUL.s:2690   .text.HAL_TIM_UnRegisterCallback:0000000000000000 $t
     /tmp/ccgq9aUL.s:2697   .text.HAL_TIM_UnRegisterCallback:0000000000000000 HAL_TIM_UnRegisterCallback
     /tmp/ccgq9aUL.s:2713   .text.HAL_TIM_UnRegisterCallback:000000000000001e $d
     /tmp/ccgq9aUL.s:2859   .text.HAL_TIM_UnRegisterCallback:0000000000000108 $d
     /tmp/ccgq9aUL.s:2873   .text.HAL_TIM_UnRegisterCallback:0000000000000116 $t
     /tmp/ccgq9aUL.s:2940   .text.HAL_TIM_UnRegisterCallback:0000000000000174 $d
     /tmp/ccgq9aUL.s:2969   .text.HAL_TIM_Base_GetState:0000000000000000 $t
     /tmp/ccgq9aUL.s:2976   .text.HAL_TIM_Base_GetState:0000000000000000 HAL_TIM_Base_GetState
     /tmp/ccgq9aUL.s:2984   .text.HAL_TIM_OC_GetState:0000000000000000 $t
     /tmp/ccgq9aUL.s:2991   .text.HAL_TIM_OC_GetState:0000000000000000 HAL_TIM_OC_GetState
     /tmp/ccgq9aUL.s:2999   .text.HAL_TIM_PWM_GetState:0000000000000000 $t
     /tmp/ccgq9aUL.s:3006   .text.HAL_TIM_PWM_GetState:0000000000000000 HAL_TIM_PWM_GetState
     /tmp/ccgq9aUL.s:3014   .text.HAL_TIM_IC_GetState:0000000000000000 $t
     /tmp/ccgq9aUL.s:3021   .text.HAL_TIM_IC_GetState:0000000000000000 HAL_TIM_IC_GetState
     /tmp/ccgq9aUL.s:3029   .text.HAL_TIM_OnePulse_GetState:0000000000000000 $t
     /tmp/ccgq9aUL.s:3036   .text.HAL_TIM_OnePulse_GetState:0000000000000000 HAL_TIM_OnePulse_GetState
     /tmp/ccgq9aUL.s:3044   .text.HAL_TIM_Encoder_GetState:0000000000000000 $t
     /tmp/ccgq9aUL.s:3051   .text.HAL_TIM_Encoder_GetState:0000000000000000 HAL_TIM_Encoder_GetState
     /tmp/ccgq9aUL.s:3059   .text.TIM_Base_SetConfig:0000000000000000 $t
ARM GAS  /tmp/ccgq9aUL.s 			page 96


     /tmp/ccgq9aUL.s:3066   .text.TIM_Base_SetConfig:0000000000000000 TIM_Base_SetConfig
     /tmp/ccgq9aUL.s:3138   .text.TIM_Base_SetConfig:0000000000000094 $d
     /tmp/ccgq9aUL.s:3141   .text.TIM_OC2_SetConfig:0000000000000000 $t
     /tmp/ccgq9aUL.s:3148   .text.TIM_OC2_SetConfig:0000000000000000 TIM_OC2_SetConfig
     /tmp/ccgq9aUL.s:3196   .text.TIM_OC2_SetConfig:0000000000000068 $d
     /tmp/ccgq9aUL.s:3199   .text.HAL_TIM_OC_ConfigChannel:0000000000000000 $t
     /tmp/ccgq9aUL.s:3206   .text.HAL_TIM_OC_ConfigChannel:0000000000000000 HAL_TIM_OC_ConfigChannel
     /tmp/ccgq9aUL.s:3251   .text.HAL_TIM_PWM_ConfigChannel:0000000000000000 $t
     /tmp/ccgq9aUL.s:3258   .text.HAL_TIM_PWM_ConfigChannel:0000000000000000 HAL_TIM_PWM_ConfigChannel
     /tmp/ccgq9aUL.s:3347   .text.TIM_TI1_SetConfig:0000000000000000 $t
     /tmp/ccgq9aUL.s:3354   .text.TIM_TI1_SetConfig:0000000000000000 TIM_TI1_SetConfig
     /tmp/ccgq9aUL.s:3399   .text.TIM_TI1_SetConfig:0000000000000060 $d
     /tmp/ccgq9aUL.s:3402   .text.HAL_TIM_IC_ConfigChannel:0000000000000000 $t
     /tmp/ccgq9aUL.s:3409   .text.HAL_TIM_IC_ConfigChannel:0000000000000000 HAL_TIM_IC_ConfigChannel
     /tmp/ccgq9aUL.s:3524   .text.HAL_TIM_OnePulse_ConfigChannel:0000000000000000 $t
     /tmp/ccgq9aUL.s:3531   .text.HAL_TIM_OnePulse_ConfigChannel:0000000000000000 HAL_TIM_OnePulse_ConfigChannel
     /tmp/ccgq9aUL.s:3644   .text.TIM_ETR_SetConfig:0000000000000000 $t
     /tmp/ccgq9aUL.s:3651   .text.TIM_ETR_SetConfig:0000000000000000 TIM_ETR_SetConfig
     /tmp/ccgq9aUL.s:3664   .text.HAL_TIM_ConfigOCrefClear:0000000000000000 $t
     /tmp/ccgq9aUL.s:3671   .text.HAL_TIM_ConfigOCrefClear:0000000000000000 HAL_TIM_ConfigOCrefClear
     /tmp/ccgq9aUL.s:3774   .text.HAL_TIM_ConfigClockSource:0000000000000000 $t
     /tmp/ccgq9aUL.s:3781   .text.HAL_TIM_ConfigClockSource:0000000000000000 HAL_TIM_ConfigClockSource
     /tmp/ccgq9aUL.s:3908   .text.TIM_SlaveTimer_SetConfig:0000000000000000 $t
     /tmp/ccgq9aUL.s:3914   .text.TIM_SlaveTimer_SetConfig:0000000000000000 TIM_SlaveTimer_SetConfig
     /tmp/ccgq9aUL.s:3993   .text.HAL_TIM_SlaveConfigSynchro:0000000000000000 $t
     /tmp/ccgq9aUL.s:4000   .text.HAL_TIM_SlaveConfigSynchro:0000000000000000 HAL_TIM_SlaveConfigSynchro
     /tmp/ccgq9aUL.s:4036   .text.HAL_TIM_SlaveConfigSynchro_IT:0000000000000000 $t
     /tmp/ccgq9aUL.s:4043   .text.HAL_TIM_SlaveConfigSynchro_IT:0000000000000000 HAL_TIM_SlaveConfigSynchro_IT
     /tmp/ccgq9aUL.s:4079   .text.TIM_CCxChannelCmd:0000000000000000 $t
     /tmp/ccgq9aUL.s:4086   .text.TIM_CCxChannelCmd:0000000000000000 TIM_CCxChannelCmd
     /tmp/ccgq9aUL.s:4103   .text.HAL_TIM_OC_Start:0000000000000000 $t
     /tmp/ccgq9aUL.s:4110   .text.HAL_TIM_OC_Start:0000000000000000 HAL_TIM_OC_Start
     /tmp/ccgq9aUL.s:4142   .text.HAL_TIM_OC_Start:000000000000003c $d
     /tmp/ccgq9aUL.s:4145   .text.HAL_TIM_PWM_Start:0000000000000000 $t
     /tmp/ccgq9aUL.s:4152   .text.HAL_TIM_PWM_Start:0000000000000000 HAL_TIM_PWM_Start
     /tmp/ccgq9aUL.s:4159   .text.HAL_TIM_OC_Stop:0000000000000000 $t
     /tmp/ccgq9aUL.s:4166   .text.HAL_TIM_OC_Stop:0000000000000000 HAL_TIM_OC_Stop
     /tmp/ccgq9aUL.s:4211   .text.HAL_TIM_OC_Stop:0000000000000058 $d
     /tmp/ccgq9aUL.s:4214   .text.HAL_TIM_OC_Start_IT:0000000000000000 $t
     /tmp/ccgq9aUL.s:4221   .text.HAL_TIM_OC_Start_IT:0000000000000000 HAL_TIM_OC_Start_IT
     /tmp/ccgq9aUL.s:4280   .text.HAL_TIM_OC_Start_IT:000000000000006c $d
     /tmp/ccgq9aUL.s:4283   .text.HAL_TIM_PWM_Start_IT:0000000000000000 $t
     /tmp/ccgq9aUL.s:4290   .text.HAL_TIM_PWM_Start_IT:0000000000000000 HAL_TIM_PWM_Start_IT
     /tmp/ccgq9aUL.s:4297   .text.HAL_TIM_OC_Stop_IT:0000000000000000 $t
     /tmp/ccgq9aUL.s:4304   .text.HAL_TIM_OC_Stop_IT:0000000000000000 HAL_TIM_OC_Stop_IT
     /tmp/ccgq9aUL.s:4377   .text.HAL_TIM_OC_Stop_IT:000000000000008c $d
     /tmp/ccgq9aUL.s:4380   .text.HAL_TIM_PWM_Stop_IT:0000000000000000 $t
     /tmp/ccgq9aUL.s:4387   .text.HAL_TIM_PWM_Stop_IT:0000000000000000 HAL_TIM_PWM_Stop_IT
     /tmp/ccgq9aUL.s:4394   .text.HAL_TIM_OC_Start_DMA:0000000000000000 $t
     /tmp/ccgq9aUL.s:4401   .text.HAL_TIM_OC_Start_DMA:0000000000000000 HAL_TIM_OC_Start_DMA
     /tmp/ccgq9aUL.s:4530   .text.HAL_TIM_OC_Start_DMA:0000000000000100 $d
     /tmp/ccgq9aUL.s:4536   .text.HAL_TIM_PWM_Start_DMA:0000000000000000 $t
     /tmp/ccgq9aUL.s:4543   .text.HAL_TIM_PWM_Start_DMA:0000000000000000 HAL_TIM_PWM_Start_DMA
     /tmp/ccgq9aUL.s:4550   .text.HAL_TIM_OC_Stop_DMA:0000000000000000 $t
     /tmp/ccgq9aUL.s:4557   .text.HAL_TIM_OC_Stop_DMA:0000000000000000 HAL_TIM_OC_Stop_DMA
     /tmp/ccgq9aUL.s:4643   .text.HAL_TIM_OC_Stop_DMA:00000000000000ac $d
     /tmp/ccgq9aUL.s:4646   .text.HAL_TIM_PWM_Stop_DMA:0000000000000000 $t
ARM GAS  /tmp/ccgq9aUL.s 			page 97


     /tmp/ccgq9aUL.s:4653   .text.HAL_TIM_PWM_Stop_DMA:0000000000000000 HAL_TIM_PWM_Stop_DMA
     /tmp/ccgq9aUL.s:4660   .text.HAL_TIM_PWM_Stop:0000000000000000 $t
     /tmp/ccgq9aUL.s:4667   .text.HAL_TIM_PWM_Stop:0000000000000000 HAL_TIM_PWM_Stop
     /tmp/ccgq9aUL.s:4714   .text.HAL_TIM_PWM_Stop:0000000000000060 $d
     /tmp/ccgq9aUL.s:4717   .text.HAL_TIM_IC_Start:0000000000000000 $t
     /tmp/ccgq9aUL.s:4724   .text.HAL_TIM_IC_Start:0000000000000000 HAL_TIM_IC_Start
     /tmp/ccgq9aUL.s:4744   .text.HAL_TIM_IC_Stop:0000000000000000 $t
     /tmp/ccgq9aUL.s:4751   .text.HAL_TIM_IC_Stop:0000000000000000 HAL_TIM_IC_Stop
     /tmp/ccgq9aUL.s:4776   .text.HAL_TIM_IC_Start_IT:0000000000000000 $t
     /tmp/ccgq9aUL.s:4783   .text.HAL_TIM_IC_Start_IT:0000000000000000 HAL_TIM_IC_Start_IT
     /tmp/ccgq9aUL.s:4830   .text.HAL_TIM_IC_Stop_IT:0000000000000000 $t
     /tmp/ccgq9aUL.s:4837   .text.HAL_TIM_IC_Stop_IT:0000000000000000 HAL_TIM_IC_Stop_IT
     /tmp/ccgq9aUL.s:4889   .text.HAL_TIM_IC_Start_DMA:0000000000000000 $t
     /tmp/ccgq9aUL.s:4896   .text.HAL_TIM_IC_Start_DMA:0000000000000000 HAL_TIM_IC_Start_DMA
     /tmp/ccgq9aUL.s:5012   .text.HAL_TIM_IC_Start_DMA:00000000000000e4 $d
     /tmp/ccgq9aUL.s:5017   .text.HAL_TIM_IC_Stop_DMA:0000000000000000 $t
     /tmp/ccgq9aUL.s:5024   .text.HAL_TIM_IC_Stop_DMA:0000000000000000 HAL_TIM_IC_Stop_DMA
     /tmp/ccgq9aUL.s:5089   .text.TIM_ResetCallback:0000000000000000 $t
     /tmp/ccgq9aUL.s:5096   .text.TIM_ResetCallback:0000000000000000 TIM_ResetCallback
     /tmp/ccgq9aUL.s:5130   .text.TIM_ResetCallback:000000000000004c $d
     /tmp/ccgq9aUL.s:5145   .text.HAL_TIM_Base_Init:0000000000000000 $t
     /tmp/ccgq9aUL.s:5152   .text.HAL_TIM_Base_Init:0000000000000000 HAL_TIM_Base_Init
     /tmp/ccgq9aUL.s:5188   .text.HAL_TIM_Base_Init:0000000000000044 $d
     /tmp/ccgq9aUL.s:5191   .text.HAL_TIM_OC_Init:0000000000000000 $t
     /tmp/ccgq9aUL.s:5198   .text.HAL_TIM_OC_Init:0000000000000000 HAL_TIM_OC_Init
     /tmp/ccgq9aUL.s:5234   .text.HAL_TIM_OC_Init:0000000000000044 $d
     /tmp/ccgq9aUL.s:5237   .text.HAL_TIM_PWM_Init:0000000000000000 $t
     /tmp/ccgq9aUL.s:5244   .text.HAL_TIM_PWM_Init:0000000000000000 HAL_TIM_PWM_Init
     /tmp/ccgq9aUL.s:5280   .text.HAL_TIM_PWM_Init:0000000000000044 $d
     /tmp/ccgq9aUL.s:5283   .text.HAL_TIM_IC_Init:0000000000000000 $t
     /tmp/ccgq9aUL.s:5290   .text.HAL_TIM_IC_Init:0000000000000000 HAL_TIM_IC_Init
     /tmp/ccgq9aUL.s:5326   .text.HAL_TIM_IC_Init:0000000000000044 $d
     /tmp/ccgq9aUL.s:5329   .text.HAL_TIM_OnePulse_Init:0000000000000000 $t
     /tmp/ccgq9aUL.s:5336   .text.HAL_TIM_OnePulse_Init:0000000000000000 HAL_TIM_OnePulse_Init
     /tmp/ccgq9aUL.s:5380   .text.HAL_TIM_OnePulse_Init:0000000000000054 $d
     /tmp/ccgq9aUL.s:5383   .text.HAL_TIM_Encoder_Init:0000000000000000 $t
     /tmp/ccgq9aUL.s:5390   .text.HAL_TIM_Encoder_Init:0000000000000000 HAL_TIM_Encoder_Init
     /tmp/ccgq9aUL.s:5463   .text.HAL_TIM_Encoder_Init:00000000000000a4 $d
     /tmp/ccgq9aUL.s:2528   .text.HAL_TIM_RegisterCallback:0000000000000041 $d
     /tmp/ccgq9aUL.s:2528   .text.HAL_TIM_RegisterCallback:0000000000000042 $t
     /tmp/ccgq9aUL.s:2740   .text.HAL_TIM_UnRegisterCallback:0000000000000039 $d
     /tmp/ccgq9aUL.s:2740   .text.HAL_TIM_UnRegisterCallback:000000000000003a $t

UNDEFINED SYMBOLS
HAL_DMA_Start_IT
HAL_DMA_Abort_IT
TIMEx_DMACommutationCplt
TIMEx_DMACommutationHalfCplt
HAL_TIMEx_HallSensor_MspInit
HAL_TIMEx_HallSensor_MspDeInit
HAL_TIMEx_CommutCallback
HAL_TIMEx_CommutHalfCpltCallback
HAL_TIMEx_BreakCallback
