ARM GAS  /tmp/ccfpVwxB.s 			page 1


   1              		.cpu cortex-m3
   2              		.eabi_attribute 20, 1
   3              		.eabi_attribute 21, 1
   4              		.eabi_attribute 23, 3
   5              		.eabi_attribute 24, 1
   6              		.eabi_attribute 25, 1
   7              		.eabi_attribute 26, 1
   8              		.eabi_attribute 30, 4
   9              		.eabi_attribute 34, 1
  10              		.eabi_attribute 18, 4
  11              		.file	"stm32f1xx_hal_i2c.c"
  12              		.section	.text.HAL_I2C_AddrCallback,"ax",%progbits
  13              		.align	1
  14              		.weak	HAL_I2C_AddrCallback
  15              		.syntax unified
  16              		.thumb
  17              		.thumb_func
  18              		.fpu softvfp
  20              	HAL_I2C_AddrCallback:
  21              		@ args = 0, pretend = 0, frame = 0
  22              		@ frame_needed = 0, uses_anonymous_args = 0
  23              		@ link register save eliminated.
  24 0000 7047     		bx	lr
  26              		.section	.text.HAL_I2C_AbortCpltCallback,"ax",%progbits
  27              		.align	1
  28              		.weak	HAL_I2C_AbortCpltCallback
  29              		.syntax unified
  30              		.thumb
  31              		.thumb_func
  32              		.fpu softvfp
  34              	HAL_I2C_AbortCpltCallback:
  35              		@ args = 0, pretend = 0, frame = 0
  36              		@ frame_needed = 0, uses_anonymous_args = 0
  37              		@ link register save eliminated.
  38 0000 7047     		bx	lr
  40              		.section	.text.I2C_DMAXferCplt,"ax",%progbits
  41              		.align	1
  42              		.syntax unified
  43              		.thumb
  44              		.thumb_func
  45              		.fpu softvfp
  47              	I2C_DMAXferCplt:
  48              		@ args = 0, pretend = 0, frame = 0
  49              		@ frame_needed = 0, uses_anonymous_args = 0
  50 0000 70B5     		push	{r4, r5, r6, lr}
  51 0002 446A     		ldr	r4, [r0, #36]
  52 0004 2368     		ldr	r3, [r4]
  53 0006 94F83D20 		ldrb	r2, [r4, #61]	@ zero_extendqisi2
  54 000a 94F83E00 		ldrb	r0, [r4, #62]	@ zero_extendqisi2
  55 000e E16A     		ldr	r1, [r4, #44]
  56 0010 5D68     		ldr	r5, [r3, #4]
  57 0012 666B     		ldr	r6, [r4, #52]
  58 0014 25F44075 		bic	r5, r5, #768
  59 0018 5D60     		str	r5, [r3, #4]
  60 001a 0025     		movs	r5, #0
  61 001c B562     		str	r5, [r6, #40]
  62 001e A66B     		ldr	r6, [r4, #56]
ARM GAS  /tmp/ccfpVwxB.s 			page 2


  63 0020 D2B2     		uxtb	r2, r2
  64 0022 B562     		str	r5, [r6, #40]
  65 0024 02F02105 		and	r5, r2, #33
  66 0028 212D     		cmp	r5, #33
  67 002a C0B2     		uxtb	r0, r0
  68 002c 05D0     		beq	.L4
  69 002e 02F02205 		and	r5, r2, #34
  70 0032 222D     		cmp	r5, #34
  71 0034 21D1     		bne	.L5
  72 0036 2028     		cmp	r0, #32
  73 0038 1FD1     		bne	.L5
  74              	.L4:
  75 003a 5968     		ldr	r1, [r3, #4]
  76 003c 292A     		cmp	r2, #41
  77 003e 21F40061 		bic	r1, r1, #2048
  78 0042 5960     		str	r1, [r3, #4]
  79 0044 4FF00003 		mov	r3, #0
  80 0048 6385     		strh	r3, [r4, #42]	@ movhi
  81 004a 0DD1     		bne	.L6
  82 004c 2123     		movs	r3, #33
  83 004e 2363     		str	r3, [r4, #48]
  84 0050 2823     		movs	r3, #40
  85 0052 84F83D30 		strb	r3, [r4, #61]
  86 0056 E36D     		ldr	r3, [r4, #92]
  87              	.L29:
  88 0058 2046     		mov	r0, r4
  89 005a 9847     		blx	r3
  90              	.L7:
  91 005c 2268     		ldr	r2, [r4]
  92 005e 5368     		ldr	r3, [r2, #4]
  93 0060 43F44073 		orr	r3, r3, #768
  94 0064 5360     		str	r3, [r2, #4]
  95 0066 70BD     		pop	{r4, r5, r6, pc}
  96              	.L6:
  97 0068 2A2A     		cmp	r2, #42
  98 006a F7D1     		bne	.L7
  99 006c 2223     		movs	r3, #34
 100 006e 2363     		str	r3, [r4, #48]
 101 0070 2823     		movs	r3, #40
 102 0072 84F83D30 		strb	r3, [r4, #61]
 103 0076 236E     		ldr	r3, [r4, #96]
 104 0078 EEE7     		b	.L29
 105              	.L5:
 106 007a 94F83E20 		ldrb	r2, [r4, #62]	@ zero_extendqisi2
 107 007e 002A     		cmp	r2, #0
 108 0080 3AD0     		beq	.L3
 109 0082 628D     		ldrh	r2, [r4, #42]
 110 0084 92B2     		uxth	r2, r2
 111 0086 012A     		cmp	r2, #1
 112 0088 02BF     		ittt	eq
 113 008a 1A68     		ldreq	r2, [r3]
 114 008c 22F48062 		biceq	r2, r2, #1024
 115 0090 1A60     		streq	r2, [r3]
 116 0092 5A68     		ldr	r2, [r3, #4]
 117 0094 11F5803F 		cmn	r1, #65536
 118 0098 22F44072 		bic	r2, r2, #768
 119 009c 5A60     		str	r2, [r3, #4]
ARM GAS  /tmp/ccfpVwxB.s 			page 3


 120 009e 06D0     		beq	.L10
 121 00a0 0829     		cmp	r1, #8
 122 00a2 04D0     		beq	.L10
 123 00a4 B1F12A4F 		cmp	r1, #-1442840576
 124 00a8 01D0     		beq	.L10
 125 00aa 2029     		cmp	r1, #32
 126 00ac 03D1     		bne	.L11
 127              	.L10:
 128 00ae 1A68     		ldr	r2, [r3]
 129 00b0 42F40072 		orr	r2, r2, #512
 130 00b4 1A60     		str	r2, [r3]
 131              	.L11:
 132 00b6 5A68     		ldr	r2, [r3, #4]
 133 00b8 22F48052 		bic	r2, r2, #4096
 134 00bc 5A60     		str	r2, [r3, #4]
 135 00be 5A68     		ldr	r2, [r3, #4]
 136 00c0 22F40062 		bic	r2, r2, #2048
 137 00c4 5A60     		str	r2, [r3, #4]
 138 00c6 0023     		movs	r3, #0
 139 00c8 6385     		strh	r3, [r4, #42]	@ movhi
 140 00ca 236C     		ldr	r3, [r4, #64]
 141 00cc 23B1     		cbz	r3, .L12
 142 00ce 236F     		ldr	r3, [r4, #112]
 143              	.L30:
 144 00d0 2046     		mov	r0, r4
 145 00d2 BDE87040 		pop	{r4, r5, r6, lr}
 146 00d6 1847     		bx	r3	@ indirect register sibling call
 147              	.L12:
 148 00d8 2022     		movs	r2, #32
 149 00da 84F83D20 		strb	r2, [r4, #61]
 150 00de 94F83E20 		ldrb	r2, [r4, #62]	@ zero_extendqisi2
 151 00e2 84F83E30 		strb	r3, [r4, #62]
 152 00e6 402A     		cmp	r2, #64
 153 00e8 15BF     		itete	ne
 154 00ea 1223     		movne	r3, #18
 155 00ec 2363     		streq	r3, [r4, #48]
 156 00ee 2363     		strne	r3, [r4, #48]
 157 00f0 E36E     		ldreq	r3, [r4, #108]
 158 00f2 18BF     		it	ne
 159 00f4 A36D     		ldrne	r3, [r4, #88]
 160 00f6 EBE7     		b	.L30
 161              	.L3:
 162 00f8 70BD     		pop	{r4, r5, r6, pc}
 164              		.section	.text.I2C_DMAError,"ax",%progbits
 165              		.align	1
 166              		.syntax unified
 167              		.thumb
 168              		.thumb_func
 169              		.fpu softvfp
 171              	I2C_DMAError:
 172              		@ args = 0, pretend = 0, frame = 0
 173              		@ frame_needed = 0, uses_anonymous_args = 0
 174              		@ link register save eliminated.
 175 0000 0023     		movs	r3, #0
 176 0002 406A     		ldr	r0, [r0, #36]
 177 0004 426B     		ldr	r2, [r0, #52]
 178 0006 0168     		ldr	r1, [r0]
ARM GAS  /tmp/ccfpVwxB.s 			page 4


 179 0008 9362     		str	r3, [r2, #40]
 180 000a 826B     		ldr	r2, [r0, #56]
 181 000c 9362     		str	r3, [r2, #40]
 182 000e 0A68     		ldr	r2, [r1]
 183 0010 22F48062 		bic	r2, r2, #1024
 184 0014 0A60     		str	r2, [r1]
 185 0016 2022     		movs	r2, #32
 186 0018 4385     		strh	r3, [r0, #42]	@ movhi
 187 001a 80F83D20 		strb	r2, [r0, #61]
 188 001e 80F83E30 		strb	r3, [r0, #62]
 189 0022 036C     		ldr	r3, [r0, #64]
 190 0024 43F01003 		orr	r3, r3, #16
 191 0028 0364     		str	r3, [r0, #64]
 192 002a 036F     		ldr	r3, [r0, #112]
 193 002c 1847     		bx	r3	@ indirect register sibling call
 195              		.section	.text.I2C_DMAAbort,"ax",%progbits
 196              		.align	1
 197              		.syntax unified
 198              		.thumb
 199              		.thumb_func
 200              		.fpu softvfp
 202              	I2C_DMAAbort:
 203              		@ args = 0, pretend = 0, frame = 0
 204              		@ frame_needed = 0, uses_anonymous_args = 0
 205              		@ link register save eliminated.
 206 0000 0023     		movs	r3, #0
 207 0002 406A     		ldr	r0, [r0, #36]
 208 0004 70B4     		push	{r4, r5, r6}
 209 0006 0268     		ldr	r2, [r0]
 210 0008 90F83D10 		ldrb	r1, [r0, #61]	@ zero_extendqisi2
 211 000c 1468     		ldr	r4, [r2]
 212 000e 466B     		ldr	r6, [r0, #52]
 213 0010 856B     		ldr	r5, [r0, #56]
 214 0012 24F48064 		bic	r4, r4, #1024
 215 0016 B362     		str	r3, [r6, #40]
 216 0018 AB62     		str	r3, [r5, #40]
 217 001a 1460     		str	r4, [r2]
 218 001c 4385     		strh	r3, [r0, #42]	@ movhi
 219 001e 1468     		ldr	r4, [r2]
 220 0020 7363     		str	r3, [r6, #52]
 221 0022 24F00104 		bic	r4, r4, #1
 222 0026 6B63     		str	r3, [r5, #52]
 223 0028 1460     		str	r4, [r2]
 224 002a 90F83D40 		ldrb	r4, [r0, #61]	@ zero_extendqisi2
 225 002e C9B2     		uxtb	r1, r1
 226 0030 602C     		cmp	r4, #96
 227 0032 08D1     		bne	.L33
 228 0034 2022     		movs	r2, #32
 229 0036 80F83D20 		strb	r2, [r0, #61]
 230 003a 80F83E30 		strb	r3, [r0, #62]
 231 003e 0364     		str	r3, [r0, #64]
 232 0040 436F     		ldr	r3, [r0, #116]
 233              	.L36:
 234 0042 70BC     		pop	{r4, r5, r6}
 235 0044 1847     		bx	r3	@ indirect register sibling call
 236              	.L33:
 237 0046 01F02801 		and	r1, r1, #40
ARM GAS  /tmp/ccfpVwxB.s 			page 5


 238 004a 2829     		cmp	r1, #40
 239 004c 0CD1     		bne	.L34
 240 004e 1468     		ldr	r4, [r2]
 241 0050 44F00104 		orr	r4, r4, #1
 242 0054 1460     		str	r4, [r2]
 243 0056 1468     		ldr	r4, [r2]
 244 0058 44F48064 		orr	r4, r4, #1024
 245 005c 1460     		str	r4, [r2]
 246 005e 0363     		str	r3, [r0, #48]
 247 0060 80F83D10 		strb	r1, [r0, #61]
 248              	.L35:
 249 0064 036F     		ldr	r3, [r0, #112]
 250 0066 ECE7     		b	.L36
 251              	.L34:
 252 0068 2022     		movs	r2, #32
 253 006a 80F83D20 		strb	r2, [r0, #61]
 254 006e 80F83E30 		strb	r3, [r0, #62]
 255 0072 F7E7     		b	.L35
 257              		.section	.text.I2C_IsAcknowledgeFailed,"ax",%progbits
 258              		.align	1
 259              		.syntax unified
 260              		.thumb
 261              		.thumb_func
 262              		.fpu softvfp
 264              	I2C_IsAcknowledgeFailed:
 265              		@ args = 0, pretend = 0, frame = 0
 266              		@ frame_needed = 0, uses_anonymous_args = 0
 267              		@ link register save eliminated.
 268 0000 0168     		ldr	r1, [r0]
 269 0002 0022     		movs	r2, #0
 270 0004 4B69     		ldr	r3, [r1, #20]
 271 0006 13F48063 		ands	r3, r3, #1024
 272 000a 10D0     		beq	.L39
 273 000c 6FF48063 		mvn	r3, #1024
 274 0010 4B61     		str	r3, [r1, #20]
 275 0012 2023     		movs	r3, #32
 276 0014 0263     		str	r2, [r0, #48]
 277 0016 80F83D30 		strb	r3, [r0, #61]
 278 001a 80F83E20 		strb	r2, [r0, #62]
 279 001e 036C     		ldr	r3, [r0, #64]
 280 0020 80F83C20 		strb	r2, [r0, #60]
 281 0024 43F00403 		orr	r3, r3, #4
 282 0028 0364     		str	r3, [r0, #64]
 283 002a 0120     		movs	r0, #1
 284 002c 7047     		bx	lr
 285              	.L39:
 286 002e 1846     		mov	r0, r3
 287 0030 7047     		bx	lr
 289              		.section	.text.I2C_WaitOnMasterAddressFlagUntilTimeout,"ax",%progbits
 290              		.align	1
 291              		.syntax unified
 292              		.thumb
 293              		.thumb_func
 294              		.fpu softvfp
 296              	I2C_WaitOnMasterAddressFlagUntilTimeout:
 297              		@ args = 0, pretend = 0, frame = 0
 298              		@ frame_needed = 0, uses_anonymous_args = 0
ARM GAS  /tmp/ccfpVwxB.s 			page 6


 299 0000 2DE9F843 		push	{r3, r4, r5, r6, r7, r8, r9, lr}
 300 0004 0446     		mov	r4, r0
 301 0006 1746     		mov	r7, r2
 302 0008 9946     		mov	r9, r3
 303 000a C1F30748 		ubfx	r8, r1, #16, #8
 304 000e 8EB2     		uxth	r6, r1
 305              	.L44:
 306 0010 2568     		ldr	r5, [r4]
 307 0012 B8F1010F 		cmp	r8, #1
 308 0016 0CBF     		ite	eq
 309 0018 6B69     		ldreq	r3, [r5, #20]
 310 001a AB69     		ldrne	r3, [r5, #24]
 311 001c 36EA0303 		bics	r3, r6, r3
 312 0020 14BF     		ite	ne
 313 0022 0120     		movne	r0, #1
 314 0024 0020     		moveq	r0, #0
 315 0026 08B9     		cbnz	r0, .L48
 316 0028 BDE8F883 		pop	{r3, r4, r5, r6, r7, r8, r9, pc}
 317              	.L48:
 318 002c 6B69     		ldr	r3, [r5, #20]
 319 002e 5A05     		lsls	r2, r3, #21
 320 0030 16D5     		bpl	.L42
 321 0032 2B68     		ldr	r3, [r5]
 322 0034 2022     		movs	r2, #32
 323 0036 43F40073 		orr	r3, r3, #512
 324 003a 2B60     		str	r3, [r5]
 325 003c 6FF48063 		mvn	r3, #1024
 326 0040 6B61     		str	r3, [r5, #20]
 327 0042 0023     		movs	r3, #0
 328 0044 2363     		str	r3, [r4, #48]
 329 0046 84F83D20 		strb	r2, [r4, #61]
 330 004a 84F83E30 		strb	r3, [r4, #62]
 331 004e 226C     		ldr	r2, [r4, #64]
 332 0050 42F00402 		orr	r2, r2, #4
 333              	.L53:
 334 0054 2264     		str	r2, [r4, #64]
 335 0056 84F83C30 		strb	r3, [r4, #60]
 336 005a 0120     		movs	r0, #1
 337 005c BDE8F883 		pop	{r3, r4, r5, r6, r7, r8, r9, pc}
 338              	.L42:
 339 0060 7B1C     		adds	r3, r7, #1
 340 0062 D5D0     		beq	.L44
 341 0064 FFF7FEFF 		bl	HAL_GetTick
 342 0068 A0EB0900 		sub	r0, r0, r9
 343 006c 8742     		cmp	r7, r0
 344 006e 01D3     		bcc	.L45
 345 0070 002F     		cmp	r7, #0
 346 0072 CDD1     		bne	.L44
 347              	.L45:
 348 0074 0023     		movs	r3, #0
 349 0076 2022     		movs	r2, #32
 350 0078 2363     		str	r3, [r4, #48]
 351 007a 84F83D20 		strb	r2, [r4, #61]
 352 007e 84F83E30 		strb	r3, [r4, #62]
 353 0082 226C     		ldr	r2, [r4, #64]
 354 0084 42F02002 		orr	r2, r2, #32
 355 0088 E4E7     		b	.L53
ARM GAS  /tmp/ccfpVwxB.s 			page 7


 357              		.section	.text.I2C_ITError,"ax",%progbits
 358              		.align	1
 359              		.syntax unified
 360              		.thumb
 361              		.thumb_func
 362              		.fpu softvfp
 364              	I2C_ITError:
 365              		@ args = 0, pretend = 0, frame = 0
 366              		@ frame_needed = 0, uses_anonymous_args = 0
 367 0000 90F83D20 		ldrb	r2, [r0, #61]	@ zero_extendqisi2
 368 0004 90F83E30 		ldrb	r3, [r0, #62]	@ zero_extendqisi2
 369 0008 10B5     		push	{r4, lr}
 370 000a 102B     		cmp	r3, #16
 371 000c 0446     		mov	r4, r0
 372 000e D2B2     		uxtb	r2, r2
 373 0010 0368     		ldr	r3, [r0]
 374 0012 05D1     		bne	.L55
 375 0014 222A     		cmp	r2, #34
 376 0016 02BF     		ittt	eq
 377 0018 1968     		ldreq	r1, [r3]
 378 001a 21F40061 		biceq	r1, r1, #2048
 379 001e 1960     		streq	r1, [r3]
 380              	.L55:
 381 0020 02F02801 		and	r1, r2, #40
 382 0024 2829     		cmp	r1, #40
 383 0026 3BD1     		bne	.L56
 384 0028 0022     		movs	r2, #0
 385 002a 2263     		str	r2, [r4, #48]
 386 002c 84F83D10 		strb	r1, [r4, #61]
 387              	.L57:
 388 0030 5A68     		ldr	r2, [r3, #4]
 389 0032 12F40062 		ands	r2, r2, #2048
 390 0036 5AD0     		beq	.L59
 391 0038 5A68     		ldr	r2, [r3, #4]
 392 003a 606B     		ldr	r0, [r4, #52]
 393 003c 22F40062 		bic	r2, r2, #2048
 394 0040 5A60     		str	r2, [r3, #4]
 395 0042 90F82130 		ldrb	r3, [r0, #33]	@ zero_extendqisi2
 396 0046 012B     		cmp	r3, #1
 397 0048 3B4B     		ldr	r3, .L90
 398 004a 36D0     		beq	.L60
 399 004c 4363     		str	r3, [r0, #52]
 400 004e FFF7FEFF 		bl	HAL_DMA_Abort_IT
 401 0052 50B1     		cbz	r0, .L62
 402 0054 2268     		ldr	r2, [r4]
 403 0056 606B     		ldr	r0, [r4, #52]
 404 0058 1368     		ldr	r3, [r2]
 405 005a 23F00103 		bic	r3, r3, #1
 406 005e 1360     		str	r3, [r2]
 407 0060 2023     		movs	r3, #32
 408 0062 84F83D30 		strb	r3, [r4, #61]
 409              	.L89:
 410 0066 436B     		ldr	r3, [r0, #52]
 411              	.L87:
 412 0068 9847     		blx	r3
 413              	.L62:
 414 006a 94F83D30 		ldrb	r3, [r4, #61]	@ zero_extendqisi2
ARM GAS  /tmp/ccfpVwxB.s 			page 8


 415 006e 226C     		ldr	r2, [r4, #64]
 416 0070 DBB2     		uxtb	r3, r3
 417 0072 5207     		lsls	r2, r2, #29
 418 0074 5FD5     		bpl	.L54
 419 0076 282B     		cmp	r3, #40
 420 0078 5DD1     		bne	.L54
 421 007a 2268     		ldr	r2, [r4]
 422 007c 2046     		mov	r0, r4
 423 007e 5368     		ldr	r3, [r2, #4]
 424 0080 23F4E063 		bic	r3, r3, #1792
 425 0084 5360     		str	r3, [r2, #4]
 426 0086 2D4B     		ldr	r3, .L90+4
 427 0088 2022     		movs	r2, #32
 428 008a E362     		str	r3, [r4, #44]
 429 008c 0023     		movs	r3, #0
 430 008e 2363     		str	r3, [r4, #48]
 431 0090 84F83D20 		strb	r2, [r4, #61]
 432 0094 84F83E30 		strb	r3, [r4, #62]
 433 0098 636E     		ldr	r3, [r4, #100]
 434 009a BDE81040 		pop	{r4, lr}
 435 009e 1847     		bx	r3	@ indirect register sibling call
 436              	.L56:
 437 00a0 5968     		ldr	r1, [r3, #4]
 438 00a2 0905     		lsls	r1, r1, #20
 439 00a4 04D4     		bmi	.L58
 440 00a6 602A     		cmp	r2, #96
 441 00a8 1CBF     		itt	ne
 442 00aa 2022     		movne	r2, #32
 443 00ac 84F83D20 		strbne	r2, [r4, #61]
 444              	.L58:
 445 00b0 0022     		movs	r2, #0
 446 00b2 2263     		str	r2, [r4, #48]
 447 00b4 84F83E20 		strb	r2, [r4, #62]
 448 00b8 BAE7     		b	.L57
 449              	.L60:
 450 00ba A06B     		ldr	r0, [r4, #56]
 451 00bc 4363     		str	r3, [r0, #52]
 452 00be FFF7FEFF 		bl	HAL_DMA_Abort_IT
 453 00c2 0028     		cmp	r0, #0
 454 00c4 D1D0     		beq	.L62
 455 00c6 2368     		ldr	r3, [r4]
 456 00c8 5A69     		ldr	r2, [r3, #20]
 457 00ca 5206     		lsls	r2, r2, #25
 458 00cc 05D5     		bpl	.L64
 459 00ce 1B69     		ldr	r3, [r3, #16]
 460 00d0 626A     		ldr	r2, [r4, #36]
 461 00d2 1370     		strb	r3, [r2]
 462 00d4 636A     		ldr	r3, [r4, #36]
 463 00d6 0133     		adds	r3, r3, #1
 464 00d8 6362     		str	r3, [r4, #36]
 465              	.L64:
 466 00da 2268     		ldr	r2, [r4]
 467 00dc A06B     		ldr	r0, [r4, #56]
 468 00de 1368     		ldr	r3, [r2]
 469 00e0 23F00103 		bic	r3, r3, #1
 470 00e4 1360     		str	r3, [r2]
 471 00e6 2023     		movs	r3, #32
ARM GAS  /tmp/ccfpVwxB.s 			page 9


 472 00e8 84F83D30 		strb	r3, [r4, #61]
 473 00ec BBE7     		b	.L89
 474              	.L59:
 475 00ee 94F83D10 		ldrb	r1, [r4, #61]	@ zero_extendqisi2
 476 00f2 6029     		cmp	r1, #96
 477 00f4 14D1     		bne	.L65
 478 00f6 2021     		movs	r1, #32
 479 00f8 84F83D10 		strb	r1, [r4, #61]
 480 00fc 2264     		str	r2, [r4, #64]
 481 00fe 5A69     		ldr	r2, [r3, #20]
 482 0100 5006     		lsls	r0, r2, #25
 483 0102 05D5     		bpl	.L66
 484 0104 1B69     		ldr	r3, [r3, #16]
 485 0106 626A     		ldr	r2, [r4, #36]
 486 0108 1370     		strb	r3, [r2]
 487 010a 636A     		ldr	r3, [r4, #36]
 488 010c 0133     		adds	r3, r3, #1
 489 010e 6362     		str	r3, [r4, #36]
 490              	.L66:
 491 0110 2268     		ldr	r2, [r4]
 492 0112 1368     		ldr	r3, [r2]
 493 0114 23F00103 		bic	r3, r3, #1
 494 0118 1360     		str	r3, [r2]
 495 011a 636F     		ldr	r3, [r4, #116]
 496              	.L88:
 497 011c 2046     		mov	r0, r4
 498 011e A3E7     		b	.L87
 499              	.L65:
 500 0120 5A69     		ldr	r2, [r3, #20]
 501 0122 5106     		lsls	r1, r2, #25
 502 0124 05D5     		bpl	.L67
 503 0126 1B69     		ldr	r3, [r3, #16]
 504 0128 626A     		ldr	r2, [r4, #36]
 505 012a 1370     		strb	r3, [r2]
 506 012c 636A     		ldr	r3, [r4, #36]
 507 012e 0133     		adds	r3, r3, #1
 508 0130 6362     		str	r3, [r4, #36]
 509              	.L67:
 510 0132 236F     		ldr	r3, [r4, #112]
 511 0134 F2E7     		b	.L88
 512              	.L54:
 513 0136 10BD     		pop	{r4, pc}
 514              	.L91:
 515              		.align	2
 516              	.L90:
 517 0138 00000000 		.word	I2C_DMAAbort
 518 013c 0000FFFF 		.word	-65536
 520              		.section	.text.I2C_WaitOnBTFFlagUntilTimeout,"ax",%progbits
 521              		.align	1
 522              		.syntax unified
 523              		.thumb
 524              		.thumb_func
 525              		.fpu softvfp
 527              	I2C_WaitOnBTFFlagUntilTimeout:
 528              		@ args = 0, pretend = 0, frame = 0
 529              		@ frame_needed = 0, uses_anonymous_args = 0
 530 0000 70B5     		push	{r4, r5, r6, lr}
ARM GAS  /tmp/ccfpVwxB.s 			page 10


 531 0002 0446     		mov	r4, r0
 532 0004 0D46     		mov	r5, r1
 533 0006 1646     		mov	r6, r2
 534              	.L95:
 535 0008 2368     		ldr	r3, [r4]
 536 000a 5B69     		ldr	r3, [r3, #20]
 537 000c 5B07     		lsls	r3, r3, #29
 538 000e 01D5     		bpl	.L97
 539 0010 0020     		movs	r0, #0
 540 0012 70BD     		pop	{r4, r5, r6, pc}
 541              	.L97:
 542 0014 2046     		mov	r0, r4
 543 0016 FFF7FEFF 		bl	I2C_IsAcknowledgeFailed
 544 001a A8B9     		cbnz	r0, .L98
 545 001c 6A1C     		adds	r2, r5, #1
 546 001e F3D0     		beq	.L95
 547 0020 FFF7FEFF 		bl	HAL_GetTick
 548 0024 801B     		subs	r0, r0, r6
 549 0026 8542     		cmp	r5, r0
 550 0028 01D3     		bcc	.L96
 551 002a 002D     		cmp	r5, #0
 552 002c ECD1     		bne	.L95
 553              	.L96:
 554 002e 0023     		movs	r3, #0
 555 0030 2022     		movs	r2, #32
 556 0032 2363     		str	r3, [r4, #48]
 557 0034 84F83D20 		strb	r2, [r4, #61]
 558 0038 84F83E30 		strb	r3, [r4, #62]
 559 003c 226C     		ldr	r2, [r4, #64]
 560 003e 84F83C30 		strb	r3, [r4, #60]
 561 0042 42F02002 		orr	r2, r2, #32
 562 0046 2264     		str	r2, [r4, #64]
 563              	.L98:
 564 0048 0120     		movs	r0, #1
 565 004a 70BD     		pop	{r4, r5, r6, pc}
 567              		.section	.text.HAL_I2C_ErrorCallback,"ax",%progbits
 568              		.align	1
 569              		.weak	HAL_I2C_ErrorCallback
 570              		.syntax unified
 571              		.thumb
 572              		.thumb_func
 573              		.fpu softvfp
 575              	HAL_I2C_ErrorCallback:
 576              		@ args = 0, pretend = 0, frame = 0
 577              		@ frame_needed = 0, uses_anonymous_args = 0
 578              		@ link register save eliminated.
 579 0000 7047     		bx	lr
 581              		.section	.text.HAL_I2C_MspInit,"ax",%progbits
 582              		.align	1
 583              		.weak	HAL_I2C_MspInit
 584              		.syntax unified
 585              		.thumb
 586              		.thumb_func
 587              		.fpu softvfp
 589              	HAL_I2C_MspInit:
 590              		@ args = 0, pretend = 0, frame = 0
 591              		@ frame_needed = 0, uses_anonymous_args = 0
ARM GAS  /tmp/ccfpVwxB.s 			page 11


 592              		@ link register save eliminated.
 593 0000 7047     		bx	lr
 595              		.section	.text.HAL_I2C_MspDeInit,"ax",%progbits
 596              		.align	1
 597              		.weak	HAL_I2C_MspDeInit
 598              		.syntax unified
 599              		.thumb
 600              		.thumb_func
 601              		.fpu softvfp
 603              	HAL_I2C_MspDeInit:
 604              		@ args = 0, pretend = 0, frame = 0
 605              		@ frame_needed = 0, uses_anonymous_args = 0
 606              		@ link register save eliminated.
 607 0000 7047     		bx	lr
 609              		.section	.text.HAL_I2C_MasterTxCpltCallback,"ax",%progbits
 610              		.align	1
 611              		.weak	HAL_I2C_MasterTxCpltCallback
 612              		.syntax unified
 613              		.thumb
 614              		.thumb_func
 615              		.fpu softvfp
 617              	HAL_I2C_MasterTxCpltCallback:
 618              		@ args = 0, pretend = 0, frame = 0
 619              		@ frame_needed = 0, uses_anonymous_args = 0
 620              		@ link register save eliminated.
 621 0000 7047     		bx	lr
 623              		.section	.text.HAL_I2C_MasterRxCpltCallback,"ax",%progbits
 624              		.align	1
 625              		.weak	HAL_I2C_MasterRxCpltCallback
 626              		.syntax unified
 627              		.thumb
 628              		.thumb_func
 629              		.fpu softvfp
 631              	HAL_I2C_MasterRxCpltCallback:
 632              		@ args = 0, pretend = 0, frame = 0
 633              		@ frame_needed = 0, uses_anonymous_args = 0
 634              		@ link register save eliminated.
 635 0000 7047     		bx	lr
 637              		.section	.text.HAL_I2C_SlaveTxCpltCallback,"ax",%progbits
 638              		.align	1
 639              		.weak	HAL_I2C_SlaveTxCpltCallback
 640              		.syntax unified
 641              		.thumb
 642              		.thumb_func
 643              		.fpu softvfp
 645              	HAL_I2C_SlaveTxCpltCallback:
 646              		@ args = 0, pretend = 0, frame = 0
 647              		@ frame_needed = 0, uses_anonymous_args = 0
 648              		@ link register save eliminated.
 649 0000 7047     		bx	lr
 651              		.section	.text.HAL_I2C_SlaveRxCpltCallback,"ax",%progbits
 652              		.align	1
 653              		.weak	HAL_I2C_SlaveRxCpltCallback
 654              		.syntax unified
 655              		.thumb
 656              		.thumb_func
 657              		.fpu softvfp
ARM GAS  /tmp/ccfpVwxB.s 			page 12


 659              	HAL_I2C_SlaveRxCpltCallback:
 660              		@ args = 0, pretend = 0, frame = 0
 661              		@ frame_needed = 0, uses_anonymous_args = 0
 662              		@ link register save eliminated.
 663 0000 7047     		bx	lr
 665              		.section	.text.HAL_I2C_ListenCpltCallback,"ax",%progbits
 666              		.align	1
 667              		.weak	HAL_I2C_ListenCpltCallback
 668              		.syntax unified
 669              		.thumb
 670              		.thumb_func
 671              		.fpu softvfp
 673              	HAL_I2C_ListenCpltCallback:
 674              		@ args = 0, pretend = 0, frame = 0
 675              		@ frame_needed = 0, uses_anonymous_args = 0
 676              		@ link register save eliminated.
 677 0000 7047     		bx	lr
 679              		.section	.text.HAL_I2C_MemTxCpltCallback,"ax",%progbits
 680              		.align	1
 681              		.weak	HAL_I2C_MemTxCpltCallback
 682              		.syntax unified
 683              		.thumb
 684              		.thumb_func
 685              		.fpu softvfp
 687              	HAL_I2C_MemTxCpltCallback:
 688              		@ args = 0, pretend = 0, frame = 0
 689              		@ frame_needed = 0, uses_anonymous_args = 0
 690              		@ link register save eliminated.
 691 0000 7047     		bx	lr
 693              		.section	.text.HAL_I2C_MemRxCpltCallback,"ax",%progbits
 694              		.align	1
 695              		.weak	HAL_I2C_MemRxCpltCallback
 696              		.syntax unified
 697              		.thumb
 698              		.thumb_func
 699              		.fpu softvfp
 701              	HAL_I2C_MemRxCpltCallback:
 702              		@ args = 0, pretend = 0, frame = 0
 703              		@ frame_needed = 0, uses_anonymous_args = 0
 704              		@ link register save eliminated.
 705 0000 7047     		bx	lr
 707              		.section	.text.I2C_WaitOnRXNEFlagUntilTimeout,"ax",%progbits
 708              		.align	1
 709              		.syntax unified
 710              		.thumb
 711              		.thumb_func
 712              		.fpu softvfp
 714              	I2C_WaitOnRXNEFlagUntilTimeout:
 715              		@ args = 0, pretend = 0, frame = 0
 716              		@ frame_needed = 0, uses_anonymous_args = 0
 717 0000 70B5     		push	{r4, r5, r6, lr}
 718 0002 0446     		mov	r4, r0
 719 0004 0D46     		mov	r5, r1
 720 0006 1646     		mov	r6, r2
 721              	.L113:
 722 0008 2068     		ldr	r0, [r4]
 723 000a 4369     		ldr	r3, [r0, #20]
ARM GAS  /tmp/ccfpVwxB.s 			page 13


 724 000c 13F04003 		ands	r3, r3, #64
 725 0010 01D0     		beq	.L117
 726 0012 0020     		movs	r0, #0
 727 0014 70BD     		pop	{r4, r5, r6, pc}
 728              	.L117:
 729 0016 4269     		ldr	r2, [r0, #20]
 730 0018 D206     		lsls	r2, r2, #27
 731 001a 0ED5     		bpl	.L114
 732 001c 6FF01002 		mvn	r2, #16
 733 0020 4261     		str	r2, [r0, #20]
 734 0022 2022     		movs	r2, #32
 735 0024 2363     		str	r3, [r4, #48]
 736 0026 84F83D20 		strb	r2, [r4, #61]
 737 002a 84F83E30 		strb	r3, [r4, #62]
 738 002e 226C     		ldr	r2, [r4, #64]
 739              	.L119:
 740 0030 2264     		str	r2, [r4, #64]
 741 0032 84F83C30 		strb	r3, [r4, #60]
 742 0036 0120     		movs	r0, #1
 743 0038 70BD     		pop	{r4, r5, r6, pc}
 744              	.L114:
 745 003a FFF7FEFF 		bl	HAL_GetTick
 746 003e 801B     		subs	r0, r0, r6
 747 0040 A842     		cmp	r0, r5
 748 0042 01D8     		bhi	.L116
 749 0044 002D     		cmp	r5, #0
 750 0046 DFD1     		bne	.L113
 751              	.L116:
 752 0048 0023     		movs	r3, #0
 753 004a 2022     		movs	r2, #32
 754 004c 2363     		str	r3, [r4, #48]
 755 004e 84F83D20 		strb	r2, [r4, #61]
 756 0052 84F83E30 		strb	r3, [r4, #62]
 757 0056 226C     		ldr	r2, [r4, #64]
 758 0058 42F02002 		orr	r2, r2, #32
 759 005c E8E7     		b	.L119
 761              		.section	.text.I2C_WaitOnFlagUntilTimeout,"ax",%progbits
 762              		.align	1
 763              		.syntax unified
 764              		.thumb
 765              		.thumb_func
 766              		.fpu softvfp
 768              	I2C_WaitOnFlagUntilTimeout:
 769              		@ args = 4, pretend = 0, frame = 0
 770              		@ frame_needed = 0, uses_anonymous_args = 0
 771 0000 2DE9F843 		push	{r3, r4, r5, r6, r7, r8, r9, lr}
 772 0004 0446     		mov	r4, r0
 773 0006 9046     		mov	r8, r2
 774 0008 1F46     		mov	r7, r3
 775 000a 089E     		ldr	r6, [sp, #32]
 776 000c C1F30749 		ubfx	r9, r1, #16, #8
 777 0010 8DB2     		uxth	r5, r1
 778              	.L122:
 779 0012 2368     		ldr	r3, [r4]
 780 0014 B9F1010F 		cmp	r9, #1
 781 0018 0CBF     		ite	eq
 782 001a 5B69     		ldreq	r3, [r3, #20]
ARM GAS  /tmp/ccfpVwxB.s 			page 14


 783 001c 9B69     		ldrne	r3, [r3, #24]
 784 001e 35EA0303 		bics	r3, r5, r3
 785 0022 0CBF     		ite	eq
 786 0024 0123     		moveq	r3, #1
 787 0026 0023     		movne	r3, #0
 788 0028 4345     		cmp	r3, r8
 789 002a 02D0     		beq	.L127
 790 002c 0020     		movs	r0, #0
 791 002e BDE8F883 		pop	{r3, r4, r5, r6, r7, r8, r9, pc}
 792              	.L127:
 793 0032 7B1C     		adds	r3, r7, #1
 794 0034 EDD0     		beq	.L122
 795 0036 FFF7FEFF 		bl	HAL_GetTick
 796 003a 801B     		subs	r0, r0, r6
 797 003c 8742     		cmp	r7, r0
 798 003e 01D3     		bcc	.L123
 799 0040 002F     		cmp	r7, #0
 800 0042 E6D1     		bne	.L122
 801              	.L123:
 802 0044 0023     		movs	r3, #0
 803 0046 2022     		movs	r2, #32
 804 0048 2363     		str	r3, [r4, #48]
 805 004a 84F83D20 		strb	r2, [r4, #61]
 806 004e 84F83E30 		strb	r3, [r4, #62]
 807 0052 226C     		ldr	r2, [r4, #64]
 808 0054 84F83C30 		strb	r3, [r4, #60]
 809 0058 42F02002 		orr	r2, r2, #32
 810 005c 2264     		str	r2, [r4, #64]
 811 005e 0120     		movs	r0, #1
 812 0060 BDE8F883 		pop	{r3, r4, r5, r6, r7, r8, r9, pc}
 814              		.section	.text.I2C_WaitOnTXEFlagUntilTimeout,"ax",%progbits
 815              		.align	1
 816              		.syntax unified
 817              		.thumb
 818              		.thumb_func
 819              		.fpu softvfp
 821              	I2C_WaitOnTXEFlagUntilTimeout:
 822              		@ args = 0, pretend = 0, frame = 0
 823              		@ frame_needed = 0, uses_anonymous_args = 0
 824 0000 70B5     		push	{r4, r5, r6, lr}
 825 0002 0446     		mov	r4, r0
 826 0004 0D46     		mov	r5, r1
 827 0006 1646     		mov	r6, r2
 828              	.L135:
 829 0008 2368     		ldr	r3, [r4]
 830 000a 5B69     		ldr	r3, [r3, #20]
 831 000c 1B06     		lsls	r3, r3, #24
 832 000e 01D5     		bpl	.L137
 833 0010 0020     		movs	r0, #0
 834 0012 70BD     		pop	{r4, r5, r6, pc}
 835              	.L137:
 836 0014 2046     		mov	r0, r4
 837 0016 FFF7FEFF 		bl	I2C_IsAcknowledgeFailed
 838 001a A8B9     		cbnz	r0, .L138
 839 001c 6A1C     		adds	r2, r5, #1
 840 001e F3D0     		beq	.L135
 841 0020 FFF7FEFF 		bl	HAL_GetTick
ARM GAS  /tmp/ccfpVwxB.s 			page 15


 842 0024 801B     		subs	r0, r0, r6
 843 0026 8542     		cmp	r5, r0
 844 0028 01D3     		bcc	.L136
 845 002a 002D     		cmp	r5, #0
 846 002c ECD1     		bne	.L135
 847              	.L136:
 848 002e 0023     		movs	r3, #0
 849 0030 2022     		movs	r2, #32
 850 0032 2363     		str	r3, [r4, #48]
 851 0034 84F83D20 		strb	r2, [r4, #61]
 852 0038 84F83E30 		strb	r3, [r4, #62]
 853 003c 226C     		ldr	r2, [r4, #64]
 854 003e 84F83C30 		strb	r3, [r4, #60]
 855 0042 42F02002 		orr	r2, r2, #32
 856 0046 2264     		str	r2, [r4, #64]
 857              	.L138:
 858 0048 0120     		movs	r0, #1
 859 004a 70BD     		pop	{r4, r5, r6, pc}
 861              		.section	.text.I2C_RequestMemoryWrite,"ax",%progbits
 862              		.align	1
 863              		.syntax unified
 864              		.thumb
 865              		.thumb_func
 866              		.fpu softvfp
 868              	I2C_RequestMemoryWrite:
 869              		@ args = 8, pretend = 0, frame = 8
 870              		@ frame_needed = 0, uses_anonymous_args = 0
 871 0000 2DE9FF41 		push	{r0, r1, r2, r3, r4, r5, r6, r7, r8, lr}
 872 0004 1546     		mov	r5, r2
 873 0006 0268     		ldr	r2, [r0]
 874 0008 9846     		mov	r8, r3
 875 000a 1368     		ldr	r3, [r2]
 876 000c 0B9E     		ldr	r6, [sp, #44]
 877 000e 43F48073 		orr	r3, r3, #256
 878 0012 1360     		str	r3, [r2]
 879 0014 0F46     		mov	r7, r1
 880 0016 0096     		str	r6, [sp]
 881 0018 0A9B     		ldr	r3, [sp, #40]
 882 001a 0022     		movs	r2, #0
 883 001c 4FF00111 		mov	r1, #65537
 884 0020 0446     		mov	r4, r0
 885 0022 FFF7FEFF 		bl	I2C_WaitOnFlagUntilTimeout
 886 0026 18B1     		cbz	r0, .L143
 887              	.L150:
 888 0028 0120     		movs	r0, #1
 889              	.L144:
 890 002a 04B0     		add	sp, sp, #16
 891              		@ sp needed
 892 002c BDE8F081 		pop	{r4, r5, r6, r7, r8, pc}
 893              	.L143:
 894 0030 2368     		ldr	r3, [r4]
 895 0032 07F0FE07 		and	r7, r7, #254
 896 0036 1F61     		str	r7, [r3, #16]
 897 0038 0A9A     		ldr	r2, [sp, #40]
 898 003a 3346     		mov	r3, r6
 899 003c 1649     		ldr	r1, .L154
 900 003e 2046     		mov	r0, r4
ARM GAS  /tmp/ccfpVwxB.s 			page 16


 901 0040 FFF7FEFF 		bl	I2C_WaitOnMasterAddressFlagUntilTimeout
 902 0044 0028     		cmp	r0, #0
 903 0046 EFD1     		bne	.L150
 904 0048 2368     		ldr	r3, [r4]
 905 004a 0390     		str	r0, [sp, #12]
 906 004c 5A69     		ldr	r2, [r3, #20]
 907 004e 0A99     		ldr	r1, [sp, #40]
 908 0050 0392     		str	r2, [sp, #12]
 909 0052 9B69     		ldr	r3, [r3, #24]
 910 0054 3246     		mov	r2, r6
 911 0056 0393     		str	r3, [sp, #12]
 912 0058 2046     		mov	r0, r4
 913 005a 039B     		ldr	r3, [sp, #12]
 914 005c FFF7FEFF 		bl	I2C_WaitOnTXEFlagUntilTimeout
 915 0060 40B1     		cbz	r0, .L146
 916              	.L153:
 917 0062 236C     		ldr	r3, [r4, #64]
 918 0064 042B     		cmp	r3, #4
 919 0066 01BF     		itttt	eq
 920 0068 2268     		ldreq	r2, [r4]
 921 006a 1368     		ldreq	r3, [r2]
 922 006c 43F40073 		orreq	r3, r3, #512
 923 0070 1360     		streq	r3, [r2]
 924 0072 D9E7     		b	.L150
 925              	.L146:
 926 0074 B8F1010F 		cmp	r8, #1
 927 0078 2368     		ldr	r3, [r4]
 928 007a 02D1     		bne	.L147
 929              	.L151:
 930 007c EDB2     		uxtb	r5, r5
 931 007e 1D61     		str	r5, [r3, #16]
 932 0080 D3E7     		b	.L144
 933              	.L147:
 934 0082 2A0A     		lsrs	r2, r5, #8
 935 0084 1A61     		str	r2, [r3, #16]
 936 0086 0A99     		ldr	r1, [sp, #40]
 937 0088 3246     		mov	r2, r6
 938 008a 2046     		mov	r0, r4
 939 008c FFF7FEFF 		bl	I2C_WaitOnTXEFlagUntilTimeout
 940 0090 0028     		cmp	r0, #0
 941 0092 E6D1     		bne	.L153
 942 0094 2368     		ldr	r3, [r4]
 943 0096 F1E7     		b	.L151
 944              	.L155:
 945              		.align	2
 946              	.L154:
 947 0098 02000100 		.word	65538
 949              		.section	.text.I2C_RequestMemoryRead,"ax",%progbits
 950              		.align	1
 951              		.syntax unified
 952              		.thumb
 953              		.thumb_func
 954              		.fpu softvfp
 956              	I2C_RequestMemoryRead:
 957              		@ args = 8, pretend = 0, frame = 8
 958              		@ frame_needed = 0, uses_anonymous_args = 0
 959 0000 2DE9FF41 		push	{r0, r1, r2, r3, r4, r5, r6, r7, r8, lr}
ARM GAS  /tmp/ccfpVwxB.s 			page 17


 960 0004 9846     		mov	r8, r3
 961 0006 0368     		ldr	r3, [r0]
 962 0008 1646     		mov	r6, r2
 963 000a 1A68     		ldr	r2, [r3]
 964 000c 0B9D     		ldr	r5, [sp, #44]
 965 000e 42F48062 		orr	r2, r2, #1024
 966 0012 1A60     		str	r2, [r3]
 967 0014 1A68     		ldr	r2, [r3]
 968 0016 0F46     		mov	r7, r1
 969 0018 42F48072 		orr	r2, r2, #256
 970 001c 1A60     		str	r2, [r3]
 971 001e 4FF00111 		mov	r1, #65537
 972 0022 0095     		str	r5, [sp]
 973 0024 0A9B     		ldr	r3, [sp, #40]
 974 0026 0022     		movs	r2, #0
 975 0028 0446     		mov	r4, r0
 976 002a FFF7FEFF 		bl	I2C_WaitOnFlagUntilTimeout
 977 002e 18B1     		cbz	r0, .L157
 978              	.L168:
 979 0030 0120     		movs	r0, #1
 980              	.L158:
 981 0032 04B0     		add	sp, sp, #16
 982              		@ sp needed
 983 0034 BDE8F081 		pop	{r4, r5, r6, r7, r8, pc}
 984              	.L157:
 985 0038 2368     		ldr	r3, [r4]
 986 003a FFB2     		uxtb	r7, r7
 987 003c 07F0FE02 		and	r2, r7, #254
 988 0040 1A61     		str	r2, [r3, #16]
 989 0042 2949     		ldr	r1, .L172
 990 0044 2B46     		mov	r3, r5
 991 0046 0A9A     		ldr	r2, [sp, #40]
 992 0048 2046     		mov	r0, r4
 993 004a FFF7FEFF 		bl	I2C_WaitOnMasterAddressFlagUntilTimeout
 994 004e 0028     		cmp	r0, #0
 995 0050 EED1     		bne	.L168
 996 0052 2368     		ldr	r3, [r4]
 997 0054 0390     		str	r0, [sp, #12]
 998 0056 5A69     		ldr	r2, [r3, #20]
 999 0058 0A99     		ldr	r1, [sp, #40]
 1000 005a 0392     		str	r2, [sp, #12]
 1001 005c 9B69     		ldr	r3, [r3, #24]
 1002 005e 2A46     		mov	r2, r5
 1003 0060 0393     		str	r3, [sp, #12]
 1004 0062 2046     		mov	r0, r4
 1005 0064 039B     		ldr	r3, [sp, #12]
 1006 0066 FFF7FEFF 		bl	I2C_WaitOnTXEFlagUntilTimeout
 1007 006a 40B1     		cbz	r0, .L160
 1008              	.L170:
 1009 006c 236C     		ldr	r3, [r4, #64]
 1010 006e 042B     		cmp	r3, #4
 1011 0070 01BF     		itttt	eq
 1012 0072 2268     		ldreq	r2, [r4]
 1013 0074 1368     		ldreq	r3, [r2]
 1014 0076 43F40073 		orreq	r3, r3, #512
 1015 007a 1360     		streq	r3, [r2]
 1016 007c D8E7     		b	.L168
ARM GAS  /tmp/ccfpVwxB.s 			page 18


 1017              	.L160:
 1018 007e B8F1010F 		cmp	r8, #1
 1019 0082 2368     		ldr	r3, [r4]
 1020 0084 25D1     		bne	.L161
 1021              	.L165:
 1022 0086 F6B2     		uxtb	r6, r6
 1023 0088 1E61     		str	r6, [r3, #16]
 1024 008a 2A46     		mov	r2, r5
 1025 008c 0A99     		ldr	r1, [sp, #40]
 1026 008e 2046     		mov	r0, r4
 1027 0090 FFF7FEFF 		bl	I2C_WaitOnTXEFlagUntilTimeout
 1028 0094 0246     		mov	r2, r0
 1029 0096 0028     		cmp	r0, #0
 1030 0098 E8D1     		bne	.L170
 1031 009a 2168     		ldr	r1, [r4]
 1032 009c 2046     		mov	r0, r4
 1033 009e 0B68     		ldr	r3, [r1]
 1034 00a0 43F48073 		orr	r3, r3, #256
 1035 00a4 0B60     		str	r3, [r1]
 1036 00a6 0095     		str	r5, [sp]
 1037 00a8 0A9B     		ldr	r3, [sp, #40]
 1038 00aa 4FF00111 		mov	r1, #65537
 1039 00ae FFF7FEFF 		bl	I2C_WaitOnFlagUntilTimeout
 1040 00b2 0028     		cmp	r0, #0
 1041 00b4 BCD1     		bne	.L168
 1042 00b6 2368     		ldr	r3, [r4]
 1043 00b8 47F00107 		orr	r7, r7, #1
 1044 00bc 1F61     		str	r7, [r3, #16]
 1045 00be 0A9A     		ldr	r2, [sp, #40]
 1046 00c0 2B46     		mov	r3, r5
 1047 00c2 0949     		ldr	r1, .L172
 1048 00c4 2046     		mov	r0, r4
 1049 00c6 FFF7FEFF 		bl	I2C_WaitOnMasterAddressFlagUntilTimeout
 1050 00ca 0030     		adds	r0, r0, #0
 1051 00cc 18BF     		it	ne
 1052 00ce 0120     		movne	r0, #1
 1053 00d0 AFE7     		b	.L158
 1054              	.L161:
 1055 00d2 320A     		lsrs	r2, r6, #8
 1056 00d4 1A61     		str	r2, [r3, #16]
 1057 00d6 0A99     		ldr	r1, [sp, #40]
 1058 00d8 2A46     		mov	r2, r5
 1059 00da 2046     		mov	r0, r4
 1060 00dc FFF7FEFF 		bl	I2C_WaitOnTXEFlagUntilTimeout
 1061 00e0 0028     		cmp	r0, #0
 1062 00e2 C3D1     		bne	.L170
 1063 00e4 2368     		ldr	r3, [r4]
 1064 00e6 CEE7     		b	.L165
 1065              	.L173:
 1066              		.align	2
 1067              	.L172:
 1068 00e8 02000100 		.word	65538
 1070              		.section	.text.HAL_I2C_Init,"ax",%progbits
 1071              		.align	1
 1072              		.global	HAL_I2C_Init
 1073              		.syntax unified
 1074              		.thumb
ARM GAS  /tmp/ccfpVwxB.s 			page 19


 1075              		.thumb_func
 1076              		.fpu softvfp
 1078              	HAL_I2C_Init:
 1079              		@ args = 0, pretend = 0, frame = 0
 1080              		@ frame_needed = 0, uses_anonymous_args = 0
 1081 0000 70B5     		push	{r4, r5, r6, lr}
 1082 0002 0446     		mov	r4, r0
 1083 0004 08B9     		cbnz	r0, .L175
 1084              	.L180:
 1085 0006 0120     		movs	r0, #1
 1086 0008 70BD     		pop	{r4, r5, r6, pc}
 1087              	.L175:
 1088 000a 90F83D30 		ldrb	r3, [r0, #61]	@ zero_extendqisi2
 1089 000e 03F0FF02 		and	r2, r3, #255
 1090 0012 E3B9     		cbnz	r3, .L177
 1091 0014 554B     		ldr	r3, .L197
 1092 0016 80F83C20 		strb	r2, [r0, #60]
 1093 001a 4365     		str	r3, [r0, #84]
 1094 001c 544B     		ldr	r3, .L197+4
 1095 001e 8365     		str	r3, [r0, #88]
 1096 0020 544B     		ldr	r3, .L197+8
 1097 0022 C365     		str	r3, [r0, #92]
 1098 0024 544B     		ldr	r3, .L197+12
 1099 0026 0366     		str	r3, [r0, #96]
 1100 0028 544B     		ldr	r3, .L197+16
 1101 002a 4366     		str	r3, [r0, #100]
 1102 002c 544B     		ldr	r3, .L197+20
 1103 002e 8366     		str	r3, [r0, #104]
 1104 0030 544B     		ldr	r3, .L197+24
 1105 0032 C366     		str	r3, [r0, #108]
 1106 0034 544B     		ldr	r3, .L197+28
 1107 0036 0367     		str	r3, [r0, #112]
 1108 0038 544B     		ldr	r3, .L197+32
 1109 003a 4367     		str	r3, [r0, #116]
 1110 003c 544B     		ldr	r3, .L197+36
 1111 003e 8367     		str	r3, [r0, #120]
 1112 0040 C36F     		ldr	r3, [r0, #124]
 1113 0042 0BB9     		cbnz	r3, .L178
 1114 0044 534B     		ldr	r3, .L197+40
 1115 0046 C367     		str	r3, [r0, #124]
 1116              	.L178:
 1117 0048 E36F     		ldr	r3, [r4, #124]
 1118 004a 2046     		mov	r0, r4
 1119 004c 9847     		blx	r3
 1120              	.L177:
 1121 004e 2423     		movs	r3, #36
 1122 0050 2268     		ldr	r2, [r4]
 1123 0052 84F83D30 		strb	r3, [r4, #61]
 1124 0056 1368     		ldr	r3, [r2]
 1125 0058 23F00103 		bic	r3, r3, #1
 1126 005c 1360     		str	r3, [r2]
 1127 005e FFF7FEFF 		bl	HAL_RCC_GetPCLK1Freq
 1128 0062 6568     		ldr	r5, [r4, #4]
 1129 0064 4C4B     		ldr	r3, .L197+44
 1130 0066 9D42     		cmp	r5, r3
 1131 0068 4DD8     		bhi	.L179
 1132 006a 4C4B     		ldr	r3, .L197+48
ARM GAS  /tmp/ccfpVwxB.s 			page 20


 1133 006c 9842     		cmp	r0, r3
 1134 006e CAD9     		bls	.L180
 1135 0070 4B49     		ldr	r1, .L197+52
 1136 0072 2268     		ldr	r2, [r4]
 1137 0074 B0FBF1F1 		udiv	r1, r0, r1
 1138 0078 5368     		ldr	r3, [r2, #4]
 1139 007a 23F03F03 		bic	r3, r3, #63
 1140 007e 0B43     		orrs	r3, r3, r1
 1141 0080 5360     		str	r3, [r2, #4]
 1142 0082 136A     		ldr	r3, [r2, #32]
 1143 0084 23F03F03 		bic	r3, r3, #63
 1144              	.L196:
 1145 0088 0131     		adds	r1, r1, #1
 1146 008a 1943     		orrs	r1, r1, r3
 1147 008c 1162     		str	r1, [r2, #32]
 1148 008e D169     		ldr	r1, [r2, #28]
 1149 0090 414B     		ldr	r3, .L197+44
 1150 0092 21F44F41 		bic	r1, r1, #52992
 1151 0096 9D42     		cmp	r5, r3
 1152 0098 21F0FF01 		bic	r1, r1, #255
 1153 009c 00F1FF30 		add	r0, r0, #-1
 1154 00a0 49D8     		bhi	.L183
 1155 00a2 6D00     		lsls	r5, r5, #1
 1156 00a4 B0FBF5F0 		udiv	r0, r0, r5
 1157 00a8 0130     		adds	r0, r0, #1
 1158 00aa C0F30B03 		ubfx	r3, r0, #0, #12
 1159 00ae 042B     		cmp	r3, #4
 1160 00b0 38BF     		it	cc
 1161 00b2 0423     		movcc	r3, #4
 1162              	.L184:
 1163 00b4 0B43     		orrs	r3, r3, r1
 1164 00b6 D361     		str	r3, [r2, #28]
 1165 00b8 1168     		ldr	r1, [r2]
 1166 00ba 206A     		ldr	r0, [r4, #32]
 1167 00bc E369     		ldr	r3, [r4, #28]
 1168 00be 21F0C001 		bic	r1, r1, #192
 1169 00c2 0343     		orrs	r3, r3, r0
 1170 00c4 0B43     		orrs	r3, r3, r1
 1171 00c6 1360     		str	r3, [r2]
 1172 00c8 9168     		ldr	r1, [r2, #8]
 1173 00ca E068     		ldr	r0, [r4, #12]
 1174 00cc 2369     		ldr	r3, [r4, #16]
 1175 00ce 21F40341 		bic	r1, r1, #33536
 1176 00d2 0343     		orrs	r3, r3, r0
 1177 00d4 21F0FF01 		bic	r1, r1, #255
 1178 00d8 0B43     		orrs	r3, r3, r1
 1179 00da 9360     		str	r3, [r2, #8]
 1180 00dc D168     		ldr	r1, [r2, #12]
 1181 00de A069     		ldr	r0, [r4, #24]
 1182 00e0 6369     		ldr	r3, [r4, #20]
 1183 00e2 21F0FF01 		bic	r1, r1, #255
 1184 00e6 0343     		orrs	r3, r3, r0
 1185 00e8 0B43     		orrs	r3, r3, r1
 1186 00ea D360     		str	r3, [r2, #12]
 1187 00ec 1368     		ldr	r3, [r2]
 1188 00ee 0020     		movs	r0, #0
 1189 00f0 43F00103 		orr	r3, r3, #1
ARM GAS  /tmp/ccfpVwxB.s 			page 21


 1190 00f4 1360     		str	r3, [r2]
 1191 00f6 2023     		movs	r3, #32
 1192 00f8 2064     		str	r0, [r4, #64]
 1193 00fa 84F83D30 		strb	r3, [r4, #61]
 1194 00fe 2063     		str	r0, [r4, #48]
 1195 0100 84F83E00 		strb	r0, [r4, #62]
 1196 0104 70BD     		pop	{r4, r5, r6, pc}
 1197              	.L179:
 1198 0106 274B     		ldr	r3, .L197+56
 1199 0108 9842     		cmp	r0, r3
 1200 010a 7FF67CAF 		bls	.L180
 1201 010e 244E     		ldr	r6, .L197+52
 1202 0110 4FF49671 		mov	r1, #300
 1203 0114 B0FBF6F6 		udiv	r6, r0, r6
 1204 0118 2268     		ldr	r2, [r4]
 1205 011a 7143     		muls	r1, r6, r1
 1206 011c 5368     		ldr	r3, [r2, #4]
 1207 011e 23F03F03 		bic	r3, r3, #63
 1208 0122 3343     		orrs	r3, r3, r6
 1209 0124 4FF47A76 		mov	r6, #1000
 1210 0128 5360     		str	r3, [r2, #4]
 1211 012a 136A     		ldr	r3, [r2, #32]
 1212 012c B1FBF6F1 		udiv	r1, r1, r6
 1213 0130 23F03F03 		bic	r3, r3, #63
 1214 0134 A8E7     		b	.L196
 1215              	.L183:
 1216 0136 A368     		ldr	r3, [r4, #8]
 1217 0138 53B9     		cbnz	r3, .L185
 1218 013a 05EB4503 		add	r3, r5, r5, lsl #1
 1219 013e B0FBF3F0 		udiv	r0, r0, r3
 1220 0142 431C     		adds	r3, r0, #1
 1221 0144 C3F30B03 		ubfx	r3, r3, #0, #12
 1222 0148 6BB1     		cbz	r3, .L190
 1223 014a 43F40043 		orr	r3, r3, #32768
 1224 014e B1E7     		b	.L184
 1225              	.L185:
 1226 0150 1923     		movs	r3, #25
 1227 0152 6B43     		muls	r3, r5, r3
 1228 0154 B0FBF3F0 		udiv	r0, r0, r3
 1229 0158 431C     		adds	r3, r0, #1
 1230 015a C3F30B03 		ubfx	r3, r3, #0, #12
 1231 015e 13B1     		cbz	r3, .L190
 1232 0160 43F44043 		orr	r3, r3, #49152
 1233 0164 A6E7     		b	.L184
 1234              	.L190:
 1235 0166 0123     		movs	r3, #1
 1236 0168 A4E7     		b	.L184
 1237              	.L198:
 1238 016a 00BF     		.align	2
 1239              	.L197:
 1240 016c 00000000 		.word	HAL_I2C_MasterTxCpltCallback
 1241 0170 00000000 		.word	HAL_I2C_MasterRxCpltCallback
 1242 0174 00000000 		.word	HAL_I2C_SlaveTxCpltCallback
 1243 0178 00000000 		.word	HAL_I2C_SlaveRxCpltCallback
 1244 017c 00000000 		.word	HAL_I2C_ListenCpltCallback
 1245 0180 00000000 		.word	HAL_I2C_MemTxCpltCallback
 1246 0184 00000000 		.word	HAL_I2C_MemRxCpltCallback
ARM GAS  /tmp/ccfpVwxB.s 			page 22


 1247 0188 00000000 		.word	HAL_I2C_ErrorCallback
 1248 018c 00000000 		.word	HAL_I2C_AbortCpltCallback
 1249 0190 00000000 		.word	HAL_I2C_AddrCallback
 1250 0194 00000000 		.word	HAL_I2C_MspInit
 1251 0198 A0860100 		.word	100000
 1252 019c 7F841E00 		.word	1999999
 1253 01a0 40420F00 		.word	1000000
 1254 01a4 FF083D00 		.word	3999999
 1256              		.section	.text.HAL_I2C_DeInit,"ax",%progbits
 1257              		.align	1
 1258              		.global	HAL_I2C_DeInit
 1259              		.syntax unified
 1260              		.thumb
 1261              		.thumb_func
 1262              		.fpu softvfp
 1264              	HAL_I2C_DeInit:
 1265              		@ args = 0, pretend = 0, frame = 0
 1266              		@ frame_needed = 0, uses_anonymous_args = 0
 1267 0000 10B5     		push	{r4, lr}
 1268 0002 0446     		mov	r4, r0
 1269 0004 D8B1     		cbz	r0, .L202
 1270 0006 2423     		movs	r3, #36
 1271 0008 0268     		ldr	r2, [r0]
 1272 000a 80F83D30 		strb	r3, [r0, #61]
 1273 000e 1368     		ldr	r3, [r2]
 1274 0010 23F00103 		bic	r3, r3, #1
 1275 0014 1360     		str	r3, [r2]
 1276 0016 D0F88030 		ldr	r3, [r0, #128]
 1277 001a 13B9     		cbnz	r3, .L201
 1278 001c 094B     		ldr	r3, .L203
 1279 001e C0F88030 		str	r3, [r0, #128]
 1280              	.L201:
 1281 0022 2046     		mov	r0, r4
 1282 0024 D4F88030 		ldr	r3, [r4, #128]
 1283 0028 9847     		blx	r3
 1284 002a 0020     		movs	r0, #0
 1285 002c 2064     		str	r0, [r4, #64]
 1286 002e 84F83C00 		strb	r0, [r4, #60]
 1287 0032 84F83D00 		strb	r0, [r4, #61]
 1288 0036 2063     		str	r0, [r4, #48]
 1289 0038 84F83E00 		strb	r0, [r4, #62]
 1290 003c 10BD     		pop	{r4, pc}
 1291              	.L202:
 1292 003e 0120     		movs	r0, #1
 1293 0040 10BD     		pop	{r4, pc}
 1294              	.L204:
 1295 0042 00BF     		.align	2
 1296              	.L203:
 1297 0044 00000000 		.word	HAL_I2C_MspDeInit
 1299              		.section	.text.HAL_I2C_RegisterCallback,"ax",%progbits
 1300              		.align	1
 1301              		.global	HAL_I2C_RegisterCallback
 1302              		.syntax unified
 1303              		.thumb
 1304              		.thumb_func
 1305              		.fpu softvfp
 1307              	HAL_I2C_RegisterCallback:
ARM GAS  /tmp/ccfpVwxB.s 			page 23


 1308              		@ args = 0, pretend = 0, frame = 0
 1309              		@ frame_needed = 0, uses_anonymous_args = 0
 1310 0000 30B5     		push	{r4, r5, lr}
 1311 0002 0346     		mov	r3, r0
 1312 0004 2AB9     		cbnz	r2, .L206
 1313 0006 026C     		ldr	r2, [r0, #64]
 1314 0008 42F48072 		orr	r2, r2, #256
 1315 000c 0264     		str	r2, [r0, #64]
 1316 000e 0120     		movs	r0, #1
 1317 0010 30BD     		pop	{r4, r5, pc}
 1318              	.L206:
 1319 0012 90F83C00 		ldrb	r0, [r0, #60]	@ zero_extendqisi2
 1320 0016 0128     		cmp	r0, #1
 1321 0018 3DD0     		beq	.L227
 1322 001a 0120     		movs	r0, #1
 1323 001c 93F83D40 		ldrb	r4, [r3, #61]	@ zero_extendqisi2
 1324 0020 83F83C00 		strb	r0, [r3, #60]
 1325 0024 202C     		cmp	r4, #32
 1326 0026 25D1     		bne	.L208
 1327 0028 0A29     		cmp	r1, #10
 1328 002a 1DD8     		bhi	.L209
 1329 002c DFE801F0 		tbb	[pc, r1]
 1330              	.L211:
 1331 0030 06       		.byte	(.L210-.L211)/2
 1332 0031 0C       		.byte	(.L212-.L211)/2
 1333 0032 0E       		.byte	(.L213-.L211)/2
 1334 0033 10       		.byte	(.L214-.L211)/2
 1335 0034 12       		.byte	(.L215-.L211)/2
 1336 0035 14       		.byte	(.L216-.L211)/2
 1337 0036 16       		.byte	(.L217-.L211)/2
 1338 0037 18       		.byte	(.L218-.L211)/2
 1339 0038 1A       		.byte	(.L219-.L211)/2
 1340 0039 2E       		.byte	(.L225-.L211)/2
 1341 003a 30       		.byte	(.L226-.L211)/2
 1342 003b 00       		.p2align 1
 1343              	.L210:
 1344 003c 5A65     		str	r2, [r3, #84]
 1345              	.L229:
 1346 003e 0020     		movs	r0, #0
 1347              	.L222:
 1348 0040 0022     		movs	r2, #0
 1349 0042 83F83C20 		strb	r2, [r3, #60]
 1350 0046 30BD     		pop	{r4, r5, pc}
 1351              	.L212:
 1352 0048 9A65     		str	r2, [r3, #88]
 1353 004a F8E7     		b	.L229
 1354              	.L213:
 1355 004c DA65     		str	r2, [r3, #92]
 1356 004e F6E7     		b	.L229
 1357              	.L214:
 1358 0050 1A66     		str	r2, [r3, #96]
 1359 0052 F4E7     		b	.L229
 1360              	.L215:
 1361 0054 5A66     		str	r2, [r3, #100]
 1362 0056 F2E7     		b	.L229
 1363              	.L216:
 1364 0058 9A66     		str	r2, [r3, #104]
ARM GAS  /tmp/ccfpVwxB.s 			page 24


 1365 005a F0E7     		b	.L229
 1366              	.L217:
 1367 005c DA66     		str	r2, [r3, #108]
 1368 005e EEE7     		b	.L229
 1369              	.L218:
 1370 0060 1A67     		str	r2, [r3, #112]
 1371 0062 ECE7     		b	.L229
 1372              	.L219:
 1373 0064 5A67     		str	r2, [r3, #116]
 1374 0066 EAE7     		b	.L229
 1375              	.L209:
 1376 0068 1A6C     		ldr	r2, [r3, #64]
 1377 006a 0120     		movs	r0, #1
 1378 006c 42F48072 		orr	r2, r2, #256
 1379 0070 1A64     		str	r2, [r3, #64]
 1380 0072 E5E7     		b	.L222
 1381              	.L208:
 1382 0074 93F83D50 		ldrb	r5, [r3, #61]	@ zero_extendqisi2
 1383 0078 1DB9     		cbnz	r5, .L223
 1384 007a 0929     		cmp	r1, #9
 1385 007c 06D0     		beq	.L225
 1386 007e 0A29     		cmp	r1, #10
 1387 0080 06D0     		beq	.L226
 1388              	.L223:
 1389 0082 1A6C     		ldr	r2, [r3, #64]
 1390 0084 42F48072 		orr	r2, r2, #256
 1391 0088 1A64     		str	r2, [r3, #64]
 1392 008a D9E7     		b	.L222
 1393              	.L225:
 1394 008c DA67     		str	r2, [r3, #124]
 1395 008e D6E7     		b	.L229
 1396              	.L226:
 1397 0090 C3F88020 		str	r2, [r3, #128]
 1398 0094 D3E7     		b	.L229
 1399              	.L227:
 1400 0096 0220     		movs	r0, #2
 1401 0098 30BD     		pop	{r4, r5, pc}
 1403              		.section	.text.HAL_I2C_UnRegisterCallback,"ax",%progbits
 1404              		.align	1
 1405              		.global	HAL_I2C_UnRegisterCallback
 1406              		.syntax unified
 1407              		.thumb
 1408              		.thumb_func
 1409              		.fpu softvfp
 1411              	HAL_I2C_UnRegisterCallback:
 1412              		@ args = 0, pretend = 0, frame = 0
 1413              		@ frame_needed = 0, uses_anonymous_args = 0
 1414 0000 90F83C20 		ldrb	r2, [r0, #60]	@ zero_extendqisi2
 1415 0004 10B5     		push	{r4, lr}
 1416 0006 012A     		cmp	r2, #1
 1417 0008 0346     		mov	r3, r0
 1418 000a 4FD0     		beq	.L251
 1419 000c 0120     		movs	r0, #1
 1420 000e 93F83D20 		ldrb	r2, [r3, #61]	@ zero_extendqisi2
 1421 0012 83F83C00 		strb	r0, [r3, #60]
 1422 0016 202A     		cmp	r2, #32
 1423 0018 35D1     		bne	.L232
ARM GAS  /tmp/ccfpVwxB.s 			page 25


 1424 001a 0A29     		cmp	r1, #10
 1425 001c 2DD8     		bhi	.L233
 1426 001e DFE801F0 		tbb	[pc, r1]
 1427              	.L235:
 1428 0022 06       		.byte	(.L234-.L235)/2
 1429 0023 0D       		.byte	(.L236-.L235)/2
 1430 0024 10       		.byte	(.L237-.L235)/2
 1431 0025 13       		.byte	(.L238-.L235)/2
 1432 0026 16       		.byte	(.L239-.L235)/2
 1433 0027 19       		.byte	(.L240-.L235)/2
 1434 0028 1C       		.byte	(.L241-.L235)/2
 1435 0029 1F       		.byte	(.L242-.L235)/2
 1436 002a 22       		.byte	(.L243-.L235)/2
 1437 002b 25       		.byte	(.L244-.L235)/2
 1438 002c 28       		.byte	(.L245-.L235)/2
 1439 002d 00       		.p2align 1
 1440              	.L234:
 1441 002e 204A     		ldr	r2, .L254
 1442 0030 5A65     		str	r2, [r3, #84]
 1443              	.L253:
 1444 0032 0020     		movs	r0, #0
 1445              	.L246:
 1446 0034 0022     		movs	r2, #0
 1447 0036 83F83C20 		strb	r2, [r3, #60]
 1448 003a 10BD     		pop	{r4, pc}
 1449              	.L236:
 1450 003c 1D4A     		ldr	r2, .L254+4
 1451 003e 9A65     		str	r2, [r3, #88]
 1452 0040 F7E7     		b	.L253
 1453              	.L237:
 1454 0042 1D4A     		ldr	r2, .L254+8
 1455 0044 DA65     		str	r2, [r3, #92]
 1456 0046 F4E7     		b	.L253
 1457              	.L238:
 1458 0048 1C4A     		ldr	r2, .L254+12
 1459 004a 1A66     		str	r2, [r3, #96]
 1460 004c F1E7     		b	.L253
 1461              	.L239:
 1462 004e 1C4A     		ldr	r2, .L254+16
 1463 0050 5A66     		str	r2, [r3, #100]
 1464 0052 EEE7     		b	.L253
 1465              	.L240:
 1466 0054 1B4A     		ldr	r2, .L254+20
 1467 0056 9A66     		str	r2, [r3, #104]
 1468 0058 EBE7     		b	.L253
 1469              	.L241:
 1470 005a 1B4A     		ldr	r2, .L254+24
 1471 005c DA66     		str	r2, [r3, #108]
 1472 005e E8E7     		b	.L253
 1473              	.L242:
 1474 0060 1A4A     		ldr	r2, .L254+28
 1475 0062 1A67     		str	r2, [r3, #112]
 1476 0064 E5E7     		b	.L253
 1477              	.L243:
 1478 0066 1A4A     		ldr	r2, .L254+32
 1479 0068 5A67     		str	r2, [r3, #116]
 1480 006a E2E7     		b	.L253
ARM GAS  /tmp/ccfpVwxB.s 			page 26


 1481              	.L244:
 1482 006c 194A     		ldr	r2, .L254+36
 1483 006e DA67     		str	r2, [r3, #124]
 1484 0070 DFE7     		b	.L253
 1485              	.L245:
 1486 0072 194A     		ldr	r2, .L254+40
 1487 0074 C3F88020 		str	r2, [r3, #128]
 1488 0078 DBE7     		b	.L253
 1489              	.L233:
 1490 007a 1A6C     		ldr	r2, [r3, #64]
 1491 007c 0120     		movs	r0, #1
 1492 007e 42F48072 		orr	r2, r2, #256
 1493 0082 1A64     		str	r2, [r3, #64]
 1494 0084 D6E7     		b	.L246
 1495              	.L232:
 1496 0086 93F83D40 		ldrb	r4, [r3, #61]	@ zero_extendqisi2
 1497 008a 1CB9     		cbnz	r4, .L247
 1498 008c 0929     		cmp	r1, #9
 1499 008e 06D0     		beq	.L249
 1500 0090 0A29     		cmp	r1, #10
 1501 0092 07D0     		beq	.L250
 1502              	.L247:
 1503 0094 1A6C     		ldr	r2, [r3, #64]
 1504 0096 42F48072 		orr	r2, r2, #256
 1505 009a 1A64     		str	r2, [r3, #64]
 1506 009c CAE7     		b	.L246
 1507              	.L249:
 1508 009e 0D49     		ldr	r1, .L254+36
 1509 00a0 D967     		str	r1, [r3, #124]
 1510 00a2 C6E7     		b	.L253
 1511              	.L250:
 1512 00a4 0C49     		ldr	r1, .L254+40
 1513 00a6 C3F88010 		str	r1, [r3, #128]
 1514 00aa C2E7     		b	.L253
 1515              	.L251:
 1516 00ac 0220     		movs	r0, #2
 1517 00ae 10BD     		pop	{r4, pc}
 1518              	.L255:
 1519              		.align	2
 1520              	.L254:
 1521 00b0 00000000 		.word	HAL_I2C_MasterTxCpltCallback
 1522 00b4 00000000 		.word	HAL_I2C_MasterRxCpltCallback
 1523 00b8 00000000 		.word	HAL_I2C_SlaveTxCpltCallback
 1524 00bc 00000000 		.word	HAL_I2C_SlaveRxCpltCallback
 1525 00c0 00000000 		.word	HAL_I2C_ListenCpltCallback
 1526 00c4 00000000 		.word	HAL_I2C_MemTxCpltCallback
 1527 00c8 00000000 		.word	HAL_I2C_MemRxCpltCallback
 1528 00cc 00000000 		.word	HAL_I2C_ErrorCallback
 1529 00d0 00000000 		.word	HAL_I2C_AbortCpltCallback
 1530 00d4 00000000 		.word	HAL_I2C_MspInit
 1531 00d8 00000000 		.word	HAL_I2C_MspDeInit
 1533              		.section	.text.HAL_I2C_RegisterAddrCallback,"ax",%progbits
 1534              		.align	1
 1535              		.global	HAL_I2C_RegisterAddrCallback
 1536              		.syntax unified
 1537              		.thumb
 1538              		.thumb_func
ARM GAS  /tmp/ccfpVwxB.s 			page 27


 1539              		.fpu softvfp
 1541              	HAL_I2C_RegisterAddrCallback:
 1542              		@ args = 0, pretend = 0, frame = 0
 1543              		@ frame_needed = 0, uses_anonymous_args = 0
 1544              		@ link register save eliminated.
 1545 0000 0346     		mov	r3, r0
 1546 0002 29B9     		cbnz	r1, .L257
 1547 0004 026C     		ldr	r2, [r0, #64]
 1548 0006 42F48072 		orr	r2, r2, #256
 1549 000a 0264     		str	r2, [r0, #64]
 1550 000c 0120     		movs	r0, #1
 1551 000e 7047     		bx	lr
 1552              	.L257:
 1553 0010 90F83C20 		ldrb	r2, [r0, #60]	@ zero_extendqisi2
 1554 0014 012A     		cmp	r2, #1
 1555 0016 13D0     		beq	.L261
 1556 0018 93F83D20 		ldrb	r2, [r3, #61]	@ zero_extendqisi2
 1557 001c 0120     		movs	r0, #1
 1558 001e 202A     		cmp	r2, #32
 1559 0020 18BF     		it	ne
 1560 0022 1A6C     		ldrne	r2, [r3, #64]
 1561 0024 83F83C00 		strb	r0, [r3, #60]
 1562 0028 1CBF     		itt	ne
 1563 002a 42F48072 		orrne	r2, r2, #256
 1564 002e 1A64     		strne	r2, [r3, #64]
 1565 0030 4FF00002 		mov	r2, #0
 1566 0034 04BF     		itt	eq
 1567 0036 9967     		streq	r1, [r3, #120]
 1568 0038 0020     		moveq	r0, #0
 1569 003a 83F83C20 		strb	r2, [r3, #60]
 1570 003e 7047     		bx	lr
 1571              	.L261:
 1572 0040 0220     		movs	r0, #2
 1573 0042 7047     		bx	lr
 1575              		.section	.text.HAL_I2C_UnRegisterAddrCallback,"ax",%progbits
 1576              		.align	1
 1577              		.global	HAL_I2C_UnRegisterAddrCallback
 1578              		.syntax unified
 1579              		.thumb
 1580              		.thumb_func
 1581              		.fpu softvfp
 1583              	HAL_I2C_UnRegisterAddrCallback:
 1584              		@ args = 0, pretend = 0, frame = 0
 1585              		@ frame_needed = 0, uses_anonymous_args = 0
 1586              		@ link register save eliminated.
 1587 0000 90F83C20 		ldrb	r2, [r0, #60]	@ zero_extendqisi2
 1588 0004 0346     		mov	r3, r0
 1589 0006 012A     		cmp	r2, #1
 1590 0008 14D0     		beq	.L266
 1591 000a 93F83D20 		ldrb	r2, [r3, #61]	@ zero_extendqisi2
 1592 000e 0120     		movs	r0, #1
 1593 0010 202A     		cmp	r2, #32
 1594 0012 15BF     		itete	ne
 1595 0014 1A6C     		ldrne	r2, [r3, #64]
 1596 0016 084A     		ldreq	r2, .L267
 1597 0018 42F48072 		orrne	r2, r2, #256
 1598 001c 9A67     		streq	r2, [r3, #120]
ARM GAS  /tmp/ccfpVwxB.s 			page 28


 1599 001e 18BF     		it	ne
 1600 0020 1A64     		strne	r2, [r3, #64]
 1601 0022 4FF00002 		mov	r2, #0
 1602 0026 83F83C00 		strb	r0, [r3, #60]
 1603 002a 08BF     		it	eq
 1604 002c 0020     		moveq	r0, #0
 1605 002e 83F83C20 		strb	r2, [r3, #60]
 1606 0032 7047     		bx	lr
 1607              	.L266:
 1608 0034 0220     		movs	r0, #2
 1609 0036 7047     		bx	lr
 1610              	.L268:
 1611              		.align	2
 1612              	.L267:
 1613 0038 00000000 		.word	HAL_I2C_AddrCallback
 1615              		.section	.text.HAL_I2C_Master_Transmit,"ax",%progbits
 1616              		.align	1
 1617              		.global	HAL_I2C_Master_Transmit
 1618              		.syntax unified
 1619              		.thumb
 1620              		.thumb_func
 1621              		.fpu softvfp
 1623              	HAL_I2C_Master_Transmit:
 1624              		@ args = 4, pretend = 0, frame = 8
 1625              		@ frame_needed = 0, uses_anonymous_args = 0
 1626 0000 2DE9FF41 		push	{r0, r1, r2, r3, r4, r5, r6, r7, r8, lr}
 1627 0004 0446     		mov	r4, r0
 1628 0006 1F46     		mov	r7, r3
 1629 0008 0D46     		mov	r5, r1
 1630 000a 9046     		mov	r8, r2
 1631 000c FFF7FEFF 		bl	HAL_GetTick
 1632 0010 94F83D30 		ldrb	r3, [r4, #61]	@ zero_extendqisi2
 1633 0014 0646     		mov	r6, r0
 1634 0016 202B     		cmp	r3, #32
 1635 0018 04D0     		beq	.L270
 1636              	.L272:
 1637 001a 0225     		movs	r5, #2
 1638              	.L303:
 1639 001c 2846     		mov	r0, r5
 1640 001e 04B0     		add	sp, sp, #16
 1641              		@ sp needed
 1642 0020 BDE8F081 		pop	{r4, r5, r6, r7, r8, pc}
 1643              	.L270:
 1644 0024 0090     		str	r0, [sp]
 1645 0026 1923     		movs	r3, #25
 1646 0028 0122     		movs	r2, #1
 1647 002a 5849     		ldr	r1, .L310
 1648 002c 2046     		mov	r0, r4
 1649 002e FFF7FEFF 		bl	I2C_WaitOnFlagUntilTimeout
 1650 0032 0028     		cmp	r0, #0
 1651 0034 F1D1     		bne	.L272
 1652 0036 94F83C30 		ldrb	r3, [r4, #60]	@ zero_extendqisi2
 1653 003a 012B     		cmp	r3, #1
 1654 003c EDD0     		beq	.L272
 1655 003e 0123     		movs	r3, #1
 1656 0040 84F83C30 		strb	r3, [r4, #60]
 1657 0044 2368     		ldr	r3, [r4]
ARM GAS  /tmp/ccfpVwxB.s 			page 29


 1658 0046 1A68     		ldr	r2, [r3]
 1659 0048 D207     		lsls	r2, r2, #31
 1660 004a 5EBF     		ittt	pl
 1661 004c 1A68     		ldrpl	r2, [r3]
 1662 004e 42F00102 		orrpl	r2, r2, #1
 1663 0052 1A60     		strpl	r2, [r3]
 1664 0054 1A68     		ldr	r2, [r3]
 1665 0056 22F40062 		bic	r2, r2, #2048
 1666 005a 1A60     		str	r2, [r3]
 1667 005c 2122     		movs	r2, #33
 1668 005e 84F83D20 		strb	r2, [r4, #61]
 1669 0062 1022     		movs	r2, #16
 1670 0064 84F83E20 		strb	r2, [r4, #62]
 1671 0068 0022     		movs	r2, #0
 1672 006a 2264     		str	r2, [r4, #64]
 1673 006c 6785     		strh	r7, [r4, #42]	@ movhi
 1674 006e 628D     		ldrh	r2, [r4, #42]
 1675 0070 C4F82480 		str	r8, [r4, #36]
 1676 0074 2285     		strh	r2, [r4, #40]	@ movhi
 1677 0076 464A     		ldr	r2, .L310+4
 1678 0078 E262     		str	r2, [r4, #44]
 1679 007a E26A     		ldr	r2, [r4, #44]
 1680 007c 082A     		cmp	r2, #8
 1681 007e 04D0     		beq	.L305
 1682 0080 012A     		cmp	r2, #1
 1683 0082 02D0     		beq	.L305
 1684 0084 12F5803F 		cmn	r2, #65536
 1685 0088 04D1     		bne	.L275
 1686              	.L305:
 1687 008a 1A68     		ldr	r2, [r3]
 1688 008c 42F48072 		orr	r2, r2, #256
 1689 0090 1A60     		str	r2, [r3]
 1690 0092 02E0     		b	.L276
 1691              	.L275:
 1692 0094 226B     		ldr	r2, [r4, #48]
 1693 0096 122A     		cmp	r2, #18
 1694 0098 F7D0     		beq	.L305
 1695              	.L276:
 1696 009a 0096     		str	r6, [sp]
 1697 009c 0A9B     		ldr	r3, [sp, #40]
 1698 009e 0022     		movs	r2, #0
 1699 00a0 4FF00111 		mov	r1, #65537
 1700 00a4 2046     		mov	r0, r4
 1701 00a6 FFF7FEFF 		bl	I2C_WaitOnFlagUntilTimeout
 1702 00aa 08B1     		cbz	r0, .L277
 1703              	.L307:
 1704 00ac 0125     		movs	r5, #1
 1705 00ae B5E7     		b	.L303
 1706              	.L277:
 1707 00b0 2369     		ldr	r3, [r4, #16]
 1708 00b2 2268     		ldr	r2, [r4]
 1709 00b4 B3F5804F 		cmp	r3, #16384
 1710 00b8 13D1     		bne	.L278
 1711 00ba 05F0FE05 		and	r5, r5, #254
 1712 00be 1561     		str	r5, [r2, #16]
 1713              	.L279:
 1714 00c0 3346     		mov	r3, r6
ARM GAS  /tmp/ccfpVwxB.s 			page 30


 1715 00c2 0A9A     		ldr	r2, [sp, #40]
 1716 00c4 3349     		ldr	r1, .L310+8
 1717 00c6 2046     		mov	r0, r4
 1718 00c8 FFF7FEFF 		bl	I2C_WaitOnMasterAddressFlagUntilTimeout
 1719 00cc 0546     		mov	r5, r0
 1720 00ce 0028     		cmp	r0, #0
 1721 00d0 ECD1     		bne	.L307
 1722 00d2 2368     		ldr	r3, [r4]
 1723 00d4 0390     		str	r0, [sp, #12]
 1724 00d6 5A69     		ldr	r2, [r3, #20]
 1725 00d8 0392     		str	r2, [sp, #12]
 1726 00da 9B69     		ldr	r3, [r3, #24]
 1727 00dc 0393     		str	r3, [sp, #12]
 1728 00de 039B     		ldr	r3, [sp, #12]
 1729 00e0 44E0     		b	.L284
 1730              	.L278:
 1731 00e2 EB11     		asrs	r3, r5, #7
 1732 00e4 03F00603 		and	r3, r3, #6
 1733 00e8 43F0F003 		orr	r3, r3, #240
 1734 00ec 1361     		str	r3, [r2, #16]
 1735 00ee 2A49     		ldr	r1, .L310+12
 1736 00f0 3346     		mov	r3, r6
 1737 00f2 0A9A     		ldr	r2, [sp, #40]
 1738 00f4 2046     		mov	r0, r4
 1739 00f6 FFF7FEFF 		bl	I2C_WaitOnMasterAddressFlagUntilTimeout
 1740 00fa 0028     		cmp	r0, #0
 1741 00fc D6D1     		bne	.L307
 1742 00fe 2368     		ldr	r3, [r4]
 1743 0100 EDB2     		uxtb	r5, r5
 1744 0102 1D61     		str	r5, [r3, #16]
 1745 0104 DCE7     		b	.L279
 1746              	.L285:
 1747 0106 3246     		mov	r2, r6
 1748 0108 0A99     		ldr	r1, [sp, #40]
 1749 010a 2046     		mov	r0, r4
 1750 010c FFF7FEFF 		bl	I2C_WaitOnTXEFlagUntilTimeout
 1751 0110 40B1     		cbz	r0, .L282
 1752              	.L309:
 1753 0112 236C     		ldr	r3, [r4, #64]
 1754 0114 042B     		cmp	r3, #4
 1755 0116 01BF     		itttt	eq
 1756 0118 2268     		ldreq	r2, [r4]
 1757 011a 1368     		ldreq	r3, [r2]
 1758 011c 43F40073 		orreq	r3, r3, #512
 1759 0120 1360     		streq	r3, [r2]
 1760 0122 C3E7     		b	.L307
 1761              	.L282:
 1762 0124 636A     		ldr	r3, [r4, #36]
 1763 0126 2068     		ldr	r0, [r4]
 1764 0128 1A46     		mov	r2, r3
 1765 012a 12F8011B 		ldrb	r1, [r2], #1	@ zero_extendqisi2
 1766 012e 0161     		str	r1, [r0, #16]
 1767 0130 6262     		str	r2, [r4, #36]
 1768 0132 628D     		ldrh	r2, [r4, #42]
 1769 0134 013A     		subs	r2, r2, #1
 1770 0136 92B2     		uxth	r2, r2
 1771 0138 6285     		strh	r2, [r4, #42]	@ movhi
ARM GAS  /tmp/ccfpVwxB.s 			page 31


 1772 013a 228D     		ldrh	r2, [r4, #40]
 1773 013c 4769     		ldr	r7, [r0, #20]
 1774 013e 511E     		subs	r1, r2, #1
 1775 0140 89B2     		uxth	r1, r1
 1776 0142 7F07     		lsls	r7, r7, #29
 1777 0144 2185     		strh	r1, [r4, #40]	@ movhi
 1778 0146 0AD5     		bpl	.L283
 1779 0148 49B1     		cbz	r1, .L283
 1780 014a 5978     		ldrb	r1, [r3, #1]	@ zero_extendqisi2
 1781 014c 0233     		adds	r3, r3, #2
 1782 014e 0161     		str	r1, [r0, #16]
 1783 0150 6362     		str	r3, [r4, #36]
 1784 0152 638D     		ldrh	r3, [r4, #42]
 1785 0154 023A     		subs	r2, r2, #2
 1786 0156 013B     		subs	r3, r3, #1
 1787 0158 9BB2     		uxth	r3, r3
 1788 015a 6385     		strh	r3, [r4, #42]	@ movhi
 1789 015c 2285     		strh	r2, [r4, #40]	@ movhi
 1790              	.L283:
 1791 015e 3246     		mov	r2, r6
 1792 0160 0A99     		ldr	r1, [sp, #40]
 1793 0162 2046     		mov	r0, r4
 1794 0164 FFF7FEFF 		bl	I2C_WaitOnBTFFlagUntilTimeout
 1795 0168 0028     		cmp	r0, #0
 1796 016a D2D1     		bne	.L309
 1797              	.L284:
 1798 016c 238D     		ldrh	r3, [r4, #40]
 1799 016e 002B     		cmp	r3, #0
 1800 0170 C9D1     		bne	.L285
 1801 0172 2168     		ldr	r1, [r4]
 1802 0174 0A68     		ldr	r2, [r1]
 1803 0176 42F40072 		orr	r2, r2, #512
 1804 017a 0A60     		str	r2, [r1]
 1805 017c 2022     		movs	r2, #32
 1806 017e 84F83C30 		strb	r3, [r4, #60]
 1807 0182 84F83D20 		strb	r2, [r4, #61]
 1808 0186 84F83E30 		strb	r3, [r4, #62]
 1809 018a 47E7     		b	.L303
 1810              	.L311:
 1811              		.align	2
 1812              	.L310:
 1813 018c 02001000 		.word	1048578
 1814 0190 0000FFFF 		.word	-65536
 1815 0194 02000100 		.word	65538
 1816 0198 08000100 		.word	65544
 1818              		.section	.text.HAL_I2C_Master_Receive,"ax",%progbits
 1819              		.align	1
 1820              		.global	HAL_I2C_Master_Receive
 1821              		.syntax unified
 1822              		.thumb
 1823              		.thumb_func
 1824              		.fpu softvfp
 1826              	HAL_I2C_Master_Receive:
 1827              		@ args = 4, pretend = 0, frame = 24
 1828              		@ frame_needed = 0, uses_anonymous_args = 0
 1829 0000 2DE9F043 		push	{r4, r5, r6, r7, r8, r9, lr}
 1830 0004 0446     		mov	r4, r0
ARM GAS  /tmp/ccfpVwxB.s 			page 32


 1831 0006 89B0     		sub	sp, sp, #36
 1832 0008 9846     		mov	r8, r3
 1833 000a 0F46     		mov	r7, r1
 1834 000c 9146     		mov	r9, r2
 1835 000e 109E     		ldr	r6, [sp, #64]
 1836 0010 FFF7FEFF 		bl	HAL_GetTick
 1837 0014 94F83D30 		ldrb	r3, [r4, #61]	@ zero_extendqisi2
 1838 0018 0546     		mov	r5, r0
 1839 001a 202B     		cmp	r3, #32
 1840 001c 04D0     		beq	.L313
 1841              	.L315:
 1842 001e 0227     		movs	r7, #2
 1843              	.L349:
 1844 0020 3846     		mov	r0, r7
 1845 0022 09B0     		add	sp, sp, #36
 1846              		@ sp needed
 1847 0024 BDE8F083 		pop	{r4, r5, r6, r7, r8, r9, pc}
 1848              	.L313:
 1849 0028 0090     		str	r0, [sp]
 1850 002a 1923     		movs	r3, #25
 1851 002c 0122     		movs	r2, #1
 1852 002e 9C49     		ldr	r1, .L357
 1853 0030 2046     		mov	r0, r4
 1854 0032 FFF7FEFF 		bl	I2C_WaitOnFlagUntilTimeout
 1855 0036 0028     		cmp	r0, #0
 1856 0038 F1D1     		bne	.L315
 1857 003a 94F83C30 		ldrb	r3, [r4, #60]	@ zero_extendqisi2
 1858 003e 012B     		cmp	r3, #1
 1859 0040 EDD0     		beq	.L315
 1860 0042 0123     		movs	r3, #1
 1861 0044 84F83C30 		strb	r3, [r4, #60]
 1862 0048 2368     		ldr	r3, [r4]
 1863 004a 1A68     		ldr	r2, [r3]
 1864 004c D007     		lsls	r0, r2, #31
 1865 004e 5EBF     		ittt	pl
 1866 0050 1A68     		ldrpl	r2, [r3]
 1867 0052 42F00102 		orrpl	r2, r2, #1
 1868 0056 1A60     		strpl	r2, [r3]
 1869 0058 1A68     		ldr	r2, [r3]
 1870 005a 22F40062 		bic	r2, r2, #2048
 1871 005e 1A60     		str	r2, [r3]
 1872 0060 2222     		movs	r2, #34
 1873 0062 84F83D20 		strb	r2, [r4, #61]
 1874 0066 1022     		movs	r2, #16
 1875 0068 84F83E20 		strb	r2, [r4, #62]
 1876 006c 0022     		movs	r2, #0
 1877 006e 2264     		str	r2, [r4, #64]
 1878 0070 A4F82A80 		strh	r8, [r4, #42]	@ movhi
 1879 0074 628D     		ldrh	r2, [r4, #42]
 1880 0076 C4F82490 		str	r9, [r4, #36]
 1881 007a 2285     		strh	r2, [r4, #40]	@ movhi
 1882 007c 894A     		ldr	r2, .L357+4
 1883 007e E262     		str	r2, [r4, #44]
 1884 0080 E26A     		ldr	r2, [r4, #44]
 1885 0082 1968     		ldr	r1, [r3]
 1886 0084 082A     		cmp	r2, #8
 1887 0086 41F48061 		orr	r1, r1, #1024
ARM GAS  /tmp/ccfpVwxB.s 			page 33


 1888 008a 1960     		str	r1, [r3]
 1889 008c 04D0     		beq	.L352
 1890 008e 012A     		cmp	r2, #1
 1891 0090 02D0     		beq	.L352
 1892 0092 12F5803F 		cmn	r2, #65536
 1893 0096 04D1     		bne	.L318
 1894              	.L352:
 1895 0098 1A68     		ldr	r2, [r3]
 1896 009a 42F48072 		orr	r2, r2, #256
 1897 009e 1A60     		str	r2, [r3]
 1898 00a0 02E0     		b	.L319
 1899              	.L318:
 1900 00a2 226B     		ldr	r2, [r4, #48]
 1901 00a4 112A     		cmp	r2, #17
 1902 00a6 F7D0     		beq	.L352
 1903              	.L319:
 1904 00a8 0095     		str	r5, [sp]
 1905 00aa 3346     		mov	r3, r6
 1906 00ac 0022     		movs	r2, #0
 1907 00ae 4FF00111 		mov	r1, #65537
 1908 00b2 2046     		mov	r0, r4
 1909 00b4 FFF7FEFF 		bl	I2C_WaitOnFlagUntilTimeout
 1910 00b8 08B1     		cbz	r0, .L320
 1911              	.L323:
 1912 00ba 0127     		movs	r7, #1
 1913 00bc B0E7     		b	.L349
 1914              	.L320:
 1915 00be 2369     		ldr	r3, [r4, #16]
 1916 00c0 B3F5804F 		cmp	r3, #16384
 1917 00c4 2368     		ldr	r3, [r4]
 1918 00c6 43D1     		bne	.L321
 1919 00c8 47F00107 		orr	r7, r7, #1
 1920 00cc FFB2     		uxtb	r7, r7
 1921 00ce 1F61     		str	r7, [r3, #16]
 1922              	.L322:
 1923 00d0 2B46     		mov	r3, r5
 1924 00d2 3246     		mov	r2, r6
 1925 00d4 7449     		ldr	r1, .L357+8
 1926 00d6 2046     		mov	r0, r4
 1927 00d8 FFF7FEFF 		bl	I2C_WaitOnMasterAddressFlagUntilTimeout
 1928 00dc 0746     		mov	r7, r0
 1929 00de 0028     		cmp	r0, #0
 1930 00e0 EBD1     		bne	.L323
 1931 00e2 228D     		ldrh	r2, [r4, #40]
 1932 00e4 2368     		ldr	r3, [r4]
 1933 00e6 002A     		cmp	r2, #0
 1934 00e8 66D0     		beq	.L335
 1935 00ea 012A     		cmp	r2, #1
 1936 00ec 77D1     		bne	.L326
 1937 00ee 1A68     		ldr	r2, [r3]
 1938 00f0 22F48062 		bic	r2, r2, #1024
 1939 00f4 1A60     		str	r2, [r3]
 1940              		.syntax unified
 1941              	@ 142 "./cmsis/inc/cmsis_gcc.h" 1
 1942 00f6 72B6     		cpsid i
 1943              	@ 0 "" 2
 1944              		.thumb
ARM GAS  /tmp/ccfpVwxB.s 			page 34


 1945              		.syntax unified
 1946 00f8 2368     		ldr	r3, [r4]
 1947 00fa 0497     		str	r7, [sp, #16]
 1948 00fc 5A69     		ldr	r2, [r3, #20]
 1949 00fe 0492     		str	r2, [sp, #16]
 1950 0100 9A69     		ldr	r2, [r3, #24]
 1951 0102 0492     		str	r2, [sp, #16]
 1952 0104 049A     		ldr	r2, [sp, #16]
 1953 0106 1A68     		ldr	r2, [r3]
 1954 0108 42F40072 		orr	r2, r2, #512
 1955              	.L353:
 1956 010c 1A60     		str	r2, [r3]
 1957              		.syntax unified
 1958              	@ 131 "./cmsis/inc/cmsis_gcc.h" 1
 1959 010e 62B6     		cpsie i
 1960              	@ 0 "" 2
 1961              		.thumb
 1962              		.syntax unified
 1963              	.L327:
 1964 0110 DFF89C81 		ldr	r8, .L357+16
 1965              	.L329:
 1966 0114 238D     		ldrh	r3, [r4, #40]
 1967 0116 002B     		cmp	r3, #0
 1968 0118 58D0     		beq	.L325
 1969 011a 032B     		cmp	r3, #3
 1970 011c 00F2CA80 		bhi	.L330
 1971 0120 012B     		cmp	r3, #1
 1972 0122 78D1     		bne	.L331
 1973 0124 2A46     		mov	r2, r5
 1974 0126 3146     		mov	r1, r6
 1975 0128 2046     		mov	r0, r4
 1976 012a FFF7FEFF 		bl	I2C_WaitOnRXNEFlagUntilTimeout
 1977 012e 0028     		cmp	r0, #0
 1978 0130 C3D1     		bne	.L323
 1979              	.L355:
 1980 0132 2268     		ldr	r2, [r4]
 1981 0134 636A     		ldr	r3, [r4, #36]
 1982 0136 1269     		ldr	r2, [r2, #16]
 1983 0138 1A70     		strb	r2, [r3]
 1984              	.L354:
 1985 013a 636A     		ldr	r3, [r4, #36]
 1986 013c 0133     		adds	r3, r3, #1
 1987 013e 6362     		str	r3, [r4, #36]
 1988 0140 238D     		ldrh	r3, [r4, #40]
 1989 0142 013B     		subs	r3, r3, #1
 1990 0144 2385     		strh	r3, [r4, #40]	@ movhi
 1991 0146 638D     		ldrh	r3, [r4, #42]
 1992 0148 013B     		subs	r3, r3, #1
 1993 014a 9BB2     		uxth	r3, r3
 1994 014c 6385     		strh	r3, [r4, #42]	@ movhi
 1995 014e E1E7     		b	.L329
 1996              	.L321:
 1997 0150 4FEAE718 		asr	r8, r7, #7
 1998 0154 08F00608 		and	r8, r8, #6
 1999 0158 48F0F002 		orr	r2, r8, #240
 2000 015c 1A61     		str	r2, [r3, #16]
 2001 015e 5349     		ldr	r1, .L357+12
ARM GAS  /tmp/ccfpVwxB.s 			page 35


 2002 0160 2B46     		mov	r3, r5
 2003 0162 3246     		mov	r2, r6
 2004 0164 2046     		mov	r0, r4
 2005 0166 FFF7FEFF 		bl	I2C_WaitOnMasterAddressFlagUntilTimeout
 2006 016a 0028     		cmp	r0, #0
 2007 016c A5D1     		bne	.L323
 2008 016e 2368     		ldr	r3, [r4]
 2009 0170 FFB2     		uxtb	r7, r7
 2010 0172 1F61     		str	r7, [r3, #16]
 2011 0174 3246     		mov	r2, r6
 2012 0176 2B46     		mov	r3, r5
 2013 0178 4B49     		ldr	r1, .L357+8
 2014 017a 2046     		mov	r0, r4
 2015 017c FFF7FEFF 		bl	I2C_WaitOnMasterAddressFlagUntilTimeout
 2016 0180 0246     		mov	r2, r0
 2017 0182 0028     		cmp	r0, #0
 2018 0184 99D1     		bne	.L323
 2019 0186 2368     		ldr	r3, [r4]
 2020 0188 0790     		str	r0, [sp, #28]
 2021 018a 5969     		ldr	r1, [r3, #20]
 2022 018c 2046     		mov	r0, r4
 2023 018e 0791     		str	r1, [sp, #28]
 2024 0190 9969     		ldr	r1, [r3, #24]
 2025 0192 0791     		str	r1, [sp, #28]
 2026 0194 0799     		ldr	r1, [sp, #28]
 2027 0196 1968     		ldr	r1, [r3]
 2028 0198 41F48071 		orr	r1, r1, #256
 2029 019c 1960     		str	r1, [r3]
 2030 019e 0095     		str	r5, [sp]
 2031 01a0 3346     		mov	r3, r6
 2032 01a2 4FF00111 		mov	r1, #65537
 2033 01a6 FFF7FEFF 		bl	I2C_WaitOnFlagUntilTimeout
 2034 01aa 0028     		cmp	r0, #0
 2035 01ac 85D1     		bne	.L323
 2036 01ae 2268     		ldr	r2, [r4]
 2037 01b0 48F0F103 		orr	r3, r8, #241
 2038 01b4 1361     		str	r3, [r2, #16]
 2039 01b6 8BE7     		b	.L322
 2040              	.L335:
 2041 01b8 0397     		str	r7, [sp, #12]
 2042 01ba 5A69     		ldr	r2, [r3, #20]
 2043 01bc 0392     		str	r2, [sp, #12]
 2044 01be 9A69     		ldr	r2, [r3, #24]
 2045 01c0 0392     		str	r2, [sp, #12]
 2046 01c2 039A     		ldr	r2, [sp, #12]
 2047 01c4 1A68     		ldr	r2, [r3]
 2048 01c6 42F40072 		orr	r2, r2, #512
 2049 01ca 1A60     		str	r2, [r3]
 2050              	.L325:
 2051 01cc 2023     		movs	r3, #32
 2052 01ce 84F83D30 		strb	r3, [r4, #61]
 2053 01d2 0023     		movs	r3, #0
 2054 01d4 84F83E30 		strb	r3, [r4, #62]
 2055 01d8 84F83C30 		strb	r3, [r4, #60]
 2056 01dc 20E7     		b	.L349
 2057              	.L326:
 2058 01de 022A     		cmp	r2, #2
ARM GAS  /tmp/ccfpVwxB.s 			page 36


 2059 01e0 1A68     		ldr	r2, [r3]
 2060 01e2 0ED1     		bne	.L328
 2061 01e4 42F40062 		orr	r2, r2, #2048
 2062 01e8 1A60     		str	r2, [r3]
 2063              		.syntax unified
 2064              	@ 142 "./cmsis/inc/cmsis_gcc.h" 1
 2065 01ea 72B6     		cpsid i
 2066              	@ 0 "" 2
 2067              		.thumb
 2068              		.syntax unified
 2069 01ec 2368     		ldr	r3, [r4]
 2070 01ee 0597     		str	r7, [sp, #20]
 2071 01f0 5A69     		ldr	r2, [r3, #20]
 2072 01f2 0592     		str	r2, [sp, #20]
 2073 01f4 9A69     		ldr	r2, [r3, #24]
 2074 01f6 0592     		str	r2, [sp, #20]
 2075 01f8 059A     		ldr	r2, [sp, #20]
 2076 01fa 1A68     		ldr	r2, [r3]
 2077 01fc 22F48062 		bic	r2, r2, #1024
 2078 0200 84E7     		b	.L353
 2079              	.L328:
 2080 0202 42F48062 		orr	r2, r2, #1024
 2081 0206 1A60     		str	r2, [r3]
 2082 0208 0697     		str	r7, [sp, #24]
 2083 020a 5A69     		ldr	r2, [r3, #20]
 2084 020c 0692     		str	r2, [sp, #24]
 2085 020e 9B69     		ldr	r3, [r3, #24]
 2086 0210 0693     		str	r3, [sp, #24]
 2087 0212 069B     		ldr	r3, [sp, #24]
 2088 0214 7CE7     		b	.L327
 2089              	.L331:
 2090 0216 022B     		cmp	r3, #2
 2091 0218 0095     		str	r5, [sp]
 2092 021a 3346     		mov	r3, r6
 2093 021c 4FF00002 		mov	r2, #0
 2094 0220 4146     		mov	r1, r8
 2095 0222 2046     		mov	r0, r4
 2096 0224 19D1     		bne	.L333
 2097 0226 FFF7FEFF 		bl	I2C_WaitOnFlagUntilTimeout
 2098 022a 0028     		cmp	r0, #0
 2099 022c 7FF445AF 		bne	.L323
 2100              		.syntax unified
 2101              	@ 142 "./cmsis/inc/cmsis_gcc.h" 1
 2102 0230 72B6     		cpsid i
 2103              	@ 0 "" 2
 2104              		.thumb
 2105              		.syntax unified
 2106              	.L356:
 2107 0232 2368     		ldr	r3, [r4]
 2108 0234 1A68     		ldr	r2, [r3]
 2109 0236 42F40072 		orr	r2, r2, #512
 2110 023a 1A60     		str	r2, [r3]
 2111 023c 1B69     		ldr	r3, [r3, #16]
 2112 023e 626A     		ldr	r2, [r4, #36]
 2113 0240 1370     		strb	r3, [r2]
 2114 0242 636A     		ldr	r3, [r4, #36]
 2115 0244 0133     		adds	r3, r3, #1
ARM GAS  /tmp/ccfpVwxB.s 			page 37


 2116 0246 6362     		str	r3, [r4, #36]
 2117 0248 238D     		ldrh	r3, [r4, #40]
 2118 024a 013B     		subs	r3, r3, #1
 2119 024c 2385     		strh	r3, [r4, #40]	@ movhi
 2120 024e 638D     		ldrh	r3, [r4, #42]
 2121 0250 013B     		subs	r3, r3, #1
 2122 0252 9BB2     		uxth	r3, r3
 2123 0254 6385     		strh	r3, [r4, #42]	@ movhi
 2124              		.syntax unified
 2125              	@ 131 "./cmsis/inc/cmsis_gcc.h" 1
 2126 0256 62B6     		cpsie i
 2127              	@ 0 "" 2
 2128              		.thumb
 2129              		.syntax unified
 2130 0258 6BE7     		b	.L355
 2131              	.L333:
 2132 025a FFF7FEFF 		bl	I2C_WaitOnFlagUntilTimeout
 2133 025e 0246     		mov	r2, r0
 2134 0260 0028     		cmp	r0, #0
 2135 0262 7FF42AAF 		bne	.L323
 2136 0266 2168     		ldr	r1, [r4]
 2137 0268 0B68     		ldr	r3, [r1]
 2138 026a 23F48063 		bic	r3, r3, #1024
 2139 026e 0B60     		str	r3, [r1]
 2140              		.syntax unified
 2141              	@ 142 "./cmsis/inc/cmsis_gcc.h" 1
 2142 0270 72B6     		cpsid i
 2143              	@ 0 "" 2
 2144              		.thumb
 2145              		.syntax unified
 2146 0272 2168     		ldr	r1, [r4]
 2147 0274 636A     		ldr	r3, [r4, #36]
 2148 0276 0969     		ldr	r1, [r1, #16]
 2149 0278 2046     		mov	r0, r4
 2150 027a 1970     		strb	r1, [r3]
 2151 027c 636A     		ldr	r3, [r4, #36]
 2152 027e 0095     		str	r5, [sp]
 2153 0280 0133     		adds	r3, r3, #1
 2154 0282 6362     		str	r3, [r4, #36]
 2155 0284 238D     		ldrh	r3, [r4, #40]
 2156 0286 4146     		mov	r1, r8
 2157 0288 013B     		subs	r3, r3, #1
 2158 028a 2385     		strh	r3, [r4, #40]	@ movhi
 2159 028c 638D     		ldrh	r3, [r4, #42]
 2160 028e 013B     		subs	r3, r3, #1
 2161 0290 9BB2     		uxth	r3, r3
 2162 0292 6385     		strh	r3, [r4, #42]	@ movhi
 2163 0294 3346     		mov	r3, r6
 2164 0296 FFF7FEFF 		bl	I2C_WaitOnFlagUntilTimeout
 2165 029a 0028     		cmp	r0, #0
 2166 029c C9D0     		beq	.L356
 2167 029e 0CE7     		b	.L323
 2168              	.L358:
 2169              		.align	2
 2170              	.L357:
 2171 02a0 02001000 		.word	1048578
 2172 02a4 0000FFFF 		.word	-65536
ARM GAS  /tmp/ccfpVwxB.s 			page 38


 2173 02a8 02000100 		.word	65538
 2174 02ac 08000100 		.word	65544
 2175 02b0 04000100 		.word	65540
 2176              	.L330:
 2177 02b4 2A46     		mov	r2, r5
 2178 02b6 3146     		mov	r1, r6
 2179 02b8 2046     		mov	r0, r4
 2180 02ba FFF7FEFF 		bl	I2C_WaitOnRXNEFlagUntilTimeout
 2181 02be 0028     		cmp	r0, #0
 2182 02c0 7FF4FBAE 		bne	.L323
 2183 02c4 2268     		ldr	r2, [r4]
 2184 02c6 636A     		ldr	r3, [r4, #36]
 2185 02c8 1269     		ldr	r2, [r2, #16]
 2186 02ca 1A70     		strb	r2, [r3]
 2187 02cc 626A     		ldr	r2, [r4, #36]
 2188 02ce 531C     		adds	r3, r2, #1
 2189 02d0 6362     		str	r3, [r4, #36]
 2190 02d2 238D     		ldrh	r3, [r4, #40]
 2191 02d4 013B     		subs	r3, r3, #1
 2192 02d6 2385     		strh	r3, [r4, #40]	@ movhi
 2193 02d8 638D     		ldrh	r3, [r4, #42]
 2194 02da 013B     		subs	r3, r3, #1
 2195 02dc 9BB2     		uxth	r3, r3
 2196 02de 6385     		strh	r3, [r4, #42]	@ movhi
 2197 02e0 2368     		ldr	r3, [r4]
 2198 02e2 5969     		ldr	r1, [r3, #20]
 2199 02e4 4907     		lsls	r1, r1, #29
 2200 02e6 7FF515AF 		bpl	.L329
 2201 02ea 1B69     		ldr	r3, [r3, #16]
 2202 02ec 5370     		strb	r3, [r2, #1]
 2203 02ee 24E7     		b	.L354
 2205              		.section	.text.HAL_I2C_Slave_Transmit,"ax",%progbits
 2206              		.align	1
 2207              		.global	HAL_I2C_Slave_Transmit
 2208              		.syntax unified
 2209              		.thumb
 2210              		.thumb_func
 2211              		.fpu softvfp
 2213              	HAL_I2C_Slave_Transmit:
 2214              		@ args = 0, pretend = 0, frame = 8
 2215              		@ frame_needed = 0, uses_anonymous_args = 0
 2216 0000 2DE9FF41 		push	{r0, r1, r2, r3, r4, r5, r6, r7, r8, lr}
 2217 0004 0446     		mov	r4, r0
 2218 0006 1D46     		mov	r5, r3
 2219 0008 0F46     		mov	r7, r1
 2220 000a 9046     		mov	r8, r2
 2221 000c FFF7FEFF 		bl	HAL_GetTick
 2222 0010 94F83D30 		ldrb	r3, [r4, #61]	@ zero_extendqisi2
 2223 0014 0646     		mov	r6, r0
 2224 0016 202B     		cmp	r3, #32
 2225 0018 40F09880 		bne	.L370
 2226 001c 1FB9     		cbnz	r7, .L361
 2227              	.L380:
 2228 001e 0120     		movs	r0, #1
 2229              	.L360:
 2230 0020 04B0     		add	sp, sp, #16
 2231              		@ sp needed
ARM GAS  /tmp/ccfpVwxB.s 			page 39


 2232 0022 BDE8F081 		pop	{r4, r5, r6, r7, r8, pc}
 2233              	.L361:
 2234 0026 B8F1000F 		cmp	r8, #0
 2235 002a F8D0     		beq	.L380
 2236 002c 94F83C30 		ldrb	r3, [r4, #60]	@ zero_extendqisi2
 2237 0030 012B     		cmp	r3, #1
 2238 0032 00F08B80 		beq	.L370
 2239 0036 0123     		movs	r3, #1
 2240 0038 84F83C30 		strb	r3, [r4, #60]
 2241 003c 2368     		ldr	r3, [r4]
 2242 003e 1A68     		ldr	r2, [r3]
 2243 0040 D207     		lsls	r2, r2, #31
 2244 0042 4FF02102 		mov	r2, #33
 2245 0046 5EBF     		ittt	pl
 2246 0048 1868     		ldrpl	r0, [r3]
 2247 004a 40F00100 		orrpl	r0, r0, #1
 2248 004e 1860     		strpl	r0, [r3]
 2249 0050 1868     		ldr	r0, [r3]
 2250 0052 20F40060 		bic	r0, r0, #2048
 2251 0056 1860     		str	r0, [r3]
 2252 0058 84F83D20 		strb	r2, [r4, #61]
 2253 005c 2022     		movs	r2, #32
 2254 005e 84F83E20 		strb	r2, [r4, #62]
 2255 0062 0022     		movs	r2, #0
 2256 0064 2264     		str	r2, [r4, #64]
 2257 0066 A4F82A80 		strh	r8, [r4, #42]	@ movhi
 2258 006a 618D     		ldrh	r1, [r4, #42]
 2259 006c 6762     		str	r7, [r4, #36]
 2260 006e 2185     		strh	r1, [r4, #40]	@ movhi
 2261 0070 3749     		ldr	r1, .L381
 2262 0072 2046     		mov	r0, r4
 2263 0074 E162     		str	r1, [r4, #44]
 2264 0076 1968     		ldr	r1, [r3]
 2265 0078 41F48061 		orr	r1, r1, #1024
 2266 007c 1960     		str	r1, [r3]
 2267 007e 0096     		str	r6, [sp]
 2268 0080 2B46     		mov	r3, r5
 2269 0082 3449     		ldr	r1, .L381+4
 2270 0084 FFF7FEFF 		bl	I2C_WaitOnFlagUntilTimeout
 2271 0088 0246     		mov	r2, r0
 2272 008a 0028     		cmp	r0, #0
 2273 008c C7D1     		bne	.L380
 2274 008e 2368     		ldr	r3, [r4]
 2275 0090 0290     		str	r0, [sp, #8]
 2276 0092 5969     		ldr	r1, [r3, #20]
 2277 0094 0291     		str	r1, [sp, #8]
 2278 0096 9B69     		ldr	r3, [r3, #24]
 2279 0098 0293     		str	r3, [sp, #8]
 2280 009a 029B     		ldr	r3, [sp, #8]
 2281 009c 2369     		ldr	r3, [r4, #16]
 2282 009e B3F5404F 		cmp	r3, #49152
 2283 00a2 0ED1     		bne	.L365
 2284 00a4 0096     		str	r6, [sp]
 2285 00a6 2B46     		mov	r3, r5
 2286 00a8 2A49     		ldr	r1, .L381+4
 2287 00aa 2046     		mov	r0, r4
 2288 00ac FFF7FEFF 		bl	I2C_WaitOnFlagUntilTimeout
ARM GAS  /tmp/ccfpVwxB.s 			page 40


 2289 00b0 0028     		cmp	r0, #0
 2290 00b2 B4D1     		bne	.L380
 2291 00b4 2368     		ldr	r3, [r4]
 2292 00b6 0390     		str	r0, [sp, #12]
 2293 00b8 5A69     		ldr	r2, [r3, #20]
 2294 00ba 0392     		str	r2, [sp, #12]
 2295 00bc 9B69     		ldr	r3, [r3, #24]
 2296 00be 0393     		str	r3, [sp, #12]
 2297 00c0 039B     		ldr	r3, [sp, #12]
 2298              	.L365:
 2299 00c2 228D     		ldrh	r2, [r4, #40]
 2300 00c4 C2B9     		cbnz	r2, .L368
 2301 00c6 0096     		str	r6, [sp]
 2302 00c8 2B46     		mov	r3, r5
 2303 00ca 4FF48231 		mov	r1, #66560
 2304 00ce 2046     		mov	r0, r4
 2305 00d0 FFF7FEFF 		bl	I2C_WaitOnFlagUntilTimeout
 2306 00d4 0028     		cmp	r0, #0
 2307 00d6 A2D1     		bne	.L380
 2308 00d8 6FF48062 		mvn	r2, #1024
 2309 00dc 2368     		ldr	r3, [r4]
 2310 00de 5A61     		str	r2, [r3, #20]
 2311 00e0 1A68     		ldr	r2, [r3]
 2312 00e2 22F48062 		bic	r2, r2, #1024
 2313 00e6 1A60     		str	r2, [r3]
 2314 00e8 2023     		movs	r3, #32
 2315 00ea 84F83C00 		strb	r0, [r4, #60]
 2316 00ee 84F83D30 		strb	r3, [r4, #61]
 2317 00f2 84F83E00 		strb	r0, [r4, #62]
 2318 00f6 93E7     		b	.L360
 2319              	.L368:
 2320 00f8 3246     		mov	r2, r6
 2321 00fa 2946     		mov	r1, r5
 2322 00fc 2046     		mov	r0, r4
 2323 00fe FFF7FEFF 		bl	I2C_WaitOnTXEFlagUntilTimeout
 2324 0102 2268     		ldr	r2, [r4]
 2325 0104 20B1     		cbz	r0, .L366
 2326 0106 1368     		ldr	r3, [r2]
 2327 0108 23F48063 		bic	r3, r3, #1024
 2328 010c 1360     		str	r3, [r2]
 2329 010e 86E7     		b	.L380
 2330              	.L366:
 2331 0110 636A     		ldr	r3, [r4, #36]
 2332 0112 1946     		mov	r1, r3
 2333 0114 11F8010B 		ldrb	r0, [r1], #1	@ zero_extendqisi2
 2334 0118 1061     		str	r0, [r2, #16]
 2335 011a 6162     		str	r1, [r4, #36]
 2336 011c 618D     		ldrh	r1, [r4, #42]
 2337 011e 0139     		subs	r1, r1, #1
 2338 0120 89B2     		uxth	r1, r1
 2339 0122 6185     		strh	r1, [r4, #42]	@ movhi
 2340 0124 218D     		ldrh	r1, [r4, #40]
 2341 0126 5769     		ldr	r7, [r2, #20]
 2342 0128 481E     		subs	r0, r1, #1
 2343 012a 80B2     		uxth	r0, r0
 2344 012c 7F07     		lsls	r7, r7, #29
 2345 012e 2085     		strh	r0, [r4, #40]	@ movhi
ARM GAS  /tmp/ccfpVwxB.s 			page 41


 2346 0130 C7D5     		bpl	.L365
 2347 0132 0028     		cmp	r0, #0
 2348 0134 C5D0     		beq	.L365
 2349 0136 5878     		ldrb	r0, [r3, #1]	@ zero_extendqisi2
 2350 0138 0233     		adds	r3, r3, #2
 2351 013a 1061     		str	r0, [r2, #16]
 2352 013c 6362     		str	r3, [r4, #36]
 2353 013e 638D     		ldrh	r3, [r4, #42]
 2354 0140 0239     		subs	r1, r1, #2
 2355 0142 013B     		subs	r3, r3, #1
 2356 0144 9BB2     		uxth	r3, r3
 2357 0146 6385     		strh	r3, [r4, #42]	@ movhi
 2358 0148 2185     		strh	r1, [r4, #40]	@ movhi
 2359 014a BAE7     		b	.L365
 2360              	.L370:
 2361 014c 0220     		movs	r0, #2
 2362 014e 67E7     		b	.L360
 2363              	.L382:
 2364              		.align	2
 2365              	.L381:
 2366 0150 0000FFFF 		.word	-65536
 2367 0154 02000100 		.word	65538
 2369              		.section	.text.HAL_I2C_Slave_Receive,"ax",%progbits
 2370              		.align	1
 2371              		.global	HAL_I2C_Slave_Receive
 2372              		.syntax unified
 2373              		.thumb
 2374              		.thumb_func
 2375              		.fpu softvfp
 2377              	HAL_I2C_Slave_Receive:
 2378              		@ args = 0, pretend = 0, frame = 8
 2379              		@ frame_needed = 0, uses_anonymous_args = 0
 2380 0000 2DE9FF41 		push	{r0, r1, r2, r3, r4, r5, r6, r7, r8, lr}
 2381 0004 0446     		mov	r4, r0
 2382 0006 1E46     		mov	r6, r3
 2383 0008 0D46     		mov	r5, r1
 2384 000a 9046     		mov	r8, r2
 2385 000c FFF7FEFF 		bl	HAL_GetTick
 2386 0010 94F83D30 		ldrb	r3, [r4, #61]	@ zero_extendqisi2
 2387 0014 0746     		mov	r7, r0
 2388 0016 202B     		cmp	r3, #32
 2389 0018 40F0A780 		bne	.L398
 2390 001c 25B9     		cbnz	r5, .L385
 2391              	.L411:
 2392 001e 0125     		movs	r5, #1
 2393              	.L409:
 2394 0020 2846     		mov	r0, r5
 2395 0022 04B0     		add	sp, sp, #16
 2396              		@ sp needed
 2397 0024 BDE8F081 		pop	{r4, r5, r6, r7, r8, pc}
 2398              	.L385:
 2399 0028 B8F1000F 		cmp	r8, #0
 2400 002c F7D0     		beq	.L411
 2401 002e 94F83C30 		ldrb	r3, [r4, #60]	@ zero_extendqisi2
 2402 0032 012B     		cmp	r3, #1
 2403 0034 00F09980 		beq	.L398
 2404 0038 0123     		movs	r3, #1
ARM GAS  /tmp/ccfpVwxB.s 			page 42


 2405 003a 84F83C30 		strb	r3, [r4, #60]
 2406 003e 2368     		ldr	r3, [r4]
 2407 0040 1A68     		ldr	r2, [r3]
 2408 0042 D207     		lsls	r2, r2, #31
 2409 0044 4FF02202 		mov	r2, #34
 2410 0048 5EBF     		ittt	pl
 2411 004a 1868     		ldrpl	r0, [r3]
 2412 004c 40F00100 		orrpl	r0, r0, #1
 2413 0050 1860     		strpl	r0, [r3]
 2414 0052 1868     		ldr	r0, [r3]
 2415 0054 20F40060 		bic	r0, r0, #2048
 2416 0058 1860     		str	r0, [r3]
 2417 005a 84F83D20 		strb	r2, [r4, #61]
 2418 005e 2022     		movs	r2, #32
 2419 0060 84F83E20 		strb	r2, [r4, #62]
 2420 0064 0022     		movs	r2, #0
 2421 0066 2264     		str	r2, [r4, #64]
 2422 0068 A4F82A80 		strh	r8, [r4, #42]	@ movhi
 2423 006c 618D     		ldrh	r1, [r4, #42]
 2424 006e 6562     		str	r5, [r4, #36]
 2425 0070 2185     		strh	r1, [r4, #40]	@ movhi
 2426 0072 3F49     		ldr	r1, .L412
 2427 0074 2046     		mov	r0, r4
 2428 0076 E162     		str	r1, [r4, #44]
 2429 0078 1968     		ldr	r1, [r3]
 2430 007a 41F48061 		orr	r1, r1, #1024
 2431 007e 1960     		str	r1, [r3]
 2432 0080 0097     		str	r7, [sp]
 2433 0082 3346     		mov	r3, r6
 2434 0084 3B49     		ldr	r1, .L412+4
 2435 0086 FFF7FEFF 		bl	I2C_WaitOnFlagUntilTimeout
 2436 008a 0546     		mov	r5, r0
 2437 008c 0028     		cmp	r0, #0
 2438 008e C6D1     		bne	.L411
 2439 0090 2368     		ldr	r3, [r4]
 2440 0092 0290     		str	r0, [sp, #8]
 2441 0094 5A69     		ldr	r2, [r3, #20]
 2442 0096 0292     		str	r2, [sp, #8]
 2443 0098 9B69     		ldr	r3, [r3, #24]
 2444 009a 0293     		str	r3, [sp, #8]
 2445 009c 029B     		ldr	r3, [sp, #8]
 2446              	.L388:
 2447 009e 238D     		ldrh	r3, [r4, #40]
 2448 00a0 C3B9     		cbnz	r3, .L391
 2449              	.L392:
 2450 00a2 2368     		ldr	r3, [r4]
 2451 00a4 5A69     		ldr	r2, [r3, #20]
 2452 00a6 D206     		lsls	r2, r2, #27
 2453 00a8 41D5     		bpl	.L395
 2454 00aa 0022     		movs	r2, #0
 2455 00ac 0392     		str	r2, [sp, #12]
 2456 00ae 5969     		ldr	r1, [r3, #20]
 2457 00b0 0391     		str	r1, [sp, #12]
 2458 00b2 1968     		ldr	r1, [r3]
 2459 00b4 41F00101 		orr	r1, r1, #1
 2460 00b8 1960     		str	r1, [r3]
 2461 00ba 0399     		ldr	r1, [sp, #12]
ARM GAS  /tmp/ccfpVwxB.s 			page 43


 2462 00bc 1968     		ldr	r1, [r3]
 2463 00be 21F48061 		bic	r1, r1, #1024
 2464 00c2 1960     		str	r1, [r3]
 2465 00c4 2023     		movs	r3, #32
 2466 00c6 84F83C20 		strb	r2, [r4, #60]
 2467 00ca 84F83D30 		strb	r3, [r4, #61]
 2468 00ce 84F83E20 		strb	r2, [r4, #62]
 2469 00d2 A5E7     		b	.L409
 2470              	.L391:
 2471 00d4 3A46     		mov	r2, r7
 2472 00d6 3146     		mov	r1, r6
 2473 00d8 2046     		mov	r0, r4
 2474 00da FFF7FEFF 		bl	I2C_WaitOnRXNEFlagUntilTimeout
 2475 00de 2368     		ldr	r3, [r4]
 2476 00e0 20B1     		cbz	r0, .L389
 2477 00e2 1A68     		ldr	r2, [r3]
 2478 00e4 22F48062 		bic	r2, r2, #1024
 2479 00e8 1A60     		str	r2, [r3]
 2480 00ea 98E7     		b	.L411
 2481              	.L389:
 2482 00ec 1B69     		ldr	r3, [r3, #16]
 2483 00ee 626A     		ldr	r2, [r4, #36]
 2484 00f0 1370     		strb	r3, [r2]
 2485 00f2 628D     		ldrh	r2, [r4, #42]
 2486 00f4 616A     		ldr	r1, [r4, #36]
 2487 00f6 013A     		subs	r2, r2, #1
 2488 00f8 92B2     		uxth	r2, r2
 2489 00fa 4B1C     		adds	r3, r1, #1
 2490 00fc 6285     		strh	r2, [r4, #42]	@ movhi
 2491 00fe 2268     		ldr	r2, [r4]
 2492 0100 6362     		str	r3, [r4, #36]
 2493 0102 238D     		ldrh	r3, [r4, #40]
 2494 0104 5069     		ldr	r0, [r2, #20]
 2495 0106 013B     		subs	r3, r3, #1
 2496 0108 9BB2     		uxth	r3, r3
 2497 010a 4007     		lsls	r0, r0, #29
 2498 010c 2385     		strh	r3, [r4, #40]	@ movhi
 2499 010e C6D5     		bpl	.L388
 2500 0110 002B     		cmp	r3, #0
 2501 0112 C4D0     		beq	.L388
 2502 0114 1369     		ldr	r3, [r2, #16]
 2503 0116 4B70     		strb	r3, [r1, #1]
 2504 0118 636A     		ldr	r3, [r4, #36]
 2505 011a 0133     		adds	r3, r3, #1
 2506 011c 6362     		str	r3, [r4, #36]
 2507 011e 238D     		ldrh	r3, [r4, #40]
 2508 0120 013B     		subs	r3, r3, #1
 2509 0122 2385     		strh	r3, [r4, #40]	@ movhi
 2510 0124 638D     		ldrh	r3, [r4, #42]
 2511 0126 013B     		subs	r3, r3, #1
 2512 0128 9BB2     		uxth	r3, r3
 2513 012a 6385     		strh	r3, [r4, #42]	@ movhi
 2514 012c B7E7     		b	.L388
 2515              	.L395:
 2516 012e 2046     		mov	r0, r4
 2517 0130 FFF7FEFF 		bl	I2C_IsAcknowledgeFailed
 2518 0134 98B9     		cbnz	r0, .L393
ARM GAS  /tmp/ccfpVwxB.s 			page 44


 2519 0136 FFF7FEFF 		bl	HAL_GetTick
 2520 013a C01B     		subs	r0, r0, r7
 2521 013c 8642     		cmp	r6, r0
 2522 013e 01D3     		bcc	.L394
 2523 0140 002E     		cmp	r6, #0
 2524 0142 AED1     		bne	.L392
 2525              	.L394:
 2526 0144 0023     		movs	r3, #0
 2527 0146 2022     		movs	r2, #32
 2528 0148 2363     		str	r3, [r4, #48]
 2529 014a 84F83D20 		strb	r2, [r4, #61]
 2530 014e 84F83E30 		strb	r3, [r4, #62]
 2531 0152 226C     		ldr	r2, [r4, #64]
 2532 0154 84F83C30 		strb	r3, [r4, #60]
 2533 0158 42F02002 		orr	r2, r2, #32
 2534 015c 2264     		str	r2, [r4, #64]
 2535              	.L393:
 2536 015e 2268     		ldr	r2, [r4]
 2537 0160 1368     		ldr	r3, [r2]
 2538 0162 23F48063 		bic	r3, r3, #1024
 2539 0166 1360     		str	r3, [r2]
 2540 0168 59E7     		b	.L411
 2541              	.L398:
 2542 016a 0225     		movs	r5, #2
 2543 016c 58E7     		b	.L409
 2544              	.L413:
 2545 016e 00BF     		.align	2
 2546              	.L412:
 2547 0170 0000FFFF 		.word	-65536
 2548 0174 02000100 		.word	65538
 2550              		.section	.text.HAL_I2C_Master_Transmit_IT,"ax",%progbits
 2551              		.align	1
 2552              		.global	HAL_I2C_Master_Transmit_IT
 2553              		.syntax unified
 2554              		.thumb
 2555              		.thumb_func
 2556              		.fpu softvfp
 2558              	HAL_I2C_Master_Transmit_IT:
 2559              		@ args = 0, pretend = 0, frame = 8
 2560              		@ frame_needed = 0, uses_anonymous_args = 0
 2561 0000 37B5     		push	{r0, r1, r2, r4, r5, lr}
 2562 0002 0024     		movs	r4, #0
 2563 0004 0194     		str	r4, [sp, #4]
 2564 0006 90F83D40 		ldrb	r4, [r0, #61]	@ zero_extendqisi2
 2565 000a 202C     		cmp	r4, #32
 2566 000c 02D0     		beq	.L415
 2567              	.L419:
 2568 000e 0220     		movs	r0, #2
 2569              	.L416:
 2570 0010 03B0     		add	sp, sp, #12
 2571              		@ sp needed
 2572 0012 30BD     		pop	{r4, r5, pc}
 2573              	.L415:
 2574 0014 46F2A815 		movw	r5, #25000
 2575 0018 254C     		ldr	r4, .L425
 2576 001a 2468     		ldr	r4, [r4]
 2577 001c B4FBF5F5 		udiv	r5, r4, r5
ARM GAS  /tmp/ccfpVwxB.s 			page 45


 2578 0020 1924     		movs	r4, #25
 2579 0022 6C43     		muls	r4, r5, r4
 2580 0024 0194     		str	r4, [sp, #4]
 2581              	.L418:
 2582 0026 019C     		ldr	r4, [sp, #4]
 2583 0028 013C     		subs	r4, r4, #1
 2584 002a 0194     		str	r4, [sp, #4]
 2585 002c 019C     		ldr	r4, [sp, #4]
 2586 002e 6CB9     		cbnz	r4, .L417
 2587 0030 2023     		movs	r3, #32
 2588 0032 0463     		str	r4, [r0, #48]
 2589 0034 80F83D30 		strb	r3, [r0, #61]
 2590 0038 80F83E40 		strb	r4, [r0, #62]
 2591 003c 036C     		ldr	r3, [r0, #64]
 2592 003e 80F83C40 		strb	r4, [r0, #60]
 2593 0042 43F02003 		orr	r3, r3, #32
 2594 0046 0364     		str	r3, [r0, #64]
 2595 0048 0120     		movs	r0, #1
 2596 004a E1E7     		b	.L416
 2597              	.L417:
 2598 004c 0468     		ldr	r4, [r0]
 2599 004e A569     		ldr	r5, [r4, #24]
 2600 0050 AD07     		lsls	r5, r5, #30
 2601 0052 E8D4     		bmi	.L418
 2602 0054 90F83C50 		ldrb	r5, [r0, #60]	@ zero_extendqisi2
 2603 0058 012D     		cmp	r5, #1
 2604 005a D8D0     		beq	.L419
 2605 005c 0125     		movs	r5, #1
 2606 005e 80F83C50 		strb	r5, [r0, #60]
 2607 0062 2568     		ldr	r5, [r4]
 2608 0064 ED07     		lsls	r5, r5, #31
 2609 0066 5EBF     		ittt	pl
 2610 0068 2568     		ldrpl	r5, [r4]
 2611 006a 45F00105 		orrpl	r5, r5, #1
 2612 006e 2560     		strpl	r5, [r4]
 2613 0070 2568     		ldr	r5, [r4]
 2614 0072 25F40065 		bic	r5, r5, #2048
 2615 0076 2560     		str	r5, [r4]
 2616 0078 2125     		movs	r5, #33
 2617 007a 80F83D50 		strb	r5, [r0, #61]
 2618 007e 1025     		movs	r5, #16
 2619 0080 80F83E50 		strb	r5, [r0, #62]
 2620 0084 0025     		movs	r5, #0
 2621 0086 0564     		str	r5, [r0, #64]
 2622 0088 4385     		strh	r3, [r0, #42]	@ movhi
 2623 008a 438D     		ldrh	r3, [r0, #42]
 2624 008c 4262     		str	r2, [r0, #36]
 2625 008e 0385     		strh	r3, [r0, #40]	@ movhi
 2626 0090 084B     		ldr	r3, .L425+4
 2627 0092 C362     		str	r3, [r0, #44]
 2628 0094 4164     		str	r1, [r0, #68]
 2629 0096 2368     		ldr	r3, [r4]
 2630 0098 43F48073 		orr	r3, r3, #256
 2631 009c 2360     		str	r3, [r4]
 2632 009e 6368     		ldr	r3, [r4, #4]
 2633 00a0 80F83C50 		strb	r5, [r0, #60]
 2634 00a4 43F4E063 		orr	r3, r3, #1792
ARM GAS  /tmp/ccfpVwxB.s 			page 46


 2635 00a8 6360     		str	r3, [r4, #4]
 2636 00aa 2846     		mov	r0, r5
 2637 00ac B0E7     		b	.L416
 2638              	.L426:
 2639 00ae 00BF     		.align	2
 2640              	.L425:
 2641 00b0 00000000 		.word	SystemCoreClock
 2642 00b4 0000FFFF 		.word	-65536
 2644              		.section	.text.HAL_I2C_Master_Receive_IT,"ax",%progbits
 2645              		.align	1
 2646              		.global	HAL_I2C_Master_Receive_IT
 2647              		.syntax unified
 2648              		.thumb
 2649              		.thumb_func
 2650              		.fpu softvfp
 2652              	HAL_I2C_Master_Receive_IT:
 2653              		@ args = 0, pretend = 0, frame = 8
 2654              		@ frame_needed = 0, uses_anonymous_args = 0
 2655 0000 37B5     		push	{r0, r1, r2, r4, r5, lr}
 2656 0002 0024     		movs	r4, #0
 2657 0004 0194     		str	r4, [sp, #4]
 2658 0006 90F83D40 		ldrb	r4, [r0, #61]	@ zero_extendqisi2
 2659 000a 202C     		cmp	r4, #32
 2660 000c 02D0     		beq	.L428
 2661              	.L432:
 2662 000e 0220     		movs	r0, #2
 2663              	.L429:
 2664 0010 03B0     		add	sp, sp, #12
 2665              		@ sp needed
 2666 0012 30BD     		pop	{r4, r5, pc}
 2667              	.L428:
 2668 0014 46F2A815 		movw	r5, #25000
 2669 0018 274C     		ldr	r4, .L438
 2670 001a 2468     		ldr	r4, [r4]
 2671 001c B4FBF5F5 		udiv	r5, r4, r5
 2672 0020 1924     		movs	r4, #25
 2673 0022 6C43     		muls	r4, r5, r4
 2674 0024 0194     		str	r4, [sp, #4]
 2675              	.L431:
 2676 0026 019C     		ldr	r4, [sp, #4]
 2677 0028 013C     		subs	r4, r4, #1
 2678 002a 0194     		str	r4, [sp, #4]
 2679 002c 019C     		ldr	r4, [sp, #4]
 2680 002e 6CB9     		cbnz	r4, .L430
 2681 0030 2023     		movs	r3, #32
 2682 0032 0463     		str	r4, [r0, #48]
 2683 0034 80F83D30 		strb	r3, [r0, #61]
 2684 0038 80F83E40 		strb	r4, [r0, #62]
 2685 003c 036C     		ldr	r3, [r0, #64]
 2686 003e 80F83C40 		strb	r4, [r0, #60]
 2687 0042 43F02003 		orr	r3, r3, #32
 2688 0046 0364     		str	r3, [r0, #64]
 2689 0048 0120     		movs	r0, #1
 2690 004a E1E7     		b	.L429
 2691              	.L430:
 2692 004c 0468     		ldr	r4, [r0]
 2693 004e A569     		ldr	r5, [r4, #24]
ARM GAS  /tmp/ccfpVwxB.s 			page 47


 2694 0050 AD07     		lsls	r5, r5, #30
 2695 0052 E8D4     		bmi	.L431
 2696 0054 90F83C50 		ldrb	r5, [r0, #60]	@ zero_extendqisi2
 2697 0058 012D     		cmp	r5, #1
 2698 005a D8D0     		beq	.L432
 2699 005c 0125     		movs	r5, #1
 2700 005e 80F83C50 		strb	r5, [r0, #60]
 2701 0062 2568     		ldr	r5, [r4]
 2702 0064 ED07     		lsls	r5, r5, #31
 2703 0066 5EBF     		ittt	pl
 2704 0068 2568     		ldrpl	r5, [r4]
 2705 006a 45F00105 		orrpl	r5, r5, #1
 2706 006e 2560     		strpl	r5, [r4]
 2707 0070 2568     		ldr	r5, [r4]
 2708 0072 25F40065 		bic	r5, r5, #2048
 2709 0076 2560     		str	r5, [r4]
 2710 0078 2225     		movs	r5, #34
 2711 007a 80F83D50 		strb	r5, [r0, #61]
 2712 007e 1025     		movs	r5, #16
 2713 0080 80F83E50 		strb	r5, [r0, #62]
 2714 0084 0025     		movs	r5, #0
 2715 0086 0564     		str	r5, [r0, #64]
 2716 0088 4385     		strh	r3, [r0, #42]	@ movhi
 2717 008a 438D     		ldrh	r3, [r0, #42]
 2718 008c 4262     		str	r2, [r0, #36]
 2719 008e 0385     		strh	r3, [r0, #40]	@ movhi
 2720 0090 0A4B     		ldr	r3, .L438+4
 2721 0092 C362     		str	r3, [r0, #44]
 2722 0094 4164     		str	r1, [r0, #68]
 2723 0096 2368     		ldr	r3, [r4]
 2724 0098 43F48063 		orr	r3, r3, #1024
 2725 009c 2360     		str	r3, [r4]
 2726 009e 2368     		ldr	r3, [r4]
 2727 00a0 43F48073 		orr	r3, r3, #256
 2728 00a4 2360     		str	r3, [r4]
 2729 00a6 6368     		ldr	r3, [r4, #4]
 2730 00a8 80F83C50 		strb	r5, [r0, #60]
 2731 00ac 43F4E063 		orr	r3, r3, #1792
 2732 00b0 6360     		str	r3, [r4, #4]
 2733 00b2 2846     		mov	r0, r5
 2734 00b4 ACE7     		b	.L429
 2735              	.L439:
 2736 00b6 00BF     		.align	2
 2737              	.L438:
 2738 00b8 00000000 		.word	SystemCoreClock
 2739 00bc 0000FFFF 		.word	-65536
 2741              		.section	.text.HAL_I2C_Slave_Transmit_IT,"ax",%progbits
 2742              		.align	1
 2743              		.global	HAL_I2C_Slave_Transmit_IT
 2744              		.syntax unified
 2745              		.thumb
 2746              		.thumb_func
 2747              		.fpu softvfp
 2749              	HAL_I2C_Slave_Transmit_IT:
 2750              		@ args = 0, pretend = 0, frame = 0
 2751              		@ frame_needed = 0, uses_anonymous_args = 0
 2752 0000 90F83D30 		ldrb	r3, [r0, #61]	@ zero_extendqisi2
ARM GAS  /tmp/ccfpVwxB.s 			page 48


 2753 0004 10B5     		push	{r4, lr}
 2754 0006 202B     		cmp	r3, #32
 2755 0008 32D1     		bne	.L446
 2756 000a 0029     		cmp	r1, #0
 2757 000c 2ED0     		beq	.L445
 2758 000e 002A     		cmp	r2, #0
 2759 0010 2CD0     		beq	.L445
 2760 0012 90F83C30 		ldrb	r3, [r0, #60]	@ zero_extendqisi2
 2761 0016 012B     		cmp	r3, #1
 2762 0018 2AD0     		beq	.L446
 2763 001a 0123     		movs	r3, #1
 2764 001c 0468     		ldr	r4, [r0]
 2765 001e 80F83C30 		strb	r3, [r0, #60]
 2766 0022 2368     		ldr	r3, [r4]
 2767 0024 DB07     		lsls	r3, r3, #31
 2768 0026 5EBF     		ittt	pl
 2769 0028 2368     		ldrpl	r3, [r4]
 2770 002a 43F00103 		orrpl	r3, r3, #1
 2771 002e 2360     		strpl	r3, [r4]
 2772 0030 2368     		ldr	r3, [r4]
 2773 0032 23F40063 		bic	r3, r3, #2048
 2774 0036 2360     		str	r3, [r4]
 2775 0038 2123     		movs	r3, #33
 2776 003a 80F83D30 		strb	r3, [r0, #61]
 2777 003e 2023     		movs	r3, #32
 2778 0040 80F83E30 		strb	r3, [r0, #62]
 2779 0044 0023     		movs	r3, #0
 2780 0046 0364     		str	r3, [r0, #64]
 2781 0048 4285     		strh	r2, [r0, #42]	@ movhi
 2782 004a 428D     		ldrh	r2, [r0, #42]
 2783 004c 4162     		str	r1, [r0, #36]
 2784 004e 0285     		strh	r2, [r0, #40]	@ movhi
 2785 0050 084A     		ldr	r2, .L447
 2786 0052 C262     		str	r2, [r0, #44]
 2787 0054 2268     		ldr	r2, [r4]
 2788 0056 42F48062 		orr	r2, r2, #1024
 2789 005a 2260     		str	r2, [r4]
 2790 005c 6268     		ldr	r2, [r4, #4]
 2791 005e 80F83C30 		strb	r3, [r0, #60]
 2792 0062 42F4E062 		orr	r2, r2, #1792
 2793 0066 6260     		str	r2, [r4, #4]
 2794 0068 1846     		mov	r0, r3
 2795 006a 10BD     		pop	{r4, pc}
 2796              	.L445:
 2797 006c 0120     		movs	r0, #1
 2798 006e 10BD     		pop	{r4, pc}
 2799              	.L446:
 2800 0070 0220     		movs	r0, #2
 2801 0072 10BD     		pop	{r4, pc}
 2802              	.L448:
 2803              		.align	2
 2804              	.L447:
 2805 0074 0000FFFF 		.word	-65536
 2807              		.section	.text.HAL_I2C_Slave_Receive_IT,"ax",%progbits
 2808              		.align	1
 2809              		.global	HAL_I2C_Slave_Receive_IT
 2810              		.syntax unified
ARM GAS  /tmp/ccfpVwxB.s 			page 49


 2811              		.thumb
 2812              		.thumb_func
 2813              		.fpu softvfp
 2815              	HAL_I2C_Slave_Receive_IT:
 2816              		@ args = 0, pretend = 0, frame = 0
 2817              		@ frame_needed = 0, uses_anonymous_args = 0
 2818 0000 90F83D30 		ldrb	r3, [r0, #61]	@ zero_extendqisi2
 2819 0004 10B5     		push	{r4, lr}
 2820 0006 202B     		cmp	r3, #32
 2821 0008 32D1     		bne	.L455
 2822 000a 0029     		cmp	r1, #0
 2823 000c 2ED0     		beq	.L454
 2824 000e 002A     		cmp	r2, #0
 2825 0010 2CD0     		beq	.L454
 2826 0012 90F83C30 		ldrb	r3, [r0, #60]	@ zero_extendqisi2
 2827 0016 012B     		cmp	r3, #1
 2828 0018 2AD0     		beq	.L455
 2829 001a 0123     		movs	r3, #1
 2830 001c 0468     		ldr	r4, [r0]
 2831 001e 80F83C30 		strb	r3, [r0, #60]
 2832 0022 2368     		ldr	r3, [r4]
 2833 0024 DB07     		lsls	r3, r3, #31
 2834 0026 5EBF     		ittt	pl
 2835 0028 2368     		ldrpl	r3, [r4]
 2836 002a 43F00103 		orrpl	r3, r3, #1
 2837 002e 2360     		strpl	r3, [r4]
 2838 0030 2368     		ldr	r3, [r4]
 2839 0032 23F40063 		bic	r3, r3, #2048
 2840 0036 2360     		str	r3, [r4]
 2841 0038 2223     		movs	r3, #34
 2842 003a 80F83D30 		strb	r3, [r0, #61]
 2843 003e 2023     		movs	r3, #32
 2844 0040 80F83E30 		strb	r3, [r0, #62]
 2845 0044 0023     		movs	r3, #0
 2846 0046 0364     		str	r3, [r0, #64]
 2847 0048 4285     		strh	r2, [r0, #42]	@ movhi
 2848 004a 428D     		ldrh	r2, [r0, #42]
 2849 004c 4162     		str	r1, [r0, #36]
 2850 004e 0285     		strh	r2, [r0, #40]	@ movhi
 2851 0050 084A     		ldr	r2, .L456
 2852 0052 C262     		str	r2, [r0, #44]
 2853 0054 2268     		ldr	r2, [r4]
 2854 0056 42F48062 		orr	r2, r2, #1024
 2855 005a 2260     		str	r2, [r4]
 2856 005c 6268     		ldr	r2, [r4, #4]
 2857 005e 80F83C30 		strb	r3, [r0, #60]
 2858 0062 42F4E062 		orr	r2, r2, #1792
 2859 0066 6260     		str	r2, [r4, #4]
 2860 0068 1846     		mov	r0, r3
 2861 006a 10BD     		pop	{r4, pc}
 2862              	.L454:
 2863 006c 0120     		movs	r0, #1
 2864 006e 10BD     		pop	{r4, pc}
 2865              	.L455:
 2866 0070 0220     		movs	r0, #2
 2867 0072 10BD     		pop	{r4, pc}
 2868              	.L457:
ARM GAS  /tmp/ccfpVwxB.s 			page 50


 2869              		.align	2
 2870              	.L456:
 2871 0074 0000FFFF 		.word	-65536
 2873              		.section	.text.HAL_I2C_Master_Transmit_DMA,"ax",%progbits
 2874              		.align	1
 2875              		.global	HAL_I2C_Master_Transmit_DMA
 2876              		.syntax unified
 2877              		.thumb
 2878              		.thumb_func
 2879              		.fpu softvfp
 2881              	HAL_I2C_Master_Transmit_DMA:
 2882              		@ args = 0, pretend = 0, frame = 8
 2883              		@ frame_needed = 0, uses_anonymous_args = 0
 2884 0000 73B5     		push	{r0, r1, r4, r5, r6, lr}
 2885 0002 0E46     		mov	r6, r1
 2886 0004 1146     		mov	r1, r2
 2887 0006 0022     		movs	r2, #0
 2888 0008 0192     		str	r2, [sp, #4]
 2889 000a 90F83D20 		ldrb	r2, [r0, #61]	@ zero_extendqisi2
 2890 000e 0446     		mov	r4, r0
 2891 0010 202A     		cmp	r2, #32
 2892 0012 02D0     		beq	.L459
 2893              	.L463:
 2894 0014 0220     		movs	r0, #2
 2895              	.L460:
 2896 0016 02B0     		add	sp, sp, #8
 2897              		@ sp needed
 2898 0018 70BD     		pop	{r4, r5, r6, pc}
 2899              	.L459:
 2900 001a 46F2A810 		movw	r0, #25000
 2901 001e 3E4A     		ldr	r2, .L472
 2902 0020 1268     		ldr	r2, [r2]
 2903 0022 B2FBF0F0 		udiv	r0, r2, r0
 2904 0026 1922     		movs	r2, #25
 2905 0028 4243     		muls	r2, r0, r2
 2906 002a 0192     		str	r2, [sp, #4]
 2907              	.L462:
 2908 002c 019A     		ldr	r2, [sp, #4]
 2909 002e 013A     		subs	r2, r2, #1
 2910 0030 0192     		str	r2, [sp, #4]
 2911 0032 019A     		ldr	r2, [sp, #4]
 2912 0034 6AB9     		cbnz	r2, .L461
 2913 0036 2023     		movs	r3, #32
 2914 0038 2263     		str	r2, [r4, #48]
 2915 003a 84F83D30 		strb	r3, [r4, #61]
 2916 003e 84F83E20 		strb	r2, [r4, #62]
 2917 0042 236C     		ldr	r3, [r4, #64]
 2918 0044 84F83C20 		strb	r2, [r4, #60]
 2919 0048 43F02003 		orr	r3, r3, #32
 2920 004c 2364     		str	r3, [r4, #64]
 2921              	.L471:
 2922 004e 0120     		movs	r0, #1
 2923 0050 E1E7     		b	.L460
 2924              	.L461:
 2925 0052 2268     		ldr	r2, [r4]
 2926 0054 9069     		ldr	r0, [r2, #24]
 2927 0056 8507     		lsls	r5, r0, #30
ARM GAS  /tmp/ccfpVwxB.s 			page 51


 2928 0058 E8D4     		bmi	.L462
 2929 005a 94F83C00 		ldrb	r0, [r4, #60]	@ zero_extendqisi2
 2930 005e 0128     		cmp	r0, #1
 2931 0060 D8D0     		beq	.L463
 2932 0062 0120     		movs	r0, #1
 2933 0064 84F83C00 		strb	r0, [r4, #60]
 2934 0068 1068     		ldr	r0, [r2]
 2935 006a 0025     		movs	r5, #0
 2936 006c C007     		lsls	r0, r0, #31
 2937 006e 5EBF     		ittt	pl
 2938 0070 1068     		ldrpl	r0, [r2]
 2939 0072 40F00100 		orrpl	r0, r0, #1
 2940 0076 1060     		strpl	r0, [r2]
 2941 0078 1068     		ldr	r0, [r2]
 2942 007a 20F40060 		bic	r0, r0, #2048
 2943 007e 1060     		str	r0, [r2]
 2944 0080 2120     		movs	r0, #33
 2945 0082 84F83D00 		strb	r0, [r4, #61]
 2946 0086 1020     		movs	r0, #16
 2947 0088 84F83E00 		strb	r0, [r4, #62]
 2948 008c 2564     		str	r5, [r4, #64]
 2949 008e 6385     		strh	r3, [r4, #42]	@ movhi
 2950 0090 608D     		ldrh	r0, [r4, #42]
 2951 0092 6162     		str	r1, [r4, #36]
 2952 0094 83B2     		uxth	r3, r0
 2953 0096 2148     		ldr	r0, .L472+4
 2954 0098 2385     		strh	r3, [r4, #40]	@ movhi
 2955 009a E062     		str	r0, [r4, #44]
 2956 009c 6664     		str	r6, [r4, #68]
 2957 009e 53B3     		cbz	r3, .L465
 2958 00a0 606B     		ldr	r0, [r4, #52]
 2959 00a2 1F4E     		ldr	r6, .L472+8
 2960 00a4 C562     		str	r5, [r0, #44]
 2961 00a6 8662     		str	r6, [r0, #40]
 2962 00a8 1E4E     		ldr	r6, .L472+12
 2963 00aa 4563     		str	r5, [r0, #52]
 2964 00ac 0663     		str	r6, [r0, #48]
 2965 00ae 1032     		adds	r2, r2, #16
 2966 00b0 FFF7FEFF 		bl	HAL_DMA_Start_IT
 2967 00b4 98B9     		cbnz	r0, .L466
 2968 00b6 2368     		ldr	r3, [r4]
 2969 00b8 1A68     		ldr	r2, [r3]
 2970 00ba 42F48062 		orr	r2, r2, #1024
 2971 00be 1A60     		str	r2, [r3]
 2972 00c0 1A68     		ldr	r2, [r3]
 2973 00c2 42F48072 		orr	r2, r2, #256
 2974 00c6 1A60     		str	r2, [r3]
 2975 00c8 5A68     		ldr	r2, [r3, #4]
 2976 00ca 84F83C00 		strb	r0, [r4, #60]
 2977 00ce 42F44072 		orr	r2, r2, #768
 2978 00d2 5A60     		str	r2, [r3, #4]
 2979 00d4 5A68     		ldr	r2, [r3, #4]
 2980 00d6 42F40062 		orr	r2, r2, #2048
 2981 00da 5A60     		str	r2, [r3, #4]
 2982 00dc 9BE7     		b	.L460
 2983              	.L466:
 2984 00de 2023     		movs	r3, #32
ARM GAS  /tmp/ccfpVwxB.s 			page 52


 2985 00e0 84F83D30 		strb	r3, [r4, #61]
 2986 00e4 84F83E50 		strb	r5, [r4, #62]
 2987 00e8 236C     		ldr	r3, [r4, #64]
 2988 00ea 84F83C50 		strb	r5, [r4, #60]
 2989 00ee 43F01003 		orr	r3, r3, #16
 2990 00f2 2364     		str	r3, [r4, #64]
 2991 00f4 ABE7     		b	.L471
 2992              	.L465:
 2993 00f6 1168     		ldr	r1, [r2]
 2994 00f8 1846     		mov	r0, r3
 2995 00fa 41F48061 		orr	r1, r1, #1024
 2996 00fe 1160     		str	r1, [r2]
 2997 0100 1168     		ldr	r1, [r2]
 2998 0102 41F48071 		orr	r1, r1, #256
 2999 0106 1160     		str	r1, [r2]
 3000 0108 5168     		ldr	r1, [r2, #4]
 3001 010a 84F83C30 		strb	r3, [r4, #60]
 3002 010e 41F4E061 		orr	r1, r1, #1792
 3003 0112 5160     		str	r1, [r2, #4]
 3004 0114 7FE7     		b	.L460
 3005              	.L473:
 3006 0116 00BF     		.align	2
 3007              	.L472:
 3008 0118 00000000 		.word	SystemCoreClock
 3009 011c 0000FFFF 		.word	-65536
 3010 0120 00000000 		.word	I2C_DMAXferCplt
 3011 0124 00000000 		.word	I2C_DMAError
 3013              		.section	.text.HAL_I2C_Master_Receive_DMA,"ax",%progbits
 3014              		.align	1
 3015              		.global	HAL_I2C_Master_Receive_DMA
 3016              		.syntax unified
 3017              		.thumb
 3018              		.thumb_func
 3019              		.fpu softvfp
 3021              	HAL_I2C_Master_Receive_DMA:
 3022              		@ args = 0, pretend = 0, frame = 8
 3023              		@ frame_needed = 0, uses_anonymous_args = 0
 3024 0000 73B5     		push	{r0, r1, r4, r5, r6, lr}
 3025 0002 0446     		mov	r4, r0
 3026 0004 0020     		movs	r0, #0
 3027 0006 0190     		str	r0, [sp, #4]
 3028 0008 94F83D00 		ldrb	r0, [r4, #61]	@ zero_extendqisi2
 3029 000c 2028     		cmp	r0, #32
 3030 000e 02D0     		beq	.L475
 3031              	.L479:
 3032 0010 0220     		movs	r0, #2
 3033              	.L476:
 3034 0012 02B0     		add	sp, sp, #8
 3035              		@ sp needed
 3036 0014 70BD     		pop	{r4, r5, r6, pc}
 3037              	.L475:
 3038 0016 46F2A815 		movw	r5, #25000
 3039 001a 3E48     		ldr	r0, .L488
 3040 001c 0068     		ldr	r0, [r0]
 3041 001e B0FBF5F5 		udiv	r5, r0, r5
 3042 0022 1920     		movs	r0, #25
 3043 0024 6843     		muls	r0, r5, r0
ARM GAS  /tmp/ccfpVwxB.s 			page 53


 3044 0026 0190     		str	r0, [sp, #4]
 3045              	.L478:
 3046 0028 0198     		ldr	r0, [sp, #4]
 3047 002a 0138     		subs	r0, r0, #1
 3048 002c 0190     		str	r0, [sp, #4]
 3049 002e 0198     		ldr	r0, [sp, #4]
 3050 0030 68B9     		cbnz	r0, .L477
 3051 0032 2023     		movs	r3, #32
 3052 0034 2063     		str	r0, [r4, #48]
 3053 0036 84F83D30 		strb	r3, [r4, #61]
 3054 003a 84F83E00 		strb	r0, [r4, #62]
 3055 003e 236C     		ldr	r3, [r4, #64]
 3056 0040 84F83C00 		strb	r0, [r4, #60]
 3057 0044 43F02003 		orr	r3, r3, #32
 3058 0048 2364     		str	r3, [r4, #64]
 3059              	.L487:
 3060 004a 0120     		movs	r0, #1
 3061 004c E1E7     		b	.L476
 3062              	.L477:
 3063 004e 2568     		ldr	r5, [r4]
 3064 0050 A869     		ldr	r0, [r5, #24]
 3065 0052 8607     		lsls	r6, r0, #30
 3066 0054 E8D4     		bmi	.L478
 3067 0056 94F83C00 		ldrb	r0, [r4, #60]	@ zero_extendqisi2
 3068 005a 0128     		cmp	r0, #1
 3069 005c D8D0     		beq	.L479
 3070 005e 0120     		movs	r0, #1
 3071 0060 84F83C00 		strb	r0, [r4, #60]
 3072 0064 2868     		ldr	r0, [r5]
 3073 0066 0026     		movs	r6, #0
 3074 0068 C007     		lsls	r0, r0, #31
 3075 006a 5EBF     		ittt	pl
 3076 006c 2868     		ldrpl	r0, [r5]
 3077 006e 40F00100 		orrpl	r0, r0, #1
 3078 0072 2860     		strpl	r0, [r5]
 3079 0074 2868     		ldr	r0, [r5]
 3080 0076 20F40060 		bic	r0, r0, #2048
 3081 007a 2860     		str	r0, [r5]
 3082 007c 2220     		movs	r0, #34
 3083 007e 84F83D00 		strb	r0, [r4, #61]
 3084 0082 1020     		movs	r0, #16
 3085 0084 84F83E00 		strb	r0, [r4, #62]
 3086 0088 2664     		str	r6, [r4, #64]
 3087 008a 6385     		strh	r3, [r4, #42]	@ movhi
 3088 008c 608D     		ldrh	r0, [r4, #42]
 3089 008e 6262     		str	r2, [r4, #36]
 3090 0090 83B2     		uxth	r3, r0
 3091 0092 2148     		ldr	r0, .L488+4
 3092 0094 2385     		strh	r3, [r4, #40]	@ movhi
 3093 0096 E062     		str	r0, [r4, #44]
 3094 0098 6164     		str	r1, [r4, #68]
 3095 009a 5BB3     		cbz	r3, .L481
 3096 009c A06B     		ldr	r0, [r4, #56]
 3097 009e 1F49     		ldr	r1, .L488+8
 3098 00a0 C662     		str	r6, [r0, #44]
 3099 00a2 8162     		str	r1, [r0, #40]
 3100 00a4 1E49     		ldr	r1, .L488+12
ARM GAS  /tmp/ccfpVwxB.s 			page 54


 3101 00a6 4663     		str	r6, [r0, #52]
 3102 00a8 0163     		str	r1, [r0, #48]
 3103 00aa 05F11001 		add	r1, r5, #16
 3104 00ae FFF7FEFF 		bl	HAL_DMA_Start_IT
 3105 00b2 98B9     		cbnz	r0, .L482
 3106 00b4 2368     		ldr	r3, [r4]
 3107 00b6 1A68     		ldr	r2, [r3]
 3108 00b8 42F48062 		orr	r2, r2, #1024
 3109 00bc 1A60     		str	r2, [r3]
 3110 00be 1A68     		ldr	r2, [r3]
 3111 00c0 42F48072 		orr	r2, r2, #256
 3112 00c4 1A60     		str	r2, [r3]
 3113 00c6 5A68     		ldr	r2, [r3, #4]
 3114 00c8 84F83C00 		strb	r0, [r4, #60]
 3115 00cc 42F44072 		orr	r2, r2, #768
 3116 00d0 5A60     		str	r2, [r3, #4]
 3117 00d2 5A68     		ldr	r2, [r3, #4]
 3118 00d4 42F40062 		orr	r2, r2, #2048
 3119 00d8 5A60     		str	r2, [r3, #4]
 3120 00da 9AE7     		b	.L476
 3121              	.L482:
 3122 00dc 2023     		movs	r3, #32
 3123 00de 84F83D30 		strb	r3, [r4, #61]
 3124 00e2 84F83E60 		strb	r6, [r4, #62]
 3125 00e6 236C     		ldr	r3, [r4, #64]
 3126 00e8 84F83C60 		strb	r6, [r4, #60]
 3127 00ec 43F01003 		orr	r3, r3, #16
 3128 00f0 2364     		str	r3, [r4, #64]
 3129 00f2 AAE7     		b	.L487
 3130              	.L481:
 3131 00f4 2A68     		ldr	r2, [r5]
 3132 00f6 1846     		mov	r0, r3
 3133 00f8 42F48062 		orr	r2, r2, #1024
 3134 00fc 2A60     		str	r2, [r5]
 3135 00fe 2A68     		ldr	r2, [r5]
 3136 0100 42F48072 		orr	r2, r2, #256
 3137 0104 2A60     		str	r2, [r5]
 3138 0106 6A68     		ldr	r2, [r5, #4]
 3139 0108 84F83C30 		strb	r3, [r4, #60]
 3140 010c 42F4E062 		orr	r2, r2, #1792
 3141 0110 6A60     		str	r2, [r5, #4]
 3142 0112 7EE7     		b	.L476
 3143              	.L489:
 3144              		.align	2
 3145              	.L488:
 3146 0114 00000000 		.word	SystemCoreClock
 3147 0118 0000FFFF 		.word	-65536
 3148 011c 00000000 		.word	I2C_DMAXferCplt
 3149 0120 00000000 		.word	I2C_DMAError
 3151              		.section	.text.HAL_I2C_Slave_Transmit_DMA,"ax",%progbits
 3152              		.align	1
 3153              		.global	HAL_I2C_Slave_Transmit_DMA
 3154              		.syntax unified
 3155              		.thumb
 3156              		.thumb_func
 3157              		.fpu softvfp
 3159              	HAL_I2C_Slave_Transmit_DMA:
ARM GAS  /tmp/ccfpVwxB.s 			page 55


 3160              		@ args = 0, pretend = 0, frame = 0
 3161              		@ frame_needed = 0, uses_anonymous_args = 0
 3162 0000 F8B5     		push	{r3, r4, r5, r6, r7, lr}
 3163 0002 90F83D30 		ldrb	r3, [r0, #61]	@ zero_extendqisi2
 3164 0006 0446     		mov	r4, r0
 3165 0008 202B     		cmp	r3, #32
 3166 000a 1746     		mov	r7, r2
 3167 000c 4ED1     		bne	.L497
 3168 000e 0029     		cmp	r1, #0
 3169 0010 4AD0     		beq	.L496
 3170 0012 002A     		cmp	r2, #0
 3171 0014 48D0     		beq	.L496
 3172 0016 90F83C30 		ldrb	r3, [r0, #60]	@ zero_extendqisi2
 3173 001a 012B     		cmp	r3, #1
 3174 001c 46D0     		beq	.L497
 3175 001e 0123     		movs	r3, #1
 3176 0020 80F83C30 		strb	r3, [r0, #60]
 3177 0024 0368     		ldr	r3, [r0]
 3178 0026 0025     		movs	r5, #0
 3179 0028 1A68     		ldr	r2, [r3]
 3180 002a 2026     		movs	r6, #32
 3181 002c D207     		lsls	r2, r2, #31
 3182 002e 58BF     		it	pl
 3183 0030 1868     		ldrpl	r0, [r3]
 3184 0032 1A46     		mov	r2, r3
 3185 0034 5CBF     		itt	pl
 3186 0036 40F00100 		orrpl	r0, r0, #1
 3187 003a 1860     		strpl	r0, [r3]
 3188 003c 1868     		ldr	r0, [r3]
 3189 003e 2123     		movs	r3, #33
 3190 0040 20F40060 		bic	r0, r0, #2048
 3191 0044 42F8100B 		str	r0, [r2], #16
 3192 0048 84F83D30 		strb	r3, [r4, #61]
 3193 004c 1848     		ldr	r0, .L498
 3194 004e 84F83E60 		strb	r6, [r4, #62]
 3195 0052 2564     		str	r5, [r4, #64]
 3196 0054 6785     		strh	r7, [r4, #42]	@ movhi
 3197 0056 638D     		ldrh	r3, [r4, #42]
 3198 0058 164F     		ldr	r7, .L498+4
 3199 005a E062     		str	r0, [r4, #44]
 3200 005c 606B     		ldr	r0, [r4, #52]
 3201 005e 9BB2     		uxth	r3, r3
 3202 0060 6162     		str	r1, [r4, #36]
 3203 0062 2385     		strh	r3, [r4, #40]	@ movhi
 3204 0064 8762     		str	r7, [r0, #40]
 3205 0066 144F     		ldr	r7, .L498+8
 3206 0068 C562     		str	r5, [r0, #44]
 3207 006a 0763     		str	r7, [r0, #48]
 3208 006c 4563     		str	r5, [r0, #52]
 3209 006e FFF7FEFF 		bl	HAL_DMA_Start_IT
 3210 0072 78B9     		cbnz	r0, .L493
 3211 0074 2368     		ldr	r3, [r4]
 3212 0076 1A68     		ldr	r2, [r3]
 3213 0078 42F48062 		orr	r2, r2, #1024
 3214 007c 1A60     		str	r2, [r3]
 3215 007e 5A68     		ldr	r2, [r3, #4]
 3216 0080 84F83C00 		strb	r0, [r4, #60]
ARM GAS  /tmp/ccfpVwxB.s 			page 56


 3217 0084 42F44072 		orr	r2, r2, #768
 3218 0088 5A60     		str	r2, [r3, #4]
 3219 008a 5A68     		ldr	r2, [r3, #4]
 3220 008c 42F40062 		orr	r2, r2, #2048
 3221 0090 5A60     		str	r2, [r3, #4]
 3222 0092 F8BD     		pop	{r3, r4, r5, r6, r7, pc}
 3223              	.L493:
 3224 0094 84F83D60 		strb	r6, [r4, #61]
 3225 0098 84F83E50 		strb	r5, [r4, #62]
 3226 009c 236C     		ldr	r3, [r4, #64]
 3227 009e 84F83C50 		strb	r5, [r4, #60]
 3228 00a2 43F01003 		orr	r3, r3, #16
 3229 00a6 2364     		str	r3, [r4, #64]
 3230              	.L496:
 3231 00a8 0120     		movs	r0, #1
 3232 00aa F8BD     		pop	{r3, r4, r5, r6, r7, pc}
 3233              	.L497:
 3234 00ac 0220     		movs	r0, #2
 3235 00ae F8BD     		pop	{r3, r4, r5, r6, r7, pc}
 3236              	.L499:
 3237              		.align	2
 3238              	.L498:
 3239 00b0 0000FFFF 		.word	-65536
 3240 00b4 00000000 		.word	I2C_DMAXferCplt
 3241 00b8 00000000 		.word	I2C_DMAError
 3243              		.section	.text.HAL_I2C_Slave_Receive_DMA,"ax",%progbits
 3244              		.align	1
 3245              		.global	HAL_I2C_Slave_Receive_DMA
 3246              		.syntax unified
 3247              		.thumb
 3248              		.thumb_func
 3249              		.fpu softvfp
 3251              	HAL_I2C_Slave_Receive_DMA:
 3252              		@ args = 0, pretend = 0, frame = 0
 3253              		@ frame_needed = 0, uses_anonymous_args = 0
 3254 0000 F8B5     		push	{r3, r4, r5, r6, r7, lr}
 3255 0002 90F83D30 		ldrb	r3, [r0, #61]	@ zero_extendqisi2
 3256 0006 0446     		mov	r4, r0
 3257 0008 202B     		cmp	r3, #32
 3258 000a 0F46     		mov	r7, r1
 3259 000c 4ED1     		bne	.L507
 3260 000e 0029     		cmp	r1, #0
 3261 0010 4AD0     		beq	.L506
 3262 0012 002A     		cmp	r2, #0
 3263 0014 48D0     		beq	.L506
 3264 0016 90F83C30 		ldrb	r3, [r0, #60]	@ zero_extendqisi2
 3265 001a 012B     		cmp	r3, #1
 3266 001c 46D0     		beq	.L507
 3267 001e 0123     		movs	r3, #1
 3268 0020 80F83C30 		strb	r3, [r0, #60]
 3269 0024 0368     		ldr	r3, [r0]
 3270 0026 0025     		movs	r5, #0
 3271 0028 1968     		ldr	r1, [r3]
 3272 002a 2026     		movs	r6, #32
 3273 002c C907     		lsls	r1, r1, #31
 3274 002e 5EBF     		ittt	pl
 3275 0030 1968     		ldrpl	r1, [r3]
ARM GAS  /tmp/ccfpVwxB.s 			page 57


 3276 0032 41F00101 		orrpl	r1, r1, #1
 3277 0036 1960     		strpl	r1, [r3]
 3278 0038 1868     		ldr	r0, [r3]
 3279 003a 1946     		mov	r1, r3
 3280 003c 2223     		movs	r3, #34
 3281 003e 20F40060 		bic	r0, r0, #2048
 3282 0042 41F8100B 		str	r0, [r1], #16
 3283 0046 84F83D30 		strb	r3, [r4, #61]
 3284 004a 84F83E60 		strb	r6, [r4, #62]
 3285 004e 2564     		str	r5, [r4, #64]
 3286 0050 6285     		strh	r2, [r4, #42]	@ movhi
 3287 0052 174A     		ldr	r2, .L508
 3288 0054 638D     		ldrh	r3, [r4, #42]
 3289 0056 A06B     		ldr	r0, [r4, #56]
 3290 0058 E262     		str	r2, [r4, #44]
 3291 005a 164A     		ldr	r2, .L508+4
 3292 005c 9BB2     		uxth	r3, r3
 3293 005e 6762     		str	r7, [r4, #36]
 3294 0060 2385     		strh	r3, [r4, #40]	@ movhi
 3295 0062 8262     		str	r2, [r0, #40]
 3296 0064 144A     		ldr	r2, .L508+8
 3297 0066 C562     		str	r5, [r0, #44]
 3298 0068 0263     		str	r2, [r0, #48]
 3299 006a 4563     		str	r5, [r0, #52]
 3300 006c 3A46     		mov	r2, r7
 3301 006e FFF7FEFF 		bl	HAL_DMA_Start_IT
 3302 0072 78B9     		cbnz	r0, .L503
 3303 0074 2368     		ldr	r3, [r4]
 3304 0076 1A68     		ldr	r2, [r3]
 3305 0078 42F48062 		orr	r2, r2, #1024
 3306 007c 1A60     		str	r2, [r3]
 3307 007e 5A68     		ldr	r2, [r3, #4]
 3308 0080 84F83C00 		strb	r0, [r4, #60]
 3309 0084 42F44072 		orr	r2, r2, #768
 3310 0088 5A60     		str	r2, [r3, #4]
 3311 008a 5A68     		ldr	r2, [r3, #4]
 3312 008c 42F40062 		orr	r2, r2, #2048
 3313 0090 5A60     		str	r2, [r3, #4]
 3314 0092 F8BD     		pop	{r3, r4, r5, r6, r7, pc}
 3315              	.L503:
 3316 0094 84F83D60 		strb	r6, [r4, #61]
 3317 0098 84F83E50 		strb	r5, [r4, #62]
 3318 009c 236C     		ldr	r3, [r4, #64]
 3319 009e 84F83C50 		strb	r5, [r4, #60]
 3320 00a2 43F01003 		orr	r3, r3, #16
 3321 00a6 2364     		str	r3, [r4, #64]
 3322              	.L506:
 3323 00a8 0120     		movs	r0, #1
 3324 00aa F8BD     		pop	{r3, r4, r5, r6, r7, pc}
 3325              	.L507:
 3326 00ac 0220     		movs	r0, #2
 3327 00ae F8BD     		pop	{r3, r4, r5, r6, r7, pc}
 3328              	.L509:
 3329              		.align	2
 3330              	.L508:
 3331 00b0 0000FFFF 		.word	-65536
 3332 00b4 00000000 		.word	I2C_DMAXferCplt
ARM GAS  /tmp/ccfpVwxB.s 			page 58


 3333 00b8 00000000 		.word	I2C_DMAError
 3335              		.section	.text.HAL_I2C_Mem_Write,"ax",%progbits
 3336              		.align	1
 3337              		.global	HAL_I2C_Mem_Write
 3338              		.syntax unified
 3339              		.thumb
 3340              		.thumb_func
 3341              		.fpu softvfp
 3343              	HAL_I2C_Mem_Write:
 3344              		@ args = 12, pretend = 0, frame = 0
 3345              		@ frame_needed = 0, uses_anonymous_args = 0
 3346 0000 2DE9F743 		push	{r0, r1, r2, r4, r5, r6, r7, r8, r9, lr}
 3347 0004 0446     		mov	r4, r0
 3348 0006 9946     		mov	r9, r3
 3349 0008 0F46     		mov	r7, r1
 3350 000a 9046     		mov	r8, r2
 3351 000c 0C9E     		ldr	r6, [sp, #48]
 3352 000e FFF7FEFF 		bl	HAL_GetTick
 3353 0012 94F83D30 		ldrb	r3, [r4, #61]	@ zero_extendqisi2
 3354 0016 0546     		mov	r5, r0
 3355 0018 202B     		cmp	r3, #32
 3356 001a 03D0     		beq	.L511
 3357              	.L513:
 3358 001c 0220     		movs	r0, #2
 3359              	.L512:
 3360 001e 03B0     		add	sp, sp, #12
 3361              		@ sp needed
 3362 0020 BDE8F083 		pop	{r4, r5, r6, r7, r8, r9, pc}
 3363              	.L511:
 3364 0024 0090     		str	r0, [sp]
 3365 0026 1923     		movs	r3, #25
 3366 0028 0122     		movs	r2, #1
 3367 002a 3B49     		ldr	r1, .L536
 3368 002c 2046     		mov	r0, r4
 3369 002e FFF7FEFF 		bl	I2C_WaitOnFlagUntilTimeout
 3370 0032 0028     		cmp	r0, #0
 3371 0034 F2D1     		bne	.L513
 3372 0036 94F83C30 		ldrb	r3, [r4, #60]	@ zero_extendqisi2
 3373 003a 012B     		cmp	r3, #1
 3374 003c EED0     		beq	.L513
 3375 003e 0123     		movs	r3, #1
 3376 0040 84F83C30 		strb	r3, [r4, #60]
 3377 0044 2368     		ldr	r3, [r4]
 3378 0046 2046     		mov	r0, r4
 3379 0048 1A68     		ldr	r2, [r3]
 3380 004a D107     		lsls	r1, r2, #31
 3381 004c 58BF     		it	pl
 3382 004e 1A68     		ldrpl	r2, [r3]
 3383 0050 3946     		mov	r1, r7
 3384 0052 5CBF     		itt	pl
 3385 0054 42F00102 		orrpl	r2, r2, #1
 3386 0058 1A60     		strpl	r2, [r3]
 3387 005a 1A68     		ldr	r2, [r3]
 3388 005c 22F40062 		bic	r2, r2, #2048
 3389 0060 1A60     		str	r2, [r3]
 3390 0062 2123     		movs	r3, #33
 3391 0064 84F83D30 		strb	r3, [r4, #61]
ARM GAS  /tmp/ccfpVwxB.s 			page 59


 3392 0068 4023     		movs	r3, #64
 3393 006a 84F83E30 		strb	r3, [r4, #62]
 3394 006e 0023     		movs	r3, #0
 3395 0070 2364     		str	r3, [r4, #64]
 3396 0072 0A9B     		ldr	r3, [sp, #40]
 3397 0074 0195     		str	r5, [sp, #4]
 3398 0076 6362     		str	r3, [r4, #36]
 3399 0078 BDF82C30 		ldrh	r3, [sp, #44]
 3400 007c 0096     		str	r6, [sp]
 3401 007e 6385     		strh	r3, [r4, #42]	@ movhi
 3402 0080 638D     		ldrh	r3, [r4, #42]
 3403 0082 4246     		mov	r2, r8
 3404 0084 2385     		strh	r3, [r4, #40]	@ movhi
 3405 0086 254B     		ldr	r3, .L536+4
 3406 0088 E362     		str	r3, [r4, #44]
 3407 008a 4B46     		mov	r3, r9
 3408 008c FFF7FEFF 		bl	I2C_RequestMemoryWrite
 3409 0090 0028     		cmp	r0, #0
 3410 0092 2AD0     		beq	.L515
 3411              	.L533:
 3412 0094 0120     		movs	r0, #1
 3413 0096 C2E7     		b	.L512
 3414              	.L519:
 3415 0098 FFF7FEFF 		bl	I2C_WaitOnTXEFlagUntilTimeout
 3416 009c 40B1     		cbz	r0, .L516
 3417              	.L535:
 3418 009e 236C     		ldr	r3, [r4, #64]
 3419 00a0 042B     		cmp	r3, #4
 3420 00a2 01BF     		itttt	eq
 3421 00a4 2268     		ldreq	r2, [r4]
 3422 00a6 1368     		ldreq	r3, [r2]
 3423 00a8 43F40073 		orreq	r3, r3, #512
 3424 00ac 1360     		streq	r3, [r2]
 3425 00ae F1E7     		b	.L533
 3426              	.L516:
 3427 00b0 636A     		ldr	r3, [r4, #36]
 3428 00b2 2768     		ldr	r7, [r4]
 3429 00b4 1A46     		mov	r2, r3
 3430 00b6 12F8011B 		ldrb	r1, [r2], #1	@ zero_extendqisi2
 3431 00ba 3961     		str	r1, [r7, #16]
 3432 00bc 6262     		str	r2, [r4, #36]
 3433 00be 628D     		ldrh	r2, [r4, #42]
 3434 00c0 218D     		ldrh	r1, [r4, #40]
 3435 00c2 013A     		subs	r2, r2, #1
 3436 00c4 92B2     		uxth	r2, r2
 3437 00c6 6285     		strh	r2, [r4, #42]	@ movhi
 3438 00c8 7A69     		ldr	r2, [r7, #20]
 3439 00ca 481E     		subs	r0, r1, #1
 3440 00cc 80B2     		uxth	r0, r0
 3441 00ce 5207     		lsls	r2, r2, #29
 3442 00d0 2085     		strh	r0, [r4, #40]	@ movhi
 3443 00d2 0AD5     		bpl	.L515
 3444 00d4 48B1     		cbz	r0, .L515
 3445 00d6 5A78     		ldrb	r2, [r3, #1]	@ zero_extendqisi2
 3446 00d8 0233     		adds	r3, r3, #2
 3447 00da 3A61     		str	r2, [r7, #16]
 3448 00dc 6362     		str	r3, [r4, #36]
ARM GAS  /tmp/ccfpVwxB.s 			page 60


 3449 00de 638D     		ldrh	r3, [r4, #42]
 3450 00e0 0239     		subs	r1, r1, #2
 3451 00e2 013B     		subs	r3, r3, #1
 3452 00e4 9BB2     		uxth	r3, r3
 3453 00e6 2185     		strh	r1, [r4, #40]	@ movhi
 3454 00e8 6385     		strh	r3, [r4, #42]	@ movhi
 3455              	.L515:
 3456 00ea 238D     		ldrh	r3, [r4, #40]
 3457 00ec 2A46     		mov	r2, r5
 3458 00ee 3146     		mov	r1, r6
 3459 00f0 2046     		mov	r0, r4
 3460 00f2 002B     		cmp	r3, #0
 3461 00f4 D0D1     		bne	.L519
 3462 00f6 FFF7FEFF 		bl	I2C_WaitOnBTFFlagUntilTimeout
 3463 00fa 0028     		cmp	r0, #0
 3464 00fc CFD1     		bne	.L535
 3465 00fe 2268     		ldr	r2, [r4]
 3466 0100 1368     		ldr	r3, [r2]
 3467 0102 43F40073 		orr	r3, r3, #512
 3468 0106 1360     		str	r3, [r2]
 3469 0108 2023     		movs	r3, #32
 3470 010a 84F83C00 		strb	r0, [r4, #60]
 3471 010e 84F83D30 		strb	r3, [r4, #61]
 3472 0112 84F83E00 		strb	r0, [r4, #62]
 3473 0116 82E7     		b	.L512
 3474              	.L537:
 3475              		.align	2
 3476              	.L536:
 3477 0118 02001000 		.word	1048578
 3478 011c 0000FFFF 		.word	-65536
 3480              		.section	.text.HAL_I2C_Mem_Read,"ax",%progbits
 3481              		.align	1
 3482              		.global	HAL_I2C_Mem_Read
 3483              		.syntax unified
 3484              		.thumb
 3485              		.thumb_func
 3486              		.fpu softvfp
 3488              	HAL_I2C_Mem_Read:
 3489              		@ args = 12, pretend = 0, frame = 16
 3490              		@ frame_needed = 0, uses_anonymous_args = 0
 3491 0000 2DE9F043 		push	{r4, r5, r6, r7, r8, r9, lr}
 3492 0004 0446     		mov	r4, r0
 3493 0006 87B0     		sub	sp, sp, #28
 3494 0008 9946     		mov	r9, r3
 3495 000a 0D46     		mov	r5, r1
 3496 000c 9046     		mov	r8, r2
 3497 000e 109F     		ldr	r7, [sp, #64]
 3498 0010 FFF7FEFF 		bl	HAL_GetTick
 3499 0014 94F83D30 		ldrb	r3, [r4, #61]	@ zero_extendqisi2
 3500 0018 0646     		mov	r6, r0
 3501 001a 202B     		cmp	r3, #32
 3502 001c 04D0     		beq	.L539
 3503              	.L541:
 3504 001e 0225     		movs	r5, #2
 3505              	.L540:
 3506 0020 2846     		mov	r0, r5
 3507 0022 07B0     		add	sp, sp, #28
ARM GAS  /tmp/ccfpVwxB.s 			page 61


 3508              		@ sp needed
 3509 0024 BDE8F083 		pop	{r4, r5, r6, r7, r8, r9, pc}
 3510              	.L539:
 3511 0028 0090     		str	r0, [sp]
 3512 002a 1923     		movs	r3, #25
 3513 002c 0122     		movs	r2, #1
 3514 002e 7E49     		ldr	r1, .L566
 3515 0030 2046     		mov	r0, r4
 3516 0032 FFF7FEFF 		bl	I2C_WaitOnFlagUntilTimeout
 3517 0036 0028     		cmp	r0, #0
 3518 0038 F1D1     		bne	.L541
 3519 003a 94F83C30 		ldrb	r3, [r4, #60]	@ zero_extendqisi2
 3520 003e 012B     		cmp	r3, #1
 3521 0040 EDD0     		beq	.L541
 3522 0042 0123     		movs	r3, #1
 3523 0044 84F83C30 		strb	r3, [r4, #60]
 3524 0048 2368     		ldr	r3, [r4]
 3525 004a 2946     		mov	r1, r5
 3526 004c 1A68     		ldr	r2, [r3]
 3527 004e D007     		lsls	r0, r2, #31
 3528 0050 58BF     		it	pl
 3529 0052 1A68     		ldrpl	r2, [r3]
 3530 0054 2046     		mov	r0, r4
 3531 0056 5CBF     		itt	pl
 3532 0058 42F00102 		orrpl	r2, r2, #1
 3533 005c 1A60     		strpl	r2, [r3]
 3534 005e 1A68     		ldr	r2, [r3]
 3535 0060 22F40062 		bic	r2, r2, #2048
 3536 0064 1A60     		str	r2, [r3]
 3537 0066 2223     		movs	r3, #34
 3538 0068 84F83D30 		strb	r3, [r4, #61]
 3539 006c 4023     		movs	r3, #64
 3540 006e 84F83E30 		strb	r3, [r4, #62]
 3541 0072 0023     		movs	r3, #0
 3542 0074 2364     		str	r3, [r4, #64]
 3543 0076 0E9B     		ldr	r3, [sp, #56]
 3544 0078 0196     		str	r6, [sp, #4]
 3545 007a 6362     		str	r3, [r4, #36]
 3546 007c BDF83C30 		ldrh	r3, [sp, #60]
 3547 0080 0097     		str	r7, [sp]
 3548 0082 6385     		strh	r3, [r4, #42]	@ movhi
 3549 0084 638D     		ldrh	r3, [r4, #42]
 3550 0086 4246     		mov	r2, r8
 3551 0088 2385     		strh	r3, [r4, #40]	@ movhi
 3552 008a 684B     		ldr	r3, .L566+4
 3553 008c E362     		str	r3, [r4, #44]
 3554 008e 4B46     		mov	r3, r9
 3555 0090 FFF7FEFF 		bl	I2C_RequestMemoryRead
 3556 0094 0546     		mov	r5, r0
 3557 0096 08B1     		cbz	r0, .L543
 3558              	.L552:
 3559 0098 0125     		movs	r5, #1
 3560 009a C1E7     		b	.L540
 3561              	.L543:
 3562 009c 228D     		ldrh	r2, [r4, #40]
 3563 009e 2368     		ldr	r3, [r4]
 3564 00a0 92B9     		cbnz	r2, .L544
ARM GAS  /tmp/ccfpVwxB.s 			page 62


 3565 00a2 0290     		str	r0, [sp, #8]
 3566 00a4 5A69     		ldr	r2, [r3, #20]
 3567 00a6 0292     		str	r2, [sp, #8]
 3568 00a8 9A69     		ldr	r2, [r3, #24]
 3569 00aa 0292     		str	r2, [sp, #8]
 3570 00ac 029A     		ldr	r2, [sp, #8]
 3571 00ae 1A68     		ldr	r2, [r3]
 3572 00b0 42F40072 		orr	r2, r2, #512
 3573 00b4 1A60     		str	r2, [r3]
 3574              	.L545:
 3575 00b6 2023     		movs	r3, #32
 3576 00b8 84F83D30 		strb	r3, [r4, #61]
 3577 00bc 0023     		movs	r3, #0
 3578 00be 84F83E30 		strb	r3, [r4, #62]
 3579 00c2 84F83C30 		strb	r3, [r4, #60]
 3580 00c6 ABE7     		b	.L540
 3581              	.L544:
 3582 00c8 012A     		cmp	r2, #1
 3583 00ca 2FD1     		bne	.L546
 3584 00cc 1A68     		ldr	r2, [r3]
 3585 00ce 22F48062 		bic	r2, r2, #1024
 3586 00d2 1A60     		str	r2, [r3]
 3587              		.syntax unified
 3588              	@ 142 "./cmsis/inc/cmsis_gcc.h" 1
 3589 00d4 72B6     		cpsid i
 3590              	@ 0 "" 2
 3591              		.thumb
 3592              		.syntax unified
 3593 00d6 2368     		ldr	r3, [r4]
 3594 00d8 0390     		str	r0, [sp, #12]
 3595 00da 5A69     		ldr	r2, [r3, #20]
 3596 00dc 0392     		str	r2, [sp, #12]
 3597 00de 9A69     		ldr	r2, [r3, #24]
 3598 00e0 0392     		str	r2, [sp, #12]
 3599 00e2 039A     		ldr	r2, [sp, #12]
 3600 00e4 1A68     		ldr	r2, [r3]
 3601 00e6 42F40072 		orr	r2, r2, #512
 3602              	.L562:
 3603 00ea 1A60     		str	r2, [r3]
 3604              		.syntax unified
 3605              	@ 131 "./cmsis/inc/cmsis_gcc.h" 1
 3606 00ec 62B6     		cpsie i
 3607              	@ 0 "" 2
 3608              		.thumb
 3609              		.syntax unified
 3610              	.L547:
 3611 00ee DFF84081 		ldr	r8, .L566+8
 3612              	.L549:
 3613 00f2 238D     		ldrh	r3, [r4, #40]
 3614 00f4 002B     		cmp	r3, #0
 3615 00f6 DED0     		beq	.L545
 3616 00f8 032B     		cmp	r3, #3
 3617 00fa 77D8     		bhi	.L550
 3618 00fc 012B     		cmp	r3, #1
 3619 00fe 31D1     		bne	.L551
 3620 0100 3246     		mov	r2, r6
 3621 0102 3946     		mov	r1, r7
ARM GAS  /tmp/ccfpVwxB.s 			page 63


 3622 0104 2046     		mov	r0, r4
 3623 0106 FFF7FEFF 		bl	I2C_WaitOnRXNEFlagUntilTimeout
 3624 010a 0028     		cmp	r0, #0
 3625 010c C4D1     		bne	.L552
 3626              	.L564:
 3627 010e 2268     		ldr	r2, [r4]
 3628 0110 636A     		ldr	r3, [r4, #36]
 3629 0112 1269     		ldr	r2, [r2, #16]
 3630 0114 1A70     		strb	r2, [r3]
 3631              	.L563:
 3632 0116 636A     		ldr	r3, [r4, #36]
 3633 0118 0133     		adds	r3, r3, #1
 3634 011a 6362     		str	r3, [r4, #36]
 3635 011c 238D     		ldrh	r3, [r4, #40]
 3636 011e 013B     		subs	r3, r3, #1
 3637 0120 2385     		strh	r3, [r4, #40]	@ movhi
 3638 0122 638D     		ldrh	r3, [r4, #42]
 3639 0124 013B     		subs	r3, r3, #1
 3640 0126 9BB2     		uxth	r3, r3
 3641 0128 6385     		strh	r3, [r4, #42]	@ movhi
 3642 012a E2E7     		b	.L549
 3643              	.L546:
 3644 012c 022A     		cmp	r2, #2
 3645 012e 1A68     		ldr	r2, [r3]
 3646 0130 0ED1     		bne	.L548
 3647 0132 42F40062 		orr	r2, r2, #2048
 3648 0136 1A60     		str	r2, [r3]
 3649              		.syntax unified
 3650              	@ 142 "./cmsis/inc/cmsis_gcc.h" 1
 3651 0138 72B6     		cpsid i
 3652              	@ 0 "" 2
 3653              		.thumb
 3654              		.syntax unified
 3655 013a 2368     		ldr	r3, [r4]
 3656 013c 0490     		str	r0, [sp, #16]
 3657 013e 5A69     		ldr	r2, [r3, #20]
 3658 0140 0492     		str	r2, [sp, #16]
 3659 0142 9A69     		ldr	r2, [r3, #24]
 3660 0144 0492     		str	r2, [sp, #16]
 3661 0146 049A     		ldr	r2, [sp, #16]
 3662 0148 1A68     		ldr	r2, [r3]
 3663 014a 22F48062 		bic	r2, r2, #1024
 3664 014e CCE7     		b	.L562
 3665              	.L548:
 3666 0150 42F48062 		orr	r2, r2, #1024
 3667 0154 1A60     		str	r2, [r3]
 3668 0156 0590     		str	r0, [sp, #20]
 3669 0158 5A69     		ldr	r2, [r3, #20]
 3670 015a 0592     		str	r2, [sp, #20]
 3671 015c 9B69     		ldr	r3, [r3, #24]
 3672 015e 0593     		str	r3, [sp, #20]
 3673 0160 059B     		ldr	r3, [sp, #20]
 3674 0162 C4E7     		b	.L547
 3675              	.L551:
 3676 0164 022B     		cmp	r3, #2
 3677 0166 0096     		str	r6, [sp]
 3678 0168 3B46     		mov	r3, r7
ARM GAS  /tmp/ccfpVwxB.s 			page 64


 3679 016a 4FF00002 		mov	r2, #0
 3680 016e 4146     		mov	r1, r8
 3681 0170 2046     		mov	r0, r4
 3682 0172 18D1     		bne	.L554
 3683 0174 FFF7FEFF 		bl	I2C_WaitOnFlagUntilTimeout
 3684 0178 0028     		cmp	r0, #0
 3685 017a 8DD1     		bne	.L552
 3686              		.syntax unified
 3687              	@ 142 "./cmsis/inc/cmsis_gcc.h" 1
 3688 017c 72B6     		cpsid i
 3689              	@ 0 "" 2
 3690              		.thumb
 3691              		.syntax unified
 3692              	.L565:
 3693 017e 2368     		ldr	r3, [r4]
 3694 0180 1A68     		ldr	r2, [r3]
 3695 0182 42F40072 		orr	r2, r2, #512
 3696 0186 1A60     		str	r2, [r3]
 3697 0188 1B69     		ldr	r3, [r3, #16]
 3698 018a 626A     		ldr	r2, [r4, #36]
 3699 018c 1370     		strb	r3, [r2]
 3700 018e 636A     		ldr	r3, [r4, #36]
 3701 0190 0133     		adds	r3, r3, #1
 3702 0192 6362     		str	r3, [r4, #36]
 3703 0194 238D     		ldrh	r3, [r4, #40]
 3704 0196 013B     		subs	r3, r3, #1
 3705 0198 2385     		strh	r3, [r4, #40]	@ movhi
 3706 019a 638D     		ldrh	r3, [r4, #42]
 3707 019c 013B     		subs	r3, r3, #1
 3708 019e 9BB2     		uxth	r3, r3
 3709 01a0 6385     		strh	r3, [r4, #42]	@ movhi
 3710              		.syntax unified
 3711              	@ 131 "./cmsis/inc/cmsis_gcc.h" 1
 3712 01a2 62B6     		cpsie i
 3713              	@ 0 "" 2
 3714              		.thumb
 3715              		.syntax unified
 3716 01a4 B3E7     		b	.L564
 3717              	.L554:
 3718 01a6 FFF7FEFF 		bl	I2C_WaitOnFlagUntilTimeout
 3719 01aa 0246     		mov	r2, r0
 3720 01ac 0028     		cmp	r0, #0
 3721 01ae 7FF473AF 		bne	.L552
 3722 01b2 2168     		ldr	r1, [r4]
 3723 01b4 0B68     		ldr	r3, [r1]
 3724 01b6 23F48063 		bic	r3, r3, #1024
 3725 01ba 0B60     		str	r3, [r1]
 3726              		.syntax unified
 3727              	@ 142 "./cmsis/inc/cmsis_gcc.h" 1
 3728 01bc 72B6     		cpsid i
 3729              	@ 0 "" 2
 3730              		.thumb
 3731              		.syntax unified
 3732 01be 2168     		ldr	r1, [r4]
 3733 01c0 636A     		ldr	r3, [r4, #36]
 3734 01c2 0969     		ldr	r1, [r1, #16]
 3735 01c4 2046     		mov	r0, r4
ARM GAS  /tmp/ccfpVwxB.s 			page 65


 3736 01c6 1970     		strb	r1, [r3]
 3737 01c8 636A     		ldr	r3, [r4, #36]
 3738 01ca 0096     		str	r6, [sp]
 3739 01cc 0133     		adds	r3, r3, #1
 3740 01ce 6362     		str	r3, [r4, #36]
 3741 01d0 238D     		ldrh	r3, [r4, #40]
 3742 01d2 4146     		mov	r1, r8
 3743 01d4 013B     		subs	r3, r3, #1
 3744 01d6 2385     		strh	r3, [r4, #40]	@ movhi
 3745 01d8 638D     		ldrh	r3, [r4, #42]
 3746 01da 013B     		subs	r3, r3, #1
 3747 01dc 9BB2     		uxth	r3, r3
 3748 01de 6385     		strh	r3, [r4, #42]	@ movhi
 3749 01e0 3B46     		mov	r3, r7
 3750 01e2 FFF7FEFF 		bl	I2C_WaitOnFlagUntilTimeout
 3751 01e6 0028     		cmp	r0, #0
 3752 01e8 C9D0     		beq	.L565
 3753 01ea 55E7     		b	.L552
 3754              	.L550:
 3755 01ec 3246     		mov	r2, r6
 3756 01ee 3946     		mov	r1, r7
 3757 01f0 2046     		mov	r0, r4
 3758 01f2 FFF7FEFF 		bl	I2C_WaitOnRXNEFlagUntilTimeout
 3759 01f6 0028     		cmp	r0, #0
 3760 01f8 7FF44EAF 		bne	.L552
 3761 01fc 2268     		ldr	r2, [r4]
 3762 01fe 636A     		ldr	r3, [r4, #36]
 3763 0200 1269     		ldr	r2, [r2, #16]
 3764 0202 1A70     		strb	r2, [r3]
 3765 0204 626A     		ldr	r2, [r4, #36]
 3766 0206 531C     		adds	r3, r2, #1
 3767 0208 6362     		str	r3, [r4, #36]
 3768 020a 238D     		ldrh	r3, [r4, #40]
 3769 020c 013B     		subs	r3, r3, #1
 3770 020e 2385     		strh	r3, [r4, #40]	@ movhi
 3771 0210 638D     		ldrh	r3, [r4, #42]
 3772 0212 013B     		subs	r3, r3, #1
 3773 0214 9BB2     		uxth	r3, r3
 3774 0216 6385     		strh	r3, [r4, #42]	@ movhi
 3775 0218 2368     		ldr	r3, [r4]
 3776 021a 5969     		ldr	r1, [r3, #20]
 3777 021c 4907     		lsls	r1, r1, #29
 3778 021e 7FF568AF 		bpl	.L549
 3779 0222 1B69     		ldr	r3, [r3, #16]
 3780 0224 5370     		strb	r3, [r2, #1]
 3781 0226 76E7     		b	.L563
 3782              	.L567:
 3783              		.align	2
 3784              	.L566:
 3785 0228 02001000 		.word	1048578
 3786 022c 0000FFFF 		.word	-65536
 3787 0230 04000100 		.word	65540
 3789              		.section	.text.HAL_I2C_Mem_Write_IT,"ax",%progbits
 3790              		.align	1
 3791              		.global	HAL_I2C_Mem_Write_IT
 3792              		.syntax unified
 3793              		.thumb
ARM GAS  /tmp/ccfpVwxB.s 			page 66


 3794              		.thumb_func
 3795              		.fpu softvfp
 3797              	HAL_I2C_Mem_Write_IT:
 3798              		@ args = 8, pretend = 0, frame = 8
 3799              		@ frame_needed = 0, uses_anonymous_args = 0
 3800 0000 73B5     		push	{r0, r1, r4, r5, r6, lr}
 3801 0002 0024     		movs	r4, #0
 3802 0004 0194     		str	r4, [sp, #4]
 3803 0006 90F83D40 		ldrb	r4, [r0, #61]	@ zero_extendqisi2
 3804 000a 202C     		cmp	r4, #32
 3805 000c 02D0     		beq	.L569
 3806              	.L573:
 3807 000e 0220     		movs	r0, #2
 3808              	.L570:
 3809 0010 02B0     		add	sp, sp, #8
 3810              		@ sp needed
 3811 0012 70BD     		pop	{r4, r5, r6, pc}
 3812              	.L569:
 3813 0014 46F2A815 		movw	r5, #25000
 3814 0018 284C     		ldr	r4, .L579
 3815 001a 2468     		ldr	r4, [r4]
 3816 001c B4FBF5F5 		udiv	r5, r4, r5
 3817 0020 1924     		movs	r4, #25
 3818 0022 6C43     		muls	r4, r5, r4
 3819 0024 0194     		str	r4, [sp, #4]
 3820              	.L572:
 3821 0026 019C     		ldr	r4, [sp, #4]
 3822 0028 013C     		subs	r4, r4, #1
 3823 002a 0194     		str	r4, [sp, #4]
 3824 002c 019C     		ldr	r4, [sp, #4]
 3825 002e 6CB9     		cbnz	r4, .L571
 3826 0030 2023     		movs	r3, #32
 3827 0032 0463     		str	r4, [r0, #48]
 3828 0034 80F83D30 		strb	r3, [r0, #61]
 3829 0038 80F83E40 		strb	r4, [r0, #62]
 3830 003c 036C     		ldr	r3, [r0, #64]
 3831 003e 80F83C40 		strb	r4, [r0, #60]
 3832 0042 43F02003 		orr	r3, r3, #32
 3833 0046 0364     		str	r3, [r0, #64]
 3834 0048 0120     		movs	r0, #1
 3835 004a E1E7     		b	.L570
 3836              	.L571:
 3837 004c 0468     		ldr	r4, [r0]
 3838 004e A569     		ldr	r5, [r4, #24]
 3839 0050 AE07     		lsls	r6, r5, #30
 3840 0052 E8D4     		bmi	.L572
 3841 0054 90F83C50 		ldrb	r5, [r0, #60]	@ zero_extendqisi2
 3842 0058 012D     		cmp	r5, #1
 3843 005a D8D0     		beq	.L573
 3844 005c 0125     		movs	r5, #1
 3845 005e 80F83C50 		strb	r5, [r0, #60]
 3846 0062 2568     		ldr	r5, [r4]
 3847 0064 069E     		ldr	r6, [sp, #24]
 3848 0066 ED07     		lsls	r5, r5, #31
 3849 0068 5EBF     		ittt	pl
 3850 006a 2568     		ldrpl	r5, [r4]
 3851 006c 45F00105 		orrpl	r5, r5, #1
ARM GAS  /tmp/ccfpVwxB.s 			page 67


 3852 0070 2560     		strpl	r5, [r4]
 3853 0072 2568     		ldr	r5, [r4]
 3854 0074 25F40065 		bic	r5, r5, #2048
 3855 0078 2560     		str	r5, [r4]
 3856 007a 2125     		movs	r5, #33
 3857 007c 80F83D50 		strb	r5, [r0, #61]
 3858 0080 4025     		movs	r5, #64
 3859 0082 80F83E50 		strb	r5, [r0, #62]
 3860 0086 0025     		movs	r5, #0
 3861 0088 4662     		str	r6, [r0, #36]
 3862 008a BDF81C60 		ldrh	r6, [sp, #28]
 3863 008e 0564     		str	r5, [r0, #64]
 3864 0090 4685     		strh	r6, [r0, #42]	@ movhi
 3865 0092 468D     		ldrh	r6, [r0, #42]
 3866 0094 0685     		strh	r6, [r0, #40]	@ movhi
 3867 0096 0A4E     		ldr	r6, .L579+4
 3868 0098 C662     		str	r6, [r0, #44]
 3869 009a 4164     		str	r1, [r0, #68]
 3870 009c 8264     		str	r2, [r0, #72]
 3871 009e C364     		str	r3, [r0, #76]
 3872 00a0 0565     		str	r5, [r0, #80]
 3873 00a2 2368     		ldr	r3, [r4]
 3874 00a4 43F48073 		orr	r3, r3, #256
 3875 00a8 2360     		str	r3, [r4]
 3876 00aa 6368     		ldr	r3, [r4, #4]
 3877 00ac 80F83C50 		strb	r5, [r0, #60]
 3878 00b0 43F4E063 		orr	r3, r3, #1792
 3879 00b4 6360     		str	r3, [r4, #4]
 3880 00b6 2846     		mov	r0, r5
 3881 00b8 AAE7     		b	.L570
 3882              	.L580:
 3883 00ba 00BF     		.align	2
 3884              	.L579:
 3885 00bc 00000000 		.word	SystemCoreClock
 3886 00c0 0000FFFF 		.word	-65536
 3888              		.section	.text.HAL_I2C_Mem_Read_IT,"ax",%progbits
 3889              		.align	1
 3890              		.global	HAL_I2C_Mem_Read_IT
 3891              		.syntax unified
 3892              		.thumb
 3893              		.thumb_func
 3894              		.fpu softvfp
 3896              	HAL_I2C_Mem_Read_IT:
 3897              		@ args = 8, pretend = 0, frame = 8
 3898              		@ frame_needed = 0, uses_anonymous_args = 0
 3899 0000 F7B5     		push	{r0, r1, r2, r4, r5, r6, r7, lr}
 3900 0002 0024     		movs	r4, #0
 3901 0004 0194     		str	r4, [sp, #4]
 3902 0006 90F83D40 		ldrb	r4, [r0, #61]	@ zero_extendqisi2
 3903 000a 202C     		cmp	r4, #32
 3904 000c 02D0     		beq	.L582
 3905              	.L586:
 3906 000e 0220     		movs	r0, #2
 3907              	.L583:
 3908 0010 03B0     		add	sp, sp, #12
 3909              		@ sp needed
 3910 0012 F0BD     		pop	{r4, r5, r6, r7, pc}
ARM GAS  /tmp/ccfpVwxB.s 			page 68


 3911              	.L582:
 3912 0014 46F2A815 		movw	r5, #25000
 3913 0018 2C4C     		ldr	r4, .L593
 3914 001a 2468     		ldr	r4, [r4]
 3915 001c B4FBF5F5 		udiv	r5, r4, r5
 3916 0020 1924     		movs	r4, #25
 3917 0022 6C43     		muls	r4, r5, r4
 3918 0024 0194     		str	r4, [sp, #4]
 3919              	.L585:
 3920 0026 019C     		ldr	r4, [sp, #4]
 3921 0028 013C     		subs	r4, r4, #1
 3922 002a 0194     		str	r4, [sp, #4]
 3923 002c 019C     		ldr	r4, [sp, #4]
 3924 002e 6CB9     		cbnz	r4, .L584
 3925 0030 2023     		movs	r3, #32
 3926 0032 0463     		str	r4, [r0, #48]
 3927 0034 80F83D30 		strb	r3, [r0, #61]
 3928 0038 80F83E40 		strb	r4, [r0, #62]
 3929 003c 036C     		ldr	r3, [r0, #64]
 3930 003e 80F83C40 		strb	r4, [r0, #60]
 3931 0042 43F02003 		orr	r3, r3, #32
 3932 0046 0364     		str	r3, [r0, #64]
 3933 0048 0120     		movs	r0, #1
 3934 004a E1E7     		b	.L583
 3935              	.L584:
 3936 004c 0468     		ldr	r4, [r0]
 3937 004e A569     		ldr	r5, [r4, #24]
 3938 0050 AE07     		lsls	r6, r5, #30
 3939 0052 E8D4     		bmi	.L585
 3940 0054 90F83C50 		ldrb	r5, [r0, #60]	@ zero_extendqisi2
 3941 0058 012D     		cmp	r5, #1
 3942 005a D8D0     		beq	.L586
 3943 005c 0125     		movs	r5, #1
 3944 005e 80F83C50 		strb	r5, [r0, #60]
 3945 0062 2568     		ldr	r5, [r4]
 3946 0064 0026     		movs	r6, #0
 3947 0066 ED07     		lsls	r5, r5, #31
 3948 0068 58BF     		it	pl
 3949 006a 2568     		ldrpl	r5, [r4]
 3950 006c 184F     		ldr	r7, .L593+4
 3951 006e 5CBF     		itt	pl
 3952 0070 45F00105 		orrpl	r5, r5, #1
 3953 0074 2560     		strpl	r5, [r4]
 3954 0076 2568     		ldr	r5, [r4]
 3955 0078 25F40065 		bic	r5, r5, #2048
 3956 007c 2560     		str	r5, [r4]
 3957 007e 2225     		movs	r5, #34
 3958 0080 80F83D50 		strb	r5, [r0, #61]
 3959 0084 4025     		movs	r5, #64
 3960 0086 80F83E50 		strb	r5, [r0, #62]
 3961 008a 089D     		ldr	r5, [sp, #32]
 3962 008c 0664     		str	r6, [r0, #64]
 3963 008e 4562     		str	r5, [r0, #36]
 3964 0090 BDF82450 		ldrh	r5, [sp, #36]
 3965 0094 4585     		strh	r5, [r0, #42]	@ movhi
 3966 0096 458D     		ldrh	r5, [r0, #42]
 3967 0098 C762     		str	r7, [r0, #44]
ARM GAS  /tmp/ccfpVwxB.s 			page 69


 3968 009a 4164     		str	r1, [r0, #68]
 3969 009c 8264     		str	r2, [r0, #72]
 3970 009e C364     		str	r3, [r0, #76]
 3971 00a0 0665     		str	r6, [r0, #80]
 3972 00a2 2368     		ldr	r3, [r4]
 3973 00a4 ADB2     		uxth	r5, r5
 3974 00a6 43F48063 		orr	r3, r3, #1024
 3975 00aa 0585     		strh	r5, [r0, #40]	@ movhi
 3976 00ac 2360     		str	r3, [r4]
 3977 00ae 2368     		ldr	r3, [r4]
 3978 00b0 43F48073 		orr	r3, r3, #256
 3979 00b4 2360     		str	r3, [r4]
 3980 00b6 80F83C60 		strb	r6, [r0, #60]
 3981 00ba 2DB1     		cbz	r5, .L588
 3982 00bc 6368     		ldr	r3, [r4, #4]
 3983 00be 3046     		mov	r0, r6
 3984 00c0 43F4E063 		orr	r3, r3, #1792
 3985 00c4 6360     		str	r3, [r4, #4]
 3986 00c6 A3E7     		b	.L583
 3987              	.L588:
 3988 00c8 2846     		mov	r0, r5
 3989 00ca A1E7     		b	.L583
 3990              	.L594:
 3991              		.align	2
 3992              	.L593:
 3993 00cc 00000000 		.word	SystemCoreClock
 3994 00d0 0000FFFF 		.word	-65536
 3996              		.section	.text.HAL_I2C_Mem_Write_DMA,"ax",%progbits
 3997              		.align	1
 3998              		.global	HAL_I2C_Mem_Write_DMA
 3999              		.syntax unified
 4000              		.thumb
 4001              		.thumb_func
 4002              		.fpu softvfp
 4004              	HAL_I2C_Mem_Write_DMA:
 4005              		@ args = 8, pretend = 0, frame = 8
 4006              		@ frame_needed = 0, uses_anonymous_args = 0
 4007 0000 2DE9FF47 		push	{r0, r1, r2, r3, r4, r5, r6, r7, r8, r9, r10, lr}
 4008 0004 9946     		mov	r9, r3
 4009 0006 0023     		movs	r3, #0
 4010 0008 0446     		mov	r4, r0
 4011 000a 0293     		str	r3, [sp, #8]
 4012 000c 0F46     		mov	r7, r1
 4013 000e 9046     		mov	r8, r2
 4014 0010 0C9E     		ldr	r6, [sp, #48]
 4015 0012 FFF7FEFF 		bl	HAL_GetTick
 4016 0016 94F83D30 		ldrb	r3, [r4, #61]	@ zero_extendqisi2
 4017 001a 8246     		mov	r10, r0
 4018 001c 202B     		cmp	r3, #32
 4019 001e 03D0     		beq	.L596
 4020              	.L600:
 4021 0020 0220     		movs	r0, #2
 4022              	.L597:
 4023 0022 04B0     		add	sp, sp, #16
 4024              		@ sp needed
 4025 0024 BDE8F087 		pop	{r4, r5, r6, r7, r8, r9, r10, pc}
 4026              	.L596:
ARM GAS  /tmp/ccfpVwxB.s 			page 70


 4027 0028 46F2A812 		movw	r2, #25000
 4028 002c 404B     		ldr	r3, .L610
 4029 002e 1B68     		ldr	r3, [r3]
 4030 0030 B3FBF2F2 		udiv	r2, r3, r2
 4031 0034 1923     		movs	r3, #25
 4032 0036 5343     		muls	r3, r2, r3
 4033 0038 0293     		str	r3, [sp, #8]
 4034              	.L599:
 4035 003a 029B     		ldr	r3, [sp, #8]
 4036 003c 013B     		subs	r3, r3, #1
 4037 003e 0293     		str	r3, [sp, #8]
 4038 0040 029B     		ldr	r3, [sp, #8]
 4039 0042 63B9     		cbnz	r3, .L598
 4040 0044 2022     		movs	r2, #32
 4041 0046 2363     		str	r3, [r4, #48]
 4042 0048 84F83D20 		strb	r2, [r4, #61]
 4043 004c 84F83E30 		strb	r3, [r4, #62]
 4044 0050 226C     		ldr	r2, [r4, #64]
 4045 0052 42F02002 		orr	r2, r2, #32
 4046              	.L609:
 4047 0056 2264     		str	r2, [r4, #64]
 4048 0058 84F83C30 		strb	r3, [r4, #60]
 4049 005c 5DE0     		b	.L604
 4050              	.L598:
 4051 005e 2268     		ldr	r2, [r4]
 4052 0060 9369     		ldr	r3, [r2, #24]
 4053 0062 9907     		lsls	r1, r3, #30
 4054 0064 E9D4     		bmi	.L599
 4055 0066 94F83C30 		ldrb	r3, [r4, #60]	@ zero_extendqisi2
 4056 006a 012B     		cmp	r3, #1
 4057 006c D8D0     		beq	.L600
 4058 006e 0123     		movs	r3, #1
 4059 0070 84F83C30 		strb	r3, [r4, #60]
 4060 0074 1368     		ldr	r3, [r2]
 4061 0076 0025     		movs	r5, #0
 4062 0078 DB07     		lsls	r3, r3, #31
 4063 007a 58BF     		it	pl
 4064 007c 1368     		ldrpl	r3, [r2]
 4065 007e 2D49     		ldr	r1, .L610+4
 4066 0080 5CBF     		itt	pl
 4067 0082 43F00103 		orrpl	r3, r3, #1
 4068 0086 1360     		strpl	r3, [r2]
 4069 0088 1368     		ldr	r3, [r2]
 4070 008a 23F40063 		bic	r3, r3, #2048
 4071 008e 1360     		str	r3, [r2]
 4072 0090 2123     		movs	r3, #33
 4073 0092 84F83D30 		strb	r3, [r4, #61]
 4074 0096 4023     		movs	r3, #64
 4075 0098 84F83E30 		strb	r3, [r4, #62]
 4076 009c BDF83430 		ldrh	r3, [sp, #52]
 4077 00a0 2564     		str	r5, [r4, #64]
 4078 00a2 6385     		strh	r3, [r4, #42]	@ movhi
 4079 00a4 638D     		ldrh	r3, [r4, #42]
 4080 00a6 6662     		str	r6, [r4, #36]
 4081 00a8 9BB2     		uxth	r3, r3
 4082 00aa 2385     		strh	r3, [r4, #40]	@ movhi
 4083 00ac E162     		str	r1, [r4, #44]
ARM GAS  /tmp/ccfpVwxB.s 			page 71


 4084 00ae 002B     		cmp	r3, #0
 4085 00b0 35D0     		beq	.L602
 4086 00b2 606B     		ldr	r0, [r4, #52]
 4087 00b4 2049     		ldr	r1, .L610+8
 4088 00b6 C562     		str	r5, [r0, #44]
 4089 00b8 8162     		str	r1, [r0, #40]
 4090 00ba 2049     		ldr	r1, .L610+12
 4091 00bc 4563     		str	r5, [r0, #52]
 4092 00be 0163     		str	r1, [r0, #48]
 4093 00c0 1032     		adds	r2, r2, #16
 4094 00c2 3146     		mov	r1, r6
 4095 00c4 FFF7FEFF 		bl	HAL_DMA_Start_IT
 4096 00c8 E0B9     		cbnz	r0, .L603
 4097 00ca 2323     		movs	r3, #35
 4098 00cc CDF804A0 		str	r10, [sp, #4]
 4099 00d0 0093     		str	r3, [sp]
 4100 00d2 4246     		mov	r2, r8
 4101 00d4 4B46     		mov	r3, r9
 4102 00d6 3946     		mov	r1, r7
 4103 00d8 2046     		mov	r0, r4
 4104 00da FFF7FEFF 		bl	I2C_RequestMemoryWrite
 4105 00de E0B9     		cbnz	r0, .L604
 4106 00e0 2368     		ldr	r3, [r4]
 4107 00e2 0390     		str	r0, [sp, #12]
 4108 00e4 5A69     		ldr	r2, [r3, #20]
 4109 00e6 0392     		str	r2, [sp, #12]
 4110 00e8 9A69     		ldr	r2, [r3, #24]
 4111 00ea 84F83C00 		strb	r0, [r4, #60]
 4112 00ee 0392     		str	r2, [sp, #12]
 4113 00f0 039A     		ldr	r2, [sp, #12]
 4114 00f2 5A68     		ldr	r2, [r3, #4]
 4115 00f4 42F48072 		orr	r2, r2, #256
 4116 00f8 5A60     		str	r2, [r3, #4]
 4117 00fa 5A68     		ldr	r2, [r3, #4]
 4118 00fc 42F40062 		orr	r2, r2, #2048
 4119 0100 5A60     		str	r2, [r3, #4]
 4120 0102 8EE7     		b	.L597
 4121              	.L603:
 4122 0104 2023     		movs	r3, #32
 4123 0106 84F83D30 		strb	r3, [r4, #61]
 4124 010a 84F83E50 		strb	r5, [r4, #62]
 4125 010e 236C     		ldr	r3, [r4, #64]
 4126 0110 84F83C50 		strb	r5, [r4, #60]
 4127 0114 43F01003 		orr	r3, r3, #16
 4128 0118 2364     		str	r3, [r4, #64]
 4129              	.L604:
 4130 011a 0120     		movs	r0, #1
 4131 011c 81E7     		b	.L597
 4132              	.L602:
 4133 011e 2022     		movs	r2, #32
 4134 0120 84F83D20 		strb	r2, [r4, #61]
 4135 0124 84F83E30 		strb	r3, [r4, #62]
 4136 0128 226C     		ldr	r2, [r4, #64]
 4137 012a 42F04002 		orr	r2, r2, #64
 4138 012e 92E7     		b	.L609
 4139              	.L611:
 4140              		.align	2
ARM GAS  /tmp/ccfpVwxB.s 			page 72


 4141              	.L610:
 4142 0130 00000000 		.word	SystemCoreClock
 4143 0134 0000FFFF 		.word	-65536
 4144 0138 00000000 		.word	I2C_DMAXferCplt
 4145 013c 00000000 		.word	I2C_DMAError
 4147              		.section	.text.HAL_I2C_Mem_Read_DMA,"ax",%progbits
 4148              		.align	1
 4149              		.global	HAL_I2C_Mem_Read_DMA
 4150              		.syntax unified
 4151              		.thumb
 4152              		.thumb_func
 4153              		.fpu softvfp
 4155              	HAL_I2C_Mem_Read_DMA:
 4156              		@ args = 8, pretend = 0, frame = 16
 4157              		@ frame_needed = 0, uses_anonymous_args = 0
 4158 0000 2DE9F047 		push	{r4, r5, r6, r7, r8, r9, r10, lr}
 4159 0004 86B0     		sub	sp, sp, #24
 4160 0006 0446     		mov	r4, r0
 4161 0008 9846     		mov	r8, r3
 4162 000a 0E46     		mov	r6, r1
 4163 000c 1746     		mov	r7, r2
 4164 000e DDF838A0 		ldr	r10, [sp, #56]
 4165 0012 FFF7FEFF 		bl	HAL_GetTick
 4166 0016 0023     		movs	r3, #0
 4167 0018 0393     		str	r3, [sp, #12]
 4168 001a 94F83D30 		ldrb	r3, [r4, #61]	@ zero_extendqisi2
 4169 001e 8146     		mov	r9, r0
 4170 0020 202B     		cmp	r3, #32
 4171 0022 03D0     		beq	.L613
 4172              	.L617:
 4173 0024 0220     		movs	r0, #2
 4174              	.L614:
 4175 0026 06B0     		add	sp, sp, #24
 4176              		@ sp needed
 4177 0028 BDE8F087 		pop	{r4, r5, r6, r7, r8, r9, r10, pc}
 4178              	.L613:
 4179 002c 46F2A812 		movw	r2, #25000
 4180 0030 524B     		ldr	r3, .L630
 4181 0032 1B68     		ldr	r3, [r3]
 4182 0034 B3FBF2F2 		udiv	r2, r3, r2
 4183 0038 1923     		movs	r3, #25
 4184 003a 5343     		muls	r3, r2, r3
 4185 003c 0393     		str	r3, [sp, #12]
 4186              	.L616:
 4187 003e 039B     		ldr	r3, [sp, #12]
 4188 0040 013B     		subs	r3, r3, #1
 4189 0042 0393     		str	r3, [sp, #12]
 4190 0044 039B     		ldr	r3, [sp, #12]
 4191 0046 6BB9     		cbnz	r3, .L615
 4192 0048 2022     		movs	r2, #32
 4193 004a 2363     		str	r3, [r4, #48]
 4194 004c 84F83D20 		strb	r2, [r4, #61]
 4195 0050 84F83E30 		strb	r3, [r4, #62]
 4196 0054 226C     		ldr	r2, [r4, #64]
 4197 0056 84F83C30 		strb	r3, [r4, #60]
 4198 005a 42F02002 		orr	r2, r2, #32
 4199 005e 2264     		str	r2, [r4, #64]
ARM GAS  /tmp/ccfpVwxB.s 			page 73


 4200              	.L629:
 4201 0060 0120     		movs	r0, #1
 4202 0062 E0E7     		b	.L614
 4203              	.L615:
 4204 0064 2168     		ldr	r1, [r4]
 4205 0066 8B69     		ldr	r3, [r1, #24]
 4206 0068 9A07     		lsls	r2, r3, #30
 4207 006a E8D4     		bmi	.L616
 4208 006c 94F83C30 		ldrb	r3, [r4, #60]	@ zero_extendqisi2
 4209 0070 012B     		cmp	r3, #1
 4210 0072 D7D0     		beq	.L617
 4211 0074 0123     		movs	r3, #1
 4212 0076 84F83C30 		strb	r3, [r4, #60]
 4213 007a 0B68     		ldr	r3, [r1]
 4214 007c 0025     		movs	r5, #0
 4215 007e DB07     		lsls	r3, r3, #31
 4216 0080 58BF     		it	pl
 4217 0082 0B68     		ldrpl	r3, [r1]
 4218 0084 3E4A     		ldr	r2, .L630+4
 4219 0086 5CBF     		itt	pl
 4220 0088 43F00103 		orrpl	r3, r3, #1
 4221 008c 0B60     		strpl	r3, [r1]
 4222 008e 0B68     		ldr	r3, [r1]
 4223 0090 23F40063 		bic	r3, r3, #2048
 4224 0094 0B60     		str	r3, [r1]
 4225 0096 2223     		movs	r3, #34
 4226 0098 84F83D30 		strb	r3, [r4, #61]
 4227 009c 4023     		movs	r3, #64
 4228 009e 84F83E30 		strb	r3, [r4, #62]
 4229 00a2 BDF83C30 		ldrh	r3, [sp, #60]
 4230 00a6 2564     		str	r5, [r4, #64]
 4231 00a8 6385     		strh	r3, [r4, #42]	@ movhi
 4232 00aa 638D     		ldrh	r3, [r4, #42]
 4233 00ac C4F824A0 		str	r10, [r4, #36]
 4234 00b0 9BB2     		uxth	r3, r3
 4235 00b2 2385     		strh	r3, [r4, #40]	@ movhi
 4236 00b4 E262     		str	r2, [r4, #44]
 4237 00b6 002B     		cmp	r3, #0
 4238 00b8 43D0     		beq	.L619
 4239 00ba A06B     		ldr	r0, [r4, #56]
 4240 00bc 314A     		ldr	r2, .L630+8
 4241 00be C562     		str	r5, [r0, #44]
 4242 00c0 8262     		str	r2, [r0, #40]
 4243 00c2 314A     		ldr	r2, .L630+12
 4244 00c4 4563     		str	r5, [r0, #52]
 4245 00c6 0263     		str	r2, [r0, #48]
 4246 00c8 1031     		adds	r1, r1, #16
 4247 00ca 5246     		mov	r2, r10
 4248 00cc FFF7FEFF 		bl	HAL_DMA_Start_IT
 4249 00d0 0028     		cmp	r0, #0
 4250 00d2 2AD1     		bne	.L620
 4251 00d4 2323     		movs	r3, #35
 4252 00d6 CDF80490 		str	r9, [sp, #4]
 4253 00da 0093     		str	r3, [sp]
 4254 00dc 3A46     		mov	r2, r7
 4255 00de 4346     		mov	r3, r8
 4256 00e0 3146     		mov	r1, r6
ARM GAS  /tmp/ccfpVwxB.s 			page 74


 4257 00e2 2046     		mov	r0, r4
 4258 00e4 FFF7FEFF 		bl	I2C_RequestMemoryRead
 4259 00e8 0028     		cmp	r0, #0
 4260 00ea B9D1     		bne	.L629
 4261 00ec 238D     		ldrh	r3, [r4, #40]
 4262 00ee 012B     		cmp	r3, #1
 4263 00f0 2368     		ldr	r3, [r4]
 4264 00f2 0BBF     		itete	eq
 4265 00f4 1A68     		ldreq	r2, [r3]
 4266 00f6 5A68     		ldrne	r2, [r3, #4]
 4267 00f8 22F48062 		biceq	r2, r2, #1024
 4268 00fc 42F48052 		orrne	r2, r2, #4096
 4269 0100 0CBF     		ite	eq
 4270 0102 1A60     		streq	r2, [r3]
 4271 0104 5A60     		strne	r2, [r3, #4]
 4272 0106 0022     		movs	r2, #0
 4273 0108 0492     		str	r2, [sp, #16]
 4274 010a 5969     		ldr	r1, [r3, #20]
 4275 010c 0491     		str	r1, [sp, #16]
 4276 010e 9969     		ldr	r1, [r3, #24]
 4277 0110 84F83C20 		strb	r2, [r4, #60]
 4278 0114 0491     		str	r1, [sp, #16]
 4279 0116 0499     		ldr	r1, [sp, #16]
 4280 0118 5A68     		ldr	r2, [r3, #4]
 4281 011a 42F48072 		orr	r2, r2, #256
 4282 011e 5A60     		str	r2, [r3, #4]
 4283 0120 5A68     		ldr	r2, [r3, #4]
 4284 0122 42F40062 		orr	r2, r2, #2048
 4285 0126 5A60     		str	r2, [r3, #4]
 4286 0128 7DE7     		b	.L614
 4287              	.L620:
 4288 012a 2023     		movs	r3, #32
 4289 012c 84F83D30 		strb	r3, [r4, #61]
 4290 0130 84F83E50 		strb	r5, [r4, #62]
 4291 0134 236C     		ldr	r3, [r4, #64]
 4292 0136 84F83C50 		strb	r5, [r4, #60]
 4293 013a 43F01003 		orr	r3, r3, #16
 4294 013e 2364     		str	r3, [r4, #64]
 4295 0140 8EE7     		b	.L629
 4296              	.L619:
 4297 0142 2323     		movs	r3, #35
 4298 0144 CDF80490 		str	r9, [sp, #4]
 4299 0148 0093     		str	r3, [sp]
 4300 014a 3A46     		mov	r2, r7
 4301 014c 4346     		mov	r3, r8
 4302 014e 3146     		mov	r1, r6
 4303 0150 2046     		mov	r0, r4
 4304 0152 FFF7FEFF 		bl	I2C_RequestMemoryRead
 4305 0156 0028     		cmp	r0, #0
 4306 0158 82D1     		bne	.L629
 4307 015a 2368     		ldr	r3, [r4]
 4308 015c 0590     		str	r0, [sp, #20]
 4309 015e 5A69     		ldr	r2, [r3, #20]
 4310 0160 0592     		str	r2, [sp, #20]
 4311 0162 9A69     		ldr	r2, [r3, #24]
 4312 0164 0592     		str	r2, [sp, #20]
 4313 0166 059A     		ldr	r2, [sp, #20]
ARM GAS  /tmp/ccfpVwxB.s 			page 75


 4314 0168 1A68     		ldr	r2, [r3]
 4315 016a 42F40072 		orr	r2, r2, #512
 4316 016e 1A60     		str	r2, [r3]
 4317 0170 2023     		movs	r3, #32
 4318 0172 84F83C00 		strb	r0, [r4, #60]
 4319 0176 84F83D30 		strb	r3, [r4, #61]
 4320 017a 54E7     		b	.L614
 4321              	.L631:
 4322              		.align	2
 4323              	.L630:
 4324 017c 00000000 		.word	SystemCoreClock
 4325 0180 0000FFFF 		.word	-65536
 4326 0184 00000000 		.word	I2C_DMAXferCplt
 4327 0188 00000000 		.word	I2C_DMAError
 4329              		.section	.text.HAL_I2C_IsDeviceReady,"ax",%progbits
 4330              		.align	1
 4331              		.global	HAL_I2C_IsDeviceReady
 4332              		.syntax unified
 4333              		.thumb
 4334              		.thumb_func
 4335              		.fpu softvfp
 4337              	HAL_I2C_IsDeviceReady:
 4338              		@ args = 0, pretend = 0, frame = 8
 4339              		@ frame_needed = 0, uses_anonymous_args = 0
 4340 0000 2DE9F04F 		push	{r4, r5, r6, r7, r8, r9, r10, fp, lr}
 4341 0004 0446     		mov	r4, r0
 4342 0006 85B0     		sub	sp, sp, #20
 4343 0008 9846     		mov	r8, r3
 4344 000a 8946     		mov	r9, r1
 4345 000c 9246     		mov	r10, r2
 4346 000e FFF7FEFF 		bl	HAL_GetTick
 4347 0012 94F83D30 		ldrb	r3, [r4, #61]	@ zero_extendqisi2
 4348 0016 0546     		mov	r5, r0
 4349 0018 202B     		cmp	r3, #32
 4350 001a 03D0     		beq	.L633
 4351              	.L635:
 4352 001c 0220     		movs	r0, #2
 4353              	.L634:
 4354 001e 05B0     		add	sp, sp, #20
 4355              		@ sp needed
 4356 0020 BDE8F08F 		pop	{r4, r5, r6, r7, r8, r9, r10, fp, pc}
 4357              	.L633:
 4358 0024 0090     		str	r0, [sp]
 4359 0026 1923     		movs	r3, #25
 4360 0028 0122     		movs	r2, #1
 4361 002a 4949     		ldr	r1, .L654
 4362 002c 2046     		mov	r0, r4
 4363 002e FFF7FEFF 		bl	I2C_WaitOnFlagUntilTimeout
 4364 0032 0028     		cmp	r0, #0
 4365 0034 F2D1     		bne	.L635
 4366 0036 94F83C30 		ldrb	r3, [r4, #60]	@ zero_extendqisi2
 4367 003a 012B     		cmp	r3, #1
 4368 003c EED0     		beq	.L635
 4369 003e 0123     		movs	r3, #1
 4370 0040 84F83C30 		strb	r3, [r4, #60]
 4371 0044 2368     		ldr	r3, [r4]
 4372 0046 0127     		movs	r7, #1
ARM GAS  /tmp/ccfpVwxB.s 			page 76


 4373 0048 1A68     		ldr	r2, [r3]
 4374 004a DFF804B1 		ldr	fp, .L654
 4375 004e D207     		lsls	r2, r2, #31
 4376 0050 58BF     		it	pl
 4377 0052 1A68     		ldrpl	r2, [r3]
 4378 0054 09F0FE09 		and	r9, r9, #254
 4379 0058 5CBF     		itt	pl
 4380 005a 42F00102 		orrpl	r2, r2, #1
 4381 005e 1A60     		strpl	r2, [r3]
 4382 0060 1A68     		ldr	r2, [r3]
 4383 0062 22F40062 		bic	r2, r2, #2048
 4384 0066 1A60     		str	r2, [r3]
 4385 0068 2423     		movs	r3, #36
 4386 006a 84F83D30 		strb	r3, [r4, #61]
 4387 006e 0023     		movs	r3, #0
 4388 0070 2364     		str	r3, [r4, #64]
 4389 0072 A3F58033 		sub	r3, r3, #65536
 4390 0076 E362     		str	r3, [r4, #44]
 4391              	.L645:
 4392 0078 2268     		ldr	r2, [r4]
 4393 007a 4FF00111 		mov	r1, #65537
 4394 007e 1368     		ldr	r3, [r2]
 4395 0080 2046     		mov	r0, r4
 4396 0082 43F48073 		orr	r3, r3, #256
 4397 0086 1360     		str	r3, [r2]
 4398 0088 0095     		str	r5, [sp]
 4399 008a 4346     		mov	r3, r8
 4400 008c 0022     		movs	r2, #0
 4401 008e FFF7FEFF 		bl	I2C_WaitOnFlagUntilTimeout
 4402 0092 08B1     		cbz	r0, .L637
 4403              	.L653:
 4404 0094 0120     		movs	r0, #1
 4405 0096 C2E7     		b	.L634
 4406              	.L637:
 4407 0098 2368     		ldr	r3, [r4]
 4408 009a A026     		movs	r6, #160
 4409 009c C3F81090 		str	r9, [r3, #16]
 4410 00a0 FFF7FEFF 		bl	HAL_GetTick
 4411 00a4 0546     		mov	r5, r0
 4412 00a6 2368     		ldr	r3, [r4]
 4413 00a8 5A69     		ldr	r2, [r3, #20]
 4414 00aa 5B69     		ldr	r3, [r3, #20]
 4415 00ac C2F34002 		ubfx	r2, r2, #1, #1
 4416 00b0 C3F38023 		ubfx	r3, r3, #10, #1
 4417              	.L638:
 4418 00b4 94F83D10 		ldrb	r1, [r4, #61]	@ zero_extendqisi2
 4419 00b8 A029     		cmp	r1, #160
 4420 00ba 01D0     		beq	.L641
 4421 00bc 02B9     		cbnz	r2, .L641
 4422 00be 03B3     		cbz	r3, .L642
 4423              	.L641:
 4424 00c0 2026     		movs	r6, #32
 4425 00c2 2368     		ldr	r3, [r4]
 4426 00c4 84F83D60 		strb	r6, [r4, #61]
 4427 00c8 5A69     		ldr	r2, [r3, #20]
 4428 00ca 12F0020F 		tst	r2, #2
 4429 00ce 1A68     		ldr	r2, [r3]
ARM GAS  /tmp/ccfpVwxB.s 			page 77


 4430 00d0 42F40072 		orr	r2, r2, #512
 4431 00d4 1A60     		str	r2, [r3]
 4432 00d6 26D0     		beq	.L643
 4433 00d8 0022     		movs	r2, #0
 4434 00da 0392     		str	r2, [sp, #12]
 4435 00dc 5A69     		ldr	r2, [r3, #20]
 4436 00de 1C49     		ldr	r1, .L654
 4437 00e0 0392     		str	r2, [sp, #12]
 4438 00e2 9B69     		ldr	r3, [r3, #24]
 4439 00e4 0122     		movs	r2, #1
 4440 00e6 0393     		str	r3, [sp, #12]
 4441 00e8 039B     		ldr	r3, [sp, #12]
 4442 00ea 0095     		str	r5, [sp]
 4443 00ec 1923     		movs	r3, #25
 4444 00ee 2046     		mov	r0, r4
 4445 00f0 FFF7FEFF 		bl	I2C_WaitOnFlagUntilTimeout
 4446 00f4 0028     		cmp	r0, #0
 4447 00f6 CDD1     		bne	.L653
 4448 00f8 84F83D60 		strb	r6, [r4, #61]
 4449 00fc 84F83C00 		strb	r0, [r4, #60]
 4450 0100 8DE7     		b	.L634
 4451              	.L642:
 4452 0102 FFF7FEFF 		bl	HAL_GetTick
 4453 0106 401B     		subs	r0, r0, r5
 4454 0108 8045     		cmp	r8, r0
 4455 010a 02D3     		bcc	.L639
 4456 010c B8F1000F 		cmp	r8, #0
 4457 0110 01D1     		bne	.L640
 4458              	.L639:
 4459 0112 84F83D60 		strb	r6, [r4, #61]
 4460              	.L640:
 4461 0116 2368     		ldr	r3, [r4]
 4462 0118 5A69     		ldr	r2, [r3, #20]
 4463 011a 5B69     		ldr	r3, [r3, #20]
 4464 011c C2F34002 		ubfx	r2, r2, #1, #1
 4465 0120 C3F38023 		ubfx	r3, r3, #10, #1
 4466 0124 C6E7     		b	.L638
 4467              	.L643:
 4468 0126 6FF48062 		mvn	r2, #1024
 4469 012a 5946     		mov	r1, fp
 4470 012c 5A61     		str	r2, [r3, #20]
 4471 012e 2046     		mov	r0, r4
 4472 0130 0095     		str	r5, [sp]
 4473 0132 1923     		movs	r3, #25
 4474 0134 0122     		movs	r2, #1
 4475 0136 FFF7FEFF 		bl	I2C_WaitOnFlagUntilTimeout
 4476 013a 0028     		cmp	r0, #0
 4477 013c AAD1     		bne	.L653
 4478 013e 0137     		adds	r7, r7, #1
 4479 0140 5745     		cmp	r7, r10
 4480 0142 99D3     		bcc	.L645
 4481 0144 84F83D60 		strb	r6, [r4, #61]
 4482 0148 84F83C00 		strb	r0, [r4, #60]
 4483 014c A2E7     		b	.L653
 4484              	.L655:
 4485 014e 00BF     		.align	2
 4486              	.L654:
ARM GAS  /tmp/ccfpVwxB.s 			page 78


 4487 0150 02001000 		.word	1048578
 4489              		.section	.text.HAL_I2C_Master_Seq_Transmit_IT,"ax",%progbits
 4490              		.align	1
 4491              		.global	HAL_I2C_Master_Seq_Transmit_IT
 4492              		.syntax unified
 4493              		.thumb
 4494              		.thumb_func
 4495              		.fpu softvfp
 4497              	HAL_I2C_Master_Seq_Transmit_IT:
 4498              		@ args = 4, pretend = 0, frame = 8
 4499              		@ frame_needed = 0, uses_anonymous_args = 0
 4500 0000 73B5     		push	{r0, r1, r4, r5, r6, lr}
 4501 0002 0024     		movs	r4, #0
 4502 0004 0094     		str	r4, [sp]
 4503 0006 0194     		str	r4, [sp, #4]
 4504 0008 90F83D40 		ldrb	r4, [r0, #61]	@ zero_extendqisi2
 4505 000c 069D     		ldr	r5, [sp, #24]
 4506 000e 202C     		cmp	r4, #32
 4507 0010 02D0     		beq	.L657
 4508              	.L660:
 4509 0012 0220     		movs	r0, #2
 4510              	.L658:
 4511 0014 02B0     		add	sp, sp, #8
 4512              		@ sp needed
 4513 0016 70BD     		pop	{r4, r5, r6, pc}
 4514              	.L657:
 4515 0018 082D     		cmp	r5, #8
 4516 001a 3AD0     		beq	.L659
 4517 001c 012D     		cmp	r5, #1
 4518 001e 38D0     		beq	.L659
 4519              	.L664:
 4520 0020 90F83C40 		ldrb	r4, [r0, #60]	@ zero_extendqisi2
 4521 0024 012C     		cmp	r4, #1
 4522 0026 F4D0     		beq	.L660
 4523 0028 0124     		movs	r4, #1
 4524 002a 80F83C40 		strb	r4, [r0, #60]
 4525 002e 0468     		ldr	r4, [r0]
 4526 0030 2668     		ldr	r6, [r4]
 4527 0032 F607     		lsls	r6, r6, #31
 4528 0034 5EBF     		ittt	pl
 4529 0036 2668     		ldrpl	r6, [r4]
 4530 0038 46F00106 		orrpl	r6, r6, #1
 4531 003c 2660     		strpl	r6, [r4]
 4532 003e 2668     		ldr	r6, [r4]
 4533 0040 26F40066 		bic	r6, r6, #2048
 4534 0044 2660     		str	r6, [r4]
 4535 0046 2126     		movs	r6, #33
 4536 0048 80F83D60 		strb	r6, [r0, #61]
 4537 004c 1026     		movs	r6, #16
 4538 004e 80F83E60 		strb	r6, [r0, #62]
 4539 0052 0026     		movs	r6, #0
 4540 0054 0664     		str	r6, [r0, #64]
 4541 0056 4385     		strh	r3, [r0, #42]	@ movhi
 4542 0058 438D     		ldrh	r3, [r0, #42]
 4543 005a C562     		str	r5, [r0, #44]
 4544 005c 4164     		str	r1, [r0, #68]
 4545 005e 0385     		strh	r3, [r0, #40]	@ movhi
ARM GAS  /tmp/ccfpVwxB.s 			page 79


 4546 0060 036B     		ldr	r3, [r0, #48]
 4547 0062 4262     		str	r2, [r0, #36]
 4548 0064 0093     		str	r3, [sp]
 4549 0066 009B     		ldr	r3, [sp]
 4550 0068 112B     		cmp	r3, #17
 4551 006a 05D1     		bne	.L666
 4552 006c B5F52A0F 		cmp	r5, #11141120
 4553 0070 02D0     		beq	.L666
 4554 0072 B5F12A4F 		cmp	r5, #-1442840576
 4555 0076 03D1     		bne	.L667
 4556              	.L666:
 4557 0078 2368     		ldr	r3, [r4]
 4558 007a 43F48073 		orr	r3, r3, #256
 4559 007e 2360     		str	r3, [r4]
 4560              	.L667:
 4561 0080 0023     		movs	r3, #0
 4562 0082 6268     		ldr	r2, [r4, #4]
 4563 0084 80F83C30 		strb	r3, [r0, #60]
 4564 0088 42F4E062 		orr	r2, r2, #1792
 4565 008c 6260     		str	r2, [r4, #4]
 4566 008e 1846     		mov	r0, r3
 4567 0090 C0E7     		b	.L658
 4568              	.L659:
 4569 0092 46F2A816 		movw	r6, #25000
 4570 0096 0F4C     		ldr	r4, .L682
 4571 0098 2468     		ldr	r4, [r4]
 4572 009a B4FBF6F6 		udiv	r6, r4, r6
 4573 009e 1924     		movs	r4, #25
 4574 00a0 7443     		muls	r4, r6, r4
 4575 00a2 0194     		str	r4, [sp, #4]
 4576              	.L663:
 4577 00a4 019C     		ldr	r4, [sp, #4]
 4578 00a6 013C     		subs	r4, r4, #1
 4579 00a8 0194     		str	r4, [sp, #4]
 4580 00aa 019C     		ldr	r4, [sp, #4]
 4581 00ac 6CB9     		cbnz	r4, .L662
 4582 00ae 2023     		movs	r3, #32
 4583 00b0 0463     		str	r4, [r0, #48]
 4584 00b2 80F83D30 		strb	r3, [r0, #61]
 4585 00b6 80F83E40 		strb	r4, [r0, #62]
 4586 00ba 036C     		ldr	r3, [r0, #64]
 4587 00bc 80F83C40 		strb	r4, [r0, #60]
 4588 00c0 43F02003 		orr	r3, r3, #32
 4589 00c4 0364     		str	r3, [r0, #64]
 4590 00c6 0120     		movs	r0, #1
 4591 00c8 A4E7     		b	.L658
 4592              	.L662:
 4593 00ca 0468     		ldr	r4, [r0]
 4594 00cc A469     		ldr	r4, [r4, #24]
 4595 00ce A407     		lsls	r4, r4, #30
 4596 00d0 E8D4     		bmi	.L663
 4597 00d2 A5E7     		b	.L664
 4598              	.L683:
 4599              		.align	2
 4600              	.L682:
 4601 00d4 00000000 		.word	SystemCoreClock
 4603              		.section	.text.HAL_I2C_Master_Seq_Transmit_DMA,"ax",%progbits
ARM GAS  /tmp/ccfpVwxB.s 			page 80


 4604              		.align	1
 4605              		.global	HAL_I2C_Master_Seq_Transmit_DMA
 4606              		.syntax unified
 4607              		.thumb
 4608              		.thumb_func
 4609              		.fpu softvfp
 4611              	HAL_I2C_Master_Seq_Transmit_DMA:
 4612              		@ args = 4, pretend = 0, frame = 8
 4613              		@ frame_needed = 0, uses_anonymous_args = 0
 4614 0000 F7B5     		push	{r0, r1, r2, r4, r5, r6, r7, lr}
 4615 0002 0F46     		mov	r7, r1
 4616 0004 1146     		mov	r1, r2
 4617 0006 0022     		movs	r2, #0
 4618 0008 0092     		str	r2, [sp]
 4619 000a 0192     		str	r2, [sp, #4]
 4620 000c 90F83D20 		ldrb	r2, [r0, #61]	@ zero_extendqisi2
 4621 0010 0446     		mov	r4, r0
 4622 0012 202A     		cmp	r2, #32
 4623 0014 089D     		ldr	r5, [sp, #32]
 4624 0016 02D0     		beq	.L685
 4625              	.L688:
 4626 0018 0220     		movs	r0, #2
 4627              	.L686:
 4628 001a 03B0     		add	sp, sp, #12
 4629              		@ sp needed
 4630 001c F0BD     		pop	{r4, r5, r6, r7, pc}
 4631              	.L685:
 4632 001e 082D     		cmp	r5, #8
 4633 0020 59D0     		beq	.L687
 4634 0022 012D     		cmp	r5, #1
 4635 0024 57D0     		beq	.L687
 4636              	.L692:
 4637 0026 94F83C20 		ldrb	r2, [r4, #60]	@ zero_extendqisi2
 4638 002a 012A     		cmp	r2, #1
 4639 002c F4D0     		beq	.L688
 4640 002e 0122     		movs	r2, #1
 4641 0030 84F83C20 		strb	r2, [r4, #60]
 4642 0034 2268     		ldr	r2, [r4]
 4643 0036 0026     		movs	r6, #0
 4644 0038 1068     		ldr	r0, [r2]
 4645 003a C007     		lsls	r0, r0, #31
 4646 003c 5EBF     		ittt	pl
 4647 003e 1068     		ldrpl	r0, [r2]
 4648 0040 40F00100 		orrpl	r0, r0, #1
 4649 0044 1060     		strpl	r0, [r2]
 4650 0046 1068     		ldr	r0, [r2]
 4651 0048 20F40060 		bic	r0, r0, #2048
 4652 004c 1060     		str	r0, [r2]
 4653 004e 2120     		movs	r0, #33
 4654 0050 84F83D00 		strb	r0, [r4, #61]
 4655 0054 1020     		movs	r0, #16
 4656 0056 84F83E00 		strb	r0, [r4, #62]
 4657 005a 2664     		str	r6, [r4, #64]
 4658 005c 6385     		strh	r3, [r4, #42]	@ movhi
 4659 005e 638D     		ldrh	r3, [r4, #42]
 4660 0060 E562     		str	r5, [r4, #44]
 4661 0062 6764     		str	r7, [r4, #68]
ARM GAS  /tmp/ccfpVwxB.s 			page 81


 4662 0064 206B     		ldr	r0, [r4, #48]
 4663 0066 9BB2     		uxth	r3, r3
 4664 0068 6162     		str	r1, [r4, #36]
 4665 006a 2385     		strh	r3, [r4, #40]	@ movhi
 4666 006c 0090     		str	r0, [sp]
 4667 006e 002B     		cmp	r3, #0
 4668 0070 5ED0     		beq	.L694
 4669 0072 606B     		ldr	r0, [r4, #52]
 4670 0074 3B4F     		ldr	r7, .L719
 4671 0076 C662     		str	r6, [r0, #44]
 4672 0078 8762     		str	r7, [r0, #40]
 4673 007a 3B4F     		ldr	r7, .L719+4
 4674 007c 4663     		str	r6, [r0, #52]
 4675 007e 0763     		str	r7, [r0, #48]
 4676 0080 1032     		adds	r2, r2, #16
 4677 0082 FFF7FEFF 		bl	HAL_DMA_Start_IT
 4678 0086 0028     		cmp	r0, #0
 4679 0088 46D1     		bne	.L695
 4680 008a 2368     		ldr	r3, [r4]
 4681 008c 1A68     		ldr	r2, [r3]
 4682 008e 42F48062 		orr	r2, r2, #1024
 4683 0092 1A60     		str	r2, [r3]
 4684 0094 009A     		ldr	r2, [sp]
 4685 0096 112A     		cmp	r2, #17
 4686 0098 05D1     		bne	.L696
 4687 009a B5F52A0F 		cmp	r5, #11141120
 4688 009e 02D0     		beq	.L696
 4689 00a0 B5F12A4F 		cmp	r5, #-1442840576
 4690 00a4 03D1     		bne	.L697
 4691              	.L696:
 4692 00a6 1A68     		ldr	r2, [r3]
 4693 00a8 42F48072 		orr	r2, r2, #256
 4694 00ac 1A60     		str	r2, [r3]
 4695              	.L697:
 4696 00ae 0022     		movs	r2, #0
 4697 00b0 043D     		subs	r5, r5, #4
 4698 00b2 1C2D     		cmp	r5, #28
 4699 00b4 84F83C20 		strb	r2, [r4, #60]
 4700 00b8 08D8     		bhi	.L698
 4701 00ba 2C4A     		ldr	r2, .L719+8
 4702 00bc 22FA05F5 		lsr	r5, r2, r5
 4703 00c0 EA07     		lsls	r2, r5, #31
 4704 00c2 42BF     		ittt	mi
 4705 00c4 5A68     		ldrmi	r2, [r3, #4]
 4706 00c6 42F40062 		orrmi	r2, r2, #2048
 4707 00ca 5A60     		strmi	r2, [r3, #4]
 4708              	.L698:
 4709 00cc 5A68     		ldr	r2, [r3, #4]
 4710 00ce 42F44072 		orr	r2, r2, #768
 4711 00d2 5A60     		str	r2, [r3, #4]
 4712 00d4 A1E7     		b	.L686
 4713              	.L687:
 4714 00d6 46F2A810 		movw	r0, #25000
 4715 00da 254A     		ldr	r2, .L719+12
 4716 00dc 1268     		ldr	r2, [r2]
 4717 00de B2FBF0F0 		udiv	r0, r2, r0
 4718 00e2 1922     		movs	r2, #25
ARM GAS  /tmp/ccfpVwxB.s 			page 82


 4719 00e4 4243     		muls	r2, r0, r2
 4720 00e6 0192     		str	r2, [sp, #4]
 4721              	.L691:
 4722 00e8 019A     		ldr	r2, [sp, #4]
 4723 00ea 013A     		subs	r2, r2, #1
 4724 00ec 0192     		str	r2, [sp, #4]
 4725 00ee 019A     		ldr	r2, [sp, #4]
 4726 00f0 6AB9     		cbnz	r2, .L690
 4727 00f2 2023     		movs	r3, #32
 4728 00f4 2263     		str	r2, [r4, #48]
 4729 00f6 84F83D30 		strb	r3, [r4, #61]
 4730 00fa 84F83E20 		strb	r2, [r4, #62]
 4731 00fe 236C     		ldr	r3, [r4, #64]
 4732 0100 84F83C20 		strb	r2, [r4, #60]
 4733 0104 43F02003 		orr	r3, r3, #32
 4734 0108 2364     		str	r3, [r4, #64]
 4735              	.L718:
 4736 010a 0120     		movs	r0, #1
 4737 010c 85E7     		b	.L686
 4738              	.L690:
 4739 010e 2268     		ldr	r2, [r4]
 4740 0110 9269     		ldr	r2, [r2, #24]
 4741 0112 9607     		lsls	r6, r2, #30
 4742 0114 E8D4     		bmi	.L691
 4743 0116 86E7     		b	.L692
 4744              	.L695:
 4745 0118 2023     		movs	r3, #32
 4746 011a 84F83D30 		strb	r3, [r4, #61]
 4747 011e 84F83E60 		strb	r6, [r4, #62]
 4748 0122 236C     		ldr	r3, [r4, #64]
 4749 0124 84F83C60 		strb	r6, [r4, #60]
 4750 0128 43F01003 		orr	r3, r3, #16
 4751 012c 2364     		str	r3, [r4, #64]
 4752 012e ECE7     		b	.L718
 4753              	.L694:
 4754 0130 1368     		ldr	r3, [r2]
 4755 0132 43F48063 		orr	r3, r3, #1024
 4756 0136 1360     		str	r3, [r2]
 4757 0138 009B     		ldr	r3, [sp]
 4758 013a 112B     		cmp	r3, #17
 4759 013c 05D1     		bne	.L699
 4760 013e B5F52A0F 		cmp	r5, #11141120
 4761 0142 02D0     		beq	.L699
 4762 0144 B5F12A4F 		cmp	r5, #-1442840576
 4763 0148 03D1     		bne	.L700
 4764              	.L699:
 4765 014a 1368     		ldr	r3, [r2]
 4766 014c 43F48073 		orr	r3, r3, #256
 4767 0150 1360     		str	r3, [r2]
 4768              	.L700:
 4769 0152 0020     		movs	r0, #0
 4770 0154 5368     		ldr	r3, [r2, #4]
 4771 0156 84F83C00 		strb	r0, [r4, #60]
 4772 015a 43F4E063 		orr	r3, r3, #1792
 4773 015e 5360     		str	r3, [r2, #4]
 4774 0160 5BE7     		b	.L686
 4775              	.L720:
ARM GAS  /tmp/ccfpVwxB.s 			page 83


 4776 0162 00BF     		.align	2
 4777              	.L719:
 4778 0164 00000000 		.word	I2C_DMAXferCplt
 4779 0168 00000000 		.word	I2C_DMAError
 4780 016c 01100010 		.word	268439553
 4781 0170 00000000 		.word	SystemCoreClock
 4783              		.section	.text.HAL_I2C_Master_Seq_Receive_IT,"ax",%progbits
 4784              		.align	1
 4785              		.global	HAL_I2C_Master_Seq_Receive_IT
 4786              		.syntax unified
 4787              		.thumb
 4788              		.thumb_func
 4789              		.fpu softvfp
 4791              	HAL_I2C_Master_Seq_Receive_IT:
 4792              		@ args = 4, pretend = 0, frame = 8
 4793              		@ frame_needed = 0, uses_anonymous_args = 0
 4794 0000 73B5     		push	{r0, r1, r4, r5, r6, lr}
 4795 0002 0024     		movs	r4, #0
 4796 0004 0094     		str	r4, [sp]
 4797 0006 0194     		str	r4, [sp, #4]
 4798 0008 90F83D40 		ldrb	r4, [r0, #61]	@ zero_extendqisi2
 4799 000c 069D     		ldr	r5, [sp, #24]
 4800 000e 202C     		cmp	r4, #32
 4801 0010 02D0     		beq	.L722
 4802              	.L725:
 4803 0012 0220     		movs	r0, #2
 4804              	.L723:
 4805 0014 02B0     		add	sp, sp, #8
 4806              		@ sp needed
 4807 0016 70BD     		pop	{r4, r5, r6, pc}
 4808              	.L722:
 4809 0018 082D     		cmp	r5, #8
 4810 001a 4ED0     		beq	.L724
 4811 001c 012D     		cmp	r5, #1
 4812 001e 4CD0     		beq	.L724
 4813              	.L729:
 4814 0020 90F83C40 		ldrb	r4, [r0, #60]	@ zero_extendqisi2
 4815 0024 012C     		cmp	r4, #1
 4816 0026 F4D0     		beq	.L725
 4817 0028 0124     		movs	r4, #1
 4818 002a 80F83C40 		strb	r4, [r0, #60]
 4819 002e 0468     		ldr	r4, [r0]
 4820 0030 2668     		ldr	r6, [r4]
 4821 0032 F607     		lsls	r6, r6, #31
 4822 0034 5EBF     		ittt	pl
 4823 0036 2668     		ldrpl	r6, [r4]
 4824 0038 46F00106 		orrpl	r6, r6, #1
 4825 003c 2660     		strpl	r6, [r4]
 4826 003e 2668     		ldr	r6, [r4]
 4827 0040 26F40066 		bic	r6, r6, #2048
 4828 0044 2660     		str	r6, [r4]
 4829 0046 2226     		movs	r6, #34
 4830 0048 80F83D60 		strb	r6, [r0, #61]
 4831 004c 1026     		movs	r6, #16
 4832 004e 80F83E60 		strb	r6, [r0, #62]
 4833 0052 0026     		movs	r6, #0
 4834 0054 0664     		str	r6, [r0, #64]
ARM GAS  /tmp/ccfpVwxB.s 			page 84


 4835 0056 4385     		strh	r3, [r0, #42]	@ movhi
 4836 0058 438D     		ldrh	r3, [r0, #42]
 4837 005a C562     		str	r5, [r0, #44]
 4838 005c 4164     		str	r1, [r0, #68]
 4839 005e 0385     		strh	r3, [r0, #40]	@ movhi
 4840 0060 036B     		ldr	r3, [r0, #48]
 4841 0062 4262     		str	r2, [r0, #36]
 4842 0064 0093     		str	r3, [sp]
 4843 0066 438D     		ldrh	r3, [r0, #42]
 4844 0068 9BB2     		uxth	r3, r3
 4845 006a 022B     		cmp	r3, #2
 4846 006c 46D1     		bne	.L731
 4847 006e 202D     		cmp	r5, #32
 4848 0070 01D0     		beq	.L732
 4849 0072 102D     		cmp	r5, #16
 4850 0074 42D1     		bne	.L731
 4851              	.L732:
 4852 0076 009B     		ldr	r3, [sp]
 4853 0078 122B     		cmp	r3, #18
 4854 007a 2368     		ldr	r3, [r4]
 4855 007c 3FD1     		bne	.L754
 4856 007e 4FF44072 		mov	r2, #768
 4857 0082 23F48063 		bic	r3, r3, #1024
 4858 0086 2360     		str	r3, [r4]
 4859 0088 2368     		ldr	r3, [r4]
 4860 008a 43F40063 		orr	r3, r3, #2048
 4861 008e 2360     		str	r3, [r4]
 4862              	.L734:
 4863 0090 009B     		ldr	r3, [sp]
 4864 0092 122B     		cmp	r3, #18
 4865 0094 05D1     		bne	.L735
 4866 0096 B5F52A0F 		cmp	r5, #11141120
 4867 009a 02D0     		beq	.L735
 4868 009c B5F12A4F 		cmp	r5, #-1442840576
 4869 00a0 03D1     		bne	.L736
 4870              	.L735:
 4871 00a2 2368     		ldr	r3, [r4]
 4872 00a4 43F48073 		orr	r3, r3, #256
 4873 00a8 2360     		str	r3, [r4]
 4874              	.L736:
 4875 00aa 0023     		movs	r3, #0
 4876 00ac 6168     		ldr	r1, [r4, #4]
 4877 00ae 80F83C30 		strb	r3, [r0, #60]
 4878 00b2 0A43     		orrs	r2, r2, r1
 4879 00b4 6260     		str	r2, [r4, #4]
 4880 00b6 1846     		mov	r0, r3
 4881 00b8 ACE7     		b	.L723
 4882              	.L724:
 4883 00ba 46F2A816 		movw	r6, #25000
 4884 00be 134C     		ldr	r4, .L755
 4885 00c0 2468     		ldr	r4, [r4]
 4886 00c2 B4FBF6F6 		udiv	r6, r4, r6
 4887 00c6 1924     		movs	r4, #25
 4888 00c8 7443     		muls	r4, r6, r4
 4889 00ca 0194     		str	r4, [sp, #4]
 4890              	.L728:
 4891 00cc 019C     		ldr	r4, [sp, #4]
ARM GAS  /tmp/ccfpVwxB.s 			page 85


 4892 00ce 013C     		subs	r4, r4, #1
 4893 00d0 0194     		str	r4, [sp, #4]
 4894 00d2 019C     		ldr	r4, [sp, #4]
 4895 00d4 6CB9     		cbnz	r4, .L727
 4896 00d6 2023     		movs	r3, #32
 4897 00d8 0463     		str	r4, [r0, #48]
 4898 00da 80F83D30 		strb	r3, [r0, #61]
 4899 00de 80F83E40 		strb	r4, [r0, #62]
 4900 00e2 036C     		ldr	r3, [r0, #64]
 4901 00e4 80F83C40 		strb	r4, [r0, #60]
 4902 00e8 43F02003 		orr	r3, r3, #32
 4903 00ec 0364     		str	r3, [r0, #64]
 4904 00ee 0120     		movs	r0, #1
 4905 00f0 90E7     		b	.L723
 4906              	.L727:
 4907 00f2 0468     		ldr	r4, [r0]
 4908 00f4 A469     		ldr	r4, [r4, #24]
 4909 00f6 A407     		lsls	r4, r4, #30
 4910 00f8 E8D4     		bmi	.L728
 4911 00fa 91E7     		b	.L729
 4912              	.L731:
 4913 00fc 2368     		ldr	r3, [r4]
 4914              	.L754:
 4915 00fe 43F48063 		orr	r3, r3, #1024
 4916 0102 2360     		str	r3, [r4]
 4917 0104 4FF4E062 		mov	r2, #1792
 4918 0108 C2E7     		b	.L734
 4919              	.L756:
 4920 010a 00BF     		.align	2
 4921              	.L755:
 4922 010c 00000000 		.word	SystemCoreClock
 4924              		.section	.text.HAL_I2C_Master_Seq_Receive_DMA,"ax",%progbits
 4925              		.align	1
 4926              		.global	HAL_I2C_Master_Seq_Receive_DMA
 4927              		.syntax unified
 4928              		.thumb
 4929              		.thumb_func
 4930              		.fpu softvfp
 4932              	HAL_I2C_Master_Seq_Receive_DMA:
 4933              		@ args = 4, pretend = 0, frame = 8
 4934              		@ frame_needed = 0, uses_anonymous_args = 0
 4935 0000 F7B5     		push	{r0, r1, r2, r4, r5, r6, r7, lr}
 4936 0002 0446     		mov	r4, r0
 4937 0004 0020     		movs	r0, #0
 4938 0006 0090     		str	r0, [sp]
 4939 0008 0190     		str	r0, [sp, #4]
 4940 000a 94F83D00 		ldrb	r0, [r4, #61]	@ zero_extendqisi2
 4941 000e 089E     		ldr	r6, [sp, #32]
 4942 0010 2028     		cmp	r0, #32
 4943 0012 02D0     		beq	.L758
 4944              	.L761:
 4945 0014 0220     		movs	r0, #2
 4946              	.L759:
 4947 0016 03B0     		add	sp, sp, #12
 4948              		@ sp needed
 4949 0018 F0BD     		pop	{r4, r5, r6, r7, pc}
 4950              	.L758:
ARM GAS  /tmp/ccfpVwxB.s 			page 86


 4951 001a 082E     		cmp	r6, #8
 4952 001c 44D0     		beq	.L760
 4953 001e 012E     		cmp	r6, #1
 4954 0020 42D0     		beq	.L760
 4955              	.L765:
 4956 0022 94F83C00 		ldrb	r0, [r4, #60]	@ zero_extendqisi2
 4957 0026 0128     		cmp	r0, #1
 4958 0028 F4D0     		beq	.L761
 4959 002a 0120     		movs	r0, #1
 4960 002c 2568     		ldr	r5, [r4]
 4961 002e 84F83C00 		strb	r0, [r4, #60]
 4962 0032 2868     		ldr	r0, [r5]
 4963 0034 C007     		lsls	r0, r0, #31
 4964 0036 5EBF     		ittt	pl
 4965 0038 2868     		ldrpl	r0, [r5]
 4966 003a 40F00100 		orrpl	r0, r0, #1
 4967 003e 2860     		strpl	r0, [r5]
 4968 0040 2868     		ldr	r0, [r5]
 4969 0042 20F40060 		bic	r0, r0, #2048
 4970 0046 2860     		str	r0, [r5]
 4971 0048 6868     		ldr	r0, [r5, #4]
 4972 004a 20F48050 		bic	r0, r0, #4096
 4973 004e 6860     		str	r0, [r5, #4]
 4974 0050 2220     		movs	r0, #34
 4975 0052 84F83D00 		strb	r0, [r4, #61]
 4976 0056 1020     		movs	r0, #16
 4977 0058 84F83E00 		strb	r0, [r4, #62]
 4978 005c 0020     		movs	r0, #0
 4979 005e 2064     		str	r0, [r4, #64]
 4980 0060 6385     		strh	r3, [r4, #42]	@ movhi
 4981 0062 638D     		ldrh	r3, [r4, #42]
 4982 0064 E662     		str	r6, [r4, #44]
 4983 0066 6164     		str	r1, [r4, #68]
 4984 0068 216B     		ldr	r1, [r4, #48]
 4985 006a 9BB2     		uxth	r3, r3
 4986 006c 6262     		str	r2, [r4, #36]
 4987 006e 2385     		strh	r3, [r4, #40]	@ movhi
 4988 0070 0091     		str	r1, [sp]
 4989 0072 002B     		cmp	r3, #0
 4990 0074 00F08880 		beq	.L767
 4991 0078 618D     		ldrh	r1, [r4, #42]
 4992 007a 89B2     		uxth	r1, r1
 4993 007c 0229     		cmp	r1, #2
 4994 007e 68D1     		bne	.L768
 4995 0080 202E     		cmp	r6, #32
 4996 0082 01D0     		beq	.L769
 4997 0084 102E     		cmp	r6, #16
 4998 0086 64D1     		bne	.L768
 4999              	.L769:
 5000 0088 0099     		ldr	r1, [sp]
 5001 008a 1229     		cmp	r1, #18
 5002 008c 2968     		ldr	r1, [r5]
 5003 008e 2CD1     		bne	.L770
 5004 0090 21F48061 		bic	r1, r1, #1024
 5005 0094 2960     		str	r1, [r5]
 5006 0096 2968     		ldr	r1, [r5]
 5007 0098 41F40061 		orr	r1, r1, #2048
ARM GAS  /tmp/ccfpVwxB.s 			page 87


 5008 009c 2960     		str	r1, [r5]
 5009              	.L772:
 5010 009e 6968     		ldr	r1, [r5, #4]
 5011 00a0 41F48051 		orr	r1, r1, #4096
 5012 00a4 6960     		str	r1, [r5, #4]
 5013 00a6 23E0     		b	.L771
 5014              	.L760:
 5015 00a8 46F2A815 		movw	r5, #25000
 5016 00ac 4348     		ldr	r0, .L807
 5017 00ae 0068     		ldr	r0, [r0]
 5018 00b0 B0FBF5F5 		udiv	r5, r0, r5
 5019 00b4 1920     		movs	r0, #25
 5020 00b6 6843     		muls	r0, r5, r0
 5021 00b8 0190     		str	r0, [sp, #4]
 5022              	.L764:
 5023 00ba 0198     		ldr	r0, [sp, #4]
 5024 00bc 0138     		subs	r0, r0, #1
 5025 00be 0190     		str	r0, [sp, #4]
 5026 00c0 0198     		ldr	r0, [sp, #4]
 5027 00c2 68B9     		cbnz	r0, .L763
 5028 00c4 2023     		movs	r3, #32
 5029 00c6 2063     		str	r0, [r4, #48]
 5030 00c8 84F83D30 		strb	r3, [r4, #61]
 5031 00cc 84F83E00 		strb	r0, [r4, #62]
 5032 00d0 236C     		ldr	r3, [r4, #64]
 5033 00d2 84F83C00 		strb	r0, [r4, #60]
 5034 00d6 43F02003 		orr	r3, r3, #32
 5035 00da 2364     		str	r3, [r4, #64]
 5036              	.L806:
 5037 00dc 0120     		movs	r0, #1
 5038 00de 9AE7     		b	.L759
 5039              	.L763:
 5040 00e0 2068     		ldr	r0, [r4]
 5041 00e2 8069     		ldr	r0, [r0, #24]
 5042 00e4 8507     		lsls	r5, r0, #30
 5043 00e6 E8D4     		bmi	.L764
 5044 00e8 9BE7     		b	.L765
 5045              	.L770:
 5046 00ea 41F48061 		orr	r1, r1, #1024
 5047 00ee 2960     		str	r1, [r5]
 5048              	.L771:
 5049 00f0 0027     		movs	r7, #0
 5050 00f2 A06B     		ldr	r0, [r4, #56]
 5051 00f4 3249     		ldr	r1, .L807+4
 5052 00f6 C762     		str	r7, [r0, #44]
 5053 00f8 8162     		str	r1, [r0, #40]
 5054 00fa 3249     		ldr	r1, .L807+8
 5055 00fc 4763     		str	r7, [r0, #52]
 5056 00fe 0163     		str	r1, [r0, #48]
 5057 0100 05F11001 		add	r1, r5, #16
 5058 0104 FFF7FEFF 		bl	HAL_DMA_Start_IT
 5059 0108 0028     		cmp	r0, #0
 5060 010a 31D1     		bne	.L773
 5061 010c 009B     		ldr	r3, [sp]
 5062 010e 122B     		cmp	r3, #18
 5063 0110 2368     		ldr	r3, [r4]
 5064 0112 05D1     		bne	.L774
ARM GAS  /tmp/ccfpVwxB.s 			page 88


 5065 0114 B6F52A0F 		cmp	r6, #11141120
 5066 0118 02D0     		beq	.L774
 5067 011a B6F12A4F 		cmp	r6, #-1442840576
 5068 011e 24D1     		bne	.L779
 5069              	.L774:
 5070 0120 1A68     		ldr	r2, [r3]
 5071 0122 42F48072 		orr	r2, r2, #256
 5072 0126 1A60     		str	r2, [r3]
 5073 0128 4FF44072 		mov	r2, #768
 5074              	.L775:
 5075 012c 0021     		movs	r1, #0
 5076 012e 043E     		subs	r6, r6, #4
 5077 0130 1C2E     		cmp	r6, #28
 5078 0132 84F83C10 		strb	r1, [r4, #60]
 5079 0136 08D8     		bhi	.L776
 5080 0138 2349     		ldr	r1, .L807+12
 5081 013a 21FA06F6 		lsr	r6, r1, r6
 5082 013e F107     		lsls	r1, r6, #31
 5083 0140 42BF     		ittt	mi
 5084 0142 5968     		ldrmi	r1, [r3, #4]
 5085 0144 41F40061 		orrmi	r1, r1, #2048
 5086 0148 5960     		strmi	r1, [r3, #4]
 5087              	.L776:
 5088 014a 5968     		ldr	r1, [r3, #4]
 5089 014c 0A43     		orrs	r2, r2, r1
 5090 014e 5A60     		str	r2, [r3, #4]
 5091 0150 61E7     		b	.L759
 5092              	.L768:
 5093 0152 2968     		ldr	r1, [r5]
 5094 0154 202E     		cmp	r6, #32
 5095 0156 41F48061 		orr	r1, r1, #1024
 5096 015a 2960     		str	r1, [r5]
 5097 015c 9FD0     		beq	.L772
 5098 015e B6F12A4F 		cmp	r6, #-1442840576
 5099 0162 9CD0     		beq	.L772
 5100 0164 102E     		cmp	r6, #16
 5101 0166 C3D1     		bne	.L771
 5102 0168 99E7     		b	.L772
 5103              	.L779:
 5104 016a 4FF48072 		mov	r2, #256
 5105 016e DDE7     		b	.L775
 5106              	.L773:
 5107 0170 2023     		movs	r3, #32
 5108 0172 84F83D30 		strb	r3, [r4, #61]
 5109 0176 84F83E70 		strb	r7, [r4, #62]
 5110 017a 236C     		ldr	r3, [r4, #64]
 5111 017c 84F83C70 		strb	r7, [r4, #60]
 5112 0180 43F01003 		orr	r3, r3, #16
 5113 0184 2364     		str	r3, [r4, #64]
 5114 0186 A9E7     		b	.L806
 5115              	.L767:
 5116 0188 2B68     		ldr	r3, [r5]
 5117 018a 43F48063 		orr	r3, r3, #1024
 5118 018e 2B60     		str	r3, [r5]
 5119 0190 009B     		ldr	r3, [sp]
 5120 0192 122B     		cmp	r3, #18
 5121 0194 05D1     		bne	.L777
ARM GAS  /tmp/ccfpVwxB.s 			page 89


 5122 0196 B6F52A0F 		cmp	r6, #11141120
 5123 019a 02D0     		beq	.L777
 5124 019c B6F12A4F 		cmp	r6, #-1442840576
 5125 01a0 03D1     		bne	.L778
 5126              	.L777:
 5127 01a2 2B68     		ldr	r3, [r5]
 5128 01a4 43F48073 		orr	r3, r3, #256
 5129 01a8 2B60     		str	r3, [r5]
 5130              	.L778:
 5131 01aa 0020     		movs	r0, #0
 5132 01ac 6B68     		ldr	r3, [r5, #4]
 5133 01ae 84F83C00 		strb	r0, [r4, #60]
 5134 01b2 43F4E063 		orr	r3, r3, #1792
 5135 01b6 6B60     		str	r3, [r5, #4]
 5136 01b8 2DE7     		b	.L759
 5137              	.L808:
 5138 01ba 00BF     		.align	2
 5139              	.L807:
 5140 01bc 00000000 		.word	SystemCoreClock
 5141 01c0 00000000 		.word	I2C_DMAXferCplt
 5142 01c4 00000000 		.word	I2C_DMAError
 5143 01c8 01100010 		.word	268439553
 5145              		.section	.text.HAL_I2C_Slave_Seq_Transmit_IT,"ax",%progbits
 5146              		.align	1
 5147              		.global	HAL_I2C_Slave_Seq_Transmit_IT
 5148              		.syntax unified
 5149              		.thumb
 5150              		.thumb_func
 5151              		.fpu softvfp
 5153              	HAL_I2C_Slave_Seq_Transmit_IT:
 5154              		@ args = 0, pretend = 0, frame = 8
 5155              		@ frame_needed = 0, uses_anonymous_args = 0
 5156 0000 37B5     		push	{r0, r1, r2, r4, r5, lr}
 5157 0002 90F83D40 		ldrb	r4, [r0, #61]	@ zero_extendqisi2
 5158 0006 04F02804 		and	r4, r4, #40
 5159 000a 282C     		cmp	r4, #40
 5160 000c 34D1     		bne	.L815
 5161 000e 0029     		cmp	r1, #0
 5162 0010 30D0     		beq	.L814
 5163 0012 002A     		cmp	r2, #0
 5164 0014 2ED0     		beq	.L814
 5165 0016 90F83C40 		ldrb	r4, [r0, #60]	@ zero_extendqisi2
 5166 001a 012C     		cmp	r4, #1
 5167 001c 2CD0     		beq	.L815
 5168 001e 0124     		movs	r4, #1
 5169 0020 0568     		ldr	r5, [r0]
 5170 0022 80F83C40 		strb	r4, [r0, #60]
 5171 0026 2C68     		ldr	r4, [r5]
 5172 0028 E407     		lsls	r4, r4, #31
 5173 002a 5EBF     		ittt	pl
 5174 002c 2C68     		ldrpl	r4, [r5]
 5175 002e 44F00104 		orrpl	r4, r4, #1
 5176 0032 2C60     		strpl	r4, [r5]
 5177 0034 2C68     		ldr	r4, [r5]
 5178 0036 24F40064 		bic	r4, r4, #2048
 5179 003a 2C60     		str	r4, [r5]
 5180 003c 2924     		movs	r4, #41
ARM GAS  /tmp/ccfpVwxB.s 			page 90


 5181 003e 80F83D40 		strb	r4, [r0, #61]
 5182 0042 2024     		movs	r4, #32
 5183 0044 80F83E40 		strb	r4, [r0, #62]
 5184 0048 0024     		movs	r4, #0
 5185 004a 0464     		str	r4, [r0, #64]
 5186 004c 4285     		strh	r2, [r0, #42]	@ movhi
 5187 004e 428D     		ldrh	r2, [r0, #42]
 5188 0050 C362     		str	r3, [r0, #44]
 5189 0052 0194     		str	r4, [sp, #4]
 5190 0054 6B69     		ldr	r3, [r5, #20]
 5191 0056 4162     		str	r1, [r0, #36]
 5192 0058 0193     		str	r3, [sp, #4]
 5193 005a AB69     		ldr	r3, [r5, #24]
 5194 005c 0285     		strh	r2, [r0, #40]	@ movhi
 5195 005e 80F83C40 		strb	r4, [r0, #60]
 5196 0062 2046     		mov	r0, r4
 5197 0064 0193     		str	r3, [sp, #4]
 5198 0066 019B     		ldr	r3, [sp, #4]
 5199 0068 6B68     		ldr	r3, [r5, #4]
 5200 006a 43F4E063 		orr	r3, r3, #1792
 5201 006e 6B60     		str	r3, [r5, #4]
 5202              	.L810:
 5203 0070 03B0     		add	sp, sp, #12
 5204              		@ sp needed
 5205 0072 30BD     		pop	{r4, r5, pc}
 5206              	.L814:
 5207 0074 0120     		movs	r0, #1
 5208 0076 FBE7     		b	.L810
 5209              	.L815:
 5210 0078 0220     		movs	r0, #2
 5211 007a F9E7     		b	.L810
 5213              		.section	.text.HAL_I2C_Slave_Seq_Transmit_DMA,"ax",%progbits
 5214              		.align	1
 5215              		.global	HAL_I2C_Slave_Seq_Transmit_DMA
 5216              		.syntax unified
 5217              		.thumb
 5218              		.thumb_func
 5219              		.fpu softvfp
 5221              	HAL_I2C_Slave_Seq_Transmit_DMA:
 5222              		@ args = 0, pretend = 0, frame = 8
 5223              		@ frame_needed = 0, uses_anonymous_args = 0
 5224 0000 2DE9F743 		push	{r0, r1, r2, r4, r5, r6, r7, r8, r9, lr}
 5225 0004 9946     		mov	r9, r3
 5226 0006 90F83D30 		ldrb	r3, [r0, #61]	@ zero_extendqisi2
 5227 000a 0446     		mov	r4, r0
 5228 000c 03F02803 		and	r3, r3, #40
 5229 0010 282B     		cmp	r3, #40
 5230 0012 0E46     		mov	r6, r1
 5231 0014 9046     		mov	r8, r2
 5232 0016 40F08C80 		bne	.L827
 5233 001a 0029     		cmp	r1, #0
 5234 001c 00F08780 		beq	.L826
 5235 0020 002A     		cmp	r2, #0
 5236 0022 00F08480 		beq	.L826
 5237 0026 90F83C30 		ldrb	r3, [r0, #60]	@ zero_extendqisi2
 5238 002a 012B     		cmp	r3, #1
 5239 002c 00F08180 		beq	.L827
ARM GAS  /tmp/ccfpVwxB.s 			page 91


 5240 0030 0123     		movs	r3, #1
 5241 0032 80F83C30 		strb	r3, [r0, #60]
 5242 0036 0368     		ldr	r3, [r0]
 5243 0038 5A68     		ldr	r2, [r3, #4]
 5244 003a 22F44072 		bic	r2, r2, #768
 5245 003e 5A60     		str	r2, [r3, #4]
 5246 0040 90F83D20 		ldrb	r2, [r0, #61]	@ zero_extendqisi2
 5247 0044 2A2A     		cmp	r2, #42
 5248 0046 52D1     		bne	.L818
 5249 0048 5A68     		ldr	r2, [r3, #4]
 5250 004a 1105     		lsls	r1, r2, #20
 5251 004c 0DD5     		bpl	.L820
 5252 004e 806B     		ldr	r0, [r0, #56]
 5253 0050 58B1     		cbz	r0, .L820
 5254 0052 5A68     		ldr	r2, [r3, #4]
 5255 0054 22F40062 		bic	r2, r2, #2048
 5256 0058 5A60     		str	r2, [r3, #4]
 5257 005a 374B     		ldr	r3, .L844
 5258 005c 4363     		str	r3, [r0, #52]
 5259 005e FFF7FEFF 		bl	HAL_DMA_Abort_IT
 5260 0062 10B1     		cbz	r0, .L820
 5261 0064 A06B     		ldr	r0, [r4, #56]
 5262              	.L843:
 5263 0066 436B     		ldr	r3, [r0, #52]
 5264 0068 9847     		blx	r3
 5265              	.L820:
 5266 006a 2268     		ldr	r2, [r4]
 5267 006c 0025     		movs	r5, #0
 5268 006e 1368     		ldr	r3, [r2]
 5269 0070 2027     		movs	r7, #32
 5270 0072 DB07     		lsls	r3, r3, #31
 5271 0074 58BF     		it	pl
 5272 0076 1368     		ldrpl	r3, [r2]
 5273 0078 606B     		ldr	r0, [r4, #52]
 5274 007a 5CBF     		itt	pl
 5275 007c 43F00103 		orrpl	r3, r3, #1
 5276 0080 1360     		strpl	r3, [r2]
 5277 0082 1368     		ldr	r3, [r2]
 5278 0084 2D49     		ldr	r1, .L844+4
 5279 0086 23F40063 		bic	r3, r3, #2048
 5280 008a 42F8103B 		str	r3, [r2], #16
 5281 008e 2923     		movs	r3, #41
 5282 0090 84F83D30 		strb	r3, [r4, #61]
 5283 0094 84F83E70 		strb	r7, [r4, #62]
 5284 0098 2564     		str	r5, [r4, #64]
 5285 009a A4F82A80 		strh	r8, [r4, #42]	@ movhi
 5286 009e 638D     		ldrh	r3, [r4, #42]
 5287 00a0 6662     		str	r6, [r4, #36]
 5288 00a2 9BB2     		uxth	r3, r3
 5289 00a4 2385     		strh	r3, [r4, #40]	@ movhi
 5290 00a6 C4F82C90 		str	r9, [r4, #44]
 5291 00aa 8162     		str	r1, [r0, #40]
 5292 00ac 2449     		ldr	r1, .L844+8
 5293 00ae C562     		str	r5, [r0, #44]
 5294 00b0 0163     		str	r1, [r0, #48]
 5295 00b2 4563     		str	r5, [r0, #52]
 5296 00b4 3146     		mov	r1, r6
ARM GAS  /tmp/ccfpVwxB.s 			page 92


 5297 00b6 FFF7FEFF 		bl	HAL_DMA_Start_IT
 5298 00ba 0028     		cmp	r0, #0
 5299 00bc 2DD1     		bne	.L823
 5300 00be 2368     		ldr	r3, [r4]
 5301 00c0 1A68     		ldr	r2, [r3]
 5302 00c2 42F48062 		orr	r2, r2, #1024
 5303 00c6 1A60     		str	r2, [r3]
 5304 00c8 0190     		str	r0, [sp, #4]
 5305 00ca 5A69     		ldr	r2, [r3, #20]
 5306 00cc 0192     		str	r2, [sp, #4]
 5307 00ce 9A69     		ldr	r2, [r3, #24]
 5308 00d0 84F83C00 		strb	r0, [r4, #60]
 5309 00d4 0192     		str	r2, [sp, #4]
 5310 00d6 019A     		ldr	r2, [sp, #4]
 5311 00d8 5A68     		ldr	r2, [r3, #4]
 5312 00da 42F44072 		orr	r2, r2, #768
 5313 00de 5A60     		str	r2, [r3, #4]
 5314 00e0 5A68     		ldr	r2, [r3, #4]
 5315 00e2 42F40062 		orr	r2, r2, #2048
 5316 00e6 5A60     		str	r2, [r3, #4]
 5317              	.L817:
 5318 00e8 03B0     		add	sp, sp, #12
 5319              		@ sp needed
 5320 00ea BDE8F083 		pop	{r4, r5, r6, r7, r8, r9, pc}
 5321              	.L818:
 5322 00ee 90F83D20 		ldrb	r2, [r0, #61]	@ zero_extendqisi2
 5323 00f2 292A     		cmp	r2, #41
 5324 00f4 B9D1     		bne	.L820
 5325 00f6 5A68     		ldr	r2, [r3, #4]
 5326 00f8 1205     		lsls	r2, r2, #20
 5327 00fa B6D5     		bpl	.L820
 5328 00fc 5A68     		ldr	r2, [r3, #4]
 5329 00fe 406B     		ldr	r0, [r0, #52]
 5330 0100 22F40062 		bic	r2, r2, #2048
 5331 0104 5A60     		str	r2, [r3, #4]
 5332 0106 0028     		cmp	r0, #0
 5333 0108 AFD0     		beq	.L820
 5334 010a 0B4B     		ldr	r3, .L844
 5335 010c 4363     		str	r3, [r0, #52]
 5336 010e FFF7FEFF 		bl	HAL_DMA_Abort_IT
 5337 0112 0028     		cmp	r0, #0
 5338 0114 A9D0     		beq	.L820
 5339 0116 606B     		ldr	r0, [r4, #52]
 5340 0118 A5E7     		b	.L843
 5341              	.L823:
 5342 011a 84F83D70 		strb	r7, [r4, #61]
 5343 011e 84F83E50 		strb	r5, [r4, #62]
 5344 0122 236C     		ldr	r3, [r4, #64]
 5345 0124 84F83C50 		strb	r5, [r4, #60]
 5346 0128 43F01003 		orr	r3, r3, #16
 5347 012c 2364     		str	r3, [r4, #64]
 5348              	.L826:
 5349 012e 0120     		movs	r0, #1
 5350 0130 DAE7     		b	.L817
 5351              	.L827:
 5352 0132 0220     		movs	r0, #2
 5353 0134 D8E7     		b	.L817
ARM GAS  /tmp/ccfpVwxB.s 			page 93


 5354              	.L845:
 5355 0136 00BF     		.align	2
 5356              	.L844:
 5357 0138 00000000 		.word	I2C_DMAAbort
 5358 013c 00000000 		.word	I2C_DMAXferCplt
 5359 0140 00000000 		.word	I2C_DMAError
 5361              		.section	.text.HAL_I2C_Slave_Seq_Receive_IT,"ax",%progbits
 5362              		.align	1
 5363              		.global	HAL_I2C_Slave_Seq_Receive_IT
 5364              		.syntax unified
 5365              		.thumb
 5366              		.thumb_func
 5367              		.fpu softvfp
 5369              	HAL_I2C_Slave_Seq_Receive_IT:
 5370              		@ args = 0, pretend = 0, frame = 8
 5371              		@ frame_needed = 0, uses_anonymous_args = 0
 5372 0000 37B5     		push	{r0, r1, r2, r4, r5, lr}
 5373 0002 90F83D40 		ldrb	r4, [r0, #61]	@ zero_extendqisi2
 5374 0006 04F02804 		and	r4, r4, #40
 5375 000a 282C     		cmp	r4, #40
 5376 000c 34D1     		bne	.L852
 5377 000e 0029     		cmp	r1, #0
 5378 0010 30D0     		beq	.L851
 5379 0012 002A     		cmp	r2, #0
 5380 0014 2ED0     		beq	.L851
 5381 0016 90F83C40 		ldrb	r4, [r0, #60]	@ zero_extendqisi2
 5382 001a 012C     		cmp	r4, #1
 5383 001c 2CD0     		beq	.L852
 5384 001e 0124     		movs	r4, #1
 5385 0020 0568     		ldr	r5, [r0]
 5386 0022 80F83C40 		strb	r4, [r0, #60]
 5387 0026 2C68     		ldr	r4, [r5]
 5388 0028 E407     		lsls	r4, r4, #31
 5389 002a 5EBF     		ittt	pl
 5390 002c 2C68     		ldrpl	r4, [r5]
 5391 002e 44F00104 		orrpl	r4, r4, #1
 5392 0032 2C60     		strpl	r4, [r5]
 5393 0034 2C68     		ldr	r4, [r5]
 5394 0036 24F40064 		bic	r4, r4, #2048
 5395 003a 2C60     		str	r4, [r5]
 5396 003c 2A24     		movs	r4, #42
 5397 003e 80F83D40 		strb	r4, [r0, #61]
 5398 0042 2024     		movs	r4, #32
 5399 0044 80F83E40 		strb	r4, [r0, #62]
 5400 0048 0024     		movs	r4, #0
 5401 004a 0464     		str	r4, [r0, #64]
 5402 004c 4285     		strh	r2, [r0, #42]	@ movhi
 5403 004e 428D     		ldrh	r2, [r0, #42]
 5404 0050 C362     		str	r3, [r0, #44]
 5405 0052 0194     		str	r4, [sp, #4]
 5406 0054 6B69     		ldr	r3, [r5, #20]
 5407 0056 4162     		str	r1, [r0, #36]
 5408 0058 0193     		str	r3, [sp, #4]
 5409 005a AB69     		ldr	r3, [r5, #24]
 5410 005c 0285     		strh	r2, [r0, #40]	@ movhi
 5411 005e 80F83C40 		strb	r4, [r0, #60]
 5412 0062 2046     		mov	r0, r4
ARM GAS  /tmp/ccfpVwxB.s 			page 94


 5413 0064 0193     		str	r3, [sp, #4]
 5414 0066 019B     		ldr	r3, [sp, #4]
 5415 0068 6B68     		ldr	r3, [r5, #4]
 5416 006a 43F4E063 		orr	r3, r3, #1792
 5417 006e 6B60     		str	r3, [r5, #4]
 5418              	.L847:
 5419 0070 03B0     		add	sp, sp, #12
 5420              		@ sp needed
 5421 0072 30BD     		pop	{r4, r5, pc}
 5422              	.L851:
 5423 0074 0120     		movs	r0, #1
 5424 0076 FBE7     		b	.L847
 5425              	.L852:
 5426 0078 0220     		movs	r0, #2
 5427 007a F9E7     		b	.L847
 5429              		.section	.text.HAL_I2C_Slave_Seq_Receive_DMA,"ax",%progbits
 5430              		.align	1
 5431              		.global	HAL_I2C_Slave_Seq_Receive_DMA
 5432              		.syntax unified
 5433              		.thumb
 5434              		.thumb_func
 5435              		.fpu softvfp
 5437              	HAL_I2C_Slave_Seq_Receive_DMA:
 5438              		@ args = 0, pretend = 0, frame = 8
 5439              		@ frame_needed = 0, uses_anonymous_args = 0
 5440 0000 2DE9F743 		push	{r0, r1, r2, r4, r5, r6, r7, r8, r9, lr}
 5441 0004 9946     		mov	r9, r3
 5442 0006 90F83D30 		ldrb	r3, [r0, #61]	@ zero_extendqisi2
 5443 000a 0446     		mov	r4, r0
 5444 000c 03F02803 		and	r3, r3, #40
 5445 0010 282B     		cmp	r3, #40
 5446 0012 0E46     		mov	r6, r1
 5447 0014 9046     		mov	r8, r2
 5448 0016 40F08C80 		bne	.L864
 5449 001a 0029     		cmp	r1, #0
 5450 001c 00F08780 		beq	.L863
 5451 0020 002A     		cmp	r2, #0
 5452 0022 00F08480 		beq	.L863
 5453 0026 90F83C30 		ldrb	r3, [r0, #60]	@ zero_extendqisi2
 5454 002a 012B     		cmp	r3, #1
 5455 002c 00F08180 		beq	.L864
 5456 0030 0123     		movs	r3, #1
 5457 0032 80F83C30 		strb	r3, [r0, #60]
 5458 0036 0368     		ldr	r3, [r0]
 5459 0038 5A68     		ldr	r2, [r3, #4]
 5460 003a 22F44072 		bic	r2, r2, #768
 5461 003e 5A60     		str	r2, [r3, #4]
 5462 0040 90F83D20 		ldrb	r2, [r0, #61]	@ zero_extendqisi2
 5463 0044 2A2A     		cmp	r2, #42
 5464 0046 52D1     		bne	.L855
 5465 0048 5A68     		ldr	r2, [r3, #4]
 5466 004a 1105     		lsls	r1, r2, #20
 5467 004c 0DD5     		bpl	.L857
 5468 004e 806B     		ldr	r0, [r0, #56]
 5469 0050 58B1     		cbz	r0, .L857
 5470 0052 5A68     		ldr	r2, [r3, #4]
 5471 0054 22F40062 		bic	r2, r2, #2048
ARM GAS  /tmp/ccfpVwxB.s 			page 95


 5472 0058 5A60     		str	r2, [r3, #4]
 5473 005a 374B     		ldr	r3, .L881
 5474 005c 4363     		str	r3, [r0, #52]
 5475 005e FFF7FEFF 		bl	HAL_DMA_Abort_IT
 5476 0062 10B1     		cbz	r0, .L857
 5477 0064 A06B     		ldr	r0, [r4, #56]
 5478              	.L880:
 5479 0066 436B     		ldr	r3, [r0, #52]
 5480 0068 9847     		blx	r3
 5481              	.L857:
 5482 006a 2168     		ldr	r1, [r4]
 5483 006c 0025     		movs	r5, #0
 5484 006e 0B68     		ldr	r3, [r1]
 5485 0070 2027     		movs	r7, #32
 5486 0072 DB07     		lsls	r3, r3, #31
 5487 0074 58BF     		it	pl
 5488 0076 0B68     		ldrpl	r3, [r1]
 5489 0078 A06B     		ldr	r0, [r4, #56]
 5490 007a 5CBF     		itt	pl
 5491 007c 43F00103 		orrpl	r3, r3, #1
 5492 0080 0B60     		strpl	r3, [r1]
 5493 0082 0B68     		ldr	r3, [r1]
 5494 0084 2D4A     		ldr	r2, .L881+4
 5495 0086 23F40063 		bic	r3, r3, #2048
 5496 008a 41F8103B 		str	r3, [r1], #16
 5497 008e 2A23     		movs	r3, #42
 5498 0090 84F83D30 		strb	r3, [r4, #61]
 5499 0094 84F83E70 		strb	r7, [r4, #62]
 5500 0098 2564     		str	r5, [r4, #64]
 5501 009a A4F82A80 		strh	r8, [r4, #42]	@ movhi
 5502 009e 638D     		ldrh	r3, [r4, #42]
 5503 00a0 6662     		str	r6, [r4, #36]
 5504 00a2 9BB2     		uxth	r3, r3
 5505 00a4 2385     		strh	r3, [r4, #40]	@ movhi
 5506 00a6 C4F82C90 		str	r9, [r4, #44]
 5507 00aa 8262     		str	r2, [r0, #40]
 5508 00ac 244A     		ldr	r2, .L881+8
 5509 00ae C562     		str	r5, [r0, #44]
 5510 00b0 0263     		str	r2, [r0, #48]
 5511 00b2 4563     		str	r5, [r0, #52]
 5512 00b4 3246     		mov	r2, r6
 5513 00b6 FFF7FEFF 		bl	HAL_DMA_Start_IT
 5514 00ba 0028     		cmp	r0, #0
 5515 00bc 2DD1     		bne	.L860
 5516 00be 2368     		ldr	r3, [r4]
 5517 00c0 1A68     		ldr	r2, [r3]
 5518 00c2 42F48062 		orr	r2, r2, #1024
 5519 00c6 1A60     		str	r2, [r3]
 5520 00c8 0190     		str	r0, [sp, #4]
 5521 00ca 5A69     		ldr	r2, [r3, #20]
 5522 00cc 0192     		str	r2, [sp, #4]
 5523 00ce 9A69     		ldr	r2, [r3, #24]
 5524 00d0 84F83C00 		strb	r0, [r4, #60]
 5525 00d4 0192     		str	r2, [sp, #4]
 5526 00d6 019A     		ldr	r2, [sp, #4]
 5527 00d8 5A68     		ldr	r2, [r3, #4]
 5528 00da 42F40062 		orr	r2, r2, #2048
ARM GAS  /tmp/ccfpVwxB.s 			page 96


 5529 00de 5A60     		str	r2, [r3, #4]
 5530 00e0 5A68     		ldr	r2, [r3, #4]
 5531 00e2 42F44072 		orr	r2, r2, #768
 5532 00e6 5A60     		str	r2, [r3, #4]
 5533              	.L854:
 5534 00e8 03B0     		add	sp, sp, #12
 5535              		@ sp needed
 5536 00ea BDE8F083 		pop	{r4, r5, r6, r7, r8, r9, pc}
 5537              	.L855:
 5538 00ee 90F83D20 		ldrb	r2, [r0, #61]	@ zero_extendqisi2
 5539 00f2 292A     		cmp	r2, #41
 5540 00f4 B9D1     		bne	.L857
 5541 00f6 5A68     		ldr	r2, [r3, #4]
 5542 00f8 1205     		lsls	r2, r2, #20
 5543 00fa B6D5     		bpl	.L857
 5544 00fc 5A68     		ldr	r2, [r3, #4]
 5545 00fe 406B     		ldr	r0, [r0, #52]
 5546 0100 22F40062 		bic	r2, r2, #2048
 5547 0104 5A60     		str	r2, [r3, #4]
 5548 0106 0028     		cmp	r0, #0
 5549 0108 AFD0     		beq	.L857
 5550 010a 0B4B     		ldr	r3, .L881
 5551 010c 4363     		str	r3, [r0, #52]
 5552 010e FFF7FEFF 		bl	HAL_DMA_Abort_IT
 5553 0112 0028     		cmp	r0, #0
 5554 0114 A9D0     		beq	.L857
 5555 0116 606B     		ldr	r0, [r4, #52]
 5556 0118 A5E7     		b	.L880
 5557              	.L860:
 5558 011a 84F83D70 		strb	r7, [r4, #61]
 5559 011e 84F83E50 		strb	r5, [r4, #62]
 5560 0122 236C     		ldr	r3, [r4, #64]
 5561 0124 84F83C50 		strb	r5, [r4, #60]
 5562 0128 43F01003 		orr	r3, r3, #16
 5563 012c 2364     		str	r3, [r4, #64]
 5564              	.L863:
 5565 012e 0120     		movs	r0, #1
 5566 0130 DAE7     		b	.L854
 5567              	.L864:
 5568 0132 0220     		movs	r0, #2
 5569 0134 D8E7     		b	.L854
 5570              	.L882:
 5571 0136 00BF     		.align	2
 5572              	.L881:
 5573 0138 00000000 		.word	I2C_DMAAbort
 5574 013c 00000000 		.word	I2C_DMAXferCplt
 5575 0140 00000000 		.word	I2C_DMAError
 5577              		.section	.text.HAL_I2C_EnableListen_IT,"ax",%progbits
 5578              		.align	1
 5579              		.global	HAL_I2C_EnableListen_IT
 5580              		.syntax unified
 5581              		.thumb
 5582              		.thumb_func
 5583              		.fpu softvfp
 5585              	HAL_I2C_EnableListen_IT:
 5586              		@ args = 0, pretend = 0, frame = 0
 5587              		@ frame_needed = 0, uses_anonymous_args = 0
ARM GAS  /tmp/ccfpVwxB.s 			page 97


 5588              		@ link register save eliminated.
 5589 0000 90F83D30 		ldrb	r3, [r0, #61]	@ zero_extendqisi2
 5590 0004 202B     		cmp	r3, #32
 5591 0006 14D1     		bne	.L886
 5592 0008 2823     		movs	r3, #40
 5593 000a 80F83D30 		strb	r3, [r0, #61]
 5594 000e 0368     		ldr	r3, [r0]
 5595 0010 0020     		movs	r0, #0
 5596 0012 1A68     		ldr	r2, [r3]
 5597 0014 D207     		lsls	r2, r2, #31
 5598 0016 5EBF     		ittt	pl
 5599 0018 1A68     		ldrpl	r2, [r3]
 5600 001a 42F00102 		orrpl	r2, r2, #1
 5601 001e 1A60     		strpl	r2, [r3]
 5602 0020 1A68     		ldr	r2, [r3]
 5603 0022 42F48062 		orr	r2, r2, #1024
 5604 0026 1A60     		str	r2, [r3]
 5605 0028 5A68     		ldr	r2, [r3, #4]
 5606 002a 42F44072 		orr	r2, r2, #768
 5607 002e 5A60     		str	r2, [r3, #4]
 5608 0030 7047     		bx	lr
 5609              	.L886:
 5610 0032 0220     		movs	r0, #2
 5611 0034 7047     		bx	lr
 5613              		.section	.text.HAL_I2C_DisableListen_IT,"ax",%progbits
 5614              		.align	1
 5615              		.global	HAL_I2C_DisableListen_IT
 5616              		.syntax unified
 5617              		.thumb
 5618              		.thumb_func
 5619              		.fpu softvfp
 5621              	HAL_I2C_DisableListen_IT:
 5622              		@ args = 0, pretend = 0, frame = 0
 5623              		@ frame_needed = 0, uses_anonymous_args = 0
 5624              		@ link register save eliminated.
 5625 0000 90F83D30 		ldrb	r3, [r0, #61]	@ zero_extendqisi2
 5626 0004 282B     		cmp	r3, #40
 5627 0006 18D1     		bne	.L889
 5628 0008 90F83D20 		ldrb	r2, [r0, #61]	@ zero_extendqisi2
 5629 000c 90F83E30 		ldrb	r3, [r0, #62]	@ zero_extendqisi2
 5630 0010 02F00302 		and	r2, r2, #3
 5631 0014 1343     		orrs	r3, r3, r2
 5632 0016 0363     		str	r3, [r0, #48]
 5633 0018 2023     		movs	r3, #32
 5634 001a 80F83D30 		strb	r3, [r0, #61]
 5635 001e 0023     		movs	r3, #0
 5636 0020 0268     		ldr	r2, [r0]
 5637 0022 80F83E30 		strb	r3, [r0, #62]
 5638 0026 1168     		ldr	r1, [r2]
 5639 0028 1846     		mov	r0, r3
 5640 002a 21F48061 		bic	r1, r1, #1024
 5641 002e 1160     		str	r1, [r2]
 5642 0030 5168     		ldr	r1, [r2, #4]
 5643 0032 21F44071 		bic	r1, r1, #768
 5644 0036 5160     		str	r1, [r2, #4]
 5645 0038 7047     		bx	lr
 5646              	.L889:
ARM GAS  /tmp/ccfpVwxB.s 			page 98


 5647 003a 0220     		movs	r0, #2
 5648 003c 7047     		bx	lr
 5650              		.section	.text.HAL_I2C_Master_Abort_IT,"ax",%progbits
 5651              		.align	1
 5652              		.global	HAL_I2C_Master_Abort_IT
 5653              		.syntax unified
 5654              		.thumb
 5655              		.thumb_func
 5656              		.fpu softvfp
 5658              	HAL_I2C_Master_Abort_IT:
 5659              		@ args = 0, pretend = 0, frame = 0
 5660              		@ frame_needed = 0, uses_anonymous_args = 0
 5661 0000 90F83E20 		ldrb	r2, [r0, #62]	@ zero_extendqisi2
 5662 0004 10B5     		push	{r4, lr}
 5663 0006 102A     		cmp	r2, #16
 5664 0008 1CD1     		bne	.L892
 5665 000a 90F83C20 		ldrb	r2, [r0, #60]	@ zero_extendqisi2
 5666 000e 012A     		cmp	r2, #1
 5667 0010 1AD0     		beq	.L893
 5668 0012 0024     		movs	r4, #0
 5669 0014 6022     		movs	r2, #96
 5670 0016 0463     		str	r4, [r0, #48]
 5671 0018 80F83D20 		strb	r2, [r0, #61]
 5672 001c 0268     		ldr	r2, [r0]
 5673 001e 1168     		ldr	r1, [r2]
 5674 0020 21F48061 		bic	r1, r1, #1024
 5675 0024 1160     		str	r1, [r2]
 5676 0026 1168     		ldr	r1, [r2]
 5677 0028 41F40071 		orr	r1, r1, #512
 5678 002c 1160     		str	r1, [r2]
 5679 002e 4485     		strh	r4, [r0, #42]	@ movhi
 5680 0030 5168     		ldr	r1, [r2, #4]
 5681 0032 21F4E061 		bic	r1, r1, #1792
 5682 0036 5160     		str	r1, [r2, #4]
 5683 0038 80F83C40 		strb	r4, [r0, #60]
 5684 003c FFF7FEFF 		bl	I2C_ITError
 5685 0040 2046     		mov	r0, r4
 5686 0042 10BD     		pop	{r4, pc}
 5687              	.L892:
 5688 0044 0120     		movs	r0, #1
 5689 0046 10BD     		pop	{r4, pc}
 5690              	.L893:
 5691 0048 0220     		movs	r0, #2
 5692 004a 10BD     		pop	{r4, pc}
 5694              		.section	.text.HAL_I2C_EV_IRQHandler,"ax",%progbits
 5695              		.align	1
 5696              		.global	HAL_I2C_EV_IRQHandler
 5697              		.syntax unified
 5698              		.thumb
 5699              		.thumb_func
 5700              		.fpu softvfp
 5702              	HAL_I2C_EV_IRQHandler:
 5703              		@ args = 0, pretend = 0, frame = 48
 5704              		@ frame_needed = 0, uses_anonymous_args = 0
 5705 0000 0368     		ldr	r3, [r0]
 5706 0002 30B5     		push	{r4, r5, lr}
 5707 0004 5A68     		ldr	r2, [r3, #4]
ARM GAS  /tmp/ccfpVwxB.s 			page 99


 5708 0006 C56A     		ldr	r5, [r0, #44]
 5709 0008 90F83E10 		ldrb	r1, [r0, #62]	@ zero_extendqisi2
 5710 000c 0446     		mov	r4, r0
 5711 000e C9B2     		uxtb	r1, r1
 5712 0010 90F83D00 		ldrb	r0, [r0, #61]	@ zero_extendqisi2
 5713 0014 1029     		cmp	r1, #16
 5714 0016 8DB0     		sub	sp, sp, #52
 5715 0018 C0B2     		uxtb	r0, r0
 5716 001a 02D0     		beq	.L895
 5717 001c 4029     		cmp	r1, #64
 5718 001e 40F0B882 		bne	.L896
 5719              	.L895:
 5720 0022 9869     		ldr	r0, [r3, #24]
 5721 0024 5969     		ldr	r1, [r3, #20]
 5722 0026 11F0010F 		tst	r1, #1
 5723 002a 07D1     		bne	.L897
 5724 002c B5F52A0F 		cmp	r5, #11141120
 5725 0030 02D0     		beq	.L894
 5726 0032 B5F12A4F 		cmp	r5, #-1442840576
 5727 0036 52D1     		bne	.L901
 5728              	.L894:
 5729 0038 0DB0     		add	sp, sp, #52
 5730              		@ sp needed
 5731 003a 30BD     		pop	{r4, r5, pc}
 5732              	.L897:
 5733 003c 9505     		lsls	r5, r2, #22
 5734 003e 4ED5     		bpl	.L901
 5735 0040 E26A     		ldr	r2, [r4, #44]
 5736 0042 B2F52A0F 		cmp	r2, #11141120
 5737 0046 0CD1     		bne	.L902
 5738 0048 0122     		movs	r2, #1
 5739              	.L1190:
 5740 004a E262     		str	r2, [r4, #44]
 5741              	.L903:
 5742 004c 94F83E20 		ldrb	r2, [r4, #62]	@ zero_extendqisi2
 5743 0050 402A     		cmp	r2, #64
 5744 0052 11D1     		bne	.L904
 5745 0054 226D     		ldr	r2, [r4, #80]
 5746 0056 52B9     		cbnz	r2, .L905
 5747 0058 626C     		ldr	r2, [r4, #68]
 5748 005a 02F0FE02 		and	r2, r2, #254
 5749              	.L1196:
 5750 005e 1A61     		str	r2, [r3, #16]
 5751 0060 EAE7     		b	.L894
 5752              	.L902:
 5753 0062 E26A     		ldr	r2, [r4, #44]
 5754 0064 B2F12A4F 		cmp	r2, #-1442840576
 5755 0068 F0D1     		bne	.L903
 5756 006a 0822     		movs	r2, #8
 5757 006c EDE7     		b	.L1190
 5758              	.L905:
 5759 006e 626C     		ldr	r2, [r4, #68]
 5760 0070 42F00102 		orr	r2, r2, #1
 5761 0074 D2B2     		uxtb	r2, r2
 5762 0076 F2E7     		b	.L1196
 5763              	.L904:
 5764 0078 2269     		ldr	r2, [r4, #16]
ARM GAS  /tmp/ccfpVwxB.s 			page 100


 5765 007a B2F5804F 		cmp	r2, #16384
 5766 007e 1BD1     		bne	.L906
 5767 0080 94F83D20 		ldrb	r2, [r4, #61]	@ zero_extendqisi2
 5768 0084 212A     		cmp	r2, #33
 5769 0086 626C     		ldr	r2, [r4, #68]
 5770 0088 12D1     		bne	.L907
 5771 008a 02F0FE02 		and	r2, r2, #254
 5772              	.L1191:
 5773 008e 1A61     		str	r2, [r3, #16]
 5774 0090 626B     		ldr	r2, [r4, #52]
 5775 0092 12B9     		cbnz	r2, .L913
 5776 0094 A16B     		ldr	r1, [r4, #56]
 5777 0096 0029     		cmp	r1, #0
 5778 0098 CED0     		beq	.L894
 5779              	.L913:
 5780 009a 926A     		ldr	r2, [r2, #40]
 5781 009c 1AB9     		cbnz	r2, .L914
 5782 009e A26B     		ldr	r2, [r4, #56]
 5783 00a0 926A     		ldr	r2, [r2, #40]
 5784 00a2 002A     		cmp	r2, #0
 5785 00a4 C8D0     		beq	.L894
 5786              	.L914:
 5787 00a6 5A68     		ldr	r2, [r3, #4]
 5788 00a8 42F40062 		orr	r2, r2, #2048
 5789              	.L1198:
 5790 00ac 5A60     		str	r2, [r3, #4]
 5791 00ae C3E7     		b	.L894
 5792              	.L907:
 5793 00b0 42F00102 		orr	r2, r2, #1
 5794              	.L1212:
 5795 00b4 D2B2     		uxtb	r2, r2
 5796 00b6 EAE7     		b	.L1191
 5797              	.L906:
 5798 00b8 226D     		ldr	r2, [r4, #80]
 5799 00ba 32B9     		cbnz	r2, .L911
 5800 00bc 626C     		ldr	r2, [r4, #68]
 5801 00be D211     		asrs	r2, r2, #7
 5802 00c0 02F00602 		and	r2, r2, #6
 5803 00c4 42F0F002 		orr	r2, r2, #240
 5804 00c8 C9E7     		b	.L1196
 5805              	.L911:
 5806 00ca 226D     		ldr	r2, [r4, #80]
 5807 00cc 012A     		cmp	r2, #1
 5808 00ce B3D1     		bne	.L894
 5809 00d0 626C     		ldr	r2, [r4, #68]
 5810 00d2 D211     		asrs	r2, r2, #7
 5811 00d4 02F00602 		and	r2, r2, #6
 5812 00d8 42F0F102 		orr	r2, r2, #241
 5813 00dc BFE7     		b	.L1196
 5814              	.L901:
 5815 00de 0D07     		lsls	r5, r1, #28
 5816 00e0 03D5     		bpl	.L912
 5817 00e2 9505     		lsls	r5, r2, #22
 5818 00e4 01D5     		bpl	.L912
 5819 00e6 626C     		ldr	r2, [r4, #68]
 5820 00e8 E4E7     		b	.L1212
 5821              	.L912:
ARM GAS  /tmp/ccfpVwxB.s 			page 101


 5822 00ea 8D07     		lsls	r5, r1, #30
 5823 00ec 40F1EA80 		bpl	.L915
 5824 00f0 9505     		lsls	r5, r2, #22
 5825 00f2 40F1E780 		bpl	.L915
 5826 00f6 94F83E10 		ldrb	r1, [r4, #62]	@ zero_extendqisi2
 5827 00fa E26A     		ldr	r2, [r4, #44]
 5828 00fc 256B     		ldr	r5, [r4, #48]
 5829 00fe 94F83D00 		ldrb	r0, [r4, #61]	@ zero_extendqisi2
 5830 0102 C9B2     		uxtb	r1, r1
 5831 0104 2228     		cmp	r0, #34
 5832 0106 40F0D580 		bne	.L916
 5833 010a 206D     		ldr	r0, [r4, #80]
 5834 010c 40B9     		cbnz	r0, .L917
 5835 010e 4029     		cmp	r1, #64
 5836 0110 06D1     		bne	.L917
 5837 0112 0090     		str	r0, [sp]
 5838 0114 5A69     		ldr	r2, [r3, #20]
 5839 0116 0092     		str	r2, [sp]
 5840 0118 9B69     		ldr	r3, [r3, #24]
 5841 011a 0093     		str	r3, [sp]
 5842 011c 009B     		ldr	r3, [sp]
 5843 011e 8BE7     		b	.L894
 5844              	.L917:
 5845 0120 216D     		ldr	r1, [r4, #80]
 5846 0122 81B9     		cbnz	r1, .L918
 5847 0124 2069     		ldr	r0, [r4, #16]
 5848 0126 B0F5404F 		cmp	r0, #49152
 5849 012a 0CD1     		bne	.L918
 5850 012c 0191     		str	r1, [sp, #4]
 5851 012e 5A69     		ldr	r2, [r3, #20]
 5852 0130 0192     		str	r2, [sp, #4]
 5853 0132 9A69     		ldr	r2, [r3, #24]
 5854 0134 0192     		str	r2, [sp, #4]
 5855 0136 019A     		ldr	r2, [sp, #4]
 5856 0138 1A68     		ldr	r2, [r3]
 5857 013a 42F48072 		orr	r2, r2, #256
 5858 013e 1A60     		str	r2, [r3]
 5859              	.L1205:
 5860 0140 236D     		ldr	r3, [r4, #80]
 5861 0142 0133     		adds	r3, r3, #1
 5862 0144 28E0     		b	.L1199
 5863              	.L918:
 5864 0146 618D     		ldrh	r1, [r4, #42]
 5865 0148 89B2     		uxth	r1, r1
 5866 014a 51B9     		cbnz	r1, .L919
 5867 014c 0291     		str	r1, [sp, #8]
 5868 014e 5A69     		ldr	r2, [r3, #20]
 5869 0150 0292     		str	r2, [sp, #8]
 5870 0152 9A69     		ldr	r2, [r3, #24]
 5871 0154 0292     		str	r2, [sp, #8]
 5872 0156 029A     		ldr	r2, [sp, #8]
 5873              	.L1193:
 5874 0158 1A68     		ldr	r2, [r3]
 5875 015a 42F40072 		orr	r2, r2, #512
 5876 015e 1A60     		str	r2, [r3]
 5877 0160 19E0     		b	.L920
 5878              	.L919:
ARM GAS  /tmp/ccfpVwxB.s 			page 102


 5879 0162 618D     		ldrh	r1, [r4, #42]
 5880 0164 89B2     		uxth	r1, r1
 5881 0166 0129     		cmp	r1, #1
 5882 0168 4AD1     		bne	.L921
 5883 016a 12F5803F 		cmn	r2, #65536
 5884 016e 1CD1     		bne	.L922
 5885 0170 1A68     		ldr	r2, [r3]
 5886 0172 22F48062 		bic	r2, r2, #1024
 5887 0176 1A60     		str	r2, [r3]
 5888 0178 5A68     		ldr	r2, [r3, #4]
 5889 017a 12F40062 		ands	r2, r2, #2048
 5890 017e 0DD0     		beq	.L923
 5891 0180 1A68     		ldr	r2, [r3]
 5892 0182 22F48062 		bic	r2, r2, #1024
 5893 0186 1A60     		str	r2, [r3]
 5894 0188 0022     		movs	r2, #0
 5895 018a 0392     		str	r2, [sp, #12]
 5896 018c 5A69     		ldr	r2, [r3, #20]
 5897 018e 0392     		str	r2, [sp, #12]
 5898 0190 9B69     		ldr	r3, [r3, #24]
 5899 0192 0393     		str	r3, [sp, #12]
 5900 0194 039B     		ldr	r3, [sp, #12]
 5901              	.L920:
 5902 0196 0023     		movs	r3, #0
 5903              	.L1199:
 5904 0198 2365     		str	r3, [r4, #80]
 5905 019a 4DE7     		b	.L894
 5906              	.L923:
 5907 019c 0492     		str	r2, [sp, #16]
 5908 019e 5A69     		ldr	r2, [r3, #20]
 5909 01a0 0492     		str	r2, [sp, #16]
 5910 01a2 9A69     		ldr	r2, [r3, #24]
 5911 01a4 0492     		str	r2, [sp, #16]
 5912 01a6 049A     		ldr	r2, [sp, #16]
 5913 01a8 D6E7     		b	.L1193
 5914              	.L922:
 5915 01aa 082A     		cmp	r2, #8
 5916 01ac 1CD0     		beq	.L924
 5917 01ae 202A     		cmp	r2, #32
 5918 01b0 1AD0     		beq	.L924
 5919 01b2 122D     		cmp	r5, #18
 5920 01b4 0DD1     		bne	.L925
 5921 01b6 012A     		cmp	r2, #1
 5922 01b8 16D1     		bne	.L924
 5923              	.L926:
 5924 01ba 1A68     		ldr	r2, [r3]
 5925 01bc 22F48062 		bic	r2, r2, #1024
 5926              	.L1192:
 5927 01c0 1A60     		str	r2, [r3]
 5928 01c2 0022     		movs	r2, #0
 5929 01c4 0592     		str	r2, [sp, #20]
 5930 01c6 5A69     		ldr	r2, [r3, #20]
 5931 01c8 0592     		str	r2, [sp, #20]
 5932 01ca 9B69     		ldr	r3, [r3, #24]
 5933 01cc 0593     		str	r3, [sp, #20]
 5934 01ce 059B     		ldr	r3, [sp, #20]
 5935 01d0 E1E7     		b	.L920
ARM GAS  /tmp/ccfpVwxB.s 			page 103


 5936              	.L925:
 5937 01d2 102A     		cmp	r2, #16
 5938 01d4 F1D8     		bhi	.L926
 5939 01d6 9149     		ldr	r1, .L1215
 5940 01d8 21FA02F2 		lsr	r2, r1, r2
 5941 01dc D207     		lsls	r2, r2, #31
 5942 01de ECD5     		bpl	.L926
 5943 01e0 1A68     		ldr	r2, [r3]
 5944 01e2 42F48062 		orr	r2, r2, #1024
 5945 01e6 EBE7     		b	.L1192
 5946              	.L924:
 5947 01e8 1A68     		ldr	r2, [r3]
 5948 01ea 22F48062 		bic	r2, r2, #1024
 5949 01ee 1A60     		str	r2, [r3]
 5950 01f0 0022     		movs	r2, #0
 5951 01f2 0692     		str	r2, [sp, #24]
 5952 01f4 5A69     		ldr	r2, [r3, #20]
 5953 01f6 0692     		str	r2, [sp, #24]
 5954 01f8 9A69     		ldr	r2, [r3, #24]
 5955 01fa 0692     		str	r2, [sp, #24]
 5956 01fc 069A     		ldr	r2, [sp, #24]
 5957 01fe ABE7     		b	.L1193
 5958              	.L921:
 5959 0200 618D     		ldrh	r1, [r4, #42]
 5960 0202 89B2     		uxth	r1, r1
 5961 0204 0229     		cmp	r1, #2
 5962 0206 35D1     		bne	.L929
 5963 0208 102A     		cmp	r2, #16
 5964 020a 05D8     		bhi	.L930
 5965 020c 8349     		ldr	r1, .L1215
 5966 020e D140     		lsrs	r1, r1, r2
 5967 0210 C943     		mvns	r1, r1
 5968 0212 11F00101 		ands	r1, r1, #1
 5969 0216 22D0     		beq	.L931
 5970              	.L930:
 5971 0218 1968     		ldr	r1, [r3]
 5972 021a 41F40061 		orr	r1, r1, #2048
 5973 021e 1960     		str	r1, [r3]
 5974 0220 0021     		movs	r1, #0
 5975 0222 0791     		str	r1, [sp, #28]
 5976 0224 5969     		ldr	r1, [r3, #20]
 5977 0226 0791     		str	r1, [sp, #28]
 5978 0228 9969     		ldr	r1, [r3, #24]
 5979 022a 0791     		str	r1, [sp, #28]
 5980 022c 0799     		ldr	r1, [sp, #28]
 5981 022e 1968     		ldr	r1, [r3]
 5982 0230 21F48061 		bic	r1, r1, #1024
 5983 0234 1960     		str	r1, [r3]
 5984              	.L932:
 5985 0236 5968     		ldr	r1, [r3, #4]
 5986 0238 0D05     		lsls	r5, r1, #20
 5987 023a ACD5     		bpl	.L920
 5988 023c 12F5803F 		cmn	r2, #65536
 5989 0240 08D0     		beq	.L933
 5990 0242 511E     		subs	r1, r2, #1
 5991 0244 1F29     		cmp	r1, #31
 5992 0246 97BF     		itett	ls
ARM GAS  /tmp/ccfpVwxB.s 			page 104


 5993 0248 754A     		ldrls	r2, .L1215+4
 5994 024a 0122     		movhi	r2, #1
 5995 024c CA40     		lsrls	r2, r2, r1
 5996 024e D243     		mvnls	r2, r2
 5997 0250 D007     		lsls	r0, r2, #31
 5998 0252 A0D4     		bmi	.L920
 5999              	.L933:
 6000 0254 5A68     		ldr	r2, [r3, #4]
 6001 0256 42F48052 		orr	r2, r2, #4096
 6002 025a 5A60     		str	r2, [r3, #4]
 6003 025c 9BE7     		b	.L920
 6004              	.L931:
 6005 025e 1868     		ldr	r0, [r3]
 6006 0260 40F48060 		orr	r0, r0, #1024
 6007 0264 1860     		str	r0, [r3]
 6008 0266 0891     		str	r1, [sp, #32]
 6009 0268 5969     		ldr	r1, [r3, #20]
 6010 026a 0891     		str	r1, [sp, #32]
 6011 026c 9969     		ldr	r1, [r3, #24]
 6012 026e 0891     		str	r1, [sp, #32]
 6013 0270 0899     		ldr	r1, [sp, #32]
 6014 0272 E0E7     		b	.L932
 6015              	.L929:
 6016 0274 1968     		ldr	r1, [r3]
 6017 0276 41F48061 		orr	r1, r1, #1024
 6018 027a 1960     		str	r1, [r3]
 6019 027c 5968     		ldr	r1, [r3, #4]
 6020 027e 0905     		lsls	r1, r1, #20
 6021 0280 10D5     		bpl	.L935
 6022 0282 12F5803F 		cmn	r2, #65536
 6023 0286 09D0     		beq	.L936
 6024 0288 013A     		subs	r2, r2, #1
 6025 028a 1F2A     		cmp	r2, #31
 6026 028c 97BF     		itett	ls
 6027 028e 6449     		ldrls	r1, .L1215+4
 6028 0290 0122     		movhi	r2, #1
 6029 0292 21FA02F2 		lsrls	r2, r1, r2
 6030 0296 D243     		mvnls	r2, r2
 6031 0298 D207     		lsls	r2, r2, #31
 6032 029a 03D4     		bmi	.L935
 6033              	.L936:
 6034 029c 5A68     		ldr	r2, [r3, #4]
 6035 029e 42F48052 		orr	r2, r2, #4096
 6036 02a2 5A60     		str	r2, [r3, #4]
 6037              	.L935:
 6038 02a4 0022     		movs	r2, #0
 6039 02a6 0992     		str	r2, [sp, #36]
 6040 02a8 5A69     		ldr	r2, [r3, #20]
 6041 02aa 0992     		str	r2, [sp, #36]
 6042 02ac 9B69     		ldr	r3, [r3, #24]
 6043 02ae 0993     		str	r3, [sp, #36]
 6044 02b0 099B     		ldr	r3, [sp, #36]
 6045 02b2 70E7     		b	.L920
 6046              	.L916:
 6047 02b4 0022     		movs	r2, #0
 6048 02b6 0A92     		str	r2, [sp, #40]
 6049 02b8 5A69     		ldr	r2, [r3, #20]
ARM GAS  /tmp/ccfpVwxB.s 			page 105


 6050 02ba 0A92     		str	r2, [sp, #40]
 6051 02bc 9B69     		ldr	r3, [r3, #24]
 6052 02be 0A93     		str	r3, [sp, #40]
 6053 02c0 0A9B     		ldr	r3, [sp, #40]
 6054 02c2 B9E6     		b	.L894
 6055              	.L915:
 6056 02c4 10F0040F 		tst	r0, #4
 6057 02c8 5868     		ldr	r0, [r3, #4]
 6058 02ca 00F0AB80 		beq	.L938
 6059 02ce 0505     		lsls	r5, r0, #20
 6060 02d0 3FF5B2AE 		bmi	.L894
 6061 02d4 11F0800F 		tst	r1, #128
 6062 02d8 01F00401 		and	r1, r1, #4
 6063 02dc 67D0     		beq	.L939
 6064 02de 5005     		lsls	r0, r2, #21
 6065 02e0 65D5     		bpl	.L939
 6066 02e2 0029     		cmp	r1, #0
 6067 02e4 63D1     		bne	.L939
 6068 02e6 94F83D20 		ldrb	r2, [r4, #61]	@ zero_extendqisi2
 6069 02ea 258D     		ldrh	r5, [r4, #40]
 6070 02ec 94F83E10 		ldrb	r1, [r4, #62]	@ zero_extendqisi2
 6071 02f0 D2B2     		uxtb	r2, r2
 6072 02f2 C9B2     		uxtb	r1, r1
 6073 02f4 E06A     		ldr	r0, [r4, #44]
 6074 02f6 B5B9     		cbnz	r5, .L940
 6075 02f8 212A     		cmp	r2, #33
 6076 02fa 16D1     		bne	.L941
 6077 02fc 0828     		cmp	r0, #8
 6078 02fe 76D0     		beq	.L952
 6079 0300 2028     		cmp	r0, #32
 6080 0302 74D0     		beq	.L952
 6081 0304 10F5803F 		cmn	r0, #65536
 6082 0308 71D0     		beq	.L952
 6083 030a 5A68     		ldr	r2, [r3, #4]
 6084 030c 22F4E062 		bic	r2, r2, #1792
 6085 0310 5A60     		str	r2, [r3, #4]
 6086 0312 1123     		movs	r3, #17
 6087 0314 2363     		str	r3, [r4, #48]
 6088 0316 0023     		movs	r3, #0
 6089 0318 84F83E30 		strb	r3, [r4, #62]
 6090              	.L1214:
 6091 031c 2023     		movs	r3, #32
 6092 031e 84F83D30 		strb	r3, [r4, #61]
 6093              	.L953:
 6094 0322 636D     		ldr	r3, [r4, #84]
 6095 0324 77E0     		b	.L1200
 6096              	.L940:
 6097 0326 212A     		cmp	r2, #33
 6098 0328 05D0     		beq	.L944
 6099              	.L941:
 6100 032a 4029     		cmp	r1, #64
 6101 032c 7FF484AE 		bne	.L894
 6102 0330 222A     		cmp	r2, #34
 6103 0332 7FF481AE 		bne	.L894
 6104              	.L944:
 6105 0336 628D     		ldrh	r2, [r4, #42]
 6106 0338 92B2     		uxth	r2, r2
ARM GAS  /tmp/ccfpVwxB.s 			page 106


 6107 033a 1AB9     		cbnz	r2, .L945
 6108 033c 5A68     		ldr	r2, [r3, #4]
 6109 033e 22F48062 		bic	r2, r2, #1024
 6110 0342 B3E6     		b	.L1198
 6111              	.L945:
 6112 0344 94F83E20 		ldrb	r2, [r4, #62]	@ zero_extendqisi2
 6113 0348 402A     		cmp	r2, #64
 6114 034a 26D1     		bne	.L1209
 6115 034c 226D     		ldr	r2, [r4, #80]
 6116 034e 62B9     		cbnz	r2, .L947
 6117 0350 E26C     		ldr	r2, [r4, #76]
 6118 0352 012A     		cmp	r2, #1
 6119 0354 A26C     		ldr	r2, [r4, #72]
 6120 0356 04D1     		bne	.L948
 6121 0358 D2B2     		uxtb	r2, r2
 6122 035a 1A61     		str	r2, [r3, #16]
 6123 035c 236D     		ldr	r3, [r4, #80]
 6124 035e 0233     		adds	r3, r3, #2
 6125 0360 1AE7     		b	.L1199
 6126              	.L948:
 6127 0362 C2F30722 		ubfx	r2, r2, #8, #8
 6128              	.L1206:
 6129 0366 1A61     		str	r2, [r3, #16]
 6130 0368 EAE6     		b	.L1205
 6131              	.L947:
 6132 036a 226D     		ldr	r2, [r4, #80]
 6133 036c 012A     		cmp	r2, #1
 6134 036e 02D1     		bne	.L949
 6135 0370 A26C     		ldr	r2, [r4, #72]
 6136 0372 D2B2     		uxtb	r2, r2
 6137 0374 F7E7     		b	.L1206
 6138              	.L949:
 6139 0376 226D     		ldr	r2, [r4, #80]
 6140 0378 022A     		cmp	r2, #2
 6141 037a 7FF45DAE 		bne	.L894
 6142 037e 94F83D20 		ldrb	r2, [r4, #61]	@ zero_extendqisi2
 6143 0382 222A     		cmp	r2, #34
 6144 0384 04D1     		bne	.L950
 6145 0386 1A68     		ldr	r2, [r3]
 6146 0388 42F48072 		orr	r2, r2, #256
 6147 038c 1A60     		str	r2, [r3]
 6148 038e 53E6     		b	.L894
 6149              	.L950:
 6150 0390 94F83D20 		ldrb	r2, [r4, #61]	@ zero_extendqisi2
 6151 0394 212A     		cmp	r2, #33
 6152 0396 7FF44FAE 		bne	.L894
 6153              	.L1209:
 6154 039a 626A     		ldr	r2, [r4, #36]
 6155 039c 12F8011B 		ldrb	r1, [r2], #1	@ zero_extendqisi2
 6156 03a0 1961     		str	r1, [r3, #16]
 6157 03a2 6262     		str	r2, [r4, #36]
 6158              	.L1197:
 6159 03a4 638D     		ldrh	r3, [r4, #42]
 6160 03a6 013B     		subs	r3, r3, #1
 6161 03a8 9BB2     		uxth	r3, r3
 6162 03aa 6385     		strh	r3, [r4, #42]	@ movhi
 6163 03ac 44E6     		b	.L894
ARM GAS  /tmp/ccfpVwxB.s 			page 107


 6164              	.L939:
 6165 03ae 0029     		cmp	r1, #0
 6166 03b0 3FF442AE 		beq	.L894
 6167 03b4 9205     		lsls	r2, r2, #22
 6168 03b6 7FF53FAE 		bpl	.L894
 6169 03ba E16A     		ldr	r1, [r4, #44]
 6170 03bc 94F83D20 		ldrb	r2, [r4, #61]	@ zero_extendqisi2
 6171 03c0 212A     		cmp	r2, #33
 6172 03c2 7FF439AE 		bne	.L894
 6173 03c6 628D     		ldrh	r2, [r4, #42]
 6174 03c8 92B2     		uxth	r2, r2
 6175 03ca 002A     		cmp	r2, #0
 6176 03cc E5D1     		bne	.L1209
 6177 03ce 0829     		cmp	r1, #8
 6178 03d0 0DD0     		beq	.L952
 6179 03d2 2029     		cmp	r1, #32
 6180 03d4 0BD0     		beq	.L952
 6181 03d6 11F5803F 		cmn	r1, #65536
 6182 03da 08D0     		beq	.L952
 6183 03dc 5968     		ldr	r1, [r3, #4]
 6184 03de 21F4E061 		bic	r1, r1, #1792
 6185 03e2 5960     		str	r1, [r3, #4]
 6186 03e4 1123     		movs	r3, #17
 6187 03e6 2363     		str	r3, [r4, #48]
 6188 03e8 84F83E20 		strb	r2, [r4, #62]
 6189 03ec 96E7     		b	.L1214
 6190              	.L952:
 6191 03ee 5A68     		ldr	r2, [r3, #4]
 6192 03f0 22F4E062 		bic	r2, r2, #1792
 6193 03f4 5A60     		str	r2, [r3, #4]
 6194 03f6 1A68     		ldr	r2, [r3]
 6195 03f8 42F40072 		orr	r2, r2, #512
 6196 03fc 1A60     		str	r2, [r3]
 6197 03fe 0023     		movs	r3, #0
 6198 0400 2022     		movs	r2, #32
 6199 0402 2363     		str	r3, [r4, #48]
 6200 0404 84F83D20 		strb	r2, [r4, #61]
 6201 0408 94F83E20 		ldrb	r2, [r4, #62]	@ zero_extendqisi2
 6202 040c 84F83E30 		strb	r3, [r4, #62]
 6203 0410 402A     		cmp	r2, #64
 6204 0412 86D1     		bne	.L953
 6205 0414 A36E     		ldr	r3, [r4, #104]
 6206              	.L1200:
 6207 0416 2046     		mov	r0, r4
 6208 0418 9847     		blx	r3
 6209 041a 0DE6     		b	.L894
 6210              	.L1216:
 6211              		.align	2
 6212              	.L1215:
 6213 041c 14000100 		.word	65556
 6214 0420 81800080 		.word	-2147450751
 6215              	.L938:
 6216 0424 0505     		lsls	r5, r0, #20
 6217 0426 3FF507AE 		bmi	.L894
 6218 042a 11F0400F 		tst	r1, #64
 6219 042e 01F00401 		and	r1, r1, #4
 6220 0432 46D0     		beq	.L954
ARM GAS  /tmp/ccfpVwxB.s 			page 108


 6221 0434 5005     		lsls	r0, r2, #21
 6222 0436 44D5     		bpl	.L954
 6223 0438 0029     		cmp	r1, #0
 6224 043a 42D1     		bne	.L954
 6225 043c 94F83D20 		ldrb	r2, [r4, #61]	@ zero_extendqisi2
 6226 0440 222A     		cmp	r2, #34
 6227 0442 7FF4F9AD 		bne	.L894
 6228 0446 628D     		ldrh	r2, [r4, #42]
 6229 0448 92B2     		uxth	r2, r2
 6230 044a 032A     		cmp	r2, #3
 6231 044c 14D9     		bls	.L955
 6232 044e 1B69     		ldr	r3, [r3, #16]
 6233 0450 626A     		ldr	r2, [r4, #36]
 6234 0452 1370     		strb	r3, [r2]
 6235 0454 636A     		ldr	r3, [r4, #36]
 6236 0456 0133     		adds	r3, r3, #1
 6237 0458 6362     		str	r3, [r4, #36]
 6238 045a 638D     		ldrh	r3, [r4, #42]
 6239 045c 013B     		subs	r3, r3, #1
 6240 045e 9BB2     		uxth	r3, r3
 6241 0460 6385     		strh	r3, [r4, #42]	@ movhi
 6242 0462 638D     		ldrh	r3, [r4, #42]
 6243 0464 9BB2     		uxth	r3, r3
 6244 0466 032B     		cmp	r3, #3
 6245 0468 7FF4E6AD 		bne	.L894
 6246 046c 2268     		ldr	r2, [r4]
 6247 046e 5368     		ldr	r3, [r2, #4]
 6248 0470 23F48063 		bic	r3, r3, #1024
 6249 0474 5360     		str	r3, [r2, #4]
 6250 0476 DFE5     		b	.L894
 6251              	.L955:
 6252 0478 E06A     		ldr	r0, [r4, #44]
 6253 047a 0228     		cmp	r0, #2
 6254 047c 3FF4DCAD 		beq	.L894
 6255 0480 012A     		cmp	r2, #1
 6256 0482 3FF6D9AD 		bhi	.L894
 6257 0486 1A68     		ldr	r2, [r3]
 6258 0488 22F48062 		bic	r2, r2, #1024
 6259 048c 1A60     		str	r2, [r3]
 6260 048e 5A68     		ldr	r2, [r3, #4]
 6261 0490 22F4E062 		bic	r2, r2, #1792
 6262 0494 5A60     		str	r2, [r3, #4]
 6263 0496 1B69     		ldr	r3, [r3, #16]
 6264 0498 626A     		ldr	r2, [r4, #36]
 6265 049a 1370     		strb	r3, [r2]
 6266 049c 636A     		ldr	r3, [r4, #36]
 6267 049e 0133     		adds	r3, r3, #1
 6268 04a0 6362     		str	r3, [r4, #36]
 6269 04a2 638D     		ldrh	r3, [r4, #42]
 6270 04a4 013B     		subs	r3, r3, #1
 6271 04a6 9BB2     		uxth	r3, r3
 6272 04a8 6385     		strh	r3, [r4, #42]	@ movhi
 6273 04aa 2023     		movs	r3, #32
 6274 04ac 84F83D30 		strb	r3, [r4, #61]
 6275 04b0 94F83E30 		ldrb	r3, [r4, #62]	@ zero_extendqisi2
 6276 04b4 84F83E10 		strb	r1, [r4, #62]
 6277 04b8 402B     		cmp	r3, #64
ARM GAS  /tmp/ccfpVwxB.s 			page 109


 6278 04ba 66D1     		bne	.L966
 6279 04bc 2163     		str	r1, [r4, #48]
 6280              	.L1207:
 6281 04be E36E     		ldr	r3, [r4, #108]
 6282 04c0 A9E7     		b	.L1200
 6283              	.L954:
 6284 04c2 0029     		cmp	r1, #0
 6285 04c4 3FF4B8AD 		beq	.L894
 6286 04c8 9205     		lsls	r2, r2, #22
 6287 04ca 7FF5B5AD 		bpl	.L894
 6288 04ce E26A     		ldr	r2, [r4, #44]
 6289 04d0 618D     		ldrh	r1, [r4, #42]
 6290 04d2 89B2     		uxth	r1, r1
 6291 04d4 0429     		cmp	r1, #4
 6292 04d6 616A     		ldr	r1, [r4, #36]
 6293 04d8 09D1     		bne	.L957
 6294 04da 5A68     		ldr	r2, [r3, #4]
 6295 04dc 22F48062 		bic	r2, r2, #1024
 6296 04e0 5A60     		str	r2, [r3, #4]
 6297              	.L960:
 6298 04e2 1B69     		ldr	r3, [r3, #16]
 6299 04e4 0B70     		strb	r3, [r1]
 6300              	.L1202:
 6301 04e6 636A     		ldr	r3, [r4, #36]
 6302 04e8 0133     		adds	r3, r3, #1
 6303 04ea 6362     		str	r3, [r4, #36]
 6304 04ec 5AE7     		b	.L1197
 6305              	.L957:
 6306 04ee 608D     		ldrh	r0, [r4, #42]
 6307 04f0 80B2     		uxth	r0, r0
 6308 04f2 0328     		cmp	r0, #3
 6309 04f4 0CD1     		bne	.L958
 6310 04f6 5868     		ldr	r0, [r3, #4]
 6311 04f8 042A     		cmp	r2, #4
 6312 04fa 20F48060 		bic	r0, r0, #1024
 6313 04fe 5860     		str	r0, [r3, #4]
 6314 0500 EFD0     		beq	.L960
 6315 0502 022A     		cmp	r2, #2
 6316 0504 EDD0     		beq	.L960
 6317 0506 1A68     		ldr	r2, [r3]
 6318 0508 22F48062 		bic	r2, r2, #1024
 6319 050c 1A60     		str	r2, [r3]
 6320 050e E8E7     		b	.L960
 6321              	.L958:
 6322 0510 608D     		ldrh	r0, [r4, #42]
 6323 0512 80B2     		uxth	r0, r0
 6324 0514 0228     		cmp	r0, #2
 6325 0516 E4D1     		bne	.L960
 6326 0518 012A     		cmp	r2, #1
 6327 051a 01D0     		beq	.L961
 6328 051c 102A     		cmp	r2, #16
 6329 051e 28D1     		bne	.L962
 6330              	.L961:
 6331 0520 1A68     		ldr	r2, [r3]
 6332 0522 22F48062 		bic	r2, r2, #1024
 6333              	.L1194:
 6334 0526 1A60     		str	r2, [r3]
ARM GAS  /tmp/ccfpVwxB.s 			page 110


 6335 0528 1B69     		ldr	r3, [r3, #16]
 6336 052a 0B70     		strb	r3, [r1]
 6337 052c 626A     		ldr	r2, [r4, #36]
 6338 052e 531C     		adds	r3, r2, #1
 6339 0530 6362     		str	r3, [r4, #36]
 6340 0532 638D     		ldrh	r3, [r4, #42]
 6341 0534 013B     		subs	r3, r3, #1
 6342 0536 9BB2     		uxth	r3, r3
 6343 0538 6385     		strh	r3, [r4, #42]	@ movhi
 6344 053a 2368     		ldr	r3, [r4]
 6345 053c 1B69     		ldr	r3, [r3, #16]
 6346 053e 5370     		strb	r3, [r2, #1]
 6347 0540 636A     		ldr	r3, [r4, #36]
 6348 0542 2268     		ldr	r2, [r4]
 6349 0544 0133     		adds	r3, r3, #1
 6350 0546 6362     		str	r3, [r4, #36]
 6351 0548 638D     		ldrh	r3, [r4, #42]
 6352 054a 013B     		subs	r3, r3, #1
 6353 054c 9BB2     		uxth	r3, r3
 6354 054e 6385     		strh	r3, [r4, #42]	@ movhi
 6355 0550 5368     		ldr	r3, [r2, #4]
 6356 0552 23F44073 		bic	r3, r3, #768
 6357 0556 5360     		str	r3, [r2, #4]
 6358 0558 2023     		movs	r3, #32
 6359 055a 84F83D30 		strb	r3, [r4, #61]
 6360 055e 94F83E30 		ldrb	r3, [r4, #62]	@ zero_extendqisi2
 6361 0562 402B     		cmp	r3, #64
 6362 0564 4FF00003 		mov	r3, #0
 6363 0568 84F83E30 		strb	r3, [r4, #62]
 6364 056c 0DD1     		bne	.L966
 6365 056e 2363     		str	r3, [r4, #48]
 6366 0570 A5E7     		b	.L1207
 6367              	.L962:
 6368 0572 042A     		cmp	r2, #4
 6369 0574 01D0     		beq	.L964
 6370 0576 022A     		cmp	r2, #2
 6371 0578 03D1     		bne	.L965
 6372              	.L964:
 6373 057a 1A68     		ldr	r2, [r3]
 6374 057c 42F48062 		orr	r2, r2, #1024
 6375 0580 D1E7     		b	.L1194
 6376              	.L965:
 6377 0582 1A68     		ldr	r2, [r3]
 6378 0584 42F40072 		orr	r2, r2, #512
 6379 0588 CDE7     		b	.L1194
 6380              	.L966:
 6381 058a 1223     		movs	r3, #18
 6382 058c 2363     		str	r3, [r4, #48]
 6383 058e A36D     		ldr	r3, [r4, #88]
 6384 0590 41E7     		b	.L1200
 6385              	.L896:
 6386 0592 216C     		ldr	r1, [r4, #64]
 6387 0594 21B3     		cbz	r1, .L967
 6388 0596 0025     		movs	r5, #0
 6389 0598 5969     		ldr	r1, [r3, #20]
 6390              	.L968:
 6391 059a 11F0020F 		tst	r1, #2
ARM GAS  /tmp/ccfpVwxB.s 			page 111


 6392 059e 29D0     		beq	.L969
 6393 05a0 12F4007F 		tst	r2, #512
 6394 05a4 26D0     		beq	.L969
 6395 05a6 226C     		ldr	r2, [r4, #64]
 6396 05a8 02B1     		cbz	r2, .L970
 6397 05aa 9D69     		ldr	r5, [r3, #24]
 6398              	.L970:
 6399 05ac 94F83D20 		ldrb	r2, [r4, #61]	@ zero_extendqisi2
 6400 05b0 02F02802 		and	r2, r2, #40
 6401 05b4 282A     		cmp	r2, #40
 6402 05b6 16D1     		bne	.L971
 6403 05b8 5A68     		ldr	r2, [r3, #4]
 6404 05ba 85F00401 		eor	r1, r5, #4
 6405 05be 22F48062 		bic	r2, r2, #1024
 6406 05c2 5A60     		str	r2, [r3, #4]
 6407 05c4 2B06     		lsls	r3, r5, #24
 6408 05c6 4FF00003 		mov	r3, #0
 6409 05ca C1F38001 		ubfx	r1, r1, #2, #1
 6410 05ce 84F83C30 		strb	r3, [r4, #60]
 6411 05d2 54BF     		ite	pl
 6412 05d4 A289     		ldrhpl	r2, [r4, #12]
 6413 05d6 228B     		ldrhmi	r2, [r4, #24]
 6414 05d8 A36F     		ldr	r3, [r4, #120]
 6415 05da 2046     		mov	r0, r4
 6416 05dc 9847     		blx	r3
 6417 05de 2BE5     		b	.L894
 6418              	.L967:
 6419 05e0 9D69     		ldr	r5, [r3, #24]
 6420 05e2 5969     		ldr	r1, [r3, #20]
 6421 05e4 D9E7     		b	.L968
 6422              	.L971:
 6423 05e6 6FF00202 		mvn	r2, #2
 6424 05ea 5A61     		str	r2, [r3, #20]
 6425 05ec 0023     		movs	r3, #0
 6426 05ee 84F83C30 		strb	r3, [r4, #60]
 6427 05f2 21E5     		b	.L894
 6428              	.L969:
 6429 05f4 CD06     		lsls	r5, r1, #27
 6430 05f6 40F1AB80 		bpl	.L974
 6431 05fa 9505     		lsls	r5, r2, #22
 6432 05fc 40F1A880 		bpl	.L974
 6433 0600 94F83D50 		ldrb	r5, [r4, #61]	@ zero_extendqisi2
 6434 0604 5A68     		ldr	r2, [r3, #4]
 6435 0606 EDB2     		uxtb	r5, r5
 6436 0608 22F4E062 		bic	r2, r2, #1792
 6437 060c 5A60     		str	r2, [r3, #4]
 6438 060e 0022     		movs	r2, #0
 6439 0610 0B92     		str	r2, [sp, #44]
 6440 0612 5A69     		ldr	r2, [r3, #20]
 6441 0614 0B92     		str	r2, [sp, #44]
 6442 0616 1A68     		ldr	r2, [r3]
 6443 0618 42F00102 		orr	r2, r2, #1
 6444 061c 1A60     		str	r2, [r3]
 6445 061e 0B9A     		ldr	r2, [sp, #44]
 6446 0620 1A68     		ldr	r2, [r3]
 6447 0622 22F48062 		bic	r2, r2, #1024
 6448 0626 1A60     		str	r2, [r3]
ARM GAS  /tmp/ccfpVwxB.s 			page 112


 6449 0628 5A68     		ldr	r2, [r3, #4]
 6450 062a 1105     		lsls	r1, r2, #20
 6451 062c 20D5     		bpl	.L976
 6452 062e 05F0F702 		and	r2, r5, #247
 6453 0632 222A     		cmp	r2, #34
 6454 0634 48D1     		bne	.L977
 6455 0636 A06B     		ldr	r0, [r4, #56]
 6456 0638 0268     		ldr	r2, [r0]
 6457 063a 5268     		ldr	r2, [r2, #4]
 6458 063c 92B2     		uxth	r2, r2
 6459 063e 6285     		strh	r2, [r4, #42]	@ movhi
 6460 0640 628D     		ldrh	r2, [r4, #42]
 6461 0642 92B2     		uxth	r2, r2
 6462 0644 1AB1     		cbz	r2, .L978
 6463 0646 226C     		ldr	r2, [r4, #64]
 6464 0648 42F00402 		orr	r2, r2, #4
 6465 064c 2264     		str	r2, [r4, #64]
 6466              	.L978:
 6467 064e 5A68     		ldr	r2, [r3, #4]
 6468 0650 22F40062 		bic	r2, r2, #2048
 6469 0654 5A60     		str	r2, [r3, #4]
 6470 0656 FFF7FEFF 		bl	HAL_DMA_GetState
 6471 065a 0128     		cmp	r0, #1
 6472 065c 08D0     		beq	.L976
 6473 065e A06B     		ldr	r0, [r4, #56]
 6474 0660 754B     		ldr	r3, .L1217
 6475 0662 4363     		str	r3, [r0, #52]
 6476 0664 FFF7FEFF 		bl	HAL_DMA_Abort_IT
 6477 0668 10B1     		cbz	r0, .L976
 6478 066a A06B     		ldr	r0, [r4, #56]
 6479              	.L1195:
 6480 066c 436B     		ldr	r3, [r0, #52]
 6481 066e 9847     		blx	r3
 6482              	.L976:
 6483 0670 638D     		ldrh	r3, [r4, #42]
 6484 0672 9BB2     		uxth	r3, r3
 6485 0674 13B3     		cbz	r3, .L982
 6486 0676 2368     		ldr	r3, [r4]
 6487 0678 5A69     		ldr	r2, [r3, #20]
 6488 067a 5207     		lsls	r2, r2, #29
 6489 067c 09D5     		bpl	.L983
 6490 067e 1B69     		ldr	r3, [r3, #16]
 6491 0680 626A     		ldr	r2, [r4, #36]
 6492 0682 1370     		strb	r3, [r2]
 6493 0684 636A     		ldr	r3, [r4, #36]
 6494 0686 0133     		adds	r3, r3, #1
 6495 0688 6362     		str	r3, [r4, #36]
 6496 068a 638D     		ldrh	r3, [r4, #42]
 6497 068c 013B     		subs	r3, r3, #1
 6498 068e 9BB2     		uxth	r3, r3
 6499 0690 6385     		strh	r3, [r4, #42]	@ movhi
 6500              	.L983:
 6501 0692 2368     		ldr	r3, [r4]
 6502 0694 5A69     		ldr	r2, [r3, #20]
 6503 0696 5006     		lsls	r0, r2, #25
 6504 0698 09D5     		bpl	.L984
 6505 069a 1B69     		ldr	r3, [r3, #16]
ARM GAS  /tmp/ccfpVwxB.s 			page 113


 6506 069c 626A     		ldr	r2, [r4, #36]
 6507 069e 1370     		strb	r3, [r2]
 6508 06a0 636A     		ldr	r3, [r4, #36]
 6509 06a2 0133     		adds	r3, r3, #1
 6510 06a4 6362     		str	r3, [r4, #36]
 6511 06a6 638D     		ldrh	r3, [r4, #42]
 6512 06a8 013B     		subs	r3, r3, #1
 6513 06aa 9BB2     		uxth	r3, r3
 6514 06ac 6385     		strh	r3, [r4, #42]	@ movhi
 6515              	.L984:
 6516 06ae 638D     		ldrh	r3, [r4, #42]
 6517 06b0 9BB2     		uxth	r3, r3
 6518 06b2 1BB1     		cbz	r3, .L982
 6519 06b4 236C     		ldr	r3, [r4, #64]
 6520 06b6 43F00403 		orr	r3, r3, #4
 6521 06ba 2364     		str	r3, [r4, #64]
 6522              	.L982:
 6523 06bc 236C     		ldr	r3, [r4, #64]
 6524 06be 03B3     		cbz	r3, .L986
 6525 06c0 2046     		mov	r0, r4
 6526 06c2 FFF7FEFF 		bl	I2C_ITError
 6527 06c6 B7E4     		b	.L894
 6528              	.L977:
 6529 06c8 606B     		ldr	r0, [r4, #52]
 6530 06ca 0268     		ldr	r2, [r0]
 6531 06cc 5268     		ldr	r2, [r2, #4]
 6532 06ce 92B2     		uxth	r2, r2
 6533 06d0 6285     		strh	r2, [r4, #42]	@ movhi
 6534 06d2 628D     		ldrh	r2, [r4, #42]
 6535 06d4 92B2     		uxth	r2, r2
 6536 06d6 1AB1     		cbz	r2, .L980
 6537 06d8 226C     		ldr	r2, [r4, #64]
 6538 06da 42F00402 		orr	r2, r2, #4
 6539 06de 2264     		str	r2, [r4, #64]
 6540              	.L980:
 6541 06e0 5A68     		ldr	r2, [r3, #4]
 6542 06e2 22F40062 		bic	r2, r2, #2048
 6543 06e6 5A60     		str	r2, [r3, #4]
 6544 06e8 FFF7FEFF 		bl	HAL_DMA_GetState
 6545 06ec 0128     		cmp	r0, #1
 6546 06ee BFD0     		beq	.L976
 6547 06f0 606B     		ldr	r0, [r4, #52]
 6548 06f2 514B     		ldr	r3, .L1217
 6549 06f4 4363     		str	r3, [r0, #52]
 6550 06f6 FFF7FEFF 		bl	HAL_DMA_Abort_IT
 6551 06fa 0028     		cmp	r0, #0
 6552 06fc B8D0     		beq	.L976
 6553 06fe 606B     		ldr	r0, [r4, #52]
 6554 0700 B4E7     		b	.L1195
 6555              	.L986:
 6556 0702 2A2D     		cmp	r5, #42
 6557 0704 06D1     		bne	.L987
 6558 0706 2363     		str	r3, [r4, #48]
 6559 0708 2823     		movs	r3, #40
 6560 070a 2046     		mov	r0, r4
 6561 070c 84F83D30 		strb	r3, [r4, #61]
 6562 0710 236E     		ldr	r3, [r4, #96]
ARM GAS  /tmp/ccfpVwxB.s 			page 114


 6563 0712 9847     		blx	r3
 6564              	.L987:
 6565 0714 94F83D30 		ldrb	r3, [r4, #61]	@ zero_extendqisi2
 6566 0718 282B     		cmp	r3, #40
 6567 071a 0AD1     		bne	.L988
 6568 071c 474B     		ldr	r3, .L1217+4
 6569 071e 2022     		movs	r2, #32
 6570 0720 E362     		str	r3, [r4, #44]
 6571 0722 0023     		movs	r3, #0
 6572 0724 2363     		str	r3, [r4, #48]
 6573 0726 84F83D20 		strb	r2, [r4, #61]
 6574 072a 84F83E30 		strb	r3, [r4, #62]
 6575 072e 636E     		ldr	r3, [r4, #100]
 6576 0730 71E6     		b	.L1200
 6577              	.L988:
 6578 0732 236B     		ldr	r3, [r4, #48]
 6579 0734 222B     		cmp	r3, #34
 6580 0736 02D0     		beq	.L989
 6581 0738 222D     		cmp	r5, #34
 6582 073a 7FF47DAC 		bne	.L894
 6583              	.L989:
 6584 073e 0023     		movs	r3, #0
 6585 0740 2022     		movs	r2, #32
 6586 0742 2363     		str	r3, [r4, #48]
 6587 0744 84F83D20 		strb	r2, [r4, #61]
 6588 0748 84F83E30 		strb	r3, [r4, #62]
 6589              	.L1201:
 6590 074c 236E     		ldr	r3, [r4, #96]
 6591 074e 62E6     		b	.L1200
 6592              	.L974:
 6593 0750 00F0F700 		and	r0, r0, #247
 6594 0754 2128     		cmp	r0, #33
 6595 0756 01F00405 		and	r5, r1, #4
 6596 075a 33D1     		bne	.L990
 6597 075c 0906     		lsls	r1, r1, #24
 6598 075e 25D5     		bpl	.L991
 6599 0760 5105     		lsls	r1, r2, #21
 6600 0762 23D5     		bpl	.L991
 6601 0764 15BB     		cbnz	r5, .L991
 6602 0766 94F83D10 		ldrb	r1, [r4, #61]	@ zero_extendqisi2
 6603 076a 628D     		ldrh	r2, [r4, #42]
 6604 076c C9B2     		uxtb	r1, r1
 6605 076e 92B2     		uxth	r2, r2
 6606 0770 002A     		cmp	r2, #0
 6607 0772 3FF461AC 		beq	.L894
 6608 0776 626A     		ldr	r2, [r4, #36]
 6609 0778 12F8015B 		ldrb	r5, [r2], #1	@ zero_extendqisi2
 6610 077c 1D61     		str	r5, [r3, #16]
 6611 077e 6262     		str	r2, [r4, #36]
 6612 0780 628D     		ldrh	r2, [r4, #42]
 6613 0782 013A     		subs	r2, r2, #1
 6614 0784 92B2     		uxth	r2, r2
 6615 0786 6285     		strh	r2, [r4, #42]	@ movhi
 6616 0788 628D     		ldrh	r2, [r4, #42]
 6617 078a 92B2     		uxth	r2, r2
 6618 078c 002A     		cmp	r2, #0
 6619 078e 7FF453AC 		bne	.L894
ARM GAS  /tmp/ccfpVwxB.s 			page 115


 6620 0792 2929     		cmp	r1, #41
 6621 0794 7FF450AC 		bne	.L894
 6622 0798 5A68     		ldr	r2, [r3, #4]
 6623 079a 22F48062 		bic	r2, r2, #1024
 6624 079e 5A60     		str	r2, [r3, #4]
 6625 07a0 2823     		movs	r3, #40
 6626 07a2 2063     		str	r0, [r4, #48]
 6627 07a4 84F83D30 		strb	r3, [r4, #61]
 6628 07a8 E36D     		ldr	r3, [r4, #92]
 6629 07aa 34E6     		b	.L1200
 6630              	.L991:
 6631 07ac 002D     		cmp	r5, #0
 6632 07ae 3FF443AC 		beq	.L894
 6633 07b2 9505     		lsls	r5, r2, #22
 6634 07b4 7FF540AC 		bpl	.L894
 6635 07b8 628D     		ldrh	r2, [r4, #42]
 6636 07ba 92B2     		uxth	r2, r2
 6637 07bc 002A     		cmp	r2, #0
 6638 07be 7FF4ECAD 		bne	.L1209
 6639 07c2 39E4     		b	.L894
 6640              	.L990:
 6641 07c4 4806     		lsls	r0, r1, #25
 6642 07c6 27D5     		bpl	.L992
 6643 07c8 5105     		lsls	r1, r2, #21
 6644 07ca 25D5     		bpl	.L992
 6645 07cc 25BB     		cbnz	r5, .L992
 6646 07ce 94F83D20 		ldrb	r2, [r4, #61]	@ zero_extendqisi2
 6647 07d2 618D     		ldrh	r1, [r4, #42]
 6648 07d4 D2B2     		uxtb	r2, r2
 6649 07d6 89B2     		uxth	r1, r1
 6650 07d8 0029     		cmp	r1, #0
 6651 07da 3FF42DAC 		beq	.L894
 6652 07de 1B69     		ldr	r3, [r3, #16]
 6653 07e0 616A     		ldr	r1, [r4, #36]
 6654 07e2 0B70     		strb	r3, [r1]
 6655 07e4 636A     		ldr	r3, [r4, #36]
 6656 07e6 0133     		adds	r3, r3, #1
 6657 07e8 6362     		str	r3, [r4, #36]
 6658 07ea 638D     		ldrh	r3, [r4, #42]
 6659 07ec 013B     		subs	r3, r3, #1
 6660 07ee 9BB2     		uxth	r3, r3
 6661 07f0 6385     		strh	r3, [r4, #42]	@ movhi
 6662 07f2 638D     		ldrh	r3, [r4, #42]
 6663 07f4 9BB2     		uxth	r3, r3
 6664 07f6 002B     		cmp	r3, #0
 6665 07f8 7FF41EAC 		bne	.L894
 6666 07fc 2A2A     		cmp	r2, #42
 6667 07fe 7FF41BAC 		bne	.L894
 6668 0802 2268     		ldr	r2, [r4]
 6669 0804 5368     		ldr	r3, [r2, #4]
 6670 0806 23F48063 		bic	r3, r3, #1024
 6671 080a 5360     		str	r3, [r2, #4]
 6672 080c 2223     		movs	r3, #34
 6673 080e 2363     		str	r3, [r4, #48]
 6674 0810 2823     		movs	r3, #40
 6675 0812 84F83D30 		strb	r3, [r4, #61]
 6676 0816 99E7     		b	.L1201
ARM GAS  /tmp/ccfpVwxB.s 			page 116


 6677              	.L992:
 6678 0818 002D     		cmp	r5, #0
 6679 081a 3FF40DAC 		beq	.L894
 6680 081e 9205     		lsls	r2, r2, #22
 6681 0820 7FF50AAC 		bpl	.L894
 6682 0824 628D     		ldrh	r2, [r4, #42]
 6683 0826 92B2     		uxth	r2, r2
 6684 0828 002A     		cmp	r2, #0
 6685 082a 3FF405AC 		beq	.L894
 6686 082e 626A     		ldr	r2, [r4, #36]
 6687 0830 1B69     		ldr	r3, [r3, #16]
 6688 0832 1370     		strb	r3, [r2]
 6689 0834 57E6     		b	.L1202
 6690              	.L1218:
 6691 0836 00BF     		.align	2
 6692              	.L1217:
 6693 0838 00000000 		.word	I2C_DMAAbort
 6694 083c 0000FFFF 		.word	-65536
 6696              		.section	.text.HAL_I2C_ER_IRQHandler,"ax",%progbits
 6697              		.align	1
 6698              		.global	HAL_I2C_ER_IRQHandler
 6699              		.syntax unified
 6700              		.thumb
 6701              		.thumb_func
 6702              		.fpu softvfp
 6704              	HAL_I2C_ER_IRQHandler:
 6705              		@ args = 0, pretend = 0, frame = 0
 6706              		@ frame_needed = 0, uses_anonymous_args = 0
 6707 0000 F8B5     		push	{r3, r4, r5, r6, r7, lr}
 6708 0002 0368     		ldr	r3, [r0]
 6709 0004 0446     		mov	r4, r0
 6710 0006 5F69     		ldr	r7, [r3, #20]
 6711 0008 5E68     		ldr	r6, [r3, #4]
 6712 000a 17F48075 		ands	r5, r7, #256
 6713 000e 0AD0     		beq	.L1220
 6714 0010 16F48075 		ands	r5, r6, #256
 6715 0014 07D0     		beq	.L1220
 6716 0016 6FF48072 		mvn	r2, #256
 6717 001a 0125     		movs	r5, #1
 6718 001c 5A61     		str	r2, [r3, #20]
 6719 001e 1A68     		ldr	r2, [r3]
 6720 0020 42F40042 		orr	r2, r2, #32768
 6721 0024 1A60     		str	r2, [r3]
 6722              	.L1220:
 6723 0026 B905     		lsls	r1, r7, #22
 6724 0028 06D5     		bpl	.L1221
 6725 002a F205     		lsls	r2, r6, #23
 6726 002c 42BF     		ittt	mi
 6727 002e 6FF40072 		mvnmi	r2, #512
 6728 0032 45F00205 		orrmi	r5, r5, #2
 6729 0036 5A61     		strmi	r2, [r3, #20]
 6730              	.L1221:
 6731 0038 7805     		lsls	r0, r7, #21
 6732 003a 37D5     		bpl	.L1222
 6733 003c F105     		lsls	r1, r6, #23
 6734 003e 35D5     		bpl	.L1222
 6735 0040 94F83EE0 		ldrb	lr, [r4, #62]	@ zero_extendqisi2
ARM GAS  /tmp/ccfpVwxB.s 			page 117


 6736 0044 618D     		ldrh	r1, [r4, #42]
 6737 0046 94F83D20 		ldrb	r2, [r4, #61]	@ zero_extendqisi2
 6738 004a BEF1200F 		cmp	lr, #32
 6739 004e 89B2     		uxth	r1, r1
 6740 0050 D2B2     		uxtb	r2, r2
 6741 0052 206B     		ldr	r0, [r4, #48]
 6742 0054 58D1     		bne	.L1223
 6743 0056 0029     		cmp	r1, #0
 6744 0058 56D1     		bne	.L1223
 6745 005a 02F0F701 		and	r1, r2, #247
 6746 005e 2129     		cmp	r1, #33
 6747 0060 03D0     		beq	.L1224
 6748 0062 282A     		cmp	r2, #40
 6749 0064 50D1     		bne	.L1223
 6750 0066 2128     		cmp	r0, #33
 6751 0068 4ED1     		bne	.L1223
 6752              	.L1224:
 6753 006a 94F83D20 		ldrb	r2, [r4, #61]	@ zero_extendqisi2
 6754 006e E16A     		ldr	r1, [r4, #44]
 6755 0070 D2B2     		uxtb	r2, r2
 6756 0072 0829     		cmp	r1, #8
 6757 0074 01D0     		beq	.L1225
 6758 0076 2029     		cmp	r1, #32
 6759 0078 2AD1     		bne	.L1226
 6760              	.L1225:
 6761 007a 282A     		cmp	r2, #40
 6762 007c 28D1     		bne	.L1226
 6763 007e 2B4A     		ldr	r2, .L1258
 6764 0080 E262     		str	r2, [r4, #44]
 6765 0082 5A68     		ldr	r2, [r3, #4]
 6766 0084 22F4E062 		bic	r2, r2, #1792
 6767 0088 5A60     		str	r2, [r3, #4]
 6768 008a 6FF48062 		mvn	r2, #1024
 6769 008e 5A61     		str	r2, [r3, #20]
 6770 0090 1A68     		ldr	r2, [r3]
 6771 0092 22F48062 		bic	r2, r2, #1024
 6772 0096 1A60     		str	r2, [r3]
 6773 0098 0023     		movs	r3, #0
 6774 009a 2022     		movs	r2, #32
 6775 009c 2363     		str	r3, [r4, #48]
 6776 009e 84F83D20 		strb	r2, [r4, #61]
 6777 00a2 84F83E30 		strb	r3, [r4, #62]
 6778 00a6 636E     		ldr	r3, [r4, #100]
 6779              	.L1257:
 6780 00a8 2046     		mov	r0, r4
 6781 00aa 9847     		blx	r3
 6782              	.L1222:
 6783 00ac 3A05     		lsls	r2, r7, #20
 6784 00ae 39D5     		bpl	.L1228
 6785 00b0 F305     		lsls	r3, r6, #23
 6786 00b2 37D5     		bpl	.L1228
 6787 00b4 6FF40062 		mvn	r2, #2048
 6788 00b8 2368     		ldr	r3, [r4]
 6789 00ba 45F00805 		orr	r5, r5, #8
 6790 00be 5A61     		str	r2, [r3, #20]
 6791              	.L1229:
 6792 00c0 236C     		ldr	r3, [r4, #64]
ARM GAS  /tmp/ccfpVwxB.s 			page 118


 6793 00c2 2046     		mov	r0, r4
 6794 00c4 1D43     		orrs	r5, r5, r3
 6795 00c6 2564     		str	r5, [r4, #64]
 6796 00c8 BDE8F840 		pop	{r3, r4, r5, r6, r7, lr}
 6797 00cc FFF7FEBF 		b	I2C_ITError
 6798              	.L1226:
 6799 00d0 212A     		cmp	r2, #33
 6800 00d2 15D1     		bne	.L1227
 6801 00d4 1549     		ldr	r1, .L1258
 6802 00d6 E162     		str	r1, [r4, #44]
 6803 00d8 2263     		str	r2, [r4, #48]
 6804 00da 2022     		movs	r2, #32
 6805 00dc 84F83D20 		strb	r2, [r4, #61]
 6806 00e0 0022     		movs	r2, #0
 6807 00e2 84F83E20 		strb	r2, [r4, #62]
 6808 00e6 5A68     		ldr	r2, [r3, #4]
 6809 00e8 22F4E062 		bic	r2, r2, #1792
 6810 00ec 5A60     		str	r2, [r3, #4]
 6811 00ee 6FF48062 		mvn	r2, #1024
 6812 00f2 5A61     		str	r2, [r3, #20]
 6813 00f4 1A68     		ldr	r2, [r3]
 6814 00f6 22F48062 		bic	r2, r2, #1024
 6815 00fa 1A60     		str	r2, [r3]
 6816 00fc E36D     		ldr	r3, [r4, #92]
 6817 00fe D3E7     		b	.L1257
 6818              	.L1227:
 6819 0100 6FF48062 		mvn	r2, #1024
 6820 0104 5A61     		str	r2, [r3, #20]
 6821 0106 D1E7     		b	.L1222
 6822              	.L1223:
 6823 0108 6FF48062 		mvn	r2, #1024
 6824 010c 5A61     		str	r2, [r3, #20]
 6825 010e 94F83E20 		ldrb	r2, [r4, #62]	@ zero_extendqisi2
 6826 0112 45F00405 		orr	r5, r5, #4
 6827 0116 102A     		cmp	r2, #16
 6828 0118 02BF     		ittt	eq
 6829 011a 1A68     		ldreq	r2, [r3]
 6830 011c 42F40072 		orreq	r2, r2, #512
 6831 0120 1A60     		streq	r2, [r3]
 6832 0122 C3E7     		b	.L1222
 6833              	.L1228:
 6834 0124 002D     		cmp	r5, #0
 6835 0126 CBD1     		bne	.L1229
 6836 0128 F8BD     		pop	{r3, r4, r5, r6, r7, pc}
 6837              	.L1259:
 6838 012a 00BF     		.align	2
 6839              	.L1258:
 6840 012c 0000FFFF 		.word	-65536
 6842              		.section	.text.HAL_I2C_GetState,"ax",%progbits
 6843              		.align	1
 6844              		.global	HAL_I2C_GetState
 6845              		.syntax unified
 6846              		.thumb
 6847              		.thumb_func
 6848              		.fpu softvfp
 6850              	HAL_I2C_GetState:
 6851              		@ args = 0, pretend = 0, frame = 0
ARM GAS  /tmp/ccfpVwxB.s 			page 119


 6852              		@ frame_needed = 0, uses_anonymous_args = 0
 6853              		@ link register save eliminated.
 6854 0000 90F83D00 		ldrb	r0, [r0, #61]	@ zero_extendqisi2
 6855 0004 7047     		bx	lr
 6857              		.section	.text.HAL_I2C_GetMode,"ax",%progbits
 6858              		.align	1
 6859              		.global	HAL_I2C_GetMode
 6860              		.syntax unified
 6861              		.thumb
 6862              		.thumb_func
 6863              		.fpu softvfp
 6865              	HAL_I2C_GetMode:
 6866              		@ args = 0, pretend = 0, frame = 0
 6867              		@ frame_needed = 0, uses_anonymous_args = 0
 6868              		@ link register save eliminated.
 6869 0000 90F83E00 		ldrb	r0, [r0, #62]	@ zero_extendqisi2
 6870 0004 7047     		bx	lr
 6872              		.section	.text.HAL_I2C_GetError,"ax",%progbits
 6873              		.align	1
 6874              		.global	HAL_I2C_GetError
 6875              		.syntax unified
 6876              		.thumb
 6877              		.thumb_func
 6878              		.fpu softvfp
 6880              	HAL_I2C_GetError:
 6881              		@ args = 0, pretend = 0, frame = 0
 6882              		@ frame_needed = 0, uses_anonymous_args = 0
 6883              		@ link register save eliminated.
 6884 0000 006C     		ldr	r0, [r0, #64]
 6885 0002 7047     		bx	lr
 6887              		.ident	"GCC: (15:6.3.1+svn253039-1build1) 6.3.1 20170620"
ARM GAS  /tmp/ccfpVwxB.s 			page 120


DEFINED SYMBOLS
                            *ABS*:0000000000000000 stm32f1xx_hal_i2c.c
     /tmp/ccfpVwxB.s:13     .text.HAL_I2C_AddrCallback:0000000000000000 $t
     /tmp/ccfpVwxB.s:20     .text.HAL_I2C_AddrCallback:0000000000000000 HAL_I2C_AddrCallback
     /tmp/ccfpVwxB.s:27     .text.HAL_I2C_AbortCpltCallback:0000000000000000 $t
     /tmp/ccfpVwxB.s:34     .text.HAL_I2C_AbortCpltCallback:0000000000000000 HAL_I2C_AbortCpltCallback
     /tmp/ccfpVwxB.s:41     .text.I2C_DMAXferCplt:0000000000000000 $t
     /tmp/ccfpVwxB.s:47     .text.I2C_DMAXferCplt:0000000000000000 I2C_DMAXferCplt
     /tmp/ccfpVwxB.s:165    .text.I2C_DMAError:0000000000000000 $t
     /tmp/ccfpVwxB.s:171    .text.I2C_DMAError:0000000000000000 I2C_DMAError
     /tmp/ccfpVwxB.s:196    .text.I2C_DMAAbort:0000000000000000 $t
     /tmp/ccfpVwxB.s:202    .text.I2C_DMAAbort:0000000000000000 I2C_DMAAbort
     /tmp/ccfpVwxB.s:258    .text.I2C_IsAcknowledgeFailed:0000000000000000 $t
     /tmp/ccfpVwxB.s:264    .text.I2C_IsAcknowledgeFailed:0000000000000000 I2C_IsAcknowledgeFailed
     /tmp/ccfpVwxB.s:290    .text.I2C_WaitOnMasterAddressFlagUntilTimeout:0000000000000000 $t
     /tmp/ccfpVwxB.s:296    .text.I2C_WaitOnMasterAddressFlagUntilTimeout:0000000000000000 I2C_WaitOnMasterAddressFlagUntilTimeout
     /tmp/ccfpVwxB.s:358    .text.I2C_ITError:0000000000000000 $t
     /tmp/ccfpVwxB.s:364    .text.I2C_ITError:0000000000000000 I2C_ITError
     /tmp/ccfpVwxB.s:517    .text.I2C_ITError:0000000000000138 $d
     /tmp/ccfpVwxB.s:521    .text.I2C_WaitOnBTFFlagUntilTimeout:0000000000000000 $t
     /tmp/ccfpVwxB.s:527    .text.I2C_WaitOnBTFFlagUntilTimeout:0000000000000000 I2C_WaitOnBTFFlagUntilTimeout
     /tmp/ccfpVwxB.s:568    .text.HAL_I2C_ErrorCallback:0000000000000000 $t
     /tmp/ccfpVwxB.s:575    .text.HAL_I2C_ErrorCallback:0000000000000000 HAL_I2C_ErrorCallback
     /tmp/ccfpVwxB.s:582    .text.HAL_I2C_MspInit:0000000000000000 $t
     /tmp/ccfpVwxB.s:589    .text.HAL_I2C_MspInit:0000000000000000 HAL_I2C_MspInit
     /tmp/ccfpVwxB.s:596    .text.HAL_I2C_MspDeInit:0000000000000000 $t
     /tmp/ccfpVwxB.s:603    .text.HAL_I2C_MspDeInit:0000000000000000 HAL_I2C_MspDeInit
     /tmp/ccfpVwxB.s:610    .text.HAL_I2C_MasterTxCpltCallback:0000000000000000 $t
     /tmp/ccfpVwxB.s:617    .text.HAL_I2C_MasterTxCpltCallback:0000000000000000 HAL_I2C_MasterTxCpltCallback
     /tmp/ccfpVwxB.s:624    .text.HAL_I2C_MasterRxCpltCallback:0000000000000000 $t
     /tmp/ccfpVwxB.s:631    .text.HAL_I2C_MasterRxCpltCallback:0000000000000000 HAL_I2C_MasterRxCpltCallback
     /tmp/ccfpVwxB.s:638    .text.HAL_I2C_SlaveTxCpltCallback:0000000000000000 $t
     /tmp/ccfpVwxB.s:645    .text.HAL_I2C_SlaveTxCpltCallback:0000000000000000 HAL_I2C_SlaveTxCpltCallback
     /tmp/ccfpVwxB.s:652    .text.HAL_I2C_SlaveRxCpltCallback:0000000000000000 $t
     /tmp/ccfpVwxB.s:659    .text.HAL_I2C_SlaveRxCpltCallback:0000000000000000 HAL_I2C_SlaveRxCpltCallback
     /tmp/ccfpVwxB.s:666    .text.HAL_I2C_ListenCpltCallback:0000000000000000 $t
     /tmp/ccfpVwxB.s:673    .text.HAL_I2C_ListenCpltCallback:0000000000000000 HAL_I2C_ListenCpltCallback
     /tmp/ccfpVwxB.s:680    .text.HAL_I2C_MemTxCpltCallback:0000000000000000 $t
     /tmp/ccfpVwxB.s:687    .text.HAL_I2C_MemTxCpltCallback:0000000000000000 HAL_I2C_MemTxCpltCallback
     /tmp/ccfpVwxB.s:694    .text.HAL_I2C_MemRxCpltCallback:0000000000000000 $t
     /tmp/ccfpVwxB.s:701    .text.HAL_I2C_MemRxCpltCallback:0000000000000000 HAL_I2C_MemRxCpltCallback
     /tmp/ccfpVwxB.s:708    .text.I2C_WaitOnRXNEFlagUntilTimeout:0000000000000000 $t
     /tmp/ccfpVwxB.s:714    .text.I2C_WaitOnRXNEFlagUntilTimeout:0000000000000000 I2C_WaitOnRXNEFlagUntilTimeout
     /tmp/ccfpVwxB.s:762    .text.I2C_WaitOnFlagUntilTimeout:0000000000000000 $t
     /tmp/ccfpVwxB.s:768    .text.I2C_WaitOnFlagUntilTimeout:0000000000000000 I2C_WaitOnFlagUntilTimeout
     /tmp/ccfpVwxB.s:815    .text.I2C_WaitOnTXEFlagUntilTimeout:0000000000000000 $t
     /tmp/ccfpVwxB.s:821    .text.I2C_WaitOnTXEFlagUntilTimeout:0000000000000000 I2C_WaitOnTXEFlagUntilTimeout
     /tmp/ccfpVwxB.s:862    .text.I2C_RequestMemoryWrite:0000000000000000 $t
     /tmp/ccfpVwxB.s:868    .text.I2C_RequestMemoryWrite:0000000000000000 I2C_RequestMemoryWrite
     /tmp/ccfpVwxB.s:947    .text.I2C_RequestMemoryWrite:0000000000000098 $d
     /tmp/ccfpVwxB.s:950    .text.I2C_RequestMemoryRead:0000000000000000 $t
     /tmp/ccfpVwxB.s:956    .text.I2C_RequestMemoryRead:0000000000000000 I2C_RequestMemoryRead
     /tmp/ccfpVwxB.s:1068   .text.I2C_RequestMemoryRead:00000000000000e8 $d
     /tmp/ccfpVwxB.s:1071   .text.HAL_I2C_Init:0000000000000000 $t
     /tmp/ccfpVwxB.s:1078   .text.HAL_I2C_Init:0000000000000000 HAL_I2C_Init
     /tmp/ccfpVwxB.s:1240   .text.HAL_I2C_Init:000000000000016c $d
     /tmp/ccfpVwxB.s:1257   .text.HAL_I2C_DeInit:0000000000000000 $t
ARM GAS  /tmp/ccfpVwxB.s 			page 121


     /tmp/ccfpVwxB.s:1264   .text.HAL_I2C_DeInit:0000000000000000 HAL_I2C_DeInit
     /tmp/ccfpVwxB.s:1297   .text.HAL_I2C_DeInit:0000000000000044 $d
     /tmp/ccfpVwxB.s:1300   .text.HAL_I2C_RegisterCallback:0000000000000000 $t
     /tmp/ccfpVwxB.s:1307   .text.HAL_I2C_RegisterCallback:0000000000000000 HAL_I2C_RegisterCallback
     /tmp/ccfpVwxB.s:1331   .text.HAL_I2C_RegisterCallback:0000000000000030 $d
     /tmp/ccfpVwxB.s:1404   .text.HAL_I2C_UnRegisterCallback:0000000000000000 $t
     /tmp/ccfpVwxB.s:1411   .text.HAL_I2C_UnRegisterCallback:0000000000000000 HAL_I2C_UnRegisterCallback
     /tmp/ccfpVwxB.s:1428   .text.HAL_I2C_UnRegisterCallback:0000000000000022 $d
     /tmp/ccfpVwxB.s:1521   .text.HAL_I2C_UnRegisterCallback:00000000000000b0 $d
     /tmp/ccfpVwxB.s:1534   .text.HAL_I2C_RegisterAddrCallback:0000000000000000 $t
     /tmp/ccfpVwxB.s:1541   .text.HAL_I2C_RegisterAddrCallback:0000000000000000 HAL_I2C_RegisterAddrCallback
     /tmp/ccfpVwxB.s:1576   .text.HAL_I2C_UnRegisterAddrCallback:0000000000000000 $t
     /tmp/ccfpVwxB.s:1583   .text.HAL_I2C_UnRegisterAddrCallback:0000000000000000 HAL_I2C_UnRegisterAddrCallback
     /tmp/ccfpVwxB.s:1613   .text.HAL_I2C_UnRegisterAddrCallback:0000000000000038 $d
     /tmp/ccfpVwxB.s:1616   .text.HAL_I2C_Master_Transmit:0000000000000000 $t
     /tmp/ccfpVwxB.s:1623   .text.HAL_I2C_Master_Transmit:0000000000000000 HAL_I2C_Master_Transmit
     /tmp/ccfpVwxB.s:1813   .text.HAL_I2C_Master_Transmit:000000000000018c $d
     /tmp/ccfpVwxB.s:1819   .text.HAL_I2C_Master_Receive:0000000000000000 $t
     /tmp/ccfpVwxB.s:1826   .text.HAL_I2C_Master_Receive:0000000000000000 HAL_I2C_Master_Receive
     /tmp/ccfpVwxB.s:2171   .text.HAL_I2C_Master_Receive:00000000000002a0 $d
     /tmp/ccfpVwxB.s:2177   .text.HAL_I2C_Master_Receive:00000000000002b4 $t
     /tmp/ccfpVwxB.s:2206   .text.HAL_I2C_Slave_Transmit:0000000000000000 $t
     /tmp/ccfpVwxB.s:2213   .text.HAL_I2C_Slave_Transmit:0000000000000000 HAL_I2C_Slave_Transmit
     /tmp/ccfpVwxB.s:2366   .text.HAL_I2C_Slave_Transmit:0000000000000150 $d
     /tmp/ccfpVwxB.s:2370   .text.HAL_I2C_Slave_Receive:0000000000000000 $t
     /tmp/ccfpVwxB.s:2377   .text.HAL_I2C_Slave_Receive:0000000000000000 HAL_I2C_Slave_Receive
     /tmp/ccfpVwxB.s:2547   .text.HAL_I2C_Slave_Receive:0000000000000170 $d
     /tmp/ccfpVwxB.s:2551   .text.HAL_I2C_Master_Transmit_IT:0000000000000000 $t
     /tmp/ccfpVwxB.s:2558   .text.HAL_I2C_Master_Transmit_IT:0000000000000000 HAL_I2C_Master_Transmit_IT
     /tmp/ccfpVwxB.s:2641   .text.HAL_I2C_Master_Transmit_IT:00000000000000b0 $d
     /tmp/ccfpVwxB.s:2645   .text.HAL_I2C_Master_Receive_IT:0000000000000000 $t
     /tmp/ccfpVwxB.s:2652   .text.HAL_I2C_Master_Receive_IT:0000000000000000 HAL_I2C_Master_Receive_IT
     /tmp/ccfpVwxB.s:2738   .text.HAL_I2C_Master_Receive_IT:00000000000000b8 $d
     /tmp/ccfpVwxB.s:2742   .text.HAL_I2C_Slave_Transmit_IT:0000000000000000 $t
     /tmp/ccfpVwxB.s:2749   .text.HAL_I2C_Slave_Transmit_IT:0000000000000000 HAL_I2C_Slave_Transmit_IT
     /tmp/ccfpVwxB.s:2805   .text.HAL_I2C_Slave_Transmit_IT:0000000000000074 $d
     /tmp/ccfpVwxB.s:2808   .text.HAL_I2C_Slave_Receive_IT:0000000000000000 $t
     /tmp/ccfpVwxB.s:2815   .text.HAL_I2C_Slave_Receive_IT:0000000000000000 HAL_I2C_Slave_Receive_IT
     /tmp/ccfpVwxB.s:2871   .text.HAL_I2C_Slave_Receive_IT:0000000000000074 $d
     /tmp/ccfpVwxB.s:2874   .text.HAL_I2C_Master_Transmit_DMA:0000000000000000 $t
     /tmp/ccfpVwxB.s:2881   .text.HAL_I2C_Master_Transmit_DMA:0000000000000000 HAL_I2C_Master_Transmit_DMA
     /tmp/ccfpVwxB.s:3008   .text.HAL_I2C_Master_Transmit_DMA:0000000000000118 $d
     /tmp/ccfpVwxB.s:3014   .text.HAL_I2C_Master_Receive_DMA:0000000000000000 $t
     /tmp/ccfpVwxB.s:3021   .text.HAL_I2C_Master_Receive_DMA:0000000000000000 HAL_I2C_Master_Receive_DMA
     /tmp/ccfpVwxB.s:3146   .text.HAL_I2C_Master_Receive_DMA:0000000000000114 $d
     /tmp/ccfpVwxB.s:3152   .text.HAL_I2C_Slave_Transmit_DMA:0000000000000000 $t
     /tmp/ccfpVwxB.s:3159   .text.HAL_I2C_Slave_Transmit_DMA:0000000000000000 HAL_I2C_Slave_Transmit_DMA
     /tmp/ccfpVwxB.s:3239   .text.HAL_I2C_Slave_Transmit_DMA:00000000000000b0 $d
     /tmp/ccfpVwxB.s:3244   .text.HAL_I2C_Slave_Receive_DMA:0000000000000000 $t
     /tmp/ccfpVwxB.s:3251   .text.HAL_I2C_Slave_Receive_DMA:0000000000000000 HAL_I2C_Slave_Receive_DMA
     /tmp/ccfpVwxB.s:3331   .text.HAL_I2C_Slave_Receive_DMA:00000000000000b0 $d
     /tmp/ccfpVwxB.s:3336   .text.HAL_I2C_Mem_Write:0000000000000000 $t
     /tmp/ccfpVwxB.s:3343   .text.HAL_I2C_Mem_Write:0000000000000000 HAL_I2C_Mem_Write
     /tmp/ccfpVwxB.s:3477   .text.HAL_I2C_Mem_Write:0000000000000118 $d
     /tmp/ccfpVwxB.s:3481   .text.HAL_I2C_Mem_Read:0000000000000000 $t
     /tmp/ccfpVwxB.s:3488   .text.HAL_I2C_Mem_Read:0000000000000000 HAL_I2C_Mem_Read
     /tmp/ccfpVwxB.s:3785   .text.HAL_I2C_Mem_Read:0000000000000228 $d
ARM GAS  /tmp/ccfpVwxB.s 			page 122


     /tmp/ccfpVwxB.s:3790   .text.HAL_I2C_Mem_Write_IT:0000000000000000 $t
     /tmp/ccfpVwxB.s:3797   .text.HAL_I2C_Mem_Write_IT:0000000000000000 HAL_I2C_Mem_Write_IT
     /tmp/ccfpVwxB.s:3885   .text.HAL_I2C_Mem_Write_IT:00000000000000bc $d
     /tmp/ccfpVwxB.s:3889   .text.HAL_I2C_Mem_Read_IT:0000000000000000 $t
     /tmp/ccfpVwxB.s:3896   .text.HAL_I2C_Mem_Read_IT:0000000000000000 HAL_I2C_Mem_Read_IT
     /tmp/ccfpVwxB.s:3993   .text.HAL_I2C_Mem_Read_IT:00000000000000cc $d
     /tmp/ccfpVwxB.s:3997   .text.HAL_I2C_Mem_Write_DMA:0000000000000000 $t
     /tmp/ccfpVwxB.s:4004   .text.HAL_I2C_Mem_Write_DMA:0000000000000000 HAL_I2C_Mem_Write_DMA
     /tmp/ccfpVwxB.s:4142   .text.HAL_I2C_Mem_Write_DMA:0000000000000130 $d
     /tmp/ccfpVwxB.s:4148   .text.HAL_I2C_Mem_Read_DMA:0000000000000000 $t
     /tmp/ccfpVwxB.s:4155   .text.HAL_I2C_Mem_Read_DMA:0000000000000000 HAL_I2C_Mem_Read_DMA
     /tmp/ccfpVwxB.s:4324   .text.HAL_I2C_Mem_Read_DMA:000000000000017c $d
     /tmp/ccfpVwxB.s:4330   .text.HAL_I2C_IsDeviceReady:0000000000000000 $t
     /tmp/ccfpVwxB.s:4337   .text.HAL_I2C_IsDeviceReady:0000000000000000 HAL_I2C_IsDeviceReady
     /tmp/ccfpVwxB.s:4487   .text.HAL_I2C_IsDeviceReady:0000000000000150 $d
     /tmp/ccfpVwxB.s:4490   .text.HAL_I2C_Master_Seq_Transmit_IT:0000000000000000 $t
     /tmp/ccfpVwxB.s:4497   .text.HAL_I2C_Master_Seq_Transmit_IT:0000000000000000 HAL_I2C_Master_Seq_Transmit_IT
     /tmp/ccfpVwxB.s:4601   .text.HAL_I2C_Master_Seq_Transmit_IT:00000000000000d4 $d
     /tmp/ccfpVwxB.s:4604   .text.HAL_I2C_Master_Seq_Transmit_DMA:0000000000000000 $t
     /tmp/ccfpVwxB.s:4611   .text.HAL_I2C_Master_Seq_Transmit_DMA:0000000000000000 HAL_I2C_Master_Seq_Transmit_DMA
     /tmp/ccfpVwxB.s:4778   .text.HAL_I2C_Master_Seq_Transmit_DMA:0000000000000164 $d
     /tmp/ccfpVwxB.s:4784   .text.HAL_I2C_Master_Seq_Receive_IT:0000000000000000 $t
     /tmp/ccfpVwxB.s:4791   .text.HAL_I2C_Master_Seq_Receive_IT:0000000000000000 HAL_I2C_Master_Seq_Receive_IT
     /tmp/ccfpVwxB.s:4922   .text.HAL_I2C_Master_Seq_Receive_IT:000000000000010c $d
     /tmp/ccfpVwxB.s:4925   .text.HAL_I2C_Master_Seq_Receive_DMA:0000000000000000 $t
     /tmp/ccfpVwxB.s:4932   .text.HAL_I2C_Master_Seq_Receive_DMA:0000000000000000 HAL_I2C_Master_Seq_Receive_DMA
     /tmp/ccfpVwxB.s:5140   .text.HAL_I2C_Master_Seq_Receive_DMA:00000000000001bc $d
     /tmp/ccfpVwxB.s:5146   .text.HAL_I2C_Slave_Seq_Transmit_IT:0000000000000000 $t
     /tmp/ccfpVwxB.s:5153   .text.HAL_I2C_Slave_Seq_Transmit_IT:0000000000000000 HAL_I2C_Slave_Seq_Transmit_IT
     /tmp/ccfpVwxB.s:5214   .text.HAL_I2C_Slave_Seq_Transmit_DMA:0000000000000000 $t
     /tmp/ccfpVwxB.s:5221   .text.HAL_I2C_Slave_Seq_Transmit_DMA:0000000000000000 HAL_I2C_Slave_Seq_Transmit_DMA
     /tmp/ccfpVwxB.s:5357   .text.HAL_I2C_Slave_Seq_Transmit_DMA:0000000000000138 $d
     /tmp/ccfpVwxB.s:5362   .text.HAL_I2C_Slave_Seq_Receive_IT:0000000000000000 $t
     /tmp/ccfpVwxB.s:5369   .text.HAL_I2C_Slave_Seq_Receive_IT:0000000000000000 HAL_I2C_Slave_Seq_Receive_IT
     /tmp/ccfpVwxB.s:5430   .text.HAL_I2C_Slave_Seq_Receive_DMA:0000000000000000 $t
     /tmp/ccfpVwxB.s:5437   .text.HAL_I2C_Slave_Seq_Receive_DMA:0000000000000000 HAL_I2C_Slave_Seq_Receive_DMA
     /tmp/ccfpVwxB.s:5573   .text.HAL_I2C_Slave_Seq_Receive_DMA:0000000000000138 $d
     /tmp/ccfpVwxB.s:5578   .text.HAL_I2C_EnableListen_IT:0000000000000000 $t
     /tmp/ccfpVwxB.s:5585   .text.HAL_I2C_EnableListen_IT:0000000000000000 HAL_I2C_EnableListen_IT
     /tmp/ccfpVwxB.s:5614   .text.HAL_I2C_DisableListen_IT:0000000000000000 $t
     /tmp/ccfpVwxB.s:5621   .text.HAL_I2C_DisableListen_IT:0000000000000000 HAL_I2C_DisableListen_IT
     /tmp/ccfpVwxB.s:5651   .text.HAL_I2C_Master_Abort_IT:0000000000000000 $t
     /tmp/ccfpVwxB.s:5658   .text.HAL_I2C_Master_Abort_IT:0000000000000000 HAL_I2C_Master_Abort_IT
     /tmp/ccfpVwxB.s:5695   .text.HAL_I2C_EV_IRQHandler:0000000000000000 $t
     /tmp/ccfpVwxB.s:5702   .text.HAL_I2C_EV_IRQHandler:0000000000000000 HAL_I2C_EV_IRQHandler
     /tmp/ccfpVwxB.s:6213   .text.HAL_I2C_EV_IRQHandler:000000000000041c $d
     /tmp/ccfpVwxB.s:6216   .text.HAL_I2C_EV_IRQHandler:0000000000000424 $t
     /tmp/ccfpVwxB.s:6693   .text.HAL_I2C_EV_IRQHandler:0000000000000838 $d
     /tmp/ccfpVwxB.s:6697   .text.HAL_I2C_ER_IRQHandler:0000000000000000 $t
     /tmp/ccfpVwxB.s:6704   .text.HAL_I2C_ER_IRQHandler:0000000000000000 HAL_I2C_ER_IRQHandler
     /tmp/ccfpVwxB.s:6840   .text.HAL_I2C_ER_IRQHandler:000000000000012c $d
     /tmp/ccfpVwxB.s:6843   .text.HAL_I2C_GetState:0000000000000000 $t
     /tmp/ccfpVwxB.s:6850   .text.HAL_I2C_GetState:0000000000000000 HAL_I2C_GetState
     /tmp/ccfpVwxB.s:6858   .text.HAL_I2C_GetMode:0000000000000000 $t
     /tmp/ccfpVwxB.s:6865   .text.HAL_I2C_GetMode:0000000000000000 HAL_I2C_GetMode
     /tmp/ccfpVwxB.s:6873   .text.HAL_I2C_GetError:0000000000000000 $t
     /tmp/ccfpVwxB.s:6880   .text.HAL_I2C_GetError:0000000000000000 HAL_I2C_GetError
ARM GAS  /tmp/ccfpVwxB.s 			page 123


     /tmp/ccfpVwxB.s:1342   .text.HAL_I2C_RegisterCallback:000000000000003b $d
     /tmp/ccfpVwxB.s:1342   .text.HAL_I2C_RegisterCallback:000000000000003c $t
     /tmp/ccfpVwxB.s:1439   .text.HAL_I2C_UnRegisterCallback:000000000000002d $d
     /tmp/ccfpVwxB.s:1439   .text.HAL_I2C_UnRegisterCallback:000000000000002e $t

UNDEFINED SYMBOLS
HAL_GetTick
HAL_DMA_Abort_IT
HAL_RCC_GetPCLK1Freq
SystemCoreClock
HAL_DMA_Start_IT
HAL_DMA_GetState
