ARM GAS  /tmp/ccExhGi0.s 			page 1


   1              		.cpu cortex-m3
   2              		.eabi_attribute 20, 1
   3              		.eabi_attribute 21, 1
   4              		.eabi_attribute 23, 3
   5              		.eabi_attribute 24, 1
   6              		.eabi_attribute 25, 1
   7              		.eabi_attribute 26, 1
   8              		.eabi_attribute 30, 4
   9              		.eabi_attribute 34, 1
  10              		.eabi_attribute 18, 4
  11              		.file	"stm32f1xx_hal_can.c"
  12              		.text
  13              		.section	.text.HAL_CAN_MspInit,"ax",%progbits
  14              		.align	1
  15              		.weak	HAL_CAN_MspInit
  16              		.arch armv7-m
  17              		.syntax unified
  18              		.thumb
  19              		.thumb_func
  20              		.fpu softvfp
  22              	HAL_CAN_MspInit:
  23              		@ args = 0, pretend = 0, frame = 0
  24              		@ frame_needed = 0, uses_anonymous_args = 0
  25              		@ link register save eliminated.
  26 0000 7047     		bx	lr
  28              		.section	.text.HAL_CAN_Init,"ax",%progbits
  29              		.align	1
  30              		.global	HAL_CAN_Init
  31              		.syntax unified
  32              		.thumb
  33              		.thumb_func
  34              		.fpu softvfp
  36              	HAL_CAN_Init:
  37              		@ args = 0, pretend = 0, frame = 0
  38              		@ frame_needed = 0, uses_anonymous_args = 0
  39 0000 38B5     		push	{r3, r4, r5, lr}
  40 0002 0446     		mov	r4, r0
  41 0004 0028     		cmp	r0, #0
  42 0006 6ED0     		beq	.L21
  43 0008 90F82030 		ldrb	r3, [r0, #32]	@ zero_extendqisi2
  44 000c 0BB9     		cbnz	r3, .L4
  45 000e FFF7FEFF 		bl	HAL_CAN_MspInit
  46              	.L4:
  47 0012 2268     		ldr	r2, [r4]
  48 0014 1368     		ldr	r3, [r2]
  49 0016 23F00203 		bic	r3, r3, #2
  50 001a 1360     		str	r3, [r2]
  51 001c FFF7FEFF 		bl	HAL_GetTick
  52 0020 0546     		mov	r5, r0
  53              	.L5:
  54 0022 2368     		ldr	r3, [r4]
  55 0024 5A68     		ldr	r2, [r3, #4]
  56 0026 9107     		lsls	r1, r2, #30
  57 0028 51D4     		bmi	.L6
  58 002a 1A68     		ldr	r2, [r3]
  59 002c 42F00102 		orr	r2, r2, #1
  60 0030 1A60     		str	r2, [r3]
ARM GAS  /tmp/ccExhGi0.s 			page 2


  61 0032 FFF7FEFF 		bl	HAL_GetTick
  62 0036 0546     		mov	r5, r0
  63              	.L7:
  64 0038 2368     		ldr	r3, [r4]
  65 003a 5A68     		ldr	r2, [r3, #4]
  66 003c D207     		lsls	r2, r2, #31
  67 003e 54D5     		bpl	.L8
  68 0040 227E     		ldrb	r2, [r4, #24]	@ zero_extendqisi2
  69 0042 0020     		movs	r0, #0
  70 0044 012A     		cmp	r2, #1
  71 0046 1A68     		ldr	r2, [r3]
  72 0048 0CBF     		ite	eq
  73 004a 42F08002 		orreq	r2, r2, #128
  74 004e 22F08002 		bicne	r2, r2, #128
  75 0052 1A60     		str	r2, [r3]
  76 0054 627E     		ldrb	r2, [r4, #25]	@ zero_extendqisi2
  77 0056 012A     		cmp	r2, #1
  78 0058 1A68     		ldr	r2, [r3]
  79 005a 0CBF     		ite	eq
  80 005c 42F04002 		orreq	r2, r2, #64
  81 0060 22F04002 		bicne	r2, r2, #64
  82 0064 1A60     		str	r2, [r3]
  83 0066 A27E     		ldrb	r2, [r4, #26]	@ zero_extendqisi2
  84 0068 012A     		cmp	r2, #1
  85 006a 1A68     		ldr	r2, [r3]
  86 006c 0CBF     		ite	eq
  87 006e 42F02002 		orreq	r2, r2, #32
  88 0072 22F02002 		bicne	r2, r2, #32
  89 0076 1A60     		str	r2, [r3]
  90 0078 E27E     		ldrb	r2, [r4, #27]	@ zero_extendqisi2
  91 007a 012A     		cmp	r2, #1
  92 007c 1A68     		ldr	r2, [r3]
  93 007e 0CBF     		ite	eq
  94 0080 22F01002 		biceq	r2, r2, #16
  95 0084 42F01002 		orrne	r2, r2, #16
  96 0088 1A60     		str	r2, [r3]
  97 008a 227F     		ldrb	r2, [r4, #28]	@ zero_extendqisi2
  98 008c 012A     		cmp	r2, #1
  99 008e 1A68     		ldr	r2, [r3]
 100 0090 0CBF     		ite	eq
 101 0092 42F00802 		orreq	r2, r2, #8
 102 0096 22F00802 		bicne	r2, r2, #8
 103 009a 1A60     		str	r2, [r3]
 104 009c 627F     		ldrb	r2, [r4, #29]	@ zero_extendqisi2
 105 009e 012A     		cmp	r2, #1
 106 00a0 1A68     		ldr	r2, [r3]
 107 00a2 0CBF     		ite	eq
 108 00a4 42F00402 		orreq	r2, r2, #4
 109 00a8 22F00402 		bicne	r2, r2, #4
 110 00ac 1A60     		str	r2, [r3]
 111 00ae D4E90221 		ldrd	r2, r1, [r4, #8]
 112 00b2 0A43     		orrs	r2, r2, r1
 113 00b4 2169     		ldr	r1, [r4, #16]
 114 00b6 0A43     		orrs	r2, r2, r1
 115 00b8 6169     		ldr	r1, [r4, #20]
 116 00ba 0A43     		orrs	r2, r2, r1
 117 00bc 6168     		ldr	r1, [r4, #4]
ARM GAS  /tmp/ccExhGi0.s 			page 3


 118 00be 0139     		subs	r1, r1, #1
 119 00c0 0A43     		orrs	r2, r2, r1
 120 00c2 DA61     		str	r2, [r3, #28]
 121 00c4 0123     		movs	r3, #1
 122 00c6 6062     		str	r0, [r4, #36]
 123 00c8 84F82030 		strb	r3, [r4, #32]
 124              	.L3:
 125 00cc 38BD     		pop	{r3, r4, r5, pc}
 126              	.L6:
 127 00ce FFF7FEFF 		bl	HAL_GetTick
 128 00d2 401B     		subs	r0, r0, r5
 129 00d4 0A28     		cmp	r0, #10
 130 00d6 A4D9     		bls	.L5
 131              	.L30:
 132 00d8 636A     		ldr	r3, [r4, #36]
 133 00da 43F40033 		orr	r3, r3, #131072
 134 00de 6362     		str	r3, [r4, #36]
 135 00e0 0523     		movs	r3, #5
 136 00e2 84F82030 		strb	r3, [r4, #32]
 137              	.L21:
 138 00e6 0120     		movs	r0, #1
 139 00e8 F0E7     		b	.L3
 140              	.L8:
 141 00ea FFF7FEFF 		bl	HAL_GetTick
 142 00ee 401B     		subs	r0, r0, r5
 143 00f0 0A28     		cmp	r0, #10
 144 00f2 A1D9     		bls	.L7
 145 00f4 F0E7     		b	.L30
 147              		.section	.text.HAL_CAN_MspDeInit,"ax",%progbits
 148              		.align	1
 149              		.weak	HAL_CAN_MspDeInit
 150              		.syntax unified
 151              		.thumb
 152              		.thumb_func
 153              		.fpu softvfp
 155              	HAL_CAN_MspDeInit:
 156              		@ args = 0, pretend = 0, frame = 0
 157              		@ frame_needed = 0, uses_anonymous_args = 0
 158              		@ link register save eliminated.
 159 0000 7047     		bx	lr
 161              		.section	.text.HAL_CAN_ConfigFilter,"ax",%progbits
 162              		.align	1
 163              		.global	HAL_CAN_ConfigFilter
 164              		.syntax unified
 165              		.thumb
 166              		.thumb_func
 167              		.fpu softvfp
 169              	HAL_CAN_ConfigFilter:
 170              		@ args = 0, pretend = 0, frame = 0
 171              		@ frame_needed = 0, uses_anonymous_args = 0
 172 0000 70B5     		push	{r4, r5, r6, lr}
 173 0002 90F82030 		ldrb	r3, [r0, #32]	@ zero_extendqisi2
 174 0006 013B     		subs	r3, r3, #1
 175 0008 012B     		cmp	r3, #1
 176 000a 62D8     		bhi	.L33
 177 000c 0124     		movs	r4, #1
 178 000e 0368     		ldr	r3, [r0]
ARM GAS  /tmp/ccExhGi0.s 			page 4


 179 0010 D3F80022 		ldr	r2, [r3, #512]
 180 0014 42F00102 		orr	r2, r2, #1
 181 0018 C3F80022 		str	r2, [r3, #512]
 182 001c 4A69     		ldr	r2, [r1, #20]
 183 001e D3F81C52 		ldr	r5, [r3, #540]
 184 0022 02F01F00 		and	r0, r2, #31
 185 0026 04FA00F0 		lsl	r0, r4, r0
 186 002a 25EA0005 		bic	r5, r5, r0
 187 002e C3F81C52 		str	r5, [r3, #540]
 188 0032 CD69     		ldr	r5, [r1, #28]
 189 0034 C443     		mvns	r4, r0
 190 0036 85BB     		cbnz	r5, .L34
 191 0038 D3F80C52 		ldr	r5, [r3, #524]
 192 003c CE68     		ldr	r6, [r1, #12]
 193 003e 2540     		ands	r5, r5, r4
 194 0040 C3F80C52 		str	r5, [r3, #524]
 195 0044 8D88     		ldrh	r5, [r1, #4]
 196 0046 03EBC202 		add	r2, r3, r2, lsl #3
 197 004a 45EA0645 		orr	r5, r5, r6, lsl #16
 198 004e C2F84052 		str	r5, [r2, #576]
 199 0052 8E68     		ldr	r6, [r1, #8]
 200 0054 0D88     		ldrh	r5, [r1]
 201              	.L42:
 202 0056 45EA0645 		orr	r5, r5, r6, lsl #16
 203 005a C2F84452 		str	r5, [r2, #580]
 204              	.L35:
 205 005e 8A69     		ldr	r2, [r1, #24]
 206 0060 6ABB     		cbnz	r2, .L36
 207 0062 D3F80422 		ldr	r2, [r3, #516]
 208 0066 2240     		ands	r2, r2, r4
 209              	.L43:
 210 0068 C3F80422 		str	r2, [r3, #516]
 211 006c 0A69     		ldr	r2, [r1, #16]
 212 006e 52BB     		cbnz	r2, .L38
 213 0070 D3F81422 		ldr	r2, [r3, #532]
 214 0074 1440     		ands	r4, r4, r2
 215 0076 C3F81442 		str	r4, [r3, #532]
 216              	.L39:
 217 007a 0A6A     		ldr	r2, [r1, #32]
 218 007c 012A     		cmp	r2, #1
 219 007e 02BF     		ittt	eq
 220 0080 D3F81C22 		ldreq	r2, [r3, #540]
 221 0084 1043     		orreq	r0, r0, r2
 222 0086 C3F81C02 		streq	r0, [r3, #540]
 223 008a 0020     		movs	r0, #0
 224 008c D3F80022 		ldr	r2, [r3, #512]
 225 0090 22F00102 		bic	r2, r2, #1
 226 0094 C3F80022 		str	r2, [r3, #512]
 227              	.L41:
 228 0098 70BD     		pop	{r4, r5, r6, pc}
 229              	.L34:
 230 009a 012D     		cmp	r5, #1
 231 009c DFD1     		bne	.L35
 232 009e D3F80C52 		ldr	r5, [r3, #524]
 233 00a2 0E68     		ldr	r6, [r1]
 234 00a4 0543     		orrs	r5, r5, r0
 235 00a6 C3F80C52 		str	r5, [r3, #524]
ARM GAS  /tmp/ccExhGi0.s 			page 5


 236 00aa 8D88     		ldrh	r5, [r1, #4]
 237 00ac 03EBC202 		add	r2, r3, r2, lsl #3
 238 00b0 45EA0645 		orr	r5, r5, r6, lsl #16
 239 00b4 C2F84052 		str	r5, [r2, #576]
 240 00b8 8E68     		ldr	r6, [r1, #8]
 241 00ba 8D89     		ldrh	r5, [r1, #12]
 242 00bc CBE7     		b	.L42
 243              	.L36:
 244 00be D3F80422 		ldr	r2, [r3, #516]
 245 00c2 0243     		orrs	r2, r2, r0
 246 00c4 D0E7     		b	.L43
 247              	.L38:
 248 00c6 D3F81422 		ldr	r2, [r3, #532]
 249 00ca 0243     		orrs	r2, r2, r0
 250 00cc C3F81422 		str	r2, [r3, #532]
 251 00d0 D3E7     		b	.L39
 252              	.L33:
 253 00d2 436A     		ldr	r3, [r0, #36]
 254 00d4 43F48023 		orr	r3, r3, #262144
 255 00d8 4362     		str	r3, [r0, #36]
 256 00da 0120     		movs	r0, #1
 257 00dc DCE7     		b	.L41
 259              		.section	.text.HAL_CAN_Start,"ax",%progbits
 260              		.align	1
 261              		.global	HAL_CAN_Start
 262              		.syntax unified
 263              		.thumb
 264              		.thumb_func
 265              		.fpu softvfp
 267              	HAL_CAN_Start:
 268              		@ args = 0, pretend = 0, frame = 0
 269              		@ frame_needed = 0, uses_anonymous_args = 0
 270 0000 70B5     		push	{r4, r5, r6, lr}
 271 0002 90F82030 		ldrb	r3, [r0, #32]	@ zero_extendqisi2
 272 0006 0446     		mov	r4, r0
 273 0008 012B     		cmp	r3, #1
 274 000a DDB2     		uxtb	r5, r3
 275 000c 20D1     		bne	.L45
 276 000e 0223     		movs	r3, #2
 277 0010 0268     		ldr	r2, [r0]
 278 0012 80F82030 		strb	r3, [r0, #32]
 279 0016 1368     		ldr	r3, [r2]
 280 0018 23F00103 		bic	r3, r3, #1
 281 001c 1360     		str	r3, [r2]
 282 001e FFF7FEFF 		bl	HAL_GetTick
 283 0022 0646     		mov	r6, r0
 284              	.L46:
 285 0024 2368     		ldr	r3, [r4]
 286 0026 5B68     		ldr	r3, [r3, #4]
 287 0028 13F00103 		ands	r3, r3, #1
 288 002c 02D1     		bne	.L48
 289 002e 1D46     		mov	r5, r3
 290 0030 6362     		str	r3, [r4, #36]
 291 0032 0BE0     		b	.L47
 292              	.L48:
 293 0034 FFF7FEFF 		bl	HAL_GetTick
 294 0038 801B     		subs	r0, r0, r6
ARM GAS  /tmp/ccExhGi0.s 			page 6


 295 003a 0A28     		cmp	r0, #10
 296 003c F2D9     		bls	.L46
 297 003e 636A     		ldr	r3, [r4, #36]
 298 0040 43F40033 		orr	r3, r3, #131072
 299 0044 6362     		str	r3, [r4, #36]
 300 0046 0523     		movs	r3, #5
 301 0048 84F82030 		strb	r3, [r4, #32]
 302              	.L47:
 303 004c 2846     		mov	r0, r5
 304 004e 70BD     		pop	{r4, r5, r6, pc}
 305              	.L45:
 306 0050 436A     		ldr	r3, [r0, #36]
 307 0052 0125     		movs	r5, #1
 308 0054 43F40023 		orr	r3, r3, #524288
 309 0058 4362     		str	r3, [r0, #36]
 310 005a F7E7     		b	.L47
 312              		.section	.text.HAL_CAN_Stop,"ax",%progbits
 313              		.align	1
 314              		.global	HAL_CAN_Stop
 315              		.syntax unified
 316              		.thumb
 317              		.thumb_func
 318              		.fpu softvfp
 320              	HAL_CAN_Stop:
 321              		@ args = 0, pretend = 0, frame = 0
 322              		@ frame_needed = 0, uses_anonymous_args = 0
 323 0000 38B5     		push	{r3, r4, r5, lr}
 324 0002 90F82030 		ldrb	r3, [r0, #32]	@ zero_extendqisi2
 325 0006 0446     		mov	r4, r0
 326 0008 022B     		cmp	r3, #2
 327 000a 22D1     		bne	.L51
 328 000c 0268     		ldr	r2, [r0]
 329 000e 1368     		ldr	r3, [r2]
 330 0010 43F00103 		orr	r3, r3, #1
 331 0014 1360     		str	r3, [r2]
 332 0016 FFF7FEFF 		bl	HAL_GetTick
 333 001a 0546     		mov	r5, r0
 334              	.L52:
 335 001c 2368     		ldr	r3, [r4]
 336 001e 5A68     		ldr	r2, [r3, #4]
 337 0020 D207     		lsls	r2, r2, #31
 338 0022 08D5     		bpl	.L54
 339 0024 1A68     		ldr	r2, [r3]
 340 0026 0020     		movs	r0, #0
 341 0028 22F00202 		bic	r2, r2, #2
 342 002c 1A60     		str	r2, [r3]
 343 002e 0123     		movs	r3, #1
 344 0030 84F82030 		strb	r3, [r4, #32]
 345              	.L53:
 346 0034 38BD     		pop	{r3, r4, r5, pc}
 347              	.L54:
 348 0036 FFF7FEFF 		bl	HAL_GetTick
 349 003a 401B     		subs	r0, r0, r5
 350 003c 0A28     		cmp	r0, #10
 351 003e EDD9     		bls	.L52
 352 0040 636A     		ldr	r3, [r4, #36]
 353 0042 43F40033 		orr	r3, r3, #131072
ARM GAS  /tmp/ccExhGi0.s 			page 7


 354 0046 6362     		str	r3, [r4, #36]
 355 0048 0523     		movs	r3, #5
 356 004a 84F82030 		strb	r3, [r4, #32]
 357              	.L56:
 358 004e 0120     		movs	r0, #1
 359 0050 F0E7     		b	.L53
 360              	.L51:
 361 0052 436A     		ldr	r3, [r0, #36]
 362 0054 43F48013 		orr	r3, r3, #1048576
 363 0058 4362     		str	r3, [r0, #36]
 364 005a F8E7     		b	.L56
 366              		.section	.text.HAL_CAN_DeInit,"ax",%progbits
 367              		.align	1
 368              		.global	HAL_CAN_DeInit
 369              		.syntax unified
 370              		.thumb
 371              		.thumb_func
 372              		.fpu softvfp
 374              	HAL_CAN_DeInit:
 375              		@ args = 0, pretend = 0, frame = 0
 376              		@ frame_needed = 0, uses_anonymous_args = 0
 377 0000 10B5     		push	{r4, lr}
 378 0002 0446     		mov	r4, r0
 379 0004 70B1     		cbz	r0, .L59
 380 0006 FFF7FEFF 		bl	HAL_CAN_Stop
 381 000a 2046     		mov	r0, r4
 382 000c FFF7FEFF 		bl	HAL_CAN_MspDeInit
 383 0010 0020     		movs	r0, #0
 384 0012 2268     		ldr	r2, [r4]
 385 0014 1368     		ldr	r3, [r2]
 386 0016 43F40043 		orr	r3, r3, #32768
 387 001a 1360     		str	r3, [r2]
 388 001c 6062     		str	r0, [r4, #36]
 389 001e 84F82000 		strb	r0, [r4, #32]
 390              	.L58:
 391 0022 10BD     		pop	{r4, pc}
 392              	.L59:
 393 0024 0120     		movs	r0, #1
 394 0026 FCE7     		b	.L58
 396              		.section	.text.HAL_CAN_RequestSleep,"ax",%progbits
 397              		.align	1
 398              		.global	HAL_CAN_RequestSleep
 399              		.syntax unified
 400              		.thumb
 401              		.thumb_func
 402              		.fpu softvfp
 404              	HAL_CAN_RequestSleep:
 405              		@ args = 0, pretend = 0, frame = 0
 406              		@ frame_needed = 0, uses_anonymous_args = 0
 407              		@ link register save eliminated.
 408 0000 90F82030 		ldrb	r3, [r0, #32]	@ zero_extendqisi2
 409 0004 013B     		subs	r3, r3, #1
 410 0006 012B     		cmp	r3, #1
 411 0008 06D8     		bhi	.L61
 412 000a 0268     		ldr	r2, [r0]
 413 000c 0020     		movs	r0, #0
 414 000e 1368     		ldr	r3, [r2]
ARM GAS  /tmp/ccExhGi0.s 			page 8


 415 0010 43F00203 		orr	r3, r3, #2
 416 0014 1360     		str	r3, [r2]
 417 0016 7047     		bx	lr
 418              	.L61:
 419 0018 436A     		ldr	r3, [r0, #36]
 420 001a 43F48023 		orr	r3, r3, #262144
 421 001e 4362     		str	r3, [r0, #36]
 422 0020 0120     		movs	r0, #1
 423 0022 7047     		bx	lr
 425              		.section	.text.HAL_CAN_WakeUp,"ax",%progbits
 426              		.align	1
 427              		.global	HAL_CAN_WakeUp
 428              		.syntax unified
 429              		.thumb
 430              		.thumb_func
 431              		.fpu softvfp
 433              	HAL_CAN_WakeUp:
 434              		@ args = 0, pretend = 0, frame = 8
 435              		@ frame_needed = 0, uses_anonymous_args = 0
 436 0000 0023     		movs	r3, #0
 437 0002 13B5     		push	{r0, r1, r4, lr}
 438 0004 0193     		str	r3, [sp, #4]
 439 0006 90F82030 		ldrb	r3, [r0, #32]	@ zero_extendqisi2
 440 000a 0246     		mov	r2, r0
 441 000c 013B     		subs	r3, r3, #1
 442 000e 012B     		cmp	r3, #1
 443 0010 17D8     		bhi	.L64
 444 0012 0168     		ldr	r1, [r0]
 445 0014 0D4C     		ldr	r4, .L70
 446 0016 0B68     		ldr	r3, [r1]
 447 0018 23F00203 		bic	r3, r3, #2
 448 001c 0B60     		str	r3, [r1]
 449              	.L67:
 450 001e 019B     		ldr	r3, [sp, #4]
 451 0020 0133     		adds	r3, r3, #1
 452 0022 0193     		str	r3, [sp, #4]
 453 0024 019B     		ldr	r3, [sp, #4]
 454 0026 A342     		cmp	r3, r4
 455 0028 05D9     		bls	.L65
 456 002a 536A     		ldr	r3, [r2, #36]
 457 002c 43F40033 		orr	r3, r3, #131072
 458              	.L69:
 459 0030 0120     		movs	r0, #1
 460 0032 5362     		str	r3, [r2, #36]
 461 0034 03E0     		b	.L66
 462              	.L65:
 463 0036 4868     		ldr	r0, [r1, #4]
 464 0038 10F00200 		ands	r0, r0, #2
 465 003c EFD1     		bne	.L67
 466              	.L66:
 467 003e 02B0     		add	sp, sp, #8
 468              		@ sp needed
 469 0040 10BD     		pop	{r4, pc}
 470              	.L64:
 471 0042 436A     		ldr	r3, [r0, #36]
 472 0044 43F48023 		orr	r3, r3, #262144
 473 0048 F2E7     		b	.L69
ARM GAS  /tmp/ccExhGi0.s 			page 9


 474              	.L71:
 475 004a 00BF     		.align	2
 476              	.L70:
 477 004c 40420F00 		.word	1000000
 479              		.section	.text.HAL_CAN_IsSleepActive,"ax",%progbits
 480              		.align	1
 481              		.global	HAL_CAN_IsSleepActive
 482              		.syntax unified
 483              		.thumb
 484              		.thumb_func
 485              		.fpu softvfp
 487              	HAL_CAN_IsSleepActive:
 488              		@ args = 0, pretend = 0, frame = 0
 489              		@ frame_needed = 0, uses_anonymous_args = 0
 490              		@ link register save eliminated.
 491 0000 90F82030 		ldrb	r3, [r0, #32]	@ zero_extendqisi2
 492 0004 013B     		subs	r3, r3, #1
 493 0006 012B     		cmp	r3, #1
 494 0008 9DBF     		ittte	ls
 495 000a 0368     		ldrls	r3, [r0]
 496 000c 5868     		ldrls	r0, [r3, #4]
 497 000e C0F34000 		ubfxls	r0, r0, #1, #1
 498 0012 0020     		movhi	r0, #0
 499 0014 7047     		bx	lr
 501              		.section	.text.HAL_CAN_AddTxMessage,"ax",%progbits
 502              		.align	1
 503              		.global	HAL_CAN_AddTxMessage
 504              		.syntax unified
 505              		.thumb
 506              		.thumb_func
 507              		.fpu softvfp
 509              	HAL_CAN_AddTxMessage:
 510              		@ args = 0, pretend = 0, frame = 0
 511              		@ frame_needed = 0, uses_anonymous_args = 0
 512 0000 F0B5     		push	{r4, r5, r6, r7, lr}
 513 0002 90F82050 		ldrb	r5, [r0, #32]	@ zero_extendqisi2
 514 0006 0668     		ldr	r6, [r0]
 515 0008 013D     		subs	r5, r5, #1
 516 000a 012D     		cmp	r5, #1
 517 000c B468     		ldr	r4, [r6, #8]
 518 000e 41D8     		bhi	.L76
 519 0010 14F0E05F 		tst	r4, #469762048
 520 0014 3AD0     		beq	.L77
 521 0016 C4F30164 		ubfx	r4, r4, #24, #2
 522 001a 032C     		cmp	r4, #3
 523 001c 4FF00105 		mov	r5, #1
 524 0020 05D1     		bne	.L78
 525 0022 436A     		ldr	r3, [r0, #36]
 526 0024 43F40003 		orr	r3, r3, #8388608
 527              	.L84:
 528 0028 4362     		str	r3, [r0, #36]
 529 002a 0120     		movs	r0, #1
 530 002c 28E0     		b	.L79
 531              	.L78:
 532 002e A540     		lsls	r5, r5, r4
 533 0030 1D60     		str	r5, [r3]
 534 0032 D1E90207 		ldrd	r0, r7, [r1, #8]
ARM GAS  /tmp/ccExhGi0.s 			page 10


 535 0036 04F11803 		add	r3, r4, #24
 536 003a 10BB     		cbnz	r0, .L80
 537 003c 0868     		ldr	r0, [r1]
 538 003e 47EA4050 		orr	r0, r7, r0, lsl #21
 539              	.L83:
 540 0042 1B01     		lsls	r3, r3, #4
 541 0044 F050     		str	r0, [r6, r3]
 542 0046 2001     		lsls	r0, r4, #4
 543 0048 06EB0413 		add	r3, r6, r4, lsl #4
 544 004c 0644     		add	r6, r6, r0
 545 004e 0020     		movs	r0, #0
 546 0050 0D69     		ldr	r5, [r1, #16]
 547 0052 C3F88451 		str	r5, [r3, #388]
 548 0056 097D     		ldrb	r1, [r1, #20]	@ zero_extendqisi2
 549 0058 0129     		cmp	r1, #1
 550 005a 02BF     		ittt	eq
 551 005c D3F88411 		ldreq	r1, [r3, #388]
 552 0060 41F48071 		orreq	r1, r1, #256
 553 0064 C3F88411 		streq	r1, [r3, #388]
 554 0068 5168     		ldr	r1, [r2, #4]	@ unaligned
 555 006a C6F88C11 		str	r1, [r6, #396]
 556 006e 1268     		ldr	r2, [r2]	@ unaligned
 557 0070 C6F88821 		str	r2, [r6, #392]
 558 0074 D3F88021 		ldr	r2, [r3, #384]
 559 0078 42F00102 		orr	r2, r2, #1
 560 007c C3F88021 		str	r2, [r3, #384]
 561              	.L79:
 562 0080 F0BD     		pop	{r4, r5, r6, r7, pc}
 563              	.L80:
 564 0082 4D68     		ldr	r5, [r1, #4]
 565 0084 3843     		orrs	r0, r0, r7
 566 0086 40EAC500 		orr	r0, r0, r5, lsl #3
 567 008a DAE7     		b	.L83
 568              	.L77:
 569 008c 436A     		ldr	r3, [r0, #36]
 570 008e 43F40013 		orr	r3, r3, #2097152
 571 0092 C9E7     		b	.L84
 572              	.L76:
 573 0094 436A     		ldr	r3, [r0, #36]
 574 0096 43F48023 		orr	r3, r3, #262144
 575 009a C5E7     		b	.L84
 577              		.section	.text.HAL_CAN_AbortTxRequest,"ax",%progbits
 578              		.align	1
 579              		.global	HAL_CAN_AbortTxRequest
 580              		.syntax unified
 581              		.thumb
 582              		.thumb_func
 583              		.fpu softvfp
 585              	HAL_CAN_AbortTxRequest:
 586              		@ args = 0, pretend = 0, frame = 0
 587              		@ frame_needed = 0, uses_anonymous_args = 0
 588              		@ link register save eliminated.
 589 0000 90F82020 		ldrb	r2, [r0, #32]	@ zero_extendqisi2
 590 0004 0346     		mov	r3, r0
 591 0006 013A     		subs	r2, r2, #1
 592 0008 012A     		cmp	r2, #1
 593 000a 17D8     		bhi	.L86
ARM GAS  /tmp/ccExhGi0.s 			page 11


 594 000c C807     		lsls	r0, r1, #31
 595 000e 41BF     		itttt	mi
 596 0010 1868     		ldrmi	r0, [r3]
 597 0012 8268     		ldrmi	r2, [r0, #8]
 598 0014 42F08002 		orrmi	r2, r2, #128
 599 0018 8260     		strmi	r2, [r0, #8]
 600 001a 8A07     		lsls	r2, r1, #30
 601 001c 41BF     		itttt	mi
 602 001e 1868     		ldrmi	r0, [r3]
 603 0020 8268     		ldrmi	r2, [r0, #8]
 604 0022 42F40042 		orrmi	r2, r2, #32768
 605 0026 8260     		strmi	r2, [r0, #8]
 606 0028 11F00400 		ands	r0, r1, #4
 607 002c 0BD0     		beq	.L89
 608 002e 1A68     		ldr	r2, [r3]
 609 0030 0020     		movs	r0, #0
 610 0032 9368     		ldr	r3, [r2, #8]
 611 0034 43F40003 		orr	r3, r3, #8388608
 612 0038 9360     		str	r3, [r2, #8]
 613 003a 7047     		bx	lr
 614              	.L86:
 615 003c 426A     		ldr	r2, [r0, #36]
 616 003e 42F48022 		orr	r2, r2, #262144
 617 0042 4262     		str	r2, [r0, #36]
 618 0044 0120     		movs	r0, #1
 619              	.L89:
 620 0046 7047     		bx	lr
 622              		.section	.text.HAL_CAN_GetTxMailboxesFreeLevel,"ax",%progbits
 623              		.align	1
 624              		.global	HAL_CAN_GetTxMailboxesFreeLevel
 625              		.syntax unified
 626              		.thumb
 627              		.thumb_func
 628              		.fpu softvfp
 630              	HAL_CAN_GetTxMailboxesFreeLevel:
 631              		@ args = 0, pretend = 0, frame = 0
 632              		@ frame_needed = 0, uses_anonymous_args = 0
 633              		@ link register save eliminated.
 634 0000 90F82030 		ldrb	r3, [r0, #32]	@ zero_extendqisi2
 635 0004 013B     		subs	r3, r3, #1
 636 0006 012B     		cmp	r3, #1
 637 0008 0CD8     		bhi	.L100
 638 000a 0368     		ldr	r3, [r0]
 639 000c 9868     		ldr	r0, [r3, #8]
 640 000e 9A68     		ldr	r2, [r3, #8]
 641 0010 9B68     		ldr	r3, [r3, #8]
 642 0012 1201     		lsls	r2, r2, #4
 643 0014 C0F38060 		ubfx	r0, r0, #26, #1
 644 0018 48BF     		it	mi
 645 001a 0130     		addmi	r0, r0, #1
 646 001c DB00     		lsls	r3, r3, #3
 647 001e 02D5     		bpl	.L97
 648 0020 0130     		adds	r0, r0, #1
 649 0022 7047     		bx	lr
 650              	.L100:
 651 0024 0020     		movs	r0, #0
 652              	.L97:
ARM GAS  /tmp/ccExhGi0.s 			page 12


 653 0026 7047     		bx	lr
 655              		.section	.text.HAL_CAN_IsTxMessagePending,"ax",%progbits
 656              		.align	1
 657              		.global	HAL_CAN_IsTxMessagePending
 658              		.syntax unified
 659              		.thumb
 660              		.thumb_func
 661              		.fpu softvfp
 663              	HAL_CAN_IsTxMessagePending:
 664              		@ args = 0, pretend = 0, frame = 0
 665              		@ frame_needed = 0, uses_anonymous_args = 0
 666              		@ link register save eliminated.
 667 0000 90F82030 		ldrb	r3, [r0, #32]	@ zero_extendqisi2
 668 0004 013B     		subs	r3, r3, #1
 669 0006 012B     		cmp	r3, #1
 670 0008 09D8     		bhi	.L109
 671 000a 0368     		ldr	r3, [r0]
 672 000c 9B68     		ldr	r3, [r3, #8]
 673 000e 03EA8163 		and	r3, r3, r1, lsl #26
 674 0012 B3EB816F 		cmp	r3, r1, lsl #26
 675 0016 14BF     		ite	ne
 676 0018 0120     		movne	r0, #1
 677 001a 0020     		moveq	r0, #0
 678 001c 7047     		bx	lr
 679              	.L109:
 680 001e 0020     		movs	r0, #0
 681 0020 7047     		bx	lr
 683              		.section	.text.HAL_CAN_GetTxTimestamp,"ax",%progbits
 684              		.align	1
 685              		.global	HAL_CAN_GetTxTimestamp
 686              		.syntax unified
 687              		.thumb
 688              		.thumb_func
 689              		.fpu softvfp
 691              	HAL_CAN_GetTxTimestamp:
 692              		@ args = 0, pretend = 0, frame = 0
 693              		@ frame_needed = 0, uses_anonymous_args = 0
 694              		@ link register save eliminated.
 695 0000 90F82030 		ldrb	r3, [r0, #32]	@ zero_extendqisi2
 696 0004 013B     		subs	r3, r3, #1
 697 0006 012B     		cmp	r3, #1
 698 0008 0AD8     		bhi	.L112
 699              		.syntax unified
 700              	@ 988 "./cmsis/inc/cmsis_gcc.h" 1
 701 000a 91FAA1F3 		rbit r3, r1
 702              	@ 0 "" 2
 703              		.thumb
 704              		.syntax unified
 705 000e B3FA83F3 		clz	r3, r3
 706 0012 0268     		ldr	r2, [r0]
 707 0014 1833     		adds	r3, r3, #24
 708 0016 02EB0313 		add	r3, r2, r3, lsl #4
 709 001a 5868     		ldr	r0, [r3, #4]
 710 001c 000C     		lsrs	r0, r0, #16
 711 001e 7047     		bx	lr
 712              	.L112:
 713 0020 0020     		movs	r0, #0
ARM GAS  /tmp/ccExhGi0.s 			page 13


 714 0022 7047     		bx	lr
 716              		.section	.text.HAL_CAN_GetRxMessage,"ax",%progbits
 717              		.align	1
 718              		.global	HAL_CAN_GetRxMessage
 719              		.syntax unified
 720              		.thumb
 721              		.thumb_func
 722              		.fpu softvfp
 724              	HAL_CAN_GetRxMessage:
 725              		@ args = 0, pretend = 0, frame = 0
 726              		@ frame_needed = 0, uses_anonymous_args = 0
 727 0000 F0B5     		push	{r4, r5, r6, r7, lr}
 728 0002 90F82040 		ldrb	r4, [r0, #32]	@ zero_extendqisi2
 729 0006 013C     		subs	r4, r4, #1
 730 0008 012C     		cmp	r4, #1
 731 000a 6CD8     		bhi	.L114
 732 000c 0668     		ldr	r6, [r0]
 733 000e 41B9     		cbnz	r1, .L115
 734 0010 F468     		ldr	r4, [r6, #12]
 735              	.L125:
 736 0012 A407     		lsls	r4, r4, #30
 737 0014 07D1     		bne	.L116
 738 0016 436A     		ldr	r3, [r0, #36]
 739 0018 43F40013 		orr	r3, r3, #2097152
 740              	.L121:
 741 001c 4362     		str	r3, [r0, #36]
 742 001e 0120     		movs	r0, #1
 743 0020 56E0     		b	.L117
 744              	.L115:
 745 0022 3469     		ldr	r4, [r6, #16]
 746 0024 F5E7     		b	.L125
 747              	.L116:
 748 0026 06EB0115 		add	r5, r6, r1, lsl #4
 749 002a D5F8B071 		ldr	r7, [r5, #432]
 750 002e 0C01     		lsls	r4, r1, #4
 751 0030 07F00407 		and	r7, r7, #4
 752 0034 9760     		str	r7, [r2, #8]
 753 0036 002F     		cmp	r7, #0
 754 0038 4BD1     		bne	.L118
 755 003a D5F8B071 		ldr	r7, [r5, #432]
 756 003e 7F0D     		lsrs	r7, r7, #21
 757 0040 1760     		str	r7, [r2]
 758              	.L119:
 759 0042 D5F8B071 		ldr	r7, [r5, #432]
 760 0046 2644     		add	r6, r6, r4
 761 0048 07F00207 		and	r7, r7, #2
 762 004c D760     		str	r7, [r2, #12]
 763 004e D5F8B471 		ldr	r7, [r5, #436]
 764 0052 07F00F07 		and	r7, r7, #15
 765 0056 1761     		str	r7, [r2, #16]
 766 0058 D5F8B471 		ldr	r7, [r5, #436]
 767 005c D5F8B451 		ldr	r5, [r5, #436]
 768 0060 C7F30727 		ubfx	r7, r7, #8, #8
 769 0064 2D0C     		lsrs	r5, r5, #16
 770 0066 9761     		str	r7, [r2, #24]
 771 0068 5561     		str	r5, [r2, #20]
 772 006a D6F8B821 		ldr	r2, [r6, #440]
ARM GAS  /tmp/ccExhGi0.s 			page 14


 773 006e 1A70     		strb	r2, [r3]
 774 0070 0268     		ldr	r2, [r0]
 775 0072 2244     		add	r2, r2, r4
 776 0074 D2F8B821 		ldr	r2, [r2, #440]
 777 0078 120A     		lsrs	r2, r2, #8
 778 007a 5A70     		strb	r2, [r3, #1]
 779 007c 0268     		ldr	r2, [r0]
 780 007e 2244     		add	r2, r2, r4
 781 0080 D2F8B821 		ldr	r2, [r2, #440]
 782 0084 120C     		lsrs	r2, r2, #16
 783 0086 9A70     		strb	r2, [r3, #2]
 784 0088 0268     		ldr	r2, [r0]
 785 008a 2244     		add	r2, r2, r4
 786 008c D2F8B821 		ldr	r2, [r2, #440]
 787 0090 120E     		lsrs	r2, r2, #24
 788 0092 DA70     		strb	r2, [r3, #3]
 789 0094 0268     		ldr	r2, [r0]
 790 0096 2244     		add	r2, r2, r4
 791 0098 D2F8BC21 		ldr	r2, [r2, #444]
 792 009c 1A71     		strb	r2, [r3, #4]
 793 009e 0268     		ldr	r2, [r0]
 794 00a0 2244     		add	r2, r2, r4
 795 00a2 D2F8BC21 		ldr	r2, [r2, #444]
 796 00a6 120A     		lsrs	r2, r2, #8
 797 00a8 5A71     		strb	r2, [r3, #5]
 798 00aa 0268     		ldr	r2, [r0]
 799 00ac 2244     		add	r2, r2, r4
 800 00ae D2F8BC21 		ldr	r2, [r2, #444]
 801 00b2 120C     		lsrs	r2, r2, #16
 802 00b4 9A71     		strb	r2, [r3, #6]
 803 00b6 0268     		ldr	r2, [r0]
 804 00b8 1444     		add	r4, r4, r2
 805 00ba D4F8BC21 		ldr	r2, [r4, #444]
 806 00be 120E     		lsrs	r2, r2, #24
 807 00c0 DA71     		strb	r2, [r3, #7]
 808 00c2 0368     		ldr	r3, [r0]
 809 00c4 51B9     		cbnz	r1, .L120
 810 00c6 DA68     		ldr	r2, [r3, #12]
 811 00c8 42F02002 		orr	r2, r2, #32
 812 00cc DA60     		str	r2, [r3, #12]
 813              	.L122:
 814 00ce 0020     		movs	r0, #0
 815              	.L117:
 816 00d0 F0BD     		pop	{r4, r5, r6, r7, pc}
 817              	.L118:
 818 00d2 D5F8B071 		ldr	r7, [r5, #432]
 819 00d6 FF08     		lsrs	r7, r7, #3
 820 00d8 5760     		str	r7, [r2, #4]
 821 00da B2E7     		b	.L119
 822              	.L120:
 823 00dc 1A69     		ldr	r2, [r3, #16]
 824 00de 42F02002 		orr	r2, r2, #32
 825 00e2 1A61     		str	r2, [r3, #16]
 826 00e4 F3E7     		b	.L122
 827              	.L114:
 828 00e6 436A     		ldr	r3, [r0, #36]
 829 00e8 43F48023 		orr	r3, r3, #262144
ARM GAS  /tmp/ccExhGi0.s 			page 15


 830 00ec 96E7     		b	.L121
 832              		.section	.text.HAL_CAN_GetRxFifoFillLevel,"ax",%progbits
 833              		.align	1
 834              		.global	HAL_CAN_GetRxFifoFillLevel
 835              		.syntax unified
 836              		.thumb
 837              		.thumb_func
 838              		.fpu softvfp
 840              	HAL_CAN_GetRxFifoFillLevel:
 841              		@ args = 0, pretend = 0, frame = 0
 842              		@ frame_needed = 0, uses_anonymous_args = 0
 843              		@ link register save eliminated.
 844 0000 90F82030 		ldrb	r3, [r0, #32]	@ zero_extendqisi2
 845 0004 013B     		subs	r3, r3, #1
 846 0006 012B     		cmp	r3, #1
 847 0008 07D8     		bhi	.L129
 848 000a 0368     		ldr	r3, [r0]
 849 000c 19B9     		cbnz	r1, .L128
 850 000e D868     		ldr	r0, [r3, #12]
 851              	.L130:
 852 0010 00F00300 		and	r0, r0, #3
 853 0014 7047     		bx	lr
 854              	.L128:
 855 0016 1869     		ldr	r0, [r3, #16]
 856 0018 FAE7     		b	.L130
 857              	.L129:
 858 001a 0020     		movs	r0, #0
 859 001c 7047     		bx	lr
 861              		.section	.text.HAL_CAN_ActivateNotification,"ax",%progbits
 862              		.align	1
 863              		.global	HAL_CAN_ActivateNotification
 864              		.syntax unified
 865              		.thumb
 866              		.thumb_func
 867              		.fpu softvfp
 869              	HAL_CAN_ActivateNotification:
 870              		@ args = 0, pretend = 0, frame = 0
 871              		@ frame_needed = 0, uses_anonymous_args = 0
 872              		@ link register save eliminated.
 873 0000 90F82030 		ldrb	r3, [r0, #32]	@ zero_extendqisi2
 874 0004 013B     		subs	r3, r3, #1
 875 0006 012B     		cmp	r3, #1
 876 0008 05D8     		bhi	.L132
 877 000a 0268     		ldr	r2, [r0]
 878 000c 0020     		movs	r0, #0
 879 000e 5369     		ldr	r3, [r2, #20]
 880 0010 1943     		orrs	r1, r1, r3
 881 0012 5161     		str	r1, [r2, #20]
 882 0014 7047     		bx	lr
 883              	.L132:
 884 0016 436A     		ldr	r3, [r0, #36]
 885 0018 43F48023 		orr	r3, r3, #262144
 886 001c 4362     		str	r3, [r0, #36]
 887 001e 0120     		movs	r0, #1
 888 0020 7047     		bx	lr
 890              		.section	.text.HAL_CAN_DeactivateNotification,"ax",%progbits
 891              		.align	1
ARM GAS  /tmp/ccExhGi0.s 			page 16


 892              		.global	HAL_CAN_DeactivateNotification
 893              		.syntax unified
 894              		.thumb
 895              		.thumb_func
 896              		.fpu softvfp
 898              	HAL_CAN_DeactivateNotification:
 899              		@ args = 0, pretend = 0, frame = 0
 900              		@ frame_needed = 0, uses_anonymous_args = 0
 901              		@ link register save eliminated.
 902 0000 90F82030 		ldrb	r3, [r0, #32]	@ zero_extendqisi2
 903 0004 013B     		subs	r3, r3, #1
 904 0006 012B     		cmp	r3, #1
 905 0008 06D8     		bhi	.L135
 906 000a 0268     		ldr	r2, [r0]
 907 000c 0020     		movs	r0, #0
 908 000e 5369     		ldr	r3, [r2, #20]
 909 0010 23EA0101 		bic	r1, r3, r1
 910 0014 5161     		str	r1, [r2, #20]
 911 0016 7047     		bx	lr
 912              	.L135:
 913 0018 436A     		ldr	r3, [r0, #36]
 914 001a 43F48023 		orr	r3, r3, #262144
 915 001e 4362     		str	r3, [r0, #36]
 916 0020 0120     		movs	r0, #1
 917 0022 7047     		bx	lr
 919              		.section	.text.HAL_CAN_TxMailbox0CompleteCallback,"ax",%progbits
 920              		.align	1
 921              		.weak	HAL_CAN_TxMailbox0CompleteCallback
 922              		.syntax unified
 923              		.thumb
 924              		.thumb_func
 925              		.fpu softvfp
 927              	HAL_CAN_TxMailbox0CompleteCallback:
 928              		@ args = 0, pretend = 0, frame = 0
 929              		@ frame_needed = 0, uses_anonymous_args = 0
 930              		@ link register save eliminated.
 931 0000 7047     		bx	lr
 933              		.section	.text.HAL_CAN_TxMailbox1CompleteCallback,"ax",%progbits
 934              		.align	1
 935              		.weak	HAL_CAN_TxMailbox1CompleteCallback
 936              		.syntax unified
 937              		.thumb
 938              		.thumb_func
 939              		.fpu softvfp
 941              	HAL_CAN_TxMailbox1CompleteCallback:
 942              		@ args = 0, pretend = 0, frame = 0
 943              		@ frame_needed = 0, uses_anonymous_args = 0
 944              		@ link register save eliminated.
 945 0000 7047     		bx	lr
 947              		.section	.text.HAL_CAN_TxMailbox2CompleteCallback,"ax",%progbits
 948              		.align	1
 949              		.weak	HAL_CAN_TxMailbox2CompleteCallback
 950              		.syntax unified
 951              		.thumb
 952              		.thumb_func
 953              		.fpu softvfp
 955              	HAL_CAN_TxMailbox2CompleteCallback:
ARM GAS  /tmp/ccExhGi0.s 			page 17


 956              		@ args = 0, pretend = 0, frame = 0
 957              		@ frame_needed = 0, uses_anonymous_args = 0
 958              		@ link register save eliminated.
 959 0000 7047     		bx	lr
 961              		.section	.text.HAL_CAN_TxMailbox0AbortCallback,"ax",%progbits
 962              		.align	1
 963              		.weak	HAL_CAN_TxMailbox0AbortCallback
 964              		.syntax unified
 965              		.thumb
 966              		.thumb_func
 967              		.fpu softvfp
 969              	HAL_CAN_TxMailbox0AbortCallback:
 970              		@ args = 0, pretend = 0, frame = 0
 971              		@ frame_needed = 0, uses_anonymous_args = 0
 972              		@ link register save eliminated.
 973 0000 7047     		bx	lr
 975              		.section	.text.HAL_CAN_TxMailbox1AbortCallback,"ax",%progbits
 976              		.align	1
 977              		.weak	HAL_CAN_TxMailbox1AbortCallback
 978              		.syntax unified
 979              		.thumb
 980              		.thumb_func
 981              		.fpu softvfp
 983              	HAL_CAN_TxMailbox1AbortCallback:
 984              		@ args = 0, pretend = 0, frame = 0
 985              		@ frame_needed = 0, uses_anonymous_args = 0
 986              		@ link register save eliminated.
 987 0000 7047     		bx	lr
 989              		.section	.text.HAL_CAN_TxMailbox2AbortCallback,"ax",%progbits
 990              		.align	1
 991              		.weak	HAL_CAN_TxMailbox2AbortCallback
 992              		.syntax unified
 993              		.thumb
 994              		.thumb_func
 995              		.fpu softvfp
 997              	HAL_CAN_TxMailbox2AbortCallback:
 998              		@ args = 0, pretend = 0, frame = 0
 999              		@ frame_needed = 0, uses_anonymous_args = 0
 1000              		@ link register save eliminated.
 1001 0000 7047     		bx	lr
 1003              		.section	.text.HAL_CAN_RxFifo0MsgPendingCallback,"ax",%progbits
 1004              		.align	1
 1005              		.weak	HAL_CAN_RxFifo0MsgPendingCallback
 1006              		.syntax unified
 1007              		.thumb
 1008              		.thumb_func
 1009              		.fpu softvfp
 1011              	HAL_CAN_RxFifo0MsgPendingCallback:
 1012              		@ args = 0, pretend = 0, frame = 0
 1013              		@ frame_needed = 0, uses_anonymous_args = 0
 1014              		@ link register save eliminated.
 1015 0000 7047     		bx	lr
 1017              		.section	.text.HAL_CAN_RxFifo0FullCallback,"ax",%progbits
 1018              		.align	1
 1019              		.weak	HAL_CAN_RxFifo0FullCallback
 1020              		.syntax unified
 1021              		.thumb
ARM GAS  /tmp/ccExhGi0.s 			page 18


 1022              		.thumb_func
 1023              		.fpu softvfp
 1025              	HAL_CAN_RxFifo0FullCallback:
 1026              		@ args = 0, pretend = 0, frame = 0
 1027              		@ frame_needed = 0, uses_anonymous_args = 0
 1028              		@ link register save eliminated.
 1029 0000 7047     		bx	lr
 1031              		.section	.text.HAL_CAN_RxFifo1MsgPendingCallback,"ax",%progbits
 1032              		.align	1
 1033              		.weak	HAL_CAN_RxFifo1MsgPendingCallback
 1034              		.syntax unified
 1035              		.thumb
 1036              		.thumb_func
 1037              		.fpu softvfp
 1039              	HAL_CAN_RxFifo1MsgPendingCallback:
 1040              		@ args = 0, pretend = 0, frame = 0
 1041              		@ frame_needed = 0, uses_anonymous_args = 0
 1042              		@ link register save eliminated.
 1043 0000 7047     		bx	lr
 1045              		.section	.text.HAL_CAN_RxFifo1FullCallback,"ax",%progbits
 1046              		.align	1
 1047              		.weak	HAL_CAN_RxFifo1FullCallback
 1048              		.syntax unified
 1049              		.thumb
 1050              		.thumb_func
 1051              		.fpu softvfp
 1053              	HAL_CAN_RxFifo1FullCallback:
 1054              		@ args = 0, pretend = 0, frame = 0
 1055              		@ frame_needed = 0, uses_anonymous_args = 0
 1056              		@ link register save eliminated.
 1057 0000 7047     		bx	lr
 1059              		.section	.text.HAL_CAN_SleepCallback,"ax",%progbits
 1060              		.align	1
 1061              		.weak	HAL_CAN_SleepCallback
 1062              		.syntax unified
 1063              		.thumb
 1064              		.thumb_func
 1065              		.fpu softvfp
 1067              	HAL_CAN_SleepCallback:
 1068              		@ args = 0, pretend = 0, frame = 0
 1069              		@ frame_needed = 0, uses_anonymous_args = 0
 1070              		@ link register save eliminated.
 1071 0000 7047     		bx	lr
 1073              		.section	.text.HAL_CAN_WakeUpFromRxMsgCallback,"ax",%progbits
 1074              		.align	1
 1075              		.weak	HAL_CAN_WakeUpFromRxMsgCallback
 1076              		.syntax unified
 1077              		.thumb
 1078              		.thumb_func
 1079              		.fpu softvfp
 1081              	HAL_CAN_WakeUpFromRxMsgCallback:
 1082              		@ args = 0, pretend = 0, frame = 0
 1083              		@ frame_needed = 0, uses_anonymous_args = 0
 1084              		@ link register save eliminated.
 1085 0000 7047     		bx	lr
 1087              		.section	.text.HAL_CAN_ErrorCallback,"ax",%progbits
 1088              		.align	1
ARM GAS  /tmp/ccExhGi0.s 			page 19


 1089              		.weak	HAL_CAN_ErrorCallback
 1090              		.syntax unified
 1091              		.thumb
 1092              		.thumb_func
 1093              		.fpu softvfp
 1095              	HAL_CAN_ErrorCallback:
 1096              		@ args = 0, pretend = 0, frame = 0
 1097              		@ frame_needed = 0, uses_anonymous_args = 0
 1098              		@ link register save eliminated.
 1099 0000 7047     		bx	lr
 1101              		.section	.text.HAL_CAN_IRQHandler,"ax",%progbits
 1102              		.align	1
 1103              		.global	HAL_CAN_IRQHandler
 1104              		.syntax unified
 1105              		.thumb
 1106              		.thumb_func
 1107              		.fpu softvfp
 1109              	HAL_CAN_IRQHandler:
 1110              		@ args = 0, pretend = 0, frame = 0
 1111              		@ frame_needed = 0, uses_anonymous_args = 0
 1112 0000 2DE9F84F 		push	{r3, r4, r5, r6, r7, r8, r9, r10, fp, lr}
 1113 0004 0368     		ldr	r3, [r0]
 1114 0006 0546     		mov	r5, r0
 1115 0008 5E69     		ldr	r6, [r3, #20]
 1116 000a D3F80490 		ldr	r9, [r3, #4]
 1117 000e 16F00104 		ands	r4, r6, #1
 1118 0012 9F68     		ldr	r7, [r3, #8]
 1119 0014 D3F80CB0 		ldr	fp, [r3, #12]
 1120 0018 D3F810A0 		ldr	r10, [r3, #16]
 1121 001c D3F81880 		ldr	r8, [r3, #24]
 1122 0020 22D0     		beq	.L151
 1123 0022 17F00104 		ands	r4, r7, #1
 1124 0026 07D0     		beq	.L152
 1125 0028 0122     		movs	r2, #1
 1126 002a B907     		lsls	r1, r7, #30
 1127 002c 9A60     		str	r2, [r3, #8]
 1128 002e 40F1A580 		bpl	.L153
 1129 0032 FFF7FEFF 		bl	HAL_CAN_TxMailbox0CompleteCallback
 1130 0036 0024     		movs	r4, #0
 1131              	.L152:
 1132 0038 FB05     		lsls	r3, r7, #23
 1133 003a 09D5     		bpl	.L154
 1134 003c 4FF48072 		mov	r2, #256
 1135 0040 2B68     		ldr	r3, [r5]
 1136 0042 B805     		lsls	r0, r7, #22
 1137 0044 9A60     		str	r2, [r3, #8]
 1138 0046 40F1A780 		bpl	.L155
 1139 004a 2846     		mov	r0, r5
 1140 004c FFF7FEFF 		bl	HAL_CAN_TxMailbox1CompleteCallback
 1141              	.L154:
 1142 0050 FB03     		lsls	r3, r7, #15
 1143 0052 09D5     		bpl	.L151
 1144 0054 4FF48032 		mov	r2, #65536
 1145 0058 2B68     		ldr	r3, [r5]
 1146 005a B803     		lsls	r0, r7, #14
 1147 005c 9A60     		str	r2, [r3, #8]
 1148 005e 40F1A980 		bpl	.L158
ARM GAS  /tmp/ccExhGi0.s 			page 20


 1149 0062 2846     		mov	r0, r5
 1150 0064 FFF7FEFF 		bl	HAL_CAN_TxMailbox2CompleteCallback
 1151              	.L151:
 1152 0068 3307     		lsls	r3, r6, #28
 1153 006a 07D5     		bpl	.L161
 1154 006c 1BF0100F 		tst	fp, #16
 1155 0070 1FBF     		itttt	ne
 1156 0072 1022     		movne	r2, #16
 1157 0074 2B68     		ldrne	r3, [r5]
 1158 0076 44F40074 		orrne	r4, r4, #512
 1159 007a DA60     		strne	r2, [r3, #12]
 1160              	.L161:
 1161 007c 7707     		lsls	r7, r6, #29
 1162 007e 08D5     		bpl	.L162
 1163 0080 1BF0080F 		tst	fp, #8
 1164 0084 05D0     		beq	.L162
 1165 0086 0822     		movs	r2, #8
 1166 0088 2B68     		ldr	r3, [r5]
 1167 008a 2846     		mov	r0, r5
 1168 008c DA60     		str	r2, [r3, #12]
 1169 008e FFF7FEFF 		bl	HAL_CAN_RxFifo0FullCallback
 1170              	.L162:
 1171 0092 B007     		lsls	r0, r6, #30
 1172 0094 06D5     		bpl	.L163
 1173 0096 2B68     		ldr	r3, [r5]
 1174 0098 DB68     		ldr	r3, [r3, #12]
 1175 009a 9907     		lsls	r1, r3, #30
 1176 009c 02D0     		beq	.L163
 1177 009e 2846     		mov	r0, r5
 1178 00a0 FFF7FEFF 		bl	HAL_CAN_RxFifo0MsgPendingCallback
 1179              	.L163:
 1180 00a4 7206     		lsls	r2, r6, #25
 1181 00a6 07D5     		bpl	.L164
 1182 00a8 1AF0100F 		tst	r10, #16
 1183 00ac 1FBF     		itttt	ne
 1184 00ae 1022     		movne	r2, #16
 1185 00b0 2B68     		ldrne	r3, [r5]
 1186 00b2 44F48064 		orrne	r4, r4, #1024
 1187 00b6 1A61     		strne	r2, [r3, #16]
 1188              	.L164:
 1189 00b8 B306     		lsls	r3, r6, #26
 1190 00ba 08D5     		bpl	.L165
 1191 00bc 1AF0080F 		tst	r10, #8
 1192 00c0 05D0     		beq	.L165
 1193 00c2 0822     		movs	r2, #8
 1194 00c4 2B68     		ldr	r3, [r5]
 1195 00c6 2846     		mov	r0, r5
 1196 00c8 1A61     		str	r2, [r3, #16]
 1197 00ca FFF7FEFF 		bl	HAL_CAN_RxFifo1FullCallback
 1198              	.L165:
 1199 00ce F706     		lsls	r7, r6, #27
 1200 00d0 06D5     		bpl	.L166
 1201 00d2 2B68     		ldr	r3, [r5]
 1202 00d4 1B69     		ldr	r3, [r3, #16]
 1203 00d6 9807     		lsls	r0, r3, #30
 1204 00d8 02D0     		beq	.L166
 1205 00da 2846     		mov	r0, r5
ARM GAS  /tmp/ccExhGi0.s 			page 21


 1206 00dc FFF7FEFF 		bl	HAL_CAN_RxFifo1MsgPendingCallback
 1207              	.L166:
 1208 00e0 B103     		lsls	r1, r6, #14
 1209 00e2 08D5     		bpl	.L167
 1210 00e4 19F0100F 		tst	r9, #16
 1211 00e8 05D0     		beq	.L167
 1212 00ea 1022     		movs	r2, #16
 1213 00ec 2B68     		ldr	r3, [r5]
 1214 00ee 2846     		mov	r0, r5
 1215 00f0 5A60     		str	r2, [r3, #4]
 1216 00f2 FFF7FEFF 		bl	HAL_CAN_SleepCallback
 1217              	.L167:
 1218 00f6 F203     		lsls	r2, r6, #15
 1219 00f8 08D5     		bpl	.L168
 1220 00fa 19F0080F 		tst	r9, #8
 1221 00fe 05D0     		beq	.L168
 1222 0100 0822     		movs	r2, #8
 1223 0102 2B68     		ldr	r3, [r5]
 1224 0104 2846     		mov	r0, r5
 1225 0106 5A60     		str	r2, [r3, #4]
 1226 0108 FFF7FEFF 		bl	HAL_CAN_WakeUpFromRxMsgCallback
 1227              	.L168:
 1228 010c 3304     		lsls	r3, r6, #16
 1229 010e 2CD5     		bpl	.L169
 1230 0110 19F0040F 		tst	r9, #4
 1231 0114 2A68     		ldr	r2, [r5]
 1232 0116 26D0     		beq	.L170
 1233 0118 F705     		lsls	r7, r6, #23
 1234 011a 04D5     		bpl	.L171
 1235 011c 18F0010F 		tst	r8, #1
 1236 0120 18BF     		it	ne
 1237 0122 44F00104 		orrne	r4, r4, #1
 1238              	.L171:
 1239 0126 B005     		lsls	r0, r6, #22
 1240 0128 04D5     		bpl	.L172
 1241 012a 18F0020F 		tst	r8, #2
 1242 012e 18BF     		it	ne
 1243 0130 44F00204 		orrne	r4, r4, #2
 1244              	.L172:
 1245 0134 7105     		lsls	r1, r6, #21
 1246 0136 04D5     		bpl	.L173
 1247 0138 18F0040F 		tst	r8, #4
 1248 013c 18BF     		it	ne
 1249 013e 44F00404 		orrne	r4, r4, #4
 1250              	.L173:
 1251 0142 3305     		lsls	r3, r6, #20
 1252 0144 0FD5     		bpl	.L170
 1253 0146 18F07003 		ands	r3, r8, #112
 1254 014a 0CD0     		beq	.L170
 1255 014c 402B     		cmp	r3, #64
 1256 014e 4FD0     		beq	.L174
 1257 0150 3ED8     		bhi	.L175
 1258 0152 202B     		cmp	r3, #32
 1259 0154 46D0     		beq	.L176
 1260 0156 302B     		cmp	r3, #48
 1261 0158 47D0     		beq	.L177
 1262 015a 102B     		cmp	r3, #16
ARM GAS  /tmp/ccExhGi0.s 			page 22


 1263 015c 3FD0     		beq	.L178
 1264              	.L179:
 1265 015e 9369     		ldr	r3, [r2, #24]
 1266 0160 23F07003 		bic	r3, r3, #112
 1267 0164 9361     		str	r3, [r2, #24]
 1268              	.L170:
 1269 0166 0423     		movs	r3, #4
 1270 0168 5360     		str	r3, [r2, #4]
 1271              	.L169:
 1272 016a 2CB1     		cbz	r4, .L150
 1273 016c 6B6A     		ldr	r3, [r5, #36]
 1274 016e 2846     		mov	r0, r5
 1275 0170 1C43     		orrs	r4, r4, r3
 1276 0172 6C62     		str	r4, [r5, #36]
 1277 0174 FFF7FEFF 		bl	HAL_CAN_ErrorCallback
 1278              	.L150:
 1279 0178 BDE8F88F 		pop	{r3, r4, r5, r6, r7, r8, r9, r10, fp, pc}
 1280              	.L153:
 1281 017c 7A07     		lsls	r2, r7, #29
 1282 017e 05D4     		bmi	.L183
 1283 0180 17F00804 		ands	r4, r7, #8
 1284 0184 05D1     		bne	.L184
 1285 0186 FFF7FEFF 		bl	HAL_CAN_TxMailbox0AbortCallback
 1286 018a 55E7     		b	.L152
 1287              	.L183:
 1288 018c 4FF40064 		mov	r4, #2048
 1289 0190 52E7     		b	.L152
 1290              	.L184:
 1291 0192 4FF48054 		mov	r4, #4096
 1292 0196 4FE7     		b	.L152
 1293              	.L155:
 1294 0198 7905     		lsls	r1, r7, #21
 1295 019a 02D5     		bpl	.L156
 1296 019c 44F40054 		orr	r4, r4, #8192
 1297 01a0 56E7     		b	.L154
 1298              	.L156:
 1299 01a2 3A05     		lsls	r2, r7, #20
 1300 01a4 02D5     		bpl	.L157
 1301 01a6 44F48044 		orr	r4, r4, #16384
 1302 01aa 51E7     		b	.L154
 1303              	.L157:
 1304 01ac 2846     		mov	r0, r5
 1305 01ae FFF7FEFF 		bl	HAL_CAN_TxMailbox1AbortCallback
 1306 01b2 4DE7     		b	.L154
 1307              	.L158:
 1308 01b4 7903     		lsls	r1, r7, #13
 1309 01b6 02D5     		bpl	.L159
 1310 01b8 44F40044 		orr	r4, r4, #32768
 1311 01bc 54E7     		b	.L151
 1312              	.L159:
 1313 01be 3A03     		lsls	r2, r7, #12
 1314 01c0 02D5     		bpl	.L160
 1315 01c2 44F48034 		orr	r4, r4, #65536
 1316 01c6 4FE7     		b	.L151
 1317              	.L160:
 1318 01c8 2846     		mov	r0, r5
 1319 01ca FFF7FEFF 		bl	HAL_CAN_TxMailbox2AbortCallback
ARM GAS  /tmp/ccExhGi0.s 			page 23


 1320 01ce 4BE7     		b	.L151
 1321              	.L175:
 1322 01d0 502B     		cmp	r3, #80
 1323 01d2 10D0     		beq	.L180
 1324 01d4 602B     		cmp	r3, #96
 1325 01d6 C2D1     		bne	.L179
 1326 01d8 44F48074 		orr	r4, r4, #256
 1327 01dc BFE7     		b	.L179
 1328              	.L178:
 1329 01de 44F00804 		orr	r4, r4, #8
 1330 01e2 BCE7     		b	.L179
 1331              	.L176:
 1332 01e4 44F01004 		orr	r4, r4, #16
 1333 01e8 B9E7     		b	.L179
 1334              	.L177:
 1335 01ea 44F02004 		orr	r4, r4, #32
 1336 01ee B6E7     		b	.L179
 1337              	.L174:
 1338 01f0 44F04004 		orr	r4, r4, #64
 1339 01f4 B3E7     		b	.L179
 1340              	.L180:
 1341 01f6 44F08004 		orr	r4, r4, #128
 1342 01fa B0E7     		b	.L179
 1344              		.section	.text.HAL_CAN_GetState,"ax",%progbits
 1345              		.align	1
 1346              		.global	HAL_CAN_GetState
 1347              		.syntax unified
 1348              		.thumb
 1349              		.thumb_func
 1350              		.fpu softvfp
 1352              	HAL_CAN_GetState:
 1353              		@ args = 0, pretend = 0, frame = 0
 1354              		@ frame_needed = 0, uses_anonymous_args = 0
 1355              		@ link register save eliminated.
 1356 0000 90F82020 		ldrb	r2, [r0, #32]	@ zero_extendqisi2
 1357 0004 0346     		mov	r3, r0
 1358 0006 D0B2     		uxtb	r0, r2
 1359 0008 013A     		subs	r2, r2, #1
 1360 000a 012A     		cmp	r2, #1
 1361 000c 0AD8     		bhi	.L279
 1362 000e 1B68     		ldr	r3, [r3]
 1363 0010 5A68     		ldr	r2, [r3, #4]
 1364 0012 9207     		lsls	r2, r2, #30
 1365 0014 05D4     		bmi	.L280
 1366 0016 1B68     		ldr	r3, [r3]
 1367 0018 13F0020F 		tst	r3, #2
 1368 001c 18BF     		it	ne
 1369 001e 0320     		movne	r0, #3
 1370 0020 7047     		bx	lr
 1371              	.L280:
 1372 0022 0420     		movs	r0, #4
 1373              	.L279:
 1374 0024 7047     		bx	lr
 1376              		.section	.text.HAL_CAN_GetError,"ax",%progbits
 1377              		.align	1
 1378              		.global	HAL_CAN_GetError
 1379              		.syntax unified
ARM GAS  /tmp/ccExhGi0.s 			page 24


 1380              		.thumb
 1381              		.thumb_func
 1382              		.fpu softvfp
 1384              	HAL_CAN_GetError:
 1385              		@ args = 0, pretend = 0, frame = 0
 1386              		@ frame_needed = 0, uses_anonymous_args = 0
 1387              		@ link register save eliminated.
 1388 0000 406A     		ldr	r0, [r0, #36]
 1389 0002 7047     		bx	lr
 1391              		.section	.text.HAL_CAN_ResetError,"ax",%progbits
 1392              		.align	1
 1393              		.global	HAL_CAN_ResetError
 1394              		.syntax unified
 1395              		.thumb
 1396              		.thumb_func
 1397              		.fpu softvfp
 1399              	HAL_CAN_ResetError:
 1400              		@ args = 0, pretend = 0, frame = 0
 1401              		@ frame_needed = 0, uses_anonymous_args = 0
 1402              		@ link register save eliminated.
 1403 0000 90F82030 		ldrb	r3, [r0, #32]	@ zero_extendqisi2
 1404 0004 013B     		subs	r3, r3, #1
 1405 0006 012B     		cmp	r3, #1
 1406 0008 95BF     		itete	ls
 1407 000a 0023     		movls	r3, #0
 1408 000c 436A     		ldrhi	r3, [r0, #36]
 1409 000e 4362     		strls	r3, [r0, #36]
 1410 0010 43F48023 		orrhi	r3, r3, #262144
 1411 0014 92BF     		itee	ls
 1412 0016 1846     		movls	r0, r3
 1413 0018 4362     		strhi	r3, [r0, #36]
 1414 001a 0120     		movhi	r0, #1
 1415 001c 7047     		bx	lr
 1417              		.ident	"GCC: (GNU Tools for Arm Embedded Processors 9-2019-q4-major) 9.2.1 20191025 (release) [ARM
ARM GAS  /tmp/ccExhGi0.s 			page 25

