ARM GAS  /tmp/cc3SmNNP.s 			page 1


   1              		.cpu cortex-m3
   2              		.eabi_attribute 20, 1
   3              		.eabi_attribute 21, 1
   4              		.eabi_attribute 23, 3
   5              		.eabi_attribute 24, 1
   6              		.eabi_attribute 25, 1
   7              		.eabi_attribute 26, 1
   8              		.eabi_attribute 30, 4
   9              		.eabi_attribute 34, 1
  10              		.eabi_attribute 18, 4
  11              		.file	"stm32f1xx_hal_uart.c"
  12              		.section	.text.HAL_UART_AbortReceiveCpltCallback,"ax",%progbits
  13              		.align	1
  14              		.weak	HAL_UART_AbortReceiveCpltCallback
  15              		.syntax unified
  16              		.thumb
  17              		.thumb_func
  18              		.fpu softvfp
  20              	HAL_UART_AbortReceiveCpltCallback:
  21              		@ args = 0, pretend = 0, frame = 0
  22              		@ frame_needed = 0, uses_anonymous_args = 0
  23              		@ link register save eliminated.
  24 0000 7047     		bx	lr
  26              		.section	.text.UART_DMATransmitCplt,"ax",%progbits
  27              		.align	1
  28              		.syntax unified
  29              		.thumb
  30              		.thumb_func
  31              		.fpu softvfp
  33              	UART_DMATransmitCplt:
  34              		@ args = 0, pretend = 0, frame = 0
  35              		@ frame_needed = 0, uses_anonymous_args = 0
  36              		@ link register save eliminated.
  37 0000 0268     		ldr	r2, [r0]
  38 0002 436A     		ldr	r3, [r0, #36]
  39 0004 1268     		ldr	r2, [r2]
  40 0006 12F02002 		ands	r2, r2, #32
  41 000a 0AD1     		bne	.L3
  42 000c DA84     		strh	r2, [r3, #38]	@ movhi
  43 000e 1B68     		ldr	r3, [r3]
  44 0010 5A69     		ldr	r2, [r3, #20]
  45 0012 22F08002 		bic	r2, r2, #128
  46 0016 5A61     		str	r2, [r3, #20]
  47 0018 DA68     		ldr	r2, [r3, #12]
  48 001a 42F04002 		orr	r2, r2, #64
  49 001e DA60     		str	r2, [r3, #12]
  50 0020 7047     		bx	lr
  51              	.L3:
  52 0022 5A6C     		ldr	r2, [r3, #68]
  53 0024 1846     		mov	r0, r3
  54 0026 1047     		bx	r2	@ indirect register sibling call
  56              		.section	.text.UART_DMATxHalfCplt,"ax",%progbits
  57              		.align	1
  58              		.syntax unified
  59              		.thumb
  60              		.thumb_func
  61              		.fpu softvfp
ARM GAS  /tmp/cc3SmNNP.s 			page 2


  63              	UART_DMATxHalfCplt:
  64              		@ args = 0, pretend = 0, frame = 0
  65              		@ frame_needed = 0, uses_anonymous_args = 0
  66              		@ link register save eliminated.
  67 0000 406A     		ldr	r0, [r0, #36]
  68 0002 036C     		ldr	r3, [r0, #64]
  69 0004 1847     		bx	r3	@ indirect register sibling call
  71              		.section	.text.UART_DMAReceiveCplt,"ax",%progbits
  72              		.align	1
  73              		.syntax unified
  74              		.thumb
  75              		.thumb_func
  76              		.fpu softvfp
  78              	UART_DMAReceiveCplt:
  79              		@ args = 0, pretend = 0, frame = 0
  80              		@ frame_needed = 0, uses_anonymous_args = 0
  81              		@ link register save eliminated.
  82 0000 0368     		ldr	r3, [r0]
  83 0002 426A     		ldr	r2, [r0, #36]
  84 0004 1B68     		ldr	r3, [r3]
  85 0006 13F02003 		ands	r3, r3, #32
  86 000a 10D1     		bne	.L8
  87 000c D385     		strh	r3, [r2, #46]	@ movhi
  88 000e 1368     		ldr	r3, [r2]
  89 0010 D968     		ldr	r1, [r3, #12]
  90 0012 21F48071 		bic	r1, r1, #256
  91 0016 D960     		str	r1, [r3, #12]
  92 0018 5969     		ldr	r1, [r3, #20]
  93 001a 21F00101 		bic	r1, r1, #1
  94 001e 5961     		str	r1, [r3, #20]
  95 0020 5969     		ldr	r1, [r3, #20]
  96 0022 21F04001 		bic	r1, r1, #64
  97 0026 5961     		str	r1, [r3, #20]
  98 0028 2023     		movs	r3, #32
  99 002a 82F83A30 		strb	r3, [r2, #58]
 100              	.L8:
 101 002e D36C     		ldr	r3, [r2, #76]
 102 0030 1046     		mov	r0, r2
 103 0032 1847     		bx	r3	@ indirect register sibling call
 105              		.section	.text.UART_DMARxHalfCplt,"ax",%progbits
 106              		.align	1
 107              		.syntax unified
 108              		.thumb
 109              		.thumb_func
 110              		.fpu softvfp
 112              	UART_DMARxHalfCplt:
 113              		@ args = 0, pretend = 0, frame = 0
 114              		@ frame_needed = 0, uses_anonymous_args = 0
 115              		@ link register save eliminated.
 116 0000 406A     		ldr	r0, [r0, #36]
 117 0002 836C     		ldr	r3, [r0, #72]
 118 0004 1847     		bx	r3	@ indirect register sibling call
 120              		.section	.text.UART_EndRxTransfer,"ax",%progbits
 121              		.align	1
 122              		.syntax unified
 123              		.thumb
 124              		.thumb_func
ARM GAS  /tmp/cc3SmNNP.s 			page 3


 125              		.fpu softvfp
 127              	UART_EndRxTransfer:
 128              		@ args = 0, pretend = 0, frame = 0
 129              		@ frame_needed = 0, uses_anonymous_args = 0
 130              		@ link register save eliminated.
 131 0000 0368     		ldr	r3, [r0]
 132 0002 DA68     		ldr	r2, [r3, #12]
 133 0004 22F49072 		bic	r2, r2, #288
 134 0008 DA60     		str	r2, [r3, #12]
 135 000a 5A69     		ldr	r2, [r3, #20]
 136 000c 22F00102 		bic	r2, r2, #1
 137 0010 5A61     		str	r2, [r3, #20]
 138 0012 2023     		movs	r3, #32
 139 0014 80F83A30 		strb	r3, [r0, #58]
 140 0018 7047     		bx	lr
 142              		.section	.text.UART_DMAError,"ax",%progbits
 143              		.align	1
 144              		.syntax unified
 145              		.thumb
 146              		.thumb_func
 147              		.fpu softvfp
 149              	UART_DMAError:
 150              		@ args = 0, pretend = 0, frame = 0
 151              		@ frame_needed = 0, uses_anonymous_args = 0
 152 0000 416A     		ldr	r1, [r0, #36]
 153 0002 10B5     		push	{r4, lr}
 154 0004 0B68     		ldr	r3, [r1]
 155 0006 5A69     		ldr	r2, [r3, #20]
 156 0008 91F83900 		ldrb	r0, [r1, #57]	@ zero_extendqisi2
 157 000c 2128     		cmp	r0, #33
 158 000e 0AD1     		bne	.L12
 159 0010 1206     		lsls	r2, r2, #24
 160 0012 08D5     		bpl	.L12
 161 0014 0022     		movs	r2, #0
 162 0016 CA84     		strh	r2, [r1, #38]	@ movhi
 163 0018 DA68     		ldr	r2, [r3, #12]
 164 001a 22F0C002 		bic	r2, r2, #192
 165 001e DA60     		str	r2, [r3, #12]
 166 0020 2022     		movs	r2, #32
 167 0022 81F83920 		strb	r2, [r1, #57]
 168              	.L12:
 169 0026 5B69     		ldr	r3, [r3, #20]
 170 0028 91F83A20 		ldrb	r2, [r1, #58]	@ zero_extendqisi2
 171 002c 222A     		cmp	r2, #34
 172 002e 06D1     		bne	.L13
 173 0030 5B06     		lsls	r3, r3, #25
 174 0032 04D5     		bpl	.L13
 175 0034 0023     		movs	r3, #0
 176 0036 0846     		mov	r0, r1
 177 0038 CB85     		strh	r3, [r1, #46]	@ movhi
 178 003a FFF7FEFF 		bl	UART_EndRxTransfer
 179              	.L13:
 180 003e BDE81040 		pop	{r4, lr}
 181 0042 CB6B     		ldr	r3, [r1, #60]
 182 0044 0846     		mov	r0, r1
 183 0046 43F01003 		orr	r3, r3, #16
 184 004a CB63     		str	r3, [r1, #60]
ARM GAS  /tmp/cc3SmNNP.s 			page 4


 185 004c 0B6D     		ldr	r3, [r1, #80]
 186 004e 1847     		bx	r3	@ indirect register sibling call
 188              		.section	.text.UART_DMAAbortOnError,"ax",%progbits
 189              		.align	1
 190              		.syntax unified
 191              		.thumb
 192              		.thumb_func
 193              		.fpu softvfp
 195              	UART_DMAAbortOnError:
 196              		@ args = 0, pretend = 0, frame = 0
 197              		@ frame_needed = 0, uses_anonymous_args = 0
 198              		@ link register save eliminated.
 199 0000 0023     		movs	r3, #0
 200 0002 406A     		ldr	r0, [r0, #36]
 201 0004 C385     		strh	r3, [r0, #46]	@ movhi
 202 0006 C384     		strh	r3, [r0, #38]	@ movhi
 203 0008 036D     		ldr	r3, [r0, #80]
 204 000a 1847     		bx	r3	@ indirect register sibling call
 206              		.section	.text.UART_DMATxAbortCallback,"ax",%progbits
 207              		.align	1
 208              		.syntax unified
 209              		.thumb
 210              		.thumb_func
 211              		.fpu softvfp
 213              	UART_DMATxAbortCallback:
 214              		@ args = 0, pretend = 0, frame = 0
 215              		@ frame_needed = 0, uses_anonymous_args = 0
 216              		@ link register save eliminated.
 217 0000 0023     		movs	r3, #0
 218 0002 406A     		ldr	r0, [r0, #36]
 219 0004 026B     		ldr	r2, [r0, #48]
 220 0006 5363     		str	r3, [r2, #52]
 221 0008 426B     		ldr	r2, [r0, #52]
 222 000a 0AB1     		cbz	r2, .L22
 223 000c 526B     		ldr	r2, [r2, #52]
 224 000e 4AB9     		cbnz	r2, .L21
 225              	.L22:
 226 0010 C384     		strh	r3, [r0, #38]	@ movhi
 227 0012 C385     		strh	r3, [r0, #46]	@ movhi
 228 0014 C363     		str	r3, [r0, #60]
 229 0016 2023     		movs	r3, #32
 230 0018 80F83930 		strb	r3, [r0, #57]
 231 001c 80F83A30 		strb	r3, [r0, #58]
 232 0020 436D     		ldr	r3, [r0, #84]
 233 0022 1847     		bx	r3	@ indirect register sibling call
 234              	.L21:
 235 0024 7047     		bx	lr
 237              		.section	.text.UART_DMARxAbortCallback,"ax",%progbits
 238              		.align	1
 239              		.syntax unified
 240              		.thumb
 241              		.thumb_func
 242              		.fpu softvfp
 244              	UART_DMARxAbortCallback:
 245              		@ args = 0, pretend = 0, frame = 0
 246              		@ frame_needed = 0, uses_anonymous_args = 0
 247              		@ link register save eliminated.
ARM GAS  /tmp/cc3SmNNP.s 			page 5


 248 0000 0023     		movs	r3, #0
 249 0002 406A     		ldr	r0, [r0, #36]
 250 0004 426B     		ldr	r2, [r0, #52]
 251 0006 5363     		str	r3, [r2, #52]
 252 0008 026B     		ldr	r2, [r0, #48]
 253 000a 0AB1     		cbz	r2, .L28
 254 000c 526B     		ldr	r2, [r2, #52]
 255 000e 4AB9     		cbnz	r2, .L27
 256              	.L28:
 257 0010 C384     		strh	r3, [r0, #38]	@ movhi
 258 0012 C385     		strh	r3, [r0, #46]	@ movhi
 259 0014 C363     		str	r3, [r0, #60]
 260 0016 2023     		movs	r3, #32
 261 0018 80F83930 		strb	r3, [r0, #57]
 262 001c 80F83A30 		strb	r3, [r0, #58]
 263 0020 436D     		ldr	r3, [r0, #84]
 264 0022 1847     		bx	r3	@ indirect register sibling call
 265              	.L27:
 266 0024 7047     		bx	lr
 268              		.section	.text.UART_DMATxOnlyAbortCallback,"ax",%progbits
 269              		.align	1
 270              		.syntax unified
 271              		.thumb
 272              		.thumb_func
 273              		.fpu softvfp
 275              	UART_DMATxOnlyAbortCallback:
 276              		@ args = 0, pretend = 0, frame = 0
 277              		@ frame_needed = 0, uses_anonymous_args = 0
 278              		@ link register save eliminated.
 279 0000 0023     		movs	r3, #0
 280 0002 406A     		ldr	r0, [r0, #36]
 281 0004 C384     		strh	r3, [r0, #38]	@ movhi
 282 0006 2023     		movs	r3, #32
 283 0008 80F83930 		strb	r3, [r0, #57]
 284 000c 836D     		ldr	r3, [r0, #88]
 285 000e 1847     		bx	r3	@ indirect register sibling call
 287              		.section	.text.UART_DMARxOnlyAbortCallback,"ax",%progbits
 288              		.align	1
 289              		.syntax unified
 290              		.thumb
 291              		.thumb_func
 292              		.fpu softvfp
 294              	UART_DMARxOnlyAbortCallback:
 295              		@ args = 0, pretend = 0, frame = 0
 296              		@ frame_needed = 0, uses_anonymous_args = 0
 297              		@ link register save eliminated.
 298 0000 0023     		movs	r3, #0
 299 0002 406A     		ldr	r0, [r0, #36]
 300 0004 C385     		strh	r3, [r0, #46]	@ movhi
 301 0006 2023     		movs	r3, #32
 302 0008 80F83A30 		strb	r3, [r0, #58]
 303 000c C36D     		ldr	r3, [r0, #92]
 304 000e 1847     		bx	r3	@ indirect register sibling call
 306              		.section	.text.UART_SetConfig,"ax",%progbits
 307              		.align	1
 308              		.syntax unified
 309              		.thumb
ARM GAS  /tmp/cc3SmNNP.s 			page 6


 310              		.thumb_func
 311              		.fpu softvfp
 313              	UART_SetConfig:
 314              		@ args = 0, pretend = 0, frame = 0
 315              		@ frame_needed = 0, uses_anonymous_args = 0
 316 0000 38B5     		push	{r3, r4, r5, lr}
 317 0002 0546     		mov	r5, r0
 318 0004 0368     		ldr	r3, [r0]
 319 0006 C168     		ldr	r1, [r0, #12]
 320 0008 1A69     		ldr	r2, [r3, #16]
 321 000a 1924     		movs	r4, #25
 322 000c 22F44052 		bic	r2, r2, #12288
 323 0010 0A43     		orrs	r2, r2, r1
 324 0012 1A61     		str	r2, [r3, #16]
 325 0014 8268     		ldr	r2, [r0, #8]
 326 0016 0069     		ldr	r0, [r0, #16]
 327 0018 D968     		ldr	r1, [r3, #12]
 328 001a 0243     		orrs	r2, r2, r0
 329 001c 6869     		ldr	r0, [r5, #20]
 330 001e 21F4B051 		bic	r1, r1, #5632
 331 0022 21F00C01 		bic	r1, r1, #12
 332 0026 0243     		orrs	r2, r2, r0
 333 0028 0A43     		orrs	r2, r2, r1
 334 002a DA60     		str	r2, [r3, #12]
 335 002c 5A69     		ldr	r2, [r3, #20]
 336 002e A969     		ldr	r1, [r5, #24]
 337 0030 22F44072 		bic	r2, r2, #768
 338 0034 0A43     		orrs	r2, r2, r1
 339 0036 5A61     		str	r2, [r3, #20]
 340 0038 0D4A     		ldr	r2, .L39
 341 003a 9342     		cmp	r3, r2
 342 003c 14D1     		bne	.L36
 343 003e FFF7FEFF 		bl	HAL_RCC_GetPCLK2Freq
 344              	.L38:
 345 0042 6043     		muls	r0, r4, r0
 346 0044 6C68     		ldr	r4, [r5, #4]
 347 0046 6422     		movs	r2, #100
 348 0048 A400     		lsls	r4, r4, #2
 349 004a B0FBF4F0 		udiv	r0, r0, r4
 350 004e B0FBF2F4 		udiv	r4, r0, r2
 351 0052 02FB1403 		mls	r3, r2, r4, r0
 352 0056 1B01     		lsls	r3, r3, #4
 353 0058 3233     		adds	r3, r3, #50
 354 005a B3FBF2F3 		udiv	r3, r3, r2
 355 005e 2968     		ldr	r1, [r5]
 356 0060 03EB0413 		add	r3, r3, r4, lsl #4
 357 0064 8B60     		str	r3, [r1, #8]
 358 0066 38BD     		pop	{r3, r4, r5, pc}
 359              	.L36:
 360 0068 FFF7FEFF 		bl	HAL_RCC_GetPCLK1Freq
 361 006c E9E7     		b	.L38
 362              	.L40:
 363 006e 00BF     		.align	2
 364              	.L39:
 365 0070 00380140 		.word	1073821696
 367              		.section	.text.UART_Receive_IT,"ax",%progbits
 368              		.align	1
ARM GAS  /tmp/cc3SmNNP.s 			page 7


 369              		.syntax unified
 370              		.thumb
 371              		.thumb_func
 372              		.fpu softvfp
 374              	UART_Receive_IT:
 375              		@ args = 0, pretend = 0, frame = 0
 376              		@ frame_needed = 0, uses_anonymous_args = 0
 377 0000 90F83A30 		ldrb	r3, [r0, #58]	@ zero_extendqisi2
 378 0004 10B5     		push	{r4, lr}
 379 0006 222B     		cmp	r3, #34
 380 0008 36D1     		bne	.L47
 381 000a 8368     		ldr	r3, [r0, #8]
 382 000c 0169     		ldr	r1, [r0, #16]
 383 000e B3F5805F 		cmp	r3, #4096
 384 0012 0268     		ldr	r2, [r0]
 385 0014 836A     		ldr	r3, [r0, #40]
 386 0016 23D1     		bne	.L43
 387 0018 5268     		ldr	r2, [r2, #4]
 388 001a E9B9     		cbnz	r1, .L44
 389 001c C2F30802 		ubfx	r2, r2, #0, #9
 390 0020 23F8022B 		strh	r2, [r3], #2	@ movhi
 391              	.L49:
 392 0024 8362     		str	r3, [r0, #40]
 393              	.L45:
 394 0026 C48D     		ldrh	r4, [r0, #46]
 395 0028 013C     		subs	r4, r4, #1
 396 002a A4B2     		uxth	r4, r4
 397 002c C485     		strh	r4, [r0, #46]	@ movhi
 398 002e 8CB9     		cbnz	r4, .L48
 399 0030 0368     		ldr	r3, [r0]
 400 0032 DA68     		ldr	r2, [r3, #12]
 401 0034 22F02002 		bic	r2, r2, #32
 402 0038 DA60     		str	r2, [r3, #12]
 403 003a DA68     		ldr	r2, [r3, #12]
 404 003c 22F48072 		bic	r2, r2, #256
 405 0040 DA60     		str	r2, [r3, #12]
 406 0042 5A69     		ldr	r2, [r3, #20]
 407 0044 22F00102 		bic	r2, r2, #1
 408 0048 5A61     		str	r2, [r3, #20]
 409 004a 2023     		movs	r3, #32
 410 004c 80F83A30 		strb	r3, [r0, #58]
 411 0050 C36C     		ldr	r3, [r0, #76]
 412 0052 9847     		blx	r3
 413              	.L48:
 414 0054 0020     		movs	r0, #0
 415 0056 10BD     		pop	{r4, pc}
 416              	.L44:
 417 0058 D2B2     		uxtb	r2, r2
 418 005a 23F8012B 		strh	r2, [r3], #1	@ movhi
 419 005e E1E7     		b	.L49
 420              	.L43:
 421 0060 21B9     		cbnz	r1, .L46
 422 0062 591C     		adds	r1, r3, #1
 423 0064 5268     		ldr	r2, [r2, #4]
 424 0066 8162     		str	r1, [r0, #40]
 425              	.L50:
 426 0068 1A70     		strb	r2, [r3]
ARM GAS  /tmp/cc3SmNNP.s 			page 8


 427 006a DCE7     		b	.L45
 428              	.L46:
 429 006c 5268     		ldr	r2, [r2, #4]
 430 006e 591C     		adds	r1, r3, #1
 431 0070 8162     		str	r1, [r0, #40]
 432 0072 02F07F02 		and	r2, r2, #127
 433 0076 F7E7     		b	.L50
 434              	.L47:
 435 0078 0220     		movs	r0, #2
 436 007a 10BD     		pop	{r4, pc}
 438              		.section	.text.UART_WaitOnFlagUntilTimeout.constprop.3,"ax",%progbits
 439              		.align	1
 440              		.syntax unified
 441              		.thumb
 442              		.thumb_func
 443              		.fpu softvfp
 445              	UART_WaitOnFlagUntilTimeout.constprop.3:
 446              		@ args = 0, pretend = 0, frame = 0
 447              		@ frame_needed = 0, uses_anonymous_args = 0
 448 0000 F8B5     		push	{r3, r4, r5, r6, r7, lr}
 449 0002 0446     		mov	r4, r0
 450 0004 0E46     		mov	r6, r1
 451 0006 1746     		mov	r7, r2
 452 0008 1D46     		mov	r5, r3
 453              	.L52:
 454 000a 2168     		ldr	r1, [r4]
 455              	.L53:
 456 000c 0B68     		ldr	r3, [r1]
 457 000e 36EA0303 		bics	r3, r6, r3
 458 0012 01D1     		bne	.L57
 459 0014 0020     		movs	r0, #0
 460 0016 F8BD     		pop	{r3, r4, r5, r6, r7, pc}
 461              	.L57:
 462 0018 6B1C     		adds	r3, r5, #1
 463 001a F7D0     		beq	.L53
 464 001c 95B9     		cbnz	r5, .L54
 465              	.L56:
 466 001e 2368     		ldr	r3, [r4]
 467 0020 0320     		movs	r0, #3
 468 0022 DA68     		ldr	r2, [r3, #12]
 469 0024 22F4D072 		bic	r2, r2, #416
 470 0028 DA60     		str	r2, [r3, #12]
 471 002a 5A69     		ldr	r2, [r3, #20]
 472 002c 22F00102 		bic	r2, r2, #1
 473 0030 5A61     		str	r2, [r3, #20]
 474 0032 2023     		movs	r3, #32
 475 0034 84F83930 		strb	r3, [r4, #57]
 476 0038 84F83A30 		strb	r3, [r4, #58]
 477 003c 0023     		movs	r3, #0
 478 003e 84F83830 		strb	r3, [r4, #56]
 479 0042 F8BD     		pop	{r3, r4, r5, r6, r7, pc}
 480              	.L54:
 481 0044 FFF7FEFF 		bl	HAL_GetTick
 482 0048 C01B     		subs	r0, r0, r7
 483 004a 8542     		cmp	r5, r0
 484 004c DDD2     		bcs	.L52
 485 004e E6E7     		b	.L56
ARM GAS  /tmp/cc3SmNNP.s 			page 9


 487              		.section	.text.HAL_UART_AbortTransmitCpltCallback,"ax",%progbits
 488              		.align	1
 489              		.weak	HAL_UART_AbortTransmitCpltCallback
 490              		.syntax unified
 491              		.thumb
 492              		.thumb_func
 493              		.fpu softvfp
 495              	HAL_UART_AbortTransmitCpltCallback:
 496              		@ args = 0, pretend = 0, frame = 0
 497              		@ frame_needed = 0, uses_anonymous_args = 0
 498              		@ link register save eliminated.
 499 0000 7047     		bx	lr
 501              		.section	.text.HAL_UART_MspInit,"ax",%progbits
 502              		.align	1
 503              		.weak	HAL_UART_MspInit
 504              		.syntax unified
 505              		.thumb
 506              		.thumb_func
 507              		.fpu softvfp
 509              	HAL_UART_MspInit:
 510              		@ args = 0, pretend = 0, frame = 0
 511              		@ frame_needed = 0, uses_anonymous_args = 0
 512              		@ link register save eliminated.
 513 0000 7047     		bx	lr
 515              		.section	.text.HAL_UART_MspDeInit,"ax",%progbits
 516              		.align	1
 517              		.weak	HAL_UART_MspDeInit
 518              		.syntax unified
 519              		.thumb
 520              		.thumb_func
 521              		.fpu softvfp
 523              	HAL_UART_MspDeInit:
 524              		@ args = 0, pretend = 0, frame = 0
 525              		@ frame_needed = 0, uses_anonymous_args = 0
 526              		@ link register save eliminated.
 527 0000 7047     		bx	lr
 529              		.section	.text.HAL_UART_TxCpltCallback,"ax",%progbits
 530              		.align	1
 531              		.weak	HAL_UART_TxCpltCallback
 532              		.syntax unified
 533              		.thumb
 534              		.thumb_func
 535              		.fpu softvfp
 537              	HAL_UART_TxCpltCallback:
 538              		@ args = 0, pretend = 0, frame = 0
 539              		@ frame_needed = 0, uses_anonymous_args = 0
 540              		@ link register save eliminated.
 541 0000 7047     		bx	lr
 543              		.section	.text.HAL_UART_TxHalfCpltCallback,"ax",%progbits
 544              		.align	1
 545              		.weak	HAL_UART_TxHalfCpltCallback
 546              		.syntax unified
 547              		.thumb
 548              		.thumb_func
 549              		.fpu softvfp
 551              	HAL_UART_TxHalfCpltCallback:
 552              		@ args = 0, pretend = 0, frame = 0
ARM GAS  /tmp/cc3SmNNP.s 			page 10


 553              		@ frame_needed = 0, uses_anonymous_args = 0
 554              		@ link register save eliminated.
 555 0000 7047     		bx	lr
 557              		.section	.text.HAL_UART_RxCpltCallback,"ax",%progbits
 558              		.align	1
 559              		.weak	HAL_UART_RxCpltCallback
 560              		.syntax unified
 561              		.thumb
 562              		.thumb_func
 563              		.fpu softvfp
 565              	HAL_UART_RxCpltCallback:
 566              		@ args = 0, pretend = 0, frame = 0
 567              		@ frame_needed = 0, uses_anonymous_args = 0
 568              		@ link register save eliminated.
 569 0000 7047     		bx	lr
 571              		.section	.text.HAL_UART_RxHalfCpltCallback,"ax",%progbits
 572              		.align	1
 573              		.weak	HAL_UART_RxHalfCpltCallback
 574              		.syntax unified
 575              		.thumb
 576              		.thumb_func
 577              		.fpu softvfp
 579              	HAL_UART_RxHalfCpltCallback:
 580              		@ args = 0, pretend = 0, frame = 0
 581              		@ frame_needed = 0, uses_anonymous_args = 0
 582              		@ link register save eliminated.
 583 0000 7047     		bx	lr
 585              		.section	.text.HAL_UART_ErrorCallback,"ax",%progbits
 586              		.align	1
 587              		.weak	HAL_UART_ErrorCallback
 588              		.syntax unified
 589              		.thumb
 590              		.thumb_func
 591              		.fpu softvfp
 593              	HAL_UART_ErrorCallback:
 594              		@ args = 0, pretend = 0, frame = 0
 595              		@ frame_needed = 0, uses_anonymous_args = 0
 596              		@ link register save eliminated.
 597 0000 7047     		bx	lr
 599              		.section	.text.HAL_UART_AbortCpltCallback,"ax",%progbits
 600              		.align	1
 601              		.weak	HAL_UART_AbortCpltCallback
 602              		.syntax unified
 603              		.thumb
 604              		.thumb_func
 605              		.fpu softvfp
 607              	HAL_UART_AbortCpltCallback:
 608              		@ args = 0, pretend = 0, frame = 0
 609              		@ frame_needed = 0, uses_anonymous_args = 0
 610              		@ link register save eliminated.
 611 0000 7047     		bx	lr
 613              		.section	.text.HAL_UART_DeInit,"ax",%progbits
 614              		.align	1
 615              		.global	HAL_UART_DeInit
 616              		.syntax unified
 617              		.thumb
 618              		.thumb_func
ARM GAS  /tmp/cc3SmNNP.s 			page 11


 619              		.fpu softvfp
 621              	HAL_UART_DeInit:
 622              		@ args = 0, pretend = 0, frame = 0
 623              		@ frame_needed = 0, uses_anonymous_args = 0
 624 0000 10B5     		push	{r4, lr}
 625 0002 0446     		mov	r4, r0
 626 0004 B8B1     		cbz	r0, .L72
 627 0006 2423     		movs	r3, #36
 628 0008 0268     		ldr	r2, [r0]
 629 000a 80F83930 		strb	r3, [r0, #57]
 630 000e D368     		ldr	r3, [r2, #12]
 631 0010 23F40053 		bic	r3, r3, #8192
 632 0014 D360     		str	r3, [r2, #12]
 633 0016 836E     		ldr	r3, [r0, #104]
 634 0018 0BB9     		cbnz	r3, .L71
 635 001a 084B     		ldr	r3, .L73
 636 001c 8366     		str	r3, [r0, #104]
 637              	.L71:
 638 001e 2046     		mov	r0, r4
 639 0020 A36E     		ldr	r3, [r4, #104]
 640 0022 9847     		blx	r3
 641 0024 0020     		movs	r0, #0
 642 0026 E063     		str	r0, [r4, #60]
 643 0028 84F83800 		strb	r0, [r4, #56]
 644 002c 84F83900 		strb	r0, [r4, #57]
 645 0030 84F83A00 		strb	r0, [r4, #58]
 646 0034 10BD     		pop	{r4, pc}
 647              	.L72:
 648 0036 0120     		movs	r0, #1
 649 0038 10BD     		pop	{r4, pc}
 650              	.L74:
 651 003a 00BF     		.align	2
 652              	.L73:
 653 003c 00000000 		.word	HAL_UART_MspDeInit
 655              		.section	.text.HAL_UART_RegisterCallback,"ax",%progbits
 656              		.align	1
 657              		.global	HAL_UART_RegisterCallback
 658              		.syntax unified
 659              		.thumb
 660              		.thumb_func
 661              		.fpu softvfp
 663              	HAL_UART_RegisterCallback:
 664              		@ args = 0, pretend = 0, frame = 0
 665              		@ frame_needed = 0, uses_anonymous_args = 0
 666 0000 30B5     		push	{r4, r5, lr}
 667 0002 0346     		mov	r3, r0
 668 0004 2AB9     		cbnz	r2, .L76
 669 0006 C26B     		ldr	r2, [r0, #60]
 670 0008 42F02002 		orr	r2, r2, #32
 671 000c C263     		str	r2, [r0, #60]
 672 000e 0120     		movs	r0, #1
 673 0010 30BD     		pop	{r4, r5, pc}
 674              	.L76:
 675 0012 90F83800 		ldrb	r0, [r0, #56]	@ zero_extendqisi2
 676 0016 0128     		cmp	r0, #1
 677 0018 3BD0     		beq	.L96
 678 001a 0120     		movs	r0, #1
ARM GAS  /tmp/cc3SmNNP.s 			page 12


 679 001c 93F83940 		ldrb	r4, [r3, #57]	@ zero_extendqisi2
 680 0020 83F83800 		strb	r0, [r3, #56]
 681 0024 202C     		cmp	r4, #32
 682 0026 24D1     		bne	.L78
 683 0028 0C29     		cmp	r1, #12
 684 002a 1CD8     		bhi	.L79
 685 002c DFE801F0 		tbb	[pc, r1]
 686              	.L81:
 687 0030 07       		.byte	(.L80-.L81)/2
 688 0031 0D       		.byte	(.L82-.L81)/2
 689 0032 0F       		.byte	(.L83-.L81)/2
 690 0033 11       		.byte	(.L84-.L81)/2
 691 0034 13       		.byte	(.L85-.L81)/2
 692 0035 15       		.byte	(.L86-.L81)/2
 693 0036 17       		.byte	(.L87-.L81)/2
 694 0037 19       		.byte	(.L88-.L81)/2
 695 0038 1B       		.byte	(.L79-.L81)/2
 696 0039 1B       		.byte	(.L79-.L81)/2
 697 003a 1B       		.byte	(.L79-.L81)/2
 698 003b 2D       		.byte	(.L94-.L81)/2
 699 003c 2F       		.byte	(.L95-.L81)/2
 700 003d 00       		.p2align 1
 701              	.L80:
 702 003e 1A64     		str	r2, [r3, #64]
 703              	.L98:
 704 0040 0020     		movs	r0, #0
 705              	.L91:
 706 0042 0022     		movs	r2, #0
 707 0044 83F83820 		strb	r2, [r3, #56]
 708 0048 30BD     		pop	{r4, r5, pc}
 709              	.L82:
 710 004a 5A64     		str	r2, [r3, #68]
 711 004c F8E7     		b	.L98
 712              	.L83:
 713 004e 9A64     		str	r2, [r3, #72]
 714 0050 F6E7     		b	.L98
 715              	.L84:
 716 0052 DA64     		str	r2, [r3, #76]
 717 0054 F4E7     		b	.L98
 718              	.L85:
 719 0056 1A65     		str	r2, [r3, #80]
 720 0058 F2E7     		b	.L98
 721              	.L86:
 722 005a 5A65     		str	r2, [r3, #84]
 723 005c F0E7     		b	.L98
 724              	.L87:
 725 005e 9A65     		str	r2, [r3, #88]
 726 0060 EEE7     		b	.L98
 727              	.L88:
 728 0062 DA65     		str	r2, [r3, #92]
 729 0064 ECE7     		b	.L98
 730              	.L79:
 731 0066 DA6B     		ldr	r2, [r3, #60]
 732 0068 0120     		movs	r0, #1
 733 006a 42F02002 		orr	r2, r2, #32
 734 006e DA63     		str	r2, [r3, #60]
 735 0070 E7E7     		b	.L91
ARM GAS  /tmp/cc3SmNNP.s 			page 13


 736              	.L78:
 737 0072 93F83950 		ldrb	r5, [r3, #57]	@ zero_extendqisi2
 738 0076 1DB9     		cbnz	r5, .L92
 739 0078 0B29     		cmp	r1, #11
 740 007a 06D0     		beq	.L94
 741 007c 0C29     		cmp	r1, #12
 742 007e 06D0     		beq	.L95
 743              	.L92:
 744 0080 DA6B     		ldr	r2, [r3, #60]
 745 0082 42F02002 		orr	r2, r2, #32
 746 0086 DA63     		str	r2, [r3, #60]
 747 0088 DBE7     		b	.L91
 748              	.L94:
 749 008a 5A66     		str	r2, [r3, #100]
 750 008c D8E7     		b	.L98
 751              	.L95:
 752 008e 9A66     		str	r2, [r3, #104]
 753 0090 D6E7     		b	.L98
 754              	.L96:
 755 0092 0220     		movs	r0, #2
 756 0094 30BD     		pop	{r4, r5, pc}
 758              		.section	.text.HAL_UART_UnRegisterCallback,"ax",%progbits
 759              		.align	1
 760              		.global	HAL_UART_UnRegisterCallback
 761              		.syntax unified
 762              		.thumb
 763              		.thumb_func
 764              		.fpu softvfp
 766              	HAL_UART_UnRegisterCallback:
 767              		@ args = 0, pretend = 0, frame = 0
 768              		@ frame_needed = 0, uses_anonymous_args = 0
 769 0000 90F83820 		ldrb	r2, [r0, #56]	@ zero_extendqisi2
 770 0004 10B5     		push	{r4, lr}
 771 0006 012A     		cmp	r2, #1
 772 0008 0346     		mov	r3, r0
 773 000a 4BD0     		beq	.L119
 774 000c 0120     		movs	r0, #1
 775 000e 93F83920 		ldrb	r2, [r3, #57]	@ zero_extendqisi2
 776 0012 83F83800 		strb	r0, [r3, #56]
 777 0016 202A     		cmp	r2, #32
 778 0018 32D1     		bne	.L101
 779 001a 0C29     		cmp	r1, #12
 780 001c 2AD8     		bhi	.L102
 781 001e DFE801F0 		tbb	[pc, r1]
 782              	.L104:
 783 0022 07       		.byte	(.L103-.L104)/2
 784 0023 0E       		.byte	(.L105-.L104)/2
 785 0024 11       		.byte	(.L106-.L104)/2
 786 0025 14       		.byte	(.L107-.L104)/2
 787 0026 17       		.byte	(.L108-.L104)/2
 788 0027 1A       		.byte	(.L109-.L104)/2
 789 0028 1D       		.byte	(.L110-.L104)/2
 790 0029 20       		.byte	(.L111-.L104)/2
 791 002a 29       		.byte	(.L102-.L104)/2
 792 002b 29       		.byte	(.L102-.L104)/2
 793 002c 29       		.byte	(.L102-.L104)/2
 794 002d 23       		.byte	(.L112-.L104)/2
ARM GAS  /tmp/cc3SmNNP.s 			page 14


 795 002e 26       		.byte	(.L113-.L104)/2
 796 002f 00       		.p2align 1
 797              	.L103:
 798 0030 1D4A     		ldr	r2, .L122
 799 0032 1A64     		str	r2, [r3, #64]
 800              	.L121:
 801 0034 0020     		movs	r0, #0
 802              	.L114:
 803 0036 0022     		movs	r2, #0
 804 0038 83F83820 		strb	r2, [r3, #56]
 805 003c 10BD     		pop	{r4, pc}
 806              	.L105:
 807 003e 1B4A     		ldr	r2, .L122+4
 808 0040 5A64     		str	r2, [r3, #68]
 809 0042 F7E7     		b	.L121
 810              	.L106:
 811 0044 1A4A     		ldr	r2, .L122+8
 812 0046 9A64     		str	r2, [r3, #72]
 813 0048 F4E7     		b	.L121
 814              	.L107:
 815 004a 1A4A     		ldr	r2, .L122+12
 816 004c DA64     		str	r2, [r3, #76]
 817 004e F1E7     		b	.L121
 818              	.L108:
 819 0050 194A     		ldr	r2, .L122+16
 820 0052 1A65     		str	r2, [r3, #80]
 821 0054 EEE7     		b	.L121
 822              	.L109:
 823 0056 194A     		ldr	r2, .L122+20
 824 0058 5A65     		str	r2, [r3, #84]
 825 005a EBE7     		b	.L121
 826              	.L110:
 827 005c 184A     		ldr	r2, .L122+24
 828 005e 9A65     		str	r2, [r3, #88]
 829 0060 E8E7     		b	.L121
 830              	.L111:
 831 0062 184A     		ldr	r2, .L122+28
 832 0064 DA65     		str	r2, [r3, #92]
 833 0066 E5E7     		b	.L121
 834              	.L112:
 835 0068 174A     		ldr	r2, .L122+32
 836 006a 5A66     		str	r2, [r3, #100]
 837 006c E2E7     		b	.L121
 838              	.L113:
 839 006e 174A     		ldr	r2, .L122+36
 840 0070 9A66     		str	r2, [r3, #104]
 841 0072 DFE7     		b	.L121
 842              	.L102:
 843 0074 DA6B     		ldr	r2, [r3, #60]
 844 0076 0120     		movs	r0, #1
 845 0078 42F02002 		orr	r2, r2, #32
 846 007c DA63     		str	r2, [r3, #60]
 847 007e DAE7     		b	.L114
 848              	.L101:
 849 0080 93F83940 		ldrb	r4, [r3, #57]	@ zero_extendqisi2
 850 0084 1CB9     		cbnz	r4, .L115
 851 0086 0B29     		cmp	r1, #11
ARM GAS  /tmp/cc3SmNNP.s 			page 15


 852 0088 06D0     		beq	.L117
 853 008a 0C29     		cmp	r1, #12
 854 008c 07D0     		beq	.L118
 855              	.L115:
 856 008e DA6B     		ldr	r2, [r3, #60]
 857 0090 42F02002 		orr	r2, r2, #32
 858 0094 DA63     		str	r2, [r3, #60]
 859 0096 CEE7     		b	.L114
 860              	.L117:
 861 0098 0B49     		ldr	r1, .L122+32
 862 009a 5966     		str	r1, [r3, #100]
 863 009c CAE7     		b	.L121
 864              	.L118:
 865 009e 0B49     		ldr	r1, .L122+36
 866 00a0 9966     		str	r1, [r3, #104]
 867 00a2 C7E7     		b	.L121
 868              	.L119:
 869 00a4 0220     		movs	r0, #2
 870 00a6 10BD     		pop	{r4, pc}
 871              	.L123:
 872              		.align	2
 873              	.L122:
 874 00a8 00000000 		.word	HAL_UART_TxHalfCpltCallback
 875 00ac 00000000 		.word	HAL_UART_TxCpltCallback
 876 00b0 00000000 		.word	HAL_UART_RxHalfCpltCallback
 877 00b4 00000000 		.word	HAL_UART_RxCpltCallback
 878 00b8 00000000 		.word	HAL_UART_ErrorCallback
 879 00bc 00000000 		.word	HAL_UART_AbortCpltCallback
 880 00c0 00000000 		.word	HAL_UART_AbortTransmitCpltCallback
 881 00c4 00000000 		.word	HAL_UART_AbortReceiveCpltCallback
 882 00c8 00000000 		.word	HAL_UART_MspInit
 883 00cc 00000000 		.word	HAL_UART_MspDeInit
 885              		.section	.text.HAL_UART_Transmit,"ax",%progbits
 886              		.align	1
 887              		.global	HAL_UART_Transmit
 888              		.syntax unified
 889              		.thumb
 890              		.thumb_func
 891              		.fpu softvfp
 893              	HAL_UART_Transmit:
 894              		@ args = 0, pretend = 0, frame = 0
 895              		@ frame_needed = 0, uses_anonymous_args = 0
 896 0000 2DE9F041 		push	{r4, r5, r6, r7, r8, lr}
 897 0004 1F46     		mov	r7, r3
 898 0006 90F83930 		ldrb	r3, [r0, #57]	@ zero_extendqisi2
 899 000a 0446     		mov	r4, r0
 900 000c 202B     		cmp	r3, #32
 901 000e 0D46     		mov	r5, r1
 902 0010 9046     		mov	r8, r2
 903 0012 4ED1     		bne	.L136
 904 0014 0029     		cmp	r1, #0
 905 0016 49D0     		beq	.L135
 906 0018 002A     		cmp	r2, #0
 907 001a 47D0     		beq	.L135
 908 001c 90F83830 		ldrb	r3, [r0, #56]	@ zero_extendqisi2
 909 0020 012B     		cmp	r3, #1
 910 0022 46D0     		beq	.L136
ARM GAS  /tmp/cc3SmNNP.s 			page 16


 911 0024 0123     		movs	r3, #1
 912 0026 80F83830 		strb	r3, [r0, #56]
 913 002a 0023     		movs	r3, #0
 914 002c C363     		str	r3, [r0, #60]
 915 002e 2123     		movs	r3, #33
 916 0030 80F83930 		strb	r3, [r0, #57]
 917 0034 FFF7FEFF 		bl	HAL_GetTick
 918 0038 0646     		mov	r6, r0
 919 003a A4F82480 		strh	r8, [r4, #36]	@ movhi
 920 003e A4F82680 		strh	r8, [r4, #38]	@ movhi
 921              	.L126:
 922 0042 E38C     		ldrh	r3, [r4, #38]
 923 0044 9BB2     		uxth	r3, r3
 924 0046 6BB9     		cbnz	r3, .L132
 925 0048 3B46     		mov	r3, r7
 926 004a 3246     		mov	r2, r6
 927 004c 4021     		movs	r1, #64
 928 004e 2046     		mov	r0, r4
 929 0050 FFF7FEFF 		bl	UART_WaitOnFlagUntilTimeout.constprop.3
 930 0054 A8B9     		cbnz	r0, .L131
 931 0056 2023     		movs	r3, #32
 932 0058 84F83800 		strb	r0, [r4, #56]
 933 005c 84F83930 		strb	r3, [r4, #57]
 934 0060 BDE8F081 		pop	{r4, r5, r6, r7, r8, pc}
 935              	.L132:
 936 0064 E38C     		ldrh	r3, [r4, #38]
 937 0066 3246     		mov	r2, r6
 938 0068 013B     		subs	r3, r3, #1
 939 006a 9BB2     		uxth	r3, r3
 940 006c E384     		strh	r3, [r4, #38]	@ movhi
 941 006e A368     		ldr	r3, [r4, #8]
 942 0070 8021     		movs	r1, #128
 943 0072 B3F5805F 		cmp	r3, #4096
 944 0076 2046     		mov	r0, r4
 945 0078 3B46     		mov	r3, r7
 946 007a 0ED1     		bne	.L127
 947 007c FFF7FEFF 		bl	UART_WaitOnFlagUntilTimeout.constprop.3
 948 0080 10B1     		cbz	r0, .L128
 949              	.L131:
 950 0082 0320     		movs	r0, #3
 951 0084 BDE8F081 		pop	{r4, r5, r6, r7, r8, pc}
 952              	.L128:
 953 0088 2B88     		ldrh	r3, [r5]
 954 008a 2268     		ldr	r2, [r4]
 955 008c C3F30803 		ubfx	r3, r3, #0, #9
 956 0090 5360     		str	r3, [r2, #4]
 957 0092 2369     		ldr	r3, [r4, #16]
 958 0094 43B9     		cbnz	r3, .L137
 959 0096 0235     		adds	r5, r5, #2
 960 0098 D3E7     		b	.L126
 961              	.L127:
 962 009a FFF7FEFF 		bl	UART_WaitOnFlagUntilTimeout.constprop.3
 963 009e 0028     		cmp	r0, #0
 964 00a0 EFD1     		bne	.L131
 965 00a2 2368     		ldr	r3, [r4]
 966 00a4 2A78     		ldrb	r2, [r5]	@ zero_extendqisi2
 967 00a6 5A60     		str	r2, [r3, #4]
ARM GAS  /tmp/cc3SmNNP.s 			page 17


 968              	.L137:
 969 00a8 0135     		adds	r5, r5, #1
 970 00aa CAE7     		b	.L126
 971              	.L135:
 972 00ac 0120     		movs	r0, #1
 973 00ae BDE8F081 		pop	{r4, r5, r6, r7, r8, pc}
 974              	.L136:
 975 00b2 0220     		movs	r0, #2
 976 00b4 BDE8F081 		pop	{r4, r5, r6, r7, r8, pc}
 978              		.section	.text.HAL_UART_Receive,"ax",%progbits
 979              		.align	1
 980              		.global	HAL_UART_Receive
 981              		.syntax unified
 982              		.thumb
 983              		.thumb_func
 984              		.fpu softvfp
 986              	HAL_UART_Receive:
 987              		@ args = 0, pretend = 0, frame = 0
 988              		@ frame_needed = 0, uses_anonymous_args = 0
 989 0000 2DE9F041 		push	{r4, r5, r6, r7, r8, lr}
 990 0004 1F46     		mov	r7, r3
 991 0006 90F83A30 		ldrb	r3, [r0, #58]	@ zero_extendqisi2
 992 000a 0446     		mov	r4, r0
 993 000c 202B     		cmp	r3, #32
 994 000e 0D46     		mov	r5, r1
 995 0010 9046     		mov	r8, r2
 996 0012 51D1     		bne	.L151
 997 0014 0029     		cmp	r1, #0
 998 0016 4CD0     		beq	.L150
 999 0018 002A     		cmp	r2, #0
 1000 001a 4AD0     		beq	.L150
 1001 001c 90F83830 		ldrb	r3, [r0, #56]	@ zero_extendqisi2
 1002 0020 012B     		cmp	r3, #1
 1003 0022 49D0     		beq	.L151
 1004 0024 0123     		movs	r3, #1
 1005 0026 80F83830 		strb	r3, [r0, #56]
 1006 002a 0023     		movs	r3, #0
 1007 002c C363     		str	r3, [r0, #60]
 1008 002e 2223     		movs	r3, #34
 1009 0030 80F83A30 		strb	r3, [r0, #58]
 1010 0034 FFF7FEFF 		bl	HAL_GetTick
 1011 0038 0646     		mov	r6, r0
 1012 003a A4F82C80 		strh	r8, [r4, #44]	@ movhi
 1013 003e A4F82E80 		strh	r8, [r4, #46]	@ movhi
 1014              	.L140:
 1015 0042 E08D     		ldrh	r0, [r4, #46]
 1016 0044 80B2     		uxth	r0, r0
 1017 0046 30B9     		cbnz	r0, .L147
 1018 0048 2023     		movs	r3, #32
 1019 004a 84F83800 		strb	r0, [r4, #56]
 1020 004e 84F83A30 		strb	r3, [r4, #58]
 1021 0052 BDE8F081 		pop	{r4, r5, r6, r7, r8, pc}
 1022              	.L147:
 1023 0056 E38D     		ldrh	r3, [r4, #46]
 1024 0058 3246     		mov	r2, r6
 1025 005a 013B     		subs	r3, r3, #1
 1026 005c 9BB2     		uxth	r3, r3
ARM GAS  /tmp/cc3SmNNP.s 			page 18


 1027 005e E385     		strh	r3, [r4, #46]	@ movhi
 1028 0060 A368     		ldr	r3, [r4, #8]
 1029 0062 2021     		movs	r1, #32
 1030 0064 B3F5805F 		cmp	r3, #4096
 1031 0068 2046     		mov	r0, r4
 1032 006a 3B46     		mov	r3, r7
 1033 006c 12D1     		bne	.L141
 1034 006e FFF7FEFF 		bl	UART_WaitOnFlagUntilTimeout.constprop.3
 1035 0072 10B1     		cbz	r0, .L142
 1036              	.L145:
 1037 0074 0320     		movs	r0, #3
 1038 0076 BDE8F081 		pop	{r4, r5, r6, r7, r8, pc}
 1039              	.L142:
 1040 007a 2368     		ldr	r3, [r4]
 1041 007c 2269     		ldr	r2, [r4, #16]
 1042 007e 5B68     		ldr	r3, [r3, #4]
 1043 0080 22B9     		cbnz	r2, .L143
 1044 0082 C3F30803 		ubfx	r3, r3, #0, #9
 1045 0086 25F8023B 		strh	r3, [r5], #2	@ movhi
 1046 008a DAE7     		b	.L140
 1047              	.L143:
 1048 008c DBB2     		uxtb	r3, r3
 1049 008e 25F8013B 		strh	r3, [r5], #1	@ movhi
 1050 0092 D6E7     		b	.L140
 1051              	.L141:
 1052 0094 FFF7FEFF 		bl	UART_WaitOnFlagUntilTimeout.constprop.3
 1053 0098 0028     		cmp	r0, #0
 1054 009a EBD1     		bne	.L145
 1055 009c 2368     		ldr	r3, [r4]
 1056 009e 2169     		ldr	r1, [r4, #16]
 1057 00a0 6A1C     		adds	r2, r5, #1
 1058 00a2 5B68     		ldr	r3, [r3, #4]
 1059 00a4 11B9     		cbnz	r1, .L146
 1060              	.L152:
 1061 00a6 2B70     		strb	r3, [r5]
 1062 00a8 1546     		mov	r5, r2
 1063 00aa CAE7     		b	.L140
 1064              	.L146:
 1065 00ac 03F07F03 		and	r3, r3, #127
 1066 00b0 F9E7     		b	.L152
 1067              	.L150:
 1068 00b2 0120     		movs	r0, #1
 1069 00b4 BDE8F081 		pop	{r4, r5, r6, r7, r8, pc}
 1070              	.L151:
 1071 00b8 0220     		movs	r0, #2
 1072 00ba BDE8F081 		pop	{r4, r5, r6, r7, r8, pc}
 1074              		.section	.text.HAL_UART_Transmit_IT,"ax",%progbits
 1075              		.align	1
 1076              		.global	HAL_UART_Transmit_IT
 1077              		.syntax unified
 1078              		.thumb
 1079              		.thumb_func
 1080              		.fpu softvfp
 1082              	HAL_UART_Transmit_IT:
 1083              		@ args = 0, pretend = 0, frame = 0
 1084              		@ frame_needed = 0, uses_anonymous_args = 0
 1085              		@ link register save eliminated.
ARM GAS  /tmp/cc3SmNNP.s 			page 19


 1086 0000 90F83930 		ldrb	r3, [r0, #57]	@ zero_extendqisi2
 1087 0004 202B     		cmp	r3, #32
 1088 0006 18D1     		bne	.L158
 1089 0008 A9B1     		cbz	r1, .L157
 1090 000a A2B1     		cbz	r2, .L157
 1091 000c 90F83830 		ldrb	r3, [r0, #56]	@ zero_extendqisi2
 1092 0010 012B     		cmp	r3, #1
 1093 0012 12D0     		beq	.L158
 1094 0014 C284     		strh	r2, [r0, #38]	@ movhi
 1095 0016 8284     		strh	r2, [r0, #36]	@ movhi
 1096 0018 0023     		movs	r3, #0
 1097 001a 2122     		movs	r2, #33
 1098 001c 0162     		str	r1, [r0, #32]
 1099 001e 0168     		ldr	r1, [r0]
 1100 0020 C363     		str	r3, [r0, #60]
 1101 0022 80F83920 		strb	r2, [r0, #57]
 1102 0026 CA68     		ldr	r2, [r1, #12]
 1103 0028 80F83830 		strb	r3, [r0, #56]
 1104 002c 42F08002 		orr	r2, r2, #128
 1105 0030 CA60     		str	r2, [r1, #12]
 1106 0032 1846     		mov	r0, r3
 1107 0034 7047     		bx	lr
 1108              	.L157:
 1109 0036 0120     		movs	r0, #1
 1110 0038 7047     		bx	lr
 1111              	.L158:
 1112 003a 0220     		movs	r0, #2
 1113 003c 7047     		bx	lr
 1115              		.section	.text.HAL_UART_Receive_IT,"ax",%progbits
 1116              		.align	1
 1117              		.global	HAL_UART_Receive_IT
 1118              		.syntax unified
 1119              		.thumb
 1120              		.thumb_func
 1121              		.fpu softvfp
 1123              	HAL_UART_Receive_IT:
 1124              		@ args = 0, pretend = 0, frame = 0
 1125              		@ frame_needed = 0, uses_anonymous_args = 0
 1126              		@ link register save eliminated.
 1127 0000 90F83A30 		ldrb	r3, [r0, #58]	@ zero_extendqisi2
 1128 0004 202B     		cmp	r3, #32
 1129 0006 20D1     		bne	.L164
 1130 0008 E9B1     		cbz	r1, .L163
 1131 000a E2B1     		cbz	r2, .L163
 1132 000c 90F83830 		ldrb	r3, [r0, #56]	@ zero_extendqisi2
 1133 0010 012B     		cmp	r3, #1
 1134 0012 1AD0     		beq	.L164
 1135 0014 C285     		strh	r2, [r0, #46]	@ movhi
 1136 0016 8285     		strh	r2, [r0, #44]	@ movhi
 1137 0018 0023     		movs	r3, #0
 1138 001a 2222     		movs	r2, #34
 1139 001c C363     		str	r3, [r0, #60]
 1140 001e 80F83A20 		strb	r2, [r0, #58]
 1141 0022 0268     		ldr	r2, [r0]
 1142 0024 8162     		str	r1, [r0, #40]
 1143 0026 D168     		ldr	r1, [r2, #12]
 1144 0028 80F83830 		strb	r3, [r0, #56]
ARM GAS  /tmp/cc3SmNNP.s 			page 20


 1145 002c 41F48071 		orr	r1, r1, #256
 1146 0030 D160     		str	r1, [r2, #12]
 1147 0032 5169     		ldr	r1, [r2, #20]
 1148 0034 1846     		mov	r0, r3
 1149 0036 41F00101 		orr	r1, r1, #1
 1150 003a 5161     		str	r1, [r2, #20]
 1151 003c D168     		ldr	r1, [r2, #12]
 1152 003e 41F02001 		orr	r1, r1, #32
 1153 0042 D160     		str	r1, [r2, #12]
 1154 0044 7047     		bx	lr
 1155              	.L163:
 1156 0046 0120     		movs	r0, #1
 1157 0048 7047     		bx	lr
 1158              	.L164:
 1159 004a 0220     		movs	r0, #2
 1160 004c 7047     		bx	lr
 1162              		.section	.text.HAL_UART_Transmit_DMA,"ax",%progbits
 1163              		.align	1
 1164              		.global	HAL_UART_Transmit_DMA
 1165              		.syntax unified
 1166              		.thumb
 1167              		.thumb_func
 1168              		.fpu softvfp
 1170              	HAL_UART_Transmit_DMA:
 1171              		@ args = 0, pretend = 0, frame = 0
 1172              		@ frame_needed = 0, uses_anonymous_args = 0
 1173 0000 38B5     		push	{r3, r4, r5, lr}
 1174 0002 0446     		mov	r4, r0
 1175 0004 1346     		mov	r3, r2
 1176 0006 94F83920 		ldrb	r2, [r4, #57]	@ zero_extendqisi2
 1177 000a 202A     		cmp	r2, #32
 1178 000c 2AD1     		bne	.L170
 1179 000e 39B3     		cbz	r1, .L169
 1180 0010 33B3     		cbz	r3, .L169
 1181 0012 94F83820 		ldrb	r2, [r4, #56]	@ zero_extendqisi2
 1182 0016 012A     		cmp	r2, #1
 1183 0018 24D0     		beq	.L170
 1184 001a 0122     		movs	r2, #1
 1185 001c 0025     		movs	r5, #0
 1186 001e 84F83820 		strb	r2, [r4, #56]
 1187 0022 2122     		movs	r2, #33
 1188 0024 E384     		strh	r3, [r4, #38]	@ movhi
 1189 0026 206B     		ldr	r0, [r4, #48]
 1190 0028 E563     		str	r5, [r4, #60]
 1191 002a 84F83920 		strb	r2, [r4, #57]
 1192 002e 0E4A     		ldr	r2, .L171
 1193 0030 A384     		strh	r3, [r4, #36]	@ movhi
 1194 0032 2162     		str	r1, [r4, #32]
 1195 0034 8262     		str	r2, [r0, #40]
 1196 0036 0D4A     		ldr	r2, .L171+4
 1197 0038 4563     		str	r5, [r0, #52]
 1198 003a C262     		str	r2, [r0, #44]
 1199 003c 0C4A     		ldr	r2, .L171+8
 1200 003e 0263     		str	r2, [r0, #48]
 1201 0040 2268     		ldr	r2, [r4]
 1202 0042 0432     		adds	r2, r2, #4
 1203 0044 FFF7FEFF 		bl	HAL_DMA_Start_IT
ARM GAS  /tmp/cc3SmNNP.s 			page 21


 1204 0048 6FF04002 		mvn	r2, #64
 1205 004c 2368     		ldr	r3, [r4]
 1206 004e 2846     		mov	r0, r5
 1207 0050 1A60     		str	r2, [r3]
 1208 0052 5A69     		ldr	r2, [r3, #20]
 1209 0054 84F83850 		strb	r5, [r4, #56]
 1210 0058 42F08002 		orr	r2, r2, #128
 1211 005c 5A61     		str	r2, [r3, #20]
 1212 005e 38BD     		pop	{r3, r4, r5, pc}
 1213              	.L169:
 1214 0060 0120     		movs	r0, #1
 1215 0062 38BD     		pop	{r3, r4, r5, pc}
 1216              	.L170:
 1217 0064 0220     		movs	r0, #2
 1218 0066 38BD     		pop	{r3, r4, r5, pc}
 1219              	.L172:
 1220              		.align	2
 1221              	.L171:
 1222 0068 00000000 		.word	UART_DMATransmitCplt
 1223 006c 00000000 		.word	UART_DMATxHalfCplt
 1224 0070 00000000 		.word	UART_DMAError
 1226              		.section	.text.HAL_UART_Receive_DMA,"ax",%progbits
 1227              		.align	1
 1228              		.global	HAL_UART_Receive_DMA
 1229              		.syntax unified
 1230              		.thumb
 1231              		.thumb_func
 1232              		.fpu softvfp
 1234              	HAL_UART_Receive_DMA:
 1235              		@ args = 0, pretend = 0, frame = 8
 1236              		@ frame_needed = 0, uses_anonymous_args = 0
 1237 0000 1346     		mov	r3, r2
 1238 0002 90F83A20 		ldrb	r2, [r0, #58]	@ zero_extendqisi2
 1239 0006 73B5     		push	{r0, r1, r4, r5, r6, lr}
 1240 0008 202A     		cmp	r2, #32
 1241 000a 0546     		mov	r5, r0
 1242 000c 38D1     		bne	.L178
 1243 000e 0029     		cmp	r1, #0
 1244 0010 34D0     		beq	.L177
 1245 0012 002B     		cmp	r3, #0
 1246 0014 32D0     		beq	.L177
 1247 0016 90F83820 		ldrb	r2, [r0, #56]	@ zero_extendqisi2
 1248 001a 012A     		cmp	r2, #1
 1249 001c 30D0     		beq	.L178
 1250 001e 0122     		movs	r2, #1
 1251 0020 0024     		movs	r4, #0
 1252 0022 80F83820 		strb	r2, [r0, #56]
 1253 0026 2222     		movs	r2, #34
 1254 0028 8162     		str	r1, [r0, #40]
 1255 002a 8385     		strh	r3, [r0, #44]	@ movhi
 1256 002c C463     		str	r4, [r0, #60]
 1257 002e 80F83A20 		strb	r2, [r0, #58]
 1258 0032 406B     		ldr	r0, [r0, #52]
 1259 0034 134A     		ldr	r2, .L179
 1260 0036 2E68     		ldr	r6, [r5]
 1261 0038 8262     		str	r2, [r0, #40]
 1262 003a 134A     		ldr	r2, .L179+4
ARM GAS  /tmp/cc3SmNNP.s 			page 22


 1263 003c 4463     		str	r4, [r0, #52]
 1264 003e C262     		str	r2, [r0, #44]
 1265 0040 124A     		ldr	r2, .L179+8
 1266 0042 0263     		str	r2, [r0, #48]
 1267 0044 0A46     		mov	r2, r1
 1268 0046 311D     		adds	r1, r6, #4
 1269 0048 FFF7FEFF 		bl	HAL_DMA_Start_IT
 1270 004c 2046     		mov	r0, r4
 1271 004e 2B68     		ldr	r3, [r5]
 1272 0050 0194     		str	r4, [sp, #4]
 1273 0052 1A68     		ldr	r2, [r3]
 1274 0054 0192     		str	r2, [sp, #4]
 1275 0056 5A68     		ldr	r2, [r3, #4]
 1276 0058 85F83840 		strb	r4, [r5, #56]
 1277 005c 0192     		str	r2, [sp, #4]
 1278 005e 019A     		ldr	r2, [sp, #4]
 1279 0060 DA68     		ldr	r2, [r3, #12]
 1280 0062 42F48072 		orr	r2, r2, #256
 1281 0066 DA60     		str	r2, [r3, #12]
 1282 0068 5A69     		ldr	r2, [r3, #20]
 1283 006a 42F00102 		orr	r2, r2, #1
 1284 006e 5A61     		str	r2, [r3, #20]
 1285 0070 5A69     		ldr	r2, [r3, #20]
 1286 0072 42F04002 		orr	r2, r2, #64
 1287 0076 5A61     		str	r2, [r3, #20]
 1288              	.L174:
 1289 0078 02B0     		add	sp, sp, #8
 1290              		@ sp needed
 1291 007a 70BD     		pop	{r4, r5, r6, pc}
 1292              	.L177:
 1293 007c 0120     		movs	r0, #1
 1294 007e FBE7     		b	.L174
 1295              	.L178:
 1296 0080 0220     		movs	r0, #2
 1297 0082 F9E7     		b	.L174
 1298              	.L180:
 1299              		.align	2
 1300              	.L179:
 1301 0084 00000000 		.word	UART_DMAReceiveCplt
 1302 0088 00000000 		.word	UART_DMARxHalfCplt
 1303 008c 00000000 		.word	UART_DMAError
 1305              		.section	.text.HAL_UART_DMAPause,"ax",%progbits
 1306              		.align	1
 1307              		.global	HAL_UART_DMAPause
 1308              		.syntax unified
 1309              		.thumb
 1310              		.thumb_func
 1311              		.fpu softvfp
 1313              	HAL_UART_DMAPause:
 1314              		@ args = 0, pretend = 0, frame = 0
 1315              		@ frame_needed = 0, uses_anonymous_args = 0
 1316              		@ link register save eliminated.
 1317 0000 90F83830 		ldrb	r3, [r0, #56]	@ zero_extendqisi2
 1318 0004 012B     		cmp	r3, #1
 1319 0006 26D0     		beq	.L185
 1320 0008 0123     		movs	r3, #1
 1321 000a 80F83830 		strb	r3, [r0, #56]
ARM GAS  /tmp/cc3SmNNP.s 			page 23


 1322 000e 0368     		ldr	r3, [r0]
 1323 0010 5A69     		ldr	r2, [r3, #20]
 1324 0012 90F83910 		ldrb	r1, [r0, #57]	@ zero_extendqisi2
 1325 0016 2129     		cmp	r1, #33
 1326 0018 05D1     		bne	.L183
 1327 001a 1106     		lsls	r1, r2, #24
 1328 001c 42BF     		ittt	mi
 1329 001e 5A69     		ldrmi	r2, [r3, #20]
 1330 0020 22F08002 		bicmi	r2, r2, #128
 1331 0024 5A61     		strmi	r2, [r3, #20]
 1332              	.L183:
 1333 0026 5A69     		ldr	r2, [r3, #20]
 1334 0028 90F83A10 		ldrb	r1, [r0, #58]	@ zero_extendqisi2
 1335 002c 2229     		cmp	r1, #34
 1336 002e 0DD1     		bne	.L184
 1337 0030 5206     		lsls	r2, r2, #25
 1338 0032 0BD5     		bpl	.L184
 1339 0034 DA68     		ldr	r2, [r3, #12]
 1340 0036 22F48072 		bic	r2, r2, #256
 1341 003a DA60     		str	r2, [r3, #12]
 1342 003c 5A69     		ldr	r2, [r3, #20]
 1343 003e 22F00102 		bic	r2, r2, #1
 1344 0042 5A61     		str	r2, [r3, #20]
 1345 0044 5A69     		ldr	r2, [r3, #20]
 1346 0046 22F04002 		bic	r2, r2, #64
 1347 004a 5A61     		str	r2, [r3, #20]
 1348              	.L184:
 1349 004c 0023     		movs	r3, #0
 1350 004e 80F83830 		strb	r3, [r0, #56]
 1351 0052 1846     		mov	r0, r3
 1352 0054 7047     		bx	lr
 1353              	.L185:
 1354 0056 0220     		movs	r0, #2
 1355 0058 7047     		bx	lr
 1357              		.section	.text.HAL_UART_DMAResume,"ax",%progbits
 1358              		.align	1
 1359              		.global	HAL_UART_DMAResume
 1360              		.syntax unified
 1361              		.thumb
 1362              		.thumb_func
 1363              		.fpu softvfp
 1365              	HAL_UART_DMAResume:
 1366              		@ args = 0, pretend = 0, frame = 8
 1367              		@ frame_needed = 0, uses_anonymous_args = 0
 1368              		@ link register save eliminated.
 1369 0000 90F83830 		ldrb	r3, [r0, #56]	@ zero_extendqisi2
 1370 0004 82B0     		sub	sp, sp, #8
 1371 0006 012B     		cmp	r3, #1
 1372 0008 29D0     		beq	.L196
 1373 000a 0123     		movs	r3, #1
 1374 000c 80F83830 		strb	r3, [r0, #56]
 1375 0010 90F83930 		ldrb	r3, [r0, #57]	@ zero_extendqisi2
 1376 0014 212B     		cmp	r3, #33
 1377 0016 01BF     		itttt	eq
 1378 0018 0268     		ldreq	r2, [r0]
 1379 001a 5369     		ldreq	r3, [r2, #20]
 1380 001c 43F08003 		orreq	r3, r3, #128
ARM GAS  /tmp/cc3SmNNP.s 			page 24


 1381 0020 5361     		streq	r3, [r2, #20]
 1382 0022 90F83A30 		ldrb	r3, [r0, #58]	@ zero_extendqisi2
 1383 0026 222B     		cmp	r3, #34
 1384 0028 13D1     		bne	.L195
 1385 002a 0023     		movs	r3, #0
 1386 002c 0193     		str	r3, [sp, #4]
 1387 002e 0368     		ldr	r3, [r0]
 1388 0030 1A68     		ldr	r2, [r3]
 1389 0032 0192     		str	r2, [sp, #4]
 1390 0034 5A68     		ldr	r2, [r3, #4]
 1391 0036 0192     		str	r2, [sp, #4]
 1392 0038 019A     		ldr	r2, [sp, #4]
 1393 003a DA68     		ldr	r2, [r3, #12]
 1394 003c 42F48072 		orr	r2, r2, #256
 1395 0040 DA60     		str	r2, [r3, #12]
 1396 0042 5A69     		ldr	r2, [r3, #20]
 1397 0044 42F00102 		orr	r2, r2, #1
 1398 0048 5A61     		str	r2, [r3, #20]
 1399 004a 5A69     		ldr	r2, [r3, #20]
 1400 004c 42F04002 		orr	r2, r2, #64
 1401 0050 5A61     		str	r2, [r3, #20]
 1402              	.L195:
 1403 0052 0023     		movs	r3, #0
 1404 0054 80F83830 		strb	r3, [r0, #56]
 1405 0058 1846     		mov	r0, r3
 1406              	.L193:
 1407 005a 02B0     		add	sp, sp, #8
 1408              		@ sp needed
 1409 005c 7047     		bx	lr
 1410              	.L196:
 1411 005e 0220     		movs	r0, #2
 1412 0060 FBE7     		b	.L193
 1414              		.section	.text.HAL_UART_DMAStop,"ax",%progbits
 1415              		.align	1
 1416              		.global	HAL_UART_DMAStop
 1417              		.syntax unified
 1418              		.thumb
 1419              		.thumb_func
 1420              		.fpu softvfp
 1422              	HAL_UART_DMAStop:
 1423              		@ args = 0, pretend = 0, frame = 0
 1424              		@ frame_needed = 0, uses_anonymous_args = 0
 1425 0000 0368     		ldr	r3, [r0]
 1426 0002 10B5     		push	{r4, lr}
 1427 0004 5A69     		ldr	r2, [r3, #20]
 1428 0006 90F83910 		ldrb	r1, [r0, #57]	@ zero_extendqisi2
 1429 000a 0446     		mov	r4, r0
 1430 000c 2129     		cmp	r1, #33
 1431 000e 11D1     		bne	.L198
 1432 0010 1106     		lsls	r1, r2, #24
 1433 0012 0FD5     		bpl	.L198
 1434 0014 5A69     		ldr	r2, [r3, #20]
 1435 0016 006B     		ldr	r0, [r0, #48]
 1436 0018 22F08002 		bic	r2, r2, #128
 1437 001c 5A61     		str	r2, [r3, #20]
 1438 001e 08B1     		cbz	r0, .L199
 1439 0020 FFF7FEFF 		bl	HAL_DMA_Abort
ARM GAS  /tmp/cc3SmNNP.s 			page 25


 1440              	.L199:
 1441 0024 2268     		ldr	r2, [r4]
 1442 0026 D368     		ldr	r3, [r2, #12]
 1443 0028 23F0C003 		bic	r3, r3, #192
 1444 002c D360     		str	r3, [r2, #12]
 1445 002e 2023     		movs	r3, #32
 1446 0030 84F83930 		strb	r3, [r4, #57]
 1447              	.L198:
 1448 0034 2368     		ldr	r3, [r4]
 1449 0036 5A69     		ldr	r2, [r3, #20]
 1450 0038 94F83A10 		ldrb	r1, [r4, #58]	@ zero_extendqisi2
 1451 003c 2229     		cmp	r1, #34
 1452 003e 0CD1     		bne	.L200
 1453 0040 5206     		lsls	r2, r2, #25
 1454 0042 0AD5     		bpl	.L200
 1455 0044 5A69     		ldr	r2, [r3, #20]
 1456 0046 606B     		ldr	r0, [r4, #52]
 1457 0048 22F04002 		bic	r2, r2, #64
 1458 004c 5A61     		str	r2, [r3, #20]
 1459 004e 08B1     		cbz	r0, .L201
 1460 0050 FFF7FEFF 		bl	HAL_DMA_Abort
 1461              	.L201:
 1462 0054 2046     		mov	r0, r4
 1463 0056 FFF7FEFF 		bl	UART_EndRxTransfer
 1464              	.L200:
 1465 005a 0020     		movs	r0, #0
 1466 005c 10BD     		pop	{r4, pc}
 1468              		.section	.text.HAL_UART_Abort,"ax",%progbits
 1469              		.align	1
 1470              		.global	HAL_UART_Abort
 1471              		.syntax unified
 1472              		.thumb
 1473              		.thumb_func
 1474              		.fpu softvfp
 1476              	HAL_UART_Abort:
 1477              		@ args = 0, pretend = 0, frame = 0
 1478              		@ frame_needed = 0, uses_anonymous_args = 0
 1479 0000 0368     		ldr	r3, [r0]
 1480 0002 10B5     		push	{r4, lr}
 1481 0004 DA68     		ldr	r2, [r3, #12]
 1482 0006 0446     		mov	r4, r0
 1483 0008 22F4F072 		bic	r2, r2, #480
 1484 000c DA60     		str	r2, [r3, #12]
 1485 000e 5A69     		ldr	r2, [r3, #20]
 1486 0010 22F00102 		bic	r2, r2, #1
 1487 0014 5A61     		str	r2, [r3, #20]
 1488 0016 5A69     		ldr	r2, [r3, #20]
 1489 0018 1106     		lsls	r1, r2, #24
 1490 001a 13D5     		bpl	.L215
 1491 001c 5A69     		ldr	r2, [r3, #20]
 1492 001e 006B     		ldr	r0, [r0, #48]
 1493 0020 22F08002 		bic	r2, r2, #128
 1494 0024 5A61     		str	r2, [r3, #20]
 1495 0026 68B1     		cbz	r0, .L215
 1496 0028 0023     		movs	r3, #0
 1497 002a 4363     		str	r3, [r0, #52]
 1498 002c FFF7FEFF 		bl	HAL_DMA_Abort
ARM GAS  /tmp/cc3SmNNP.s 			page 26


 1499 0030 40B1     		cbz	r0, .L215
 1500 0032 206B     		ldr	r0, [r4, #48]
 1501 0034 FFF7FEFF 		bl	HAL_DMA_GetError
 1502 0038 2028     		cmp	r0, #32
 1503 003a 03D1     		bne	.L215
 1504              	.L236:
 1505 003c 1023     		movs	r3, #16
 1506 003e 0320     		movs	r0, #3
 1507 0040 E363     		str	r3, [r4, #60]
 1508 0042 10BD     		pop	{r4, pc}
 1509              	.L215:
 1510 0044 2368     		ldr	r3, [r4]
 1511 0046 5A69     		ldr	r2, [r3, #20]
 1512 0048 5206     		lsls	r2, r2, #25
 1513 004a 0FD5     		bpl	.L217
 1514 004c 5A69     		ldr	r2, [r3, #20]
 1515 004e 606B     		ldr	r0, [r4, #52]
 1516 0050 22F04002 		bic	r2, r2, #64
 1517 0054 5A61     		str	r2, [r3, #20]
 1518 0056 48B1     		cbz	r0, .L217
 1519 0058 0023     		movs	r3, #0
 1520 005a 4363     		str	r3, [r0, #52]
 1521 005c FFF7FEFF 		bl	HAL_DMA_Abort
 1522 0060 20B1     		cbz	r0, .L217
 1523 0062 606B     		ldr	r0, [r4, #52]
 1524 0064 FFF7FEFF 		bl	HAL_DMA_GetError
 1525 0068 2028     		cmp	r0, #32
 1526 006a E7D0     		beq	.L236
 1527              	.L217:
 1528 006c 0020     		movs	r0, #0
 1529 006e 2023     		movs	r3, #32
 1530 0070 E084     		strh	r0, [r4, #38]	@ movhi
 1531 0072 E085     		strh	r0, [r4, #46]	@ movhi
 1532 0074 E063     		str	r0, [r4, #60]
 1533 0076 84F83A30 		strb	r3, [r4, #58]
 1534 007a 84F83930 		strb	r3, [r4, #57]
 1535 007e 10BD     		pop	{r4, pc}
 1537              		.section	.text.HAL_UART_AbortTransmit,"ax",%progbits
 1538              		.align	1
 1539              		.global	HAL_UART_AbortTransmit
 1540              		.syntax unified
 1541              		.thumb
 1542              		.thumb_func
 1543              		.fpu softvfp
 1545              	HAL_UART_AbortTransmit:
 1546              		@ args = 0, pretend = 0, frame = 0
 1547              		@ frame_needed = 0, uses_anonymous_args = 0
 1548 0000 0368     		ldr	r3, [r0]
 1549 0002 10B5     		push	{r4, lr}
 1550 0004 DA68     		ldr	r2, [r3, #12]
 1551 0006 0446     		mov	r4, r0
 1552 0008 22F0C002 		bic	r2, r2, #192
 1553 000c DA60     		str	r2, [r3, #12]
 1554 000e 5A69     		ldr	r2, [r3, #20]
 1555 0010 1206     		lsls	r2, r2, #24
 1556 0012 13D5     		bpl	.L238
 1557 0014 5A69     		ldr	r2, [r3, #20]
ARM GAS  /tmp/cc3SmNNP.s 			page 27


 1558 0016 006B     		ldr	r0, [r0, #48]
 1559 0018 22F08002 		bic	r2, r2, #128
 1560 001c 5A61     		str	r2, [r3, #20]
 1561 001e 68B1     		cbz	r0, .L238
 1562 0020 0023     		movs	r3, #0
 1563 0022 4363     		str	r3, [r0, #52]
 1564 0024 FFF7FEFF 		bl	HAL_DMA_Abort
 1565 0028 40B1     		cbz	r0, .L238
 1566 002a 206B     		ldr	r0, [r4, #48]
 1567 002c FFF7FEFF 		bl	HAL_DMA_GetError
 1568 0030 2028     		cmp	r0, #32
 1569 0032 03D1     		bne	.L238
 1570 0034 1023     		movs	r3, #16
 1571 0036 0320     		movs	r0, #3
 1572 0038 E363     		str	r3, [r4, #60]
 1573 003a 10BD     		pop	{r4, pc}
 1574              	.L238:
 1575 003c 0020     		movs	r0, #0
 1576 003e 2023     		movs	r3, #32
 1577 0040 E084     		strh	r0, [r4, #38]	@ movhi
 1578 0042 84F83930 		strb	r3, [r4, #57]
 1579 0046 10BD     		pop	{r4, pc}
 1581              		.section	.text.HAL_UART_AbortReceive,"ax",%progbits
 1582              		.align	1
 1583              		.global	HAL_UART_AbortReceive
 1584              		.syntax unified
 1585              		.thumb
 1586              		.thumb_func
 1587              		.fpu softvfp
 1589              	HAL_UART_AbortReceive:
 1590              		@ args = 0, pretend = 0, frame = 0
 1591              		@ frame_needed = 0, uses_anonymous_args = 0
 1592 0000 0368     		ldr	r3, [r0]
 1593 0002 10B5     		push	{r4, lr}
 1594 0004 DA68     		ldr	r2, [r3, #12]
 1595 0006 0446     		mov	r4, r0
 1596 0008 22F49072 		bic	r2, r2, #288
 1597 000c DA60     		str	r2, [r3, #12]
 1598 000e 5A69     		ldr	r2, [r3, #20]
 1599 0010 22F00102 		bic	r2, r2, #1
 1600 0014 5A61     		str	r2, [r3, #20]
 1601 0016 5A69     		ldr	r2, [r3, #20]
 1602 0018 5206     		lsls	r2, r2, #25
 1603 001a 13D5     		bpl	.L250
 1604 001c 5A69     		ldr	r2, [r3, #20]
 1605 001e 406B     		ldr	r0, [r0, #52]
 1606 0020 22F04002 		bic	r2, r2, #64
 1607 0024 5A61     		str	r2, [r3, #20]
 1608 0026 68B1     		cbz	r0, .L250
 1609 0028 0023     		movs	r3, #0
 1610 002a 4363     		str	r3, [r0, #52]
 1611 002c FFF7FEFF 		bl	HAL_DMA_Abort
 1612 0030 40B1     		cbz	r0, .L250
 1613 0032 606B     		ldr	r0, [r4, #52]
 1614 0034 FFF7FEFF 		bl	HAL_DMA_GetError
 1615 0038 2028     		cmp	r0, #32
 1616 003a 03D1     		bne	.L250
ARM GAS  /tmp/cc3SmNNP.s 			page 28


 1617 003c 1023     		movs	r3, #16
 1618 003e 0320     		movs	r0, #3
 1619 0040 E363     		str	r3, [r4, #60]
 1620 0042 10BD     		pop	{r4, pc}
 1621              	.L250:
 1622 0044 0020     		movs	r0, #0
 1623 0046 2023     		movs	r3, #32
 1624 0048 E085     		strh	r0, [r4, #46]	@ movhi
 1625 004a 84F83A30 		strb	r3, [r4, #58]
 1626 004e 10BD     		pop	{r4, pc}
 1628              		.section	.text.HAL_UART_Abort_IT,"ax",%progbits
 1629              		.align	1
 1630              		.global	HAL_UART_Abort_IT
 1631              		.syntax unified
 1632              		.thumb
 1633              		.thumb_func
 1634              		.fpu softvfp
 1636              	HAL_UART_Abort_IT:
 1637              		@ args = 0, pretend = 0, frame = 0
 1638              		@ frame_needed = 0, uses_anonymous_args = 0
 1639 0000 0368     		ldr	r3, [r0]
 1640 0002 10B5     		push	{r4, lr}
 1641 0004 DA68     		ldr	r2, [r3, #12]
 1642 0006 0446     		mov	r4, r0
 1643 0008 22F4F072 		bic	r2, r2, #480
 1644 000c DA60     		str	r2, [r3, #12]
 1645 000e 5A69     		ldr	r2, [r3, #20]
 1646 0010 006B     		ldr	r0, [r0, #48]
 1647 0012 22F00102 		bic	r2, r2, #1
 1648 0016 5A61     		str	r2, [r3, #20]
 1649 0018 28B1     		cbz	r0, .L262
 1650 001a 5A69     		ldr	r2, [r3, #20]
 1651 001c 12F08002 		ands	r2, r2, #128
 1652 0020 18BF     		it	ne
 1653 0022 1F4A     		ldrne	r2, .L291
 1654 0024 4263     		str	r2, [r0, #52]
 1655              	.L262:
 1656 0026 616B     		ldr	r1, [r4, #52]
 1657 0028 29B1     		cbz	r1, .L264
 1658 002a 5A69     		ldr	r2, [r3, #20]
 1659 002c 12F04002 		ands	r2, r2, #64
 1660 0030 18BF     		it	ne
 1661 0032 1C4A     		ldrne	r2, .L291+4
 1662 0034 4A63     		str	r2, [r1, #52]
 1663              	.L264:
 1664 0036 5A69     		ldr	r2, [r3, #20]
 1665 0038 1206     		lsls	r2, r2, #24
 1666 003a 1DD4     		bmi	.L266
 1667              	.L290:
 1668 003c 0123     		movs	r3, #1
 1669              	.L267:
 1670 003e 2268     		ldr	r2, [r4]
 1671 0040 5169     		ldr	r1, [r2, #20]
 1672 0042 4906     		lsls	r1, r1, #25
 1673 0044 27D5     		bpl	.L269
 1674 0046 5169     		ldr	r1, [r2, #20]
 1675 0048 606B     		ldr	r0, [r4, #52]
ARM GAS  /tmp/cc3SmNNP.s 			page 29


 1676 004a 21F04001 		bic	r1, r1, #64
 1677 004e 5161     		str	r1, [r2, #20]
 1678 0050 08B3     		cbz	r0, .L269
 1679 0052 FFF7FEFF 		bl	HAL_DMA_Abort_IT
 1680 0056 00B3     		cbz	r0, .L271
 1681 0058 0022     		movs	r2, #0
 1682 005a 636B     		ldr	r3, [r4, #52]
 1683 005c 5A63     		str	r2, [r3, #52]
 1684              	.L272:
 1685 005e 0023     		movs	r3, #0
 1686 0060 E384     		strh	r3, [r4, #38]	@ movhi
 1687 0062 E385     		strh	r3, [r4, #46]	@ movhi
 1688 0064 E363     		str	r3, [r4, #60]
 1689 0066 2023     		movs	r3, #32
 1690 0068 2046     		mov	r0, r4
 1691 006a 84F83930 		strb	r3, [r4, #57]
 1692 006e 84F83A30 		strb	r3, [r4, #58]
 1693 0072 636D     		ldr	r3, [r4, #84]
 1694 0074 9847     		blx	r3
 1695 0076 10E0     		b	.L271
 1696              	.L266:
 1697 0078 5A69     		ldr	r2, [r3, #20]
 1698 007a 22F08002 		bic	r2, r2, #128
 1699 007e 5A61     		str	r2, [r3, #20]
 1700 0080 0028     		cmp	r0, #0
 1701 0082 DBD0     		beq	.L290
 1702 0084 FFF7FEFF 		bl	HAL_DMA_Abort_IT
 1703 0088 18B1     		cbz	r0, .L274
 1704 008a 0022     		movs	r2, #0
 1705 008c 236B     		ldr	r3, [r4, #48]
 1706 008e 5A63     		str	r2, [r3, #52]
 1707 0090 D4E7     		b	.L290
 1708              	.L274:
 1709 0092 0346     		mov	r3, r0
 1710 0094 D3E7     		b	.L267
 1711              	.L269:
 1712 0096 002B     		cmp	r3, #0
 1713 0098 E1D1     		bne	.L272
 1714              	.L271:
 1715 009a 0020     		movs	r0, #0
 1716 009c 10BD     		pop	{r4, pc}
 1717              	.L292:
 1718 009e 00BF     		.align	2
 1719              	.L291:
 1720 00a0 00000000 		.word	UART_DMATxAbortCallback
 1721 00a4 00000000 		.word	UART_DMARxAbortCallback
 1723              		.section	.text.HAL_UART_AbortTransmit_IT,"ax",%progbits
 1724              		.align	1
 1725              		.global	HAL_UART_AbortTransmit_IT
 1726              		.syntax unified
 1727              		.thumb
 1728              		.thumb_func
 1729              		.fpu softvfp
 1731              	HAL_UART_AbortTransmit_IT:
 1732              		@ args = 0, pretend = 0, frame = 0
 1733              		@ frame_needed = 0, uses_anonymous_args = 0
 1734 0000 0368     		ldr	r3, [r0]
ARM GAS  /tmp/cc3SmNNP.s 			page 30


 1735 0002 10B5     		push	{r4, lr}
 1736 0004 DA68     		ldr	r2, [r3, #12]
 1737 0006 0446     		mov	r4, r0
 1738 0008 22F0C002 		bic	r2, r2, #192
 1739 000c DA60     		str	r2, [r3, #12]
 1740 000e 5A69     		ldr	r2, [r3, #20]
 1741 0010 12F08002 		ands	r2, r2, #128
 1742 0014 16D0     		beq	.L294
 1743 0016 5A69     		ldr	r2, [r3, #20]
 1744 0018 22F08002 		bic	r2, r2, #128
 1745 001c 5A61     		str	r2, [r3, #20]
 1746 001e 036B     		ldr	r3, [r0, #48]
 1747 0020 53B1     		cbz	r3, .L295
 1748 0022 094A     		ldr	r2, .L302
 1749 0024 1846     		mov	r0, r3
 1750 0026 5A63     		str	r2, [r3, #52]
 1751 0028 FFF7FEFF 		bl	HAL_DMA_Abort_IT
 1752 002c 10B1     		cbz	r0, .L296
 1753 002e 206B     		ldr	r0, [r4, #48]
 1754 0030 436B     		ldr	r3, [r0, #52]
 1755              	.L300:
 1756 0032 9847     		blx	r3
 1757              	.L296:
 1758 0034 0020     		movs	r0, #0
 1759 0036 10BD     		pop	{r4, pc}
 1760              	.L295:
 1761 0038 C384     		strh	r3, [r0, #38]	@ movhi
 1762              	.L301:
 1763 003a 2023     		movs	r3, #32
 1764 003c 84F83930 		strb	r3, [r4, #57]
 1765 0040 A36D     		ldr	r3, [r4, #88]
 1766 0042 F6E7     		b	.L300
 1767              	.L294:
 1768 0044 C284     		strh	r2, [r0, #38]	@ movhi
 1769 0046 F8E7     		b	.L301
 1770              	.L303:
 1771              		.align	2
 1772              	.L302:
 1773 0048 00000000 		.word	UART_DMATxOnlyAbortCallback
 1775              		.section	.text.HAL_UART_AbortReceive_IT,"ax",%progbits
 1776              		.align	1
 1777              		.global	HAL_UART_AbortReceive_IT
 1778              		.syntax unified
 1779              		.thumb
 1780              		.thumb_func
 1781              		.fpu softvfp
 1783              	HAL_UART_AbortReceive_IT:
 1784              		@ args = 0, pretend = 0, frame = 0
 1785              		@ frame_needed = 0, uses_anonymous_args = 0
 1786 0000 0368     		ldr	r3, [r0]
 1787 0002 10B5     		push	{r4, lr}
 1788 0004 DA68     		ldr	r2, [r3, #12]
 1789 0006 0446     		mov	r4, r0
 1790 0008 22F49072 		bic	r2, r2, #288
 1791 000c DA60     		str	r2, [r3, #12]
 1792 000e 5A69     		ldr	r2, [r3, #20]
 1793 0010 22F00102 		bic	r2, r2, #1
ARM GAS  /tmp/cc3SmNNP.s 			page 31


 1794 0014 5A61     		str	r2, [r3, #20]
 1795 0016 5A69     		ldr	r2, [r3, #20]
 1796 0018 12F04002 		ands	r2, r2, #64
 1797 001c 16D0     		beq	.L305
 1798 001e 5A69     		ldr	r2, [r3, #20]
 1799 0020 22F04002 		bic	r2, r2, #64
 1800 0024 5A61     		str	r2, [r3, #20]
 1801 0026 436B     		ldr	r3, [r0, #52]
 1802 0028 53B1     		cbz	r3, .L306
 1803 002a 094A     		ldr	r2, .L313
 1804 002c 1846     		mov	r0, r3
 1805 002e 5A63     		str	r2, [r3, #52]
 1806 0030 FFF7FEFF 		bl	HAL_DMA_Abort_IT
 1807 0034 10B1     		cbz	r0, .L307
 1808 0036 606B     		ldr	r0, [r4, #52]
 1809 0038 436B     		ldr	r3, [r0, #52]
 1810              	.L311:
 1811 003a 9847     		blx	r3
 1812              	.L307:
 1813 003c 0020     		movs	r0, #0
 1814 003e 10BD     		pop	{r4, pc}
 1815              	.L306:
 1816 0040 C385     		strh	r3, [r0, #46]	@ movhi
 1817              	.L312:
 1818 0042 2023     		movs	r3, #32
 1819 0044 84F83A30 		strb	r3, [r4, #58]
 1820 0048 E36D     		ldr	r3, [r4, #92]
 1821 004a F6E7     		b	.L311
 1822              	.L305:
 1823 004c C285     		strh	r2, [r0, #46]	@ movhi
 1824 004e F8E7     		b	.L312
 1825              	.L314:
 1826              		.align	2
 1827              	.L313:
 1828 0050 00000000 		.word	UART_DMARxOnlyAbortCallback
 1830              		.section	.text.HAL_UART_IRQHandler,"ax",%progbits
 1831              		.align	1
 1832              		.global	HAL_UART_IRQHandler
 1833              		.syntax unified
 1834              		.thumb
 1835              		.thumb_func
 1836              		.fpu softvfp
 1838              	HAL_UART_IRQHandler:
 1839              		@ args = 0, pretend = 0, frame = 0
 1840              		@ frame_needed = 0, uses_anonymous_args = 0
 1841 0000 0368     		ldr	r3, [r0]
 1842 0002 70B5     		push	{r4, r5, r6, lr}
 1843 0004 1A68     		ldr	r2, [r3]
 1844 0006 0446     		mov	r4, r0
 1845 0008 1607     		lsls	r6, r2, #28
 1846 000a D968     		ldr	r1, [r3, #12]
 1847 000c 5D69     		ldr	r5, [r3, #20]
 1848 000e 07D1     		bne	.L316
 1849 0010 9606     		lsls	r6, r2, #26
 1850 0012 5AD5     		bpl	.L317
 1851 0014 8D06     		lsls	r5, r1, #26
 1852 0016 58D5     		bpl	.L317
ARM GAS  /tmp/cc3SmNNP.s 			page 32


 1853 0018 BDE87040 		pop	{r4, r5, r6, lr}
 1854 001c FFF7FEBF 		b	UART_Receive_IT
 1855              	.L316:
 1856 0020 15F00105 		ands	r5, r5, #1
 1857 0024 02D1     		bne	.L318
 1858 0026 11F4907F 		tst	r1, #288
 1859 002a 4ED0     		beq	.L317
 1860              	.L318:
 1861 002c D307     		lsls	r3, r2, #31
 1862 002e 05D5     		bpl	.L319
 1863 0030 CE05     		lsls	r6, r1, #23
 1864 0032 42BF     		ittt	mi
 1865 0034 E36B     		ldrmi	r3, [r4, #60]
 1866 0036 43F00103 		orrmi	r3, r3, #1
 1867 003a E363     		strmi	r3, [r4, #60]
 1868              	.L319:
 1869 003c 5007     		lsls	r0, r2, #29
 1870 003e 04D5     		bpl	.L320
 1871 0040 1DB1     		cbz	r5, .L320
 1872 0042 E36B     		ldr	r3, [r4, #60]
 1873 0044 43F00203 		orr	r3, r3, #2
 1874 0048 E363     		str	r3, [r4, #60]
 1875              	.L320:
 1876 004a 9307     		lsls	r3, r2, #30
 1877 004c 04D5     		bpl	.L321
 1878 004e 1DB1     		cbz	r5, .L321
 1879 0050 E36B     		ldr	r3, [r4, #60]
 1880 0052 43F00403 		orr	r3, r3, #4
 1881 0056 E363     		str	r3, [r4, #60]
 1882              	.L321:
 1883 0058 1607     		lsls	r6, r2, #28
 1884 005a 04D5     		bpl	.L322
 1885 005c 1DB1     		cbz	r5, .L322
 1886 005e E36B     		ldr	r3, [r4, #60]
 1887 0060 43F00803 		orr	r3, r3, #8
 1888 0064 E363     		str	r3, [r4, #60]
 1889              	.L322:
 1890 0066 E36B     		ldr	r3, [r4, #60]
 1891 0068 002B     		cmp	r3, #0
 1892 006a 65D0     		beq	.L315
 1893 006c 9506     		lsls	r5, r2, #26
 1894 006e 04D5     		bpl	.L325
 1895 0070 8806     		lsls	r0, r1, #26
 1896 0072 02D5     		bpl	.L325
 1897 0074 2046     		mov	r0, r4
 1898 0076 FFF7FEFF 		bl	UART_Receive_IT
 1899              	.L325:
 1900 007a 2368     		ldr	r3, [r4]
 1901 007c 5D69     		ldr	r5, [r3, #20]
 1902 007e E26B     		ldr	r2, [r4, #60]
 1903 0080 1107     		lsls	r1, r2, #28
 1904 0082 02D4     		bmi	.L326
 1905 0084 15F04005 		ands	r5, r5, #64
 1906 0088 1AD0     		beq	.L327
 1907              	.L326:
 1908 008a 2046     		mov	r0, r4
 1909 008c FFF7FEFF 		bl	UART_EndRxTransfer
ARM GAS  /tmp/cc3SmNNP.s 			page 33


 1910 0090 2368     		ldr	r3, [r4]
 1911 0092 5A69     		ldr	r2, [r3, #20]
 1912 0094 5206     		lsls	r2, r2, #25
 1913 0096 10D5     		bpl	.L328
 1914 0098 5A69     		ldr	r2, [r3, #20]
 1915 009a 606B     		ldr	r0, [r4, #52]
 1916 009c 22F04002 		bic	r2, r2, #64
 1917 00a0 5A61     		str	r2, [r3, #20]
 1918 00a2 50B1     		cbz	r0, .L328
 1919 00a4 254B     		ldr	r3, .L392
 1920 00a6 4363     		str	r3, [r0, #52]
 1921 00a8 FFF7FEFF 		bl	HAL_DMA_Abort_IT
 1922 00ac 0028     		cmp	r0, #0
 1923 00ae 43D0     		beq	.L315
 1924 00b0 606B     		ldr	r0, [r4, #52]
 1925 00b2 436B     		ldr	r3, [r0, #52]
 1926              	.L390:
 1927 00b4 BDE87040 		pop	{r4, r5, r6, lr}
 1928 00b8 1847     		bx	r3	@ indirect register sibling call
 1929              	.L328:
 1930 00ba 236D     		ldr	r3, [r4, #80]
 1931              	.L391:
 1932 00bc 2046     		mov	r0, r4
 1933 00be F9E7     		b	.L390
 1934              	.L327:
 1935 00c0 236D     		ldr	r3, [r4, #80]
 1936 00c2 2046     		mov	r0, r4
 1937 00c4 9847     		blx	r3
 1938 00c6 E563     		str	r5, [r4, #60]
 1939 00c8 70BD     		pop	{r4, r5, r6, pc}
 1940              	.L317:
 1941 00ca 1606     		lsls	r6, r2, #24
 1942 00cc 27D5     		bpl	.L331
 1943 00ce 0D06     		lsls	r5, r1, #24
 1944 00d0 25D5     		bpl	.L331
 1945 00d2 94F83920 		ldrb	r2, [r4, #57]	@ zero_extendqisi2
 1946 00d6 212A     		cmp	r2, #33
 1947 00d8 2ED1     		bne	.L315
 1948 00da A268     		ldr	r2, [r4, #8]
 1949 00dc B2F5805F 		cmp	r2, #4096
 1950 00e0 226A     		ldr	r2, [r4, #32]
 1951 00e2 17D1     		bne	.L332
 1952 00e4 1188     		ldrh	r1, [r2]
 1953 00e6 C1F30801 		ubfx	r1, r1, #0, #9
 1954 00ea 5960     		str	r1, [r3, #4]
 1955 00ec 2169     		ldr	r1, [r4, #16]
 1956 00ee 79B9     		cbnz	r1, .L333
 1957 00f0 0232     		adds	r2, r2, #2
 1958              	.L389:
 1959 00f2 2262     		str	r2, [r4, #32]
 1960              	.L334:
 1961 00f4 E28C     		ldrh	r2, [r4, #38]
 1962 00f6 013A     		subs	r2, r2, #1
 1963 00f8 92B2     		uxth	r2, r2
 1964 00fa E284     		strh	r2, [r4, #38]	@ movhi
 1965 00fc E2B9     		cbnz	r2, .L315
 1966 00fe DA68     		ldr	r2, [r3, #12]
ARM GAS  /tmp/cc3SmNNP.s 			page 34


 1967 0100 22F08002 		bic	r2, r2, #128
 1968 0104 DA60     		str	r2, [r3, #12]
 1969 0106 DA68     		ldr	r2, [r3, #12]
 1970 0108 42F04002 		orr	r2, r2, #64
 1971 010c DA60     		str	r2, [r3, #12]
 1972 010e 70BD     		pop	{r4, r5, r6, pc}
 1973              	.L333:
 1974 0110 0132     		adds	r2, r2, #1
 1975 0112 EEE7     		b	.L389
 1976              	.L332:
 1977 0114 511C     		adds	r1, r2, #1
 1978 0116 2162     		str	r1, [r4, #32]
 1979 0118 1278     		ldrb	r2, [r2]	@ zero_extendqisi2
 1980 011a 5A60     		str	r2, [r3, #4]
 1981 011c EAE7     		b	.L334
 1982              	.L331:
 1983 011e 5006     		lsls	r0, r2, #25
 1984 0120 0AD5     		bpl	.L315
 1985 0122 4A06     		lsls	r2, r1, #25
 1986 0124 08D5     		bpl	.L315
 1987 0126 DA68     		ldr	r2, [r3, #12]
 1988 0128 22F04002 		bic	r2, r2, #64
 1989 012c DA60     		str	r2, [r3, #12]
 1990 012e 2023     		movs	r3, #32
 1991 0130 84F83930 		strb	r3, [r4, #57]
 1992 0134 636C     		ldr	r3, [r4, #68]
 1993 0136 C1E7     		b	.L391
 1994              	.L315:
 1995 0138 70BD     		pop	{r4, r5, r6, pc}
 1996              	.L393:
 1997 013a 00BF     		.align	2
 1998              	.L392:
 1999 013c 00000000 		.word	UART_DMAAbortOnError
 2001              		.section	.text.HAL_LIN_SendBreak,"ax",%progbits
 2002              		.align	1
 2003              		.global	HAL_LIN_SendBreak
 2004              		.syntax unified
 2005              		.thumb
 2006              		.thumb_func
 2007              		.fpu softvfp
 2009              	HAL_LIN_SendBreak:
 2010              		@ args = 0, pretend = 0, frame = 0
 2011              		@ frame_needed = 0, uses_anonymous_args = 0
 2012              		@ link register save eliminated.
 2013 0000 90F83830 		ldrb	r3, [r0, #56]	@ zero_extendqisi2
 2014 0004 012B     		cmp	r3, #1
 2015 0006 0FD0     		beq	.L396
 2016 0008 2423     		movs	r3, #36
 2017 000a 0268     		ldr	r2, [r0]
 2018 000c 80F83930 		strb	r3, [r0, #57]
 2019 0010 D368     		ldr	r3, [r2, #12]
 2020 0012 43F00103 		orr	r3, r3, #1
 2021 0016 D360     		str	r3, [r2, #12]
 2022 0018 2023     		movs	r3, #32
 2023 001a 80F83930 		strb	r3, [r0, #57]
 2024 001e 0023     		movs	r3, #0
 2025 0020 80F83830 		strb	r3, [r0, #56]
ARM GAS  /tmp/cc3SmNNP.s 			page 35


 2026 0024 1846     		mov	r0, r3
 2027 0026 7047     		bx	lr
 2028              	.L396:
 2029 0028 0220     		movs	r0, #2
 2030 002a 7047     		bx	lr
 2032              		.section	.text.HAL_MultiProcessor_EnterMuteMode,"ax",%progbits
 2033              		.align	1
 2034              		.global	HAL_MultiProcessor_EnterMuteMode
 2035              		.syntax unified
 2036              		.thumb
 2037              		.thumb_func
 2038              		.fpu softvfp
 2040              	HAL_MultiProcessor_EnterMuteMode:
 2041              		@ args = 0, pretend = 0, frame = 0
 2042              		@ frame_needed = 0, uses_anonymous_args = 0
 2043              		@ link register save eliminated.
 2044 0000 90F83830 		ldrb	r3, [r0, #56]	@ zero_extendqisi2
 2045 0004 012B     		cmp	r3, #1
 2046 0006 0FD0     		beq	.L399
 2047 0008 2423     		movs	r3, #36
 2048 000a 0268     		ldr	r2, [r0]
 2049 000c 80F83930 		strb	r3, [r0, #57]
 2050 0010 D368     		ldr	r3, [r2, #12]
 2051 0012 43F00203 		orr	r3, r3, #2
 2052 0016 D360     		str	r3, [r2, #12]
 2053 0018 2023     		movs	r3, #32
 2054 001a 80F83930 		strb	r3, [r0, #57]
 2055 001e 0023     		movs	r3, #0
 2056 0020 80F83830 		strb	r3, [r0, #56]
 2057 0024 1846     		mov	r0, r3
 2058 0026 7047     		bx	lr
 2059              	.L399:
 2060 0028 0220     		movs	r0, #2
 2061 002a 7047     		bx	lr
 2063              		.section	.text.HAL_MultiProcessor_ExitMuteMode,"ax",%progbits
 2064              		.align	1
 2065              		.global	HAL_MultiProcessor_ExitMuteMode
 2066              		.syntax unified
 2067              		.thumb
 2068              		.thumb_func
 2069              		.fpu softvfp
 2071              	HAL_MultiProcessor_ExitMuteMode:
 2072              		@ args = 0, pretend = 0, frame = 0
 2073              		@ frame_needed = 0, uses_anonymous_args = 0
 2074              		@ link register save eliminated.
 2075 0000 90F83830 		ldrb	r3, [r0, #56]	@ zero_extendqisi2
 2076 0004 012B     		cmp	r3, #1
 2077 0006 0FD0     		beq	.L402
 2078 0008 2423     		movs	r3, #36
 2079 000a 0268     		ldr	r2, [r0]
 2080 000c 80F83930 		strb	r3, [r0, #57]
 2081 0010 D368     		ldr	r3, [r2, #12]
 2082 0012 23F00203 		bic	r3, r3, #2
 2083 0016 D360     		str	r3, [r2, #12]
 2084 0018 2023     		movs	r3, #32
 2085 001a 80F83930 		strb	r3, [r0, #57]
 2086 001e 0023     		movs	r3, #0
ARM GAS  /tmp/cc3SmNNP.s 			page 36


 2087 0020 80F83830 		strb	r3, [r0, #56]
 2088 0024 1846     		mov	r0, r3
 2089 0026 7047     		bx	lr
 2090              	.L402:
 2091 0028 0220     		movs	r0, #2
 2092 002a 7047     		bx	lr
 2094              		.section	.text.HAL_HalfDuplex_EnableTransmitter,"ax",%progbits
 2095              		.align	1
 2096              		.global	HAL_HalfDuplex_EnableTransmitter
 2097              		.syntax unified
 2098              		.thumb
 2099              		.thumb_func
 2100              		.fpu softvfp
 2102              	HAL_HalfDuplex_EnableTransmitter:
 2103              		@ args = 0, pretend = 0, frame = 0
 2104              		@ frame_needed = 0, uses_anonymous_args = 0
 2105              		@ link register save eliminated.
 2106 0000 90F83830 		ldrb	r3, [r0, #56]	@ zero_extendqisi2
 2107 0004 012B     		cmp	r3, #1
 2108 0006 11D0     		beq	.L405
 2109 0008 2423     		movs	r3, #36
 2110 000a 0268     		ldr	r2, [r0]
 2111 000c 80F83930 		strb	r3, [r0, #57]
 2112 0010 D368     		ldr	r3, [r2, #12]
 2113 0012 23F00C03 		bic	r3, r3, #12
 2114 0016 43F00803 		orr	r3, r3, #8
 2115 001a D360     		str	r3, [r2, #12]
 2116 001c 2023     		movs	r3, #32
 2117 001e 80F83930 		strb	r3, [r0, #57]
 2118 0022 0023     		movs	r3, #0
 2119 0024 80F83830 		strb	r3, [r0, #56]
 2120 0028 1846     		mov	r0, r3
 2121 002a 7047     		bx	lr
 2122              	.L405:
 2123 002c 0220     		movs	r0, #2
 2124 002e 7047     		bx	lr
 2126              		.section	.text.HAL_HalfDuplex_EnableReceiver,"ax",%progbits
 2127              		.align	1
 2128              		.global	HAL_HalfDuplex_EnableReceiver
 2129              		.syntax unified
 2130              		.thumb
 2131              		.thumb_func
 2132              		.fpu softvfp
 2134              	HAL_HalfDuplex_EnableReceiver:
 2135              		@ args = 0, pretend = 0, frame = 0
 2136              		@ frame_needed = 0, uses_anonymous_args = 0
 2137              		@ link register save eliminated.
 2138 0000 90F83830 		ldrb	r3, [r0, #56]	@ zero_extendqisi2
 2139 0004 012B     		cmp	r3, #1
 2140 0006 11D0     		beq	.L408
 2141 0008 2423     		movs	r3, #36
 2142 000a 0268     		ldr	r2, [r0]
 2143 000c 80F83930 		strb	r3, [r0, #57]
 2144 0010 D368     		ldr	r3, [r2, #12]
 2145 0012 23F00C03 		bic	r3, r3, #12
 2146 0016 43F00403 		orr	r3, r3, #4
 2147 001a D360     		str	r3, [r2, #12]
ARM GAS  /tmp/cc3SmNNP.s 			page 37


 2148 001c 2023     		movs	r3, #32
 2149 001e 80F83930 		strb	r3, [r0, #57]
 2150 0022 0023     		movs	r3, #0
 2151 0024 80F83830 		strb	r3, [r0, #56]
 2152 0028 1846     		mov	r0, r3
 2153 002a 7047     		bx	lr
 2154              	.L408:
 2155 002c 0220     		movs	r0, #2
 2156 002e 7047     		bx	lr
 2158              		.section	.text.HAL_UART_GetState,"ax",%progbits
 2159              		.align	1
 2160              		.global	HAL_UART_GetState
 2161              		.syntax unified
 2162              		.thumb
 2163              		.thumb_func
 2164              		.fpu softvfp
 2166              	HAL_UART_GetState:
 2167              		@ args = 0, pretend = 0, frame = 0
 2168              		@ frame_needed = 0, uses_anonymous_args = 0
 2169              		@ link register save eliminated.
 2170 0000 90F83920 		ldrb	r2, [r0, #57]	@ zero_extendqisi2
 2171 0004 90F83A00 		ldrb	r0, [r0, #58]	@ zero_extendqisi2
 2172 0008 1043     		orrs	r0, r0, r2
 2173 000a 7047     		bx	lr
 2175              		.section	.text.HAL_UART_GetError,"ax",%progbits
 2176              		.align	1
 2177              		.global	HAL_UART_GetError
 2178              		.syntax unified
 2179              		.thumb
 2180              		.thumb_func
 2181              		.fpu softvfp
 2183              	HAL_UART_GetError:
 2184              		@ args = 0, pretend = 0, frame = 0
 2185              		@ frame_needed = 0, uses_anonymous_args = 0
 2186              		@ link register save eliminated.
 2187 0000 C06B     		ldr	r0, [r0, #60]
 2188 0002 7047     		bx	lr
 2190              		.section	.text.UART_InitCallbacksToDefault,"ax",%progbits
 2191              		.align	1
 2192              		.global	UART_InitCallbacksToDefault
 2193              		.syntax unified
 2194              		.thumb
 2195              		.thumb_func
 2196              		.fpu softvfp
 2198              	UART_InitCallbacksToDefault:
 2199              		@ args = 0, pretend = 0, frame = 0
 2200              		@ frame_needed = 0, uses_anonymous_args = 0
 2201              		@ link register save eliminated.
 2202 0000 084B     		ldr	r3, .L412
 2203 0002 0364     		str	r3, [r0, #64]
 2204 0004 084B     		ldr	r3, .L412+4
 2205 0006 4364     		str	r3, [r0, #68]
 2206 0008 084B     		ldr	r3, .L412+8
 2207 000a 8364     		str	r3, [r0, #72]
 2208 000c 084B     		ldr	r3, .L412+12
 2209 000e C364     		str	r3, [r0, #76]
 2210 0010 084B     		ldr	r3, .L412+16
ARM GAS  /tmp/cc3SmNNP.s 			page 38


 2211 0012 0365     		str	r3, [r0, #80]
 2212 0014 084B     		ldr	r3, .L412+20
 2213 0016 4365     		str	r3, [r0, #84]
 2214 0018 084B     		ldr	r3, .L412+24
 2215 001a 8365     		str	r3, [r0, #88]
 2216 001c 084B     		ldr	r3, .L412+28
 2217 001e C365     		str	r3, [r0, #92]
 2218 0020 7047     		bx	lr
 2219              	.L413:
 2220 0022 00BF     		.align	2
 2221              	.L412:
 2222 0024 00000000 		.word	HAL_UART_TxHalfCpltCallback
 2223 0028 00000000 		.word	HAL_UART_TxCpltCallback
 2224 002c 00000000 		.word	HAL_UART_RxHalfCpltCallback
 2225 0030 00000000 		.word	HAL_UART_RxCpltCallback
 2226 0034 00000000 		.word	HAL_UART_ErrorCallback
 2227 0038 00000000 		.word	HAL_UART_AbortCpltCallback
 2228 003c 00000000 		.word	HAL_UART_AbortTransmitCpltCallback
 2229 0040 00000000 		.word	HAL_UART_AbortReceiveCpltCallback
 2231              		.section	.text.HAL_UART_Init,"ax",%progbits
 2232              		.align	1
 2233              		.global	HAL_UART_Init
 2234              		.syntax unified
 2235              		.thumb
 2236              		.thumb_func
 2237              		.fpu softvfp
 2239              	HAL_UART_Init:
 2240              		@ args = 0, pretend = 0, frame = 0
 2241              		@ frame_needed = 0, uses_anonymous_args = 0
 2242 0000 10B5     		push	{r4, lr}
 2243 0002 0446     		mov	r4, r0
 2244 0004 0028     		cmp	r0, #0
 2245 0006 2FD0     		beq	.L418
 2246 0008 90F83930 		ldrb	r3, [r0, #57]	@ zero_extendqisi2
 2247 000c 03F0FF02 		and	r2, r3, #255
 2248 0010 53B9     		cbnz	r3, .L416
 2249 0012 80F83820 		strb	r2, [r0, #56]
 2250 0016 FFF7FEFF 		bl	UART_InitCallbacksToDefault
 2251 001a 436E     		ldr	r3, [r0, #100]
 2252 001c 0BB9     		cbnz	r3, .L417
 2253 001e 134B     		ldr	r3, .L419
 2254 0020 4366     		str	r3, [r0, #100]
 2255              	.L417:
 2256 0022 636E     		ldr	r3, [r4, #100]
 2257 0024 2046     		mov	r0, r4
 2258 0026 9847     		blx	r3
 2259              	.L416:
 2260 0028 2423     		movs	r3, #36
 2261 002a 2268     		ldr	r2, [r4]
 2262 002c 84F83930 		strb	r3, [r4, #57]
 2263 0030 D368     		ldr	r3, [r2, #12]
 2264 0032 2046     		mov	r0, r4
 2265 0034 23F40053 		bic	r3, r3, #8192
 2266 0038 D360     		str	r3, [r2, #12]
 2267 003a FFF7FEFF 		bl	UART_SetConfig
 2268 003e 2368     		ldr	r3, [r4]
 2269 0040 0020     		movs	r0, #0
ARM GAS  /tmp/cc3SmNNP.s 			page 39


 2270 0042 1A69     		ldr	r2, [r3, #16]
 2271 0044 22F49042 		bic	r2, r2, #18432
 2272 0048 1A61     		str	r2, [r3, #16]
 2273 004a 5A69     		ldr	r2, [r3, #20]
 2274 004c 22F02A02 		bic	r2, r2, #42
 2275 0050 5A61     		str	r2, [r3, #20]
 2276 0052 DA68     		ldr	r2, [r3, #12]
 2277 0054 42F40052 		orr	r2, r2, #8192
 2278 0058 DA60     		str	r2, [r3, #12]
 2279 005a 2023     		movs	r3, #32
 2280 005c E063     		str	r0, [r4, #60]
 2281 005e 84F83930 		strb	r3, [r4, #57]
 2282 0062 84F83A30 		strb	r3, [r4, #58]
 2283 0066 10BD     		pop	{r4, pc}
 2284              	.L418:
 2285 0068 0120     		movs	r0, #1
 2286 006a 10BD     		pop	{r4, pc}
 2287              	.L420:
 2288              		.align	2
 2289              	.L419:
 2290 006c 00000000 		.word	HAL_UART_MspInit
 2292              		.section	.text.HAL_HalfDuplex_Init,"ax",%progbits
 2293              		.align	1
 2294              		.global	HAL_HalfDuplex_Init
 2295              		.syntax unified
 2296              		.thumb
 2297              		.thumb_func
 2298              		.fpu softvfp
 2300              	HAL_HalfDuplex_Init:
 2301              		@ args = 0, pretend = 0, frame = 0
 2302              		@ frame_needed = 0, uses_anonymous_args = 0
 2303 0000 10B5     		push	{r4, lr}
 2304 0002 0446     		mov	r4, r0
 2305 0004 0028     		cmp	r0, #0
 2306 0006 33D0     		beq	.L425
 2307 0008 90F83930 		ldrb	r3, [r0, #57]	@ zero_extendqisi2
 2308 000c 03F0FF02 		and	r2, r3, #255
 2309 0010 53B9     		cbnz	r3, .L423
 2310 0012 80F83820 		strb	r2, [r0, #56]
 2311 0016 FFF7FEFF 		bl	UART_InitCallbacksToDefault
 2312 001a 436E     		ldr	r3, [r0, #100]
 2313 001c 0BB9     		cbnz	r3, .L424
 2314 001e 154B     		ldr	r3, .L426
 2315 0020 4366     		str	r3, [r0, #100]
 2316              	.L424:
 2317 0022 636E     		ldr	r3, [r4, #100]
 2318 0024 2046     		mov	r0, r4
 2319 0026 9847     		blx	r3
 2320              	.L423:
 2321 0028 2423     		movs	r3, #36
 2322 002a 2268     		ldr	r2, [r4]
 2323 002c 84F83930 		strb	r3, [r4, #57]
 2324 0030 D368     		ldr	r3, [r2, #12]
 2325 0032 2046     		mov	r0, r4
 2326 0034 23F40053 		bic	r3, r3, #8192
 2327 0038 D360     		str	r3, [r2, #12]
 2328 003a FFF7FEFF 		bl	UART_SetConfig
ARM GAS  /tmp/cc3SmNNP.s 			page 40


 2329 003e 2368     		ldr	r3, [r4]
 2330 0040 0020     		movs	r0, #0
 2331 0042 1A69     		ldr	r2, [r3, #16]
 2332 0044 22F49042 		bic	r2, r2, #18432
 2333 0048 1A61     		str	r2, [r3, #16]
 2334 004a 5A69     		ldr	r2, [r3, #20]
 2335 004c 22F02202 		bic	r2, r2, #34
 2336 0050 5A61     		str	r2, [r3, #20]
 2337 0052 5A69     		ldr	r2, [r3, #20]
 2338 0054 42F00802 		orr	r2, r2, #8
 2339 0058 5A61     		str	r2, [r3, #20]
 2340 005a DA68     		ldr	r2, [r3, #12]
 2341 005c 42F40052 		orr	r2, r2, #8192
 2342 0060 DA60     		str	r2, [r3, #12]
 2343 0062 2023     		movs	r3, #32
 2344 0064 E063     		str	r0, [r4, #60]
 2345 0066 84F83930 		strb	r3, [r4, #57]
 2346 006a 84F83A30 		strb	r3, [r4, #58]
 2347 006e 10BD     		pop	{r4, pc}
 2348              	.L425:
 2349 0070 0120     		movs	r0, #1
 2350 0072 10BD     		pop	{r4, pc}
 2351              	.L427:
 2352              		.align	2
 2353              	.L426:
 2354 0074 00000000 		.word	HAL_UART_MspInit
 2356              		.section	.text.HAL_LIN_Init,"ax",%progbits
 2357              		.align	1
 2358              		.global	HAL_LIN_Init
 2359              		.syntax unified
 2360              		.thumb
 2361              		.thumb_func
 2362              		.fpu softvfp
 2364              	HAL_LIN_Init:
 2365              		@ args = 0, pretend = 0, frame = 0
 2366              		@ frame_needed = 0, uses_anonymous_args = 0
 2367 0000 38B5     		push	{r3, r4, r5, lr}
 2368 0002 0D46     		mov	r5, r1
 2369 0004 0446     		mov	r4, r0
 2370 0006 0028     		cmp	r0, #0
 2371 0008 3AD0     		beq	.L432
 2372 000a 90F83930 		ldrb	r3, [r0, #57]	@ zero_extendqisi2
 2373 000e 03F0FF02 		and	r2, r3, #255
 2374 0012 53B9     		cbnz	r3, .L430
 2375 0014 80F83820 		strb	r2, [r0, #56]
 2376 0018 FFF7FEFF 		bl	UART_InitCallbacksToDefault
 2377 001c 436E     		ldr	r3, [r0, #100]
 2378 001e 0BB9     		cbnz	r3, .L431
 2379 0020 184B     		ldr	r3, .L433
 2380 0022 4366     		str	r3, [r0, #100]
 2381              	.L431:
 2382 0024 636E     		ldr	r3, [r4, #100]
 2383 0026 2046     		mov	r0, r4
 2384 0028 9847     		blx	r3
 2385              	.L430:
 2386 002a 2423     		movs	r3, #36
 2387 002c 2268     		ldr	r2, [r4]
ARM GAS  /tmp/cc3SmNNP.s 			page 41


 2388 002e 84F83930 		strb	r3, [r4, #57]
 2389 0032 D368     		ldr	r3, [r2, #12]
 2390 0034 2046     		mov	r0, r4
 2391 0036 23F40053 		bic	r3, r3, #8192
 2392 003a D360     		str	r3, [r2, #12]
 2393 003c FFF7FEFF 		bl	UART_SetConfig
 2394 0040 2368     		ldr	r3, [r4]
 2395 0042 0020     		movs	r0, #0
 2396 0044 1A69     		ldr	r2, [r3, #16]
 2397 0046 22F40062 		bic	r2, r2, #2048
 2398 004a 1A61     		str	r2, [r3, #16]
 2399 004c 5A69     		ldr	r2, [r3, #20]
 2400 004e 22F02A02 		bic	r2, r2, #42
 2401 0052 5A61     		str	r2, [r3, #20]
 2402 0054 1A69     		ldr	r2, [r3, #16]
 2403 0056 42F48042 		orr	r2, r2, #16384
 2404 005a 1A61     		str	r2, [r3, #16]
 2405 005c 1A69     		ldr	r2, [r3, #16]
 2406 005e 22F02002 		bic	r2, r2, #32
 2407 0062 1A61     		str	r2, [r3, #16]
 2408 0064 1969     		ldr	r1, [r3, #16]
 2409 0066 2943     		orrs	r1, r1, r5
 2410 0068 1961     		str	r1, [r3, #16]
 2411 006a DA68     		ldr	r2, [r3, #12]
 2412 006c 42F40052 		orr	r2, r2, #8192
 2413 0070 DA60     		str	r2, [r3, #12]
 2414 0072 2023     		movs	r3, #32
 2415 0074 E063     		str	r0, [r4, #60]
 2416 0076 84F83930 		strb	r3, [r4, #57]
 2417 007a 84F83A30 		strb	r3, [r4, #58]
 2418 007e 38BD     		pop	{r3, r4, r5, pc}
 2419              	.L432:
 2420 0080 0120     		movs	r0, #1
 2421 0082 38BD     		pop	{r3, r4, r5, pc}
 2422              	.L434:
 2423              		.align	2
 2424              	.L433:
 2425 0084 00000000 		.word	HAL_UART_MspInit
 2427              		.section	.text.HAL_MultiProcessor_Init,"ax",%progbits
 2428              		.align	1
 2429              		.global	HAL_MultiProcessor_Init
 2430              		.syntax unified
 2431              		.thumb
 2432              		.thumb_func
 2433              		.fpu softvfp
 2435              	HAL_MultiProcessor_Init:
 2436              		@ args = 0, pretend = 0, frame = 0
 2437              		@ frame_needed = 0, uses_anonymous_args = 0
 2438 0000 70B5     		push	{r4, r5, r6, lr}
 2439 0002 0D46     		mov	r5, r1
 2440 0004 1646     		mov	r6, r2
 2441 0006 0446     		mov	r4, r0
 2442 0008 0028     		cmp	r0, #0
 2443 000a 3DD0     		beq	.L439
 2444 000c 90F83930 		ldrb	r3, [r0, #57]	@ zero_extendqisi2
 2445 0010 03F0FF02 		and	r2, r3, #255
 2446 0014 53B9     		cbnz	r3, .L437
ARM GAS  /tmp/cc3SmNNP.s 			page 42


 2447 0016 80F83820 		strb	r2, [r0, #56]
 2448 001a FFF7FEFF 		bl	UART_InitCallbacksToDefault
 2449 001e 436E     		ldr	r3, [r0, #100]
 2450 0020 0BB9     		cbnz	r3, .L438
 2451 0022 1A4B     		ldr	r3, .L440
 2452 0024 4366     		str	r3, [r0, #100]
 2453              	.L438:
 2454 0026 636E     		ldr	r3, [r4, #100]
 2455 0028 2046     		mov	r0, r4
 2456 002a 9847     		blx	r3
 2457              	.L437:
 2458 002c 2423     		movs	r3, #36
 2459 002e 2268     		ldr	r2, [r4]
 2460 0030 84F83930 		strb	r3, [r4, #57]
 2461 0034 D368     		ldr	r3, [r2, #12]
 2462 0036 2046     		mov	r0, r4
 2463 0038 23F40053 		bic	r3, r3, #8192
 2464 003c D360     		str	r3, [r2, #12]
 2465 003e FFF7FEFF 		bl	UART_SetConfig
 2466 0042 2368     		ldr	r3, [r4]
 2467 0044 0020     		movs	r0, #0
 2468 0046 1A69     		ldr	r2, [r3, #16]
 2469 0048 22F49042 		bic	r2, r2, #18432
 2470 004c 1A61     		str	r2, [r3, #16]
 2471 004e 5A69     		ldr	r2, [r3, #20]
 2472 0050 22F02A02 		bic	r2, r2, #42
 2473 0054 5A61     		str	r2, [r3, #20]
 2474 0056 1A69     		ldr	r2, [r3, #16]
 2475 0058 22F00F02 		bic	r2, r2, #15
 2476 005c 1A61     		str	r2, [r3, #16]
 2477 005e 1A69     		ldr	r2, [r3, #16]
 2478 0060 1543     		orrs	r5, r5, r2
 2479 0062 1D61     		str	r5, [r3, #16]
 2480 0064 DA68     		ldr	r2, [r3, #12]
 2481 0066 22F40062 		bic	r2, r2, #2048
 2482 006a DA60     		str	r2, [r3, #12]
 2483 006c DA68     		ldr	r2, [r3, #12]
 2484 006e 3243     		orrs	r2, r2, r6
 2485 0070 DA60     		str	r2, [r3, #12]
 2486 0072 DA68     		ldr	r2, [r3, #12]
 2487 0074 42F40052 		orr	r2, r2, #8192
 2488 0078 DA60     		str	r2, [r3, #12]
 2489 007a 2023     		movs	r3, #32
 2490 007c E063     		str	r0, [r4, #60]
 2491 007e 84F83930 		strb	r3, [r4, #57]
 2492 0082 84F83A30 		strb	r3, [r4, #58]
 2493 0086 70BD     		pop	{r4, r5, r6, pc}
 2494              	.L439:
 2495 0088 0120     		movs	r0, #1
 2496 008a 70BD     		pop	{r4, r5, r6, pc}
 2497              	.L441:
 2498              		.align	2
 2499              	.L440:
 2500 008c 00000000 		.word	HAL_UART_MspInit
 2502              		.ident	"GCC: (15:6.3.1+svn253039-1build1) 6.3.1 20170620"
ARM GAS  /tmp/cc3SmNNP.s 			page 43


DEFINED SYMBOLS
                            *ABS*:0000000000000000 stm32f1xx_hal_uart.c
     /tmp/cc3SmNNP.s:13     .text.HAL_UART_AbortReceiveCpltCallback:0000000000000000 $t
     /tmp/cc3SmNNP.s:20     .text.HAL_UART_AbortReceiveCpltCallback:0000000000000000 HAL_UART_AbortReceiveCpltCallback
     /tmp/cc3SmNNP.s:27     .text.UART_DMATransmitCplt:0000000000000000 $t
     /tmp/cc3SmNNP.s:33     .text.UART_DMATransmitCplt:0000000000000000 UART_DMATransmitCplt
     /tmp/cc3SmNNP.s:57     .text.UART_DMATxHalfCplt:0000000000000000 $t
     /tmp/cc3SmNNP.s:63     .text.UART_DMATxHalfCplt:0000000000000000 UART_DMATxHalfCplt
     /tmp/cc3SmNNP.s:72     .text.UART_DMAReceiveCplt:0000000000000000 $t
     /tmp/cc3SmNNP.s:78     .text.UART_DMAReceiveCplt:0000000000000000 UART_DMAReceiveCplt
     /tmp/cc3SmNNP.s:106    .text.UART_DMARxHalfCplt:0000000000000000 $t
     /tmp/cc3SmNNP.s:112    .text.UART_DMARxHalfCplt:0000000000000000 UART_DMARxHalfCplt
     /tmp/cc3SmNNP.s:121    .text.UART_EndRxTransfer:0000000000000000 $t
     /tmp/cc3SmNNP.s:127    .text.UART_EndRxTransfer:0000000000000000 UART_EndRxTransfer
     /tmp/cc3SmNNP.s:143    .text.UART_DMAError:0000000000000000 $t
     /tmp/cc3SmNNP.s:149    .text.UART_DMAError:0000000000000000 UART_DMAError
     /tmp/cc3SmNNP.s:189    .text.UART_DMAAbortOnError:0000000000000000 $t
     /tmp/cc3SmNNP.s:195    .text.UART_DMAAbortOnError:0000000000000000 UART_DMAAbortOnError
     /tmp/cc3SmNNP.s:207    .text.UART_DMATxAbortCallback:0000000000000000 $t
     /tmp/cc3SmNNP.s:213    .text.UART_DMATxAbortCallback:0000000000000000 UART_DMATxAbortCallback
     /tmp/cc3SmNNP.s:238    .text.UART_DMARxAbortCallback:0000000000000000 $t
     /tmp/cc3SmNNP.s:244    .text.UART_DMARxAbortCallback:0000000000000000 UART_DMARxAbortCallback
     /tmp/cc3SmNNP.s:269    .text.UART_DMATxOnlyAbortCallback:0000000000000000 $t
     /tmp/cc3SmNNP.s:275    .text.UART_DMATxOnlyAbortCallback:0000000000000000 UART_DMATxOnlyAbortCallback
     /tmp/cc3SmNNP.s:288    .text.UART_DMARxOnlyAbortCallback:0000000000000000 $t
     /tmp/cc3SmNNP.s:294    .text.UART_DMARxOnlyAbortCallback:0000000000000000 UART_DMARxOnlyAbortCallback
     /tmp/cc3SmNNP.s:307    .text.UART_SetConfig:0000000000000000 $t
     /tmp/cc3SmNNP.s:313    .text.UART_SetConfig:0000000000000000 UART_SetConfig
     /tmp/cc3SmNNP.s:365    .text.UART_SetConfig:0000000000000070 $d
     /tmp/cc3SmNNP.s:368    .text.UART_Receive_IT:0000000000000000 $t
     /tmp/cc3SmNNP.s:374    .text.UART_Receive_IT:0000000000000000 UART_Receive_IT
     /tmp/cc3SmNNP.s:439    .text.UART_WaitOnFlagUntilTimeout.constprop.3:0000000000000000 $t
     /tmp/cc3SmNNP.s:445    .text.UART_WaitOnFlagUntilTimeout.constprop.3:0000000000000000 UART_WaitOnFlagUntilTimeout.constprop.3
     /tmp/cc3SmNNP.s:488    .text.HAL_UART_AbortTransmitCpltCallback:0000000000000000 $t
     /tmp/cc3SmNNP.s:495    .text.HAL_UART_AbortTransmitCpltCallback:0000000000000000 HAL_UART_AbortTransmitCpltCallback
     /tmp/cc3SmNNP.s:502    .text.HAL_UART_MspInit:0000000000000000 $t
     /tmp/cc3SmNNP.s:509    .text.HAL_UART_MspInit:0000000000000000 HAL_UART_MspInit
     /tmp/cc3SmNNP.s:516    .text.HAL_UART_MspDeInit:0000000000000000 $t
     /tmp/cc3SmNNP.s:523    .text.HAL_UART_MspDeInit:0000000000000000 HAL_UART_MspDeInit
     /tmp/cc3SmNNP.s:530    .text.HAL_UART_TxCpltCallback:0000000000000000 $t
     /tmp/cc3SmNNP.s:537    .text.HAL_UART_TxCpltCallback:0000000000000000 HAL_UART_TxCpltCallback
     /tmp/cc3SmNNP.s:544    .text.HAL_UART_TxHalfCpltCallback:0000000000000000 $t
     /tmp/cc3SmNNP.s:551    .text.HAL_UART_TxHalfCpltCallback:0000000000000000 HAL_UART_TxHalfCpltCallback
     /tmp/cc3SmNNP.s:558    .text.HAL_UART_RxCpltCallback:0000000000000000 $t
     /tmp/cc3SmNNP.s:565    .text.HAL_UART_RxCpltCallback:0000000000000000 HAL_UART_RxCpltCallback
     /tmp/cc3SmNNP.s:572    .text.HAL_UART_RxHalfCpltCallback:0000000000000000 $t
     /tmp/cc3SmNNP.s:579    .text.HAL_UART_RxHalfCpltCallback:0000000000000000 HAL_UART_RxHalfCpltCallback
     /tmp/cc3SmNNP.s:586    .text.HAL_UART_ErrorCallback:0000000000000000 $t
     /tmp/cc3SmNNP.s:593    .text.HAL_UART_ErrorCallback:0000000000000000 HAL_UART_ErrorCallback
     /tmp/cc3SmNNP.s:600    .text.HAL_UART_AbortCpltCallback:0000000000000000 $t
     /tmp/cc3SmNNP.s:607    .text.HAL_UART_AbortCpltCallback:0000000000000000 HAL_UART_AbortCpltCallback
     /tmp/cc3SmNNP.s:614    .text.HAL_UART_DeInit:0000000000000000 $t
     /tmp/cc3SmNNP.s:621    .text.HAL_UART_DeInit:0000000000000000 HAL_UART_DeInit
     /tmp/cc3SmNNP.s:653    .text.HAL_UART_DeInit:000000000000003c $d
     /tmp/cc3SmNNP.s:656    .text.HAL_UART_RegisterCallback:0000000000000000 $t
     /tmp/cc3SmNNP.s:663    .text.HAL_UART_RegisterCallback:0000000000000000 HAL_UART_RegisterCallback
     /tmp/cc3SmNNP.s:687    .text.HAL_UART_RegisterCallback:0000000000000030 $d
ARM GAS  /tmp/cc3SmNNP.s 			page 44


     /tmp/cc3SmNNP.s:759    .text.HAL_UART_UnRegisterCallback:0000000000000000 $t
     /tmp/cc3SmNNP.s:766    .text.HAL_UART_UnRegisterCallback:0000000000000000 HAL_UART_UnRegisterCallback
     /tmp/cc3SmNNP.s:783    .text.HAL_UART_UnRegisterCallback:0000000000000022 $d
     /tmp/cc3SmNNP.s:874    .text.HAL_UART_UnRegisterCallback:00000000000000a8 $d
     /tmp/cc3SmNNP.s:886    .text.HAL_UART_Transmit:0000000000000000 $t
     /tmp/cc3SmNNP.s:893    .text.HAL_UART_Transmit:0000000000000000 HAL_UART_Transmit
     /tmp/cc3SmNNP.s:979    .text.HAL_UART_Receive:0000000000000000 $t
     /tmp/cc3SmNNP.s:986    .text.HAL_UART_Receive:0000000000000000 HAL_UART_Receive
     /tmp/cc3SmNNP.s:1075   .text.HAL_UART_Transmit_IT:0000000000000000 $t
     /tmp/cc3SmNNP.s:1082   .text.HAL_UART_Transmit_IT:0000000000000000 HAL_UART_Transmit_IT
     /tmp/cc3SmNNP.s:1116   .text.HAL_UART_Receive_IT:0000000000000000 $t
     /tmp/cc3SmNNP.s:1123   .text.HAL_UART_Receive_IT:0000000000000000 HAL_UART_Receive_IT
     /tmp/cc3SmNNP.s:1163   .text.HAL_UART_Transmit_DMA:0000000000000000 $t
     /tmp/cc3SmNNP.s:1170   .text.HAL_UART_Transmit_DMA:0000000000000000 HAL_UART_Transmit_DMA
     /tmp/cc3SmNNP.s:1222   .text.HAL_UART_Transmit_DMA:0000000000000068 $d
     /tmp/cc3SmNNP.s:1227   .text.HAL_UART_Receive_DMA:0000000000000000 $t
     /tmp/cc3SmNNP.s:1234   .text.HAL_UART_Receive_DMA:0000000000000000 HAL_UART_Receive_DMA
     /tmp/cc3SmNNP.s:1301   .text.HAL_UART_Receive_DMA:0000000000000084 $d
     /tmp/cc3SmNNP.s:1306   .text.HAL_UART_DMAPause:0000000000000000 $t
     /tmp/cc3SmNNP.s:1313   .text.HAL_UART_DMAPause:0000000000000000 HAL_UART_DMAPause
     /tmp/cc3SmNNP.s:1358   .text.HAL_UART_DMAResume:0000000000000000 $t
     /tmp/cc3SmNNP.s:1365   .text.HAL_UART_DMAResume:0000000000000000 HAL_UART_DMAResume
     /tmp/cc3SmNNP.s:1415   .text.HAL_UART_DMAStop:0000000000000000 $t
     /tmp/cc3SmNNP.s:1422   .text.HAL_UART_DMAStop:0000000000000000 HAL_UART_DMAStop
     /tmp/cc3SmNNP.s:1469   .text.HAL_UART_Abort:0000000000000000 $t
     /tmp/cc3SmNNP.s:1476   .text.HAL_UART_Abort:0000000000000000 HAL_UART_Abort
     /tmp/cc3SmNNP.s:1538   .text.HAL_UART_AbortTransmit:0000000000000000 $t
     /tmp/cc3SmNNP.s:1545   .text.HAL_UART_AbortTransmit:0000000000000000 HAL_UART_AbortTransmit
     /tmp/cc3SmNNP.s:1582   .text.HAL_UART_AbortReceive:0000000000000000 $t
     /tmp/cc3SmNNP.s:1589   .text.HAL_UART_AbortReceive:0000000000000000 HAL_UART_AbortReceive
     /tmp/cc3SmNNP.s:1629   .text.HAL_UART_Abort_IT:0000000000000000 $t
     /tmp/cc3SmNNP.s:1636   .text.HAL_UART_Abort_IT:0000000000000000 HAL_UART_Abort_IT
     /tmp/cc3SmNNP.s:1720   .text.HAL_UART_Abort_IT:00000000000000a0 $d
     /tmp/cc3SmNNP.s:1724   .text.HAL_UART_AbortTransmit_IT:0000000000000000 $t
     /tmp/cc3SmNNP.s:1731   .text.HAL_UART_AbortTransmit_IT:0000000000000000 HAL_UART_AbortTransmit_IT
     /tmp/cc3SmNNP.s:1773   .text.HAL_UART_AbortTransmit_IT:0000000000000048 $d
     /tmp/cc3SmNNP.s:1776   .text.HAL_UART_AbortReceive_IT:0000000000000000 $t
     /tmp/cc3SmNNP.s:1783   .text.HAL_UART_AbortReceive_IT:0000000000000000 HAL_UART_AbortReceive_IT
     /tmp/cc3SmNNP.s:1828   .text.HAL_UART_AbortReceive_IT:0000000000000050 $d
     /tmp/cc3SmNNP.s:1831   .text.HAL_UART_IRQHandler:0000000000000000 $t
     /tmp/cc3SmNNP.s:1838   .text.HAL_UART_IRQHandler:0000000000000000 HAL_UART_IRQHandler
     /tmp/cc3SmNNP.s:1999   .text.HAL_UART_IRQHandler:000000000000013c $d
     /tmp/cc3SmNNP.s:2002   .text.HAL_LIN_SendBreak:0000000000000000 $t
     /tmp/cc3SmNNP.s:2009   .text.HAL_LIN_SendBreak:0000000000000000 HAL_LIN_SendBreak
     /tmp/cc3SmNNP.s:2033   .text.HAL_MultiProcessor_EnterMuteMode:0000000000000000 $t
     /tmp/cc3SmNNP.s:2040   .text.HAL_MultiProcessor_EnterMuteMode:0000000000000000 HAL_MultiProcessor_EnterMuteMode
     /tmp/cc3SmNNP.s:2064   .text.HAL_MultiProcessor_ExitMuteMode:0000000000000000 $t
     /tmp/cc3SmNNP.s:2071   .text.HAL_MultiProcessor_ExitMuteMode:0000000000000000 HAL_MultiProcessor_ExitMuteMode
     /tmp/cc3SmNNP.s:2095   .text.HAL_HalfDuplex_EnableTransmitter:0000000000000000 $t
     /tmp/cc3SmNNP.s:2102   .text.HAL_HalfDuplex_EnableTransmitter:0000000000000000 HAL_HalfDuplex_EnableTransmitter
     /tmp/cc3SmNNP.s:2127   .text.HAL_HalfDuplex_EnableReceiver:0000000000000000 $t
     /tmp/cc3SmNNP.s:2134   .text.HAL_HalfDuplex_EnableReceiver:0000000000000000 HAL_HalfDuplex_EnableReceiver
     /tmp/cc3SmNNP.s:2159   .text.HAL_UART_GetState:0000000000000000 $t
     /tmp/cc3SmNNP.s:2166   .text.HAL_UART_GetState:0000000000000000 HAL_UART_GetState
     /tmp/cc3SmNNP.s:2176   .text.HAL_UART_GetError:0000000000000000 $t
     /tmp/cc3SmNNP.s:2183   .text.HAL_UART_GetError:0000000000000000 HAL_UART_GetError
     /tmp/cc3SmNNP.s:2191   .text.UART_InitCallbacksToDefault:0000000000000000 $t
ARM GAS  /tmp/cc3SmNNP.s 			page 45


     /tmp/cc3SmNNP.s:2198   .text.UART_InitCallbacksToDefault:0000000000000000 UART_InitCallbacksToDefault
     /tmp/cc3SmNNP.s:2222   .text.UART_InitCallbacksToDefault:0000000000000024 $d
     /tmp/cc3SmNNP.s:2232   .text.HAL_UART_Init:0000000000000000 $t
     /tmp/cc3SmNNP.s:2239   .text.HAL_UART_Init:0000000000000000 HAL_UART_Init
     /tmp/cc3SmNNP.s:2290   .text.HAL_UART_Init:000000000000006c $d
     /tmp/cc3SmNNP.s:2293   .text.HAL_HalfDuplex_Init:0000000000000000 $t
     /tmp/cc3SmNNP.s:2300   .text.HAL_HalfDuplex_Init:0000000000000000 HAL_HalfDuplex_Init
     /tmp/cc3SmNNP.s:2354   .text.HAL_HalfDuplex_Init:0000000000000074 $d
     /tmp/cc3SmNNP.s:2357   .text.HAL_LIN_Init:0000000000000000 $t
     /tmp/cc3SmNNP.s:2364   .text.HAL_LIN_Init:0000000000000000 HAL_LIN_Init
     /tmp/cc3SmNNP.s:2425   .text.HAL_LIN_Init:0000000000000084 $d
     /tmp/cc3SmNNP.s:2428   .text.HAL_MultiProcessor_Init:0000000000000000 $t
     /tmp/cc3SmNNP.s:2435   .text.HAL_MultiProcessor_Init:0000000000000000 HAL_MultiProcessor_Init
     /tmp/cc3SmNNP.s:2500   .text.HAL_MultiProcessor_Init:000000000000008c $d
     /tmp/cc3SmNNP.s:700    .text.HAL_UART_RegisterCallback:000000000000003d $d
     /tmp/cc3SmNNP.s:700    .text.HAL_UART_RegisterCallback:000000000000003e $t
     /tmp/cc3SmNNP.s:796    .text.HAL_UART_UnRegisterCallback:000000000000002f $d
     /tmp/cc3SmNNP.s:796    .text.HAL_UART_UnRegisterCallback:0000000000000030 $t

UNDEFINED SYMBOLS
HAL_RCC_GetPCLK2Freq
HAL_RCC_GetPCLK1Freq
HAL_GetTick
HAL_DMA_Start_IT
HAL_DMA_Abort
HAL_DMA_GetError
HAL_DMA_Abort_IT
