ARM GAS  /tmp/ccN79Q8s.s 			page 1


   1              		.cpu cortex-m3
   2              		.eabi_attribute 20, 1
   3              		.eabi_attribute 21, 1
   4              		.eabi_attribute 23, 3
   5              		.eabi_attribute 24, 1
   6              		.eabi_attribute 25, 1
   7              		.eabi_attribute 26, 1
   8              		.eabi_attribute 30, 4
   9              		.eabi_attribute 34, 1
  10              		.eabi_attribute 18, 4
  11              		.file	"stm32f1xx_hal_i2c.c"
  12              		.text
  13              		.section	.text.HAL_I2C_MspInit,"ax",%progbits
  14              		.align	1
  15              		.weak	HAL_I2C_MspInit
  16              		.arch armv7-m
  17              		.syntax unified
  18              		.thumb
  19              		.thumb_func
  20              		.fpu softvfp
  22              	HAL_I2C_MspInit:
  23              		@ args = 0, pretend = 0, frame = 0
  24              		@ frame_needed = 0, uses_anonymous_args = 0
  25              		@ link register save eliminated.
  26 0000 7047     		bx	lr
  28              		.section	.text.HAL_I2C_AddrCallback,"ax",%progbits
  29              		.align	1
  30              		.weak	HAL_I2C_AddrCallback
  31              		.syntax unified
  32              		.thumb
  33              		.thumb_func
  34              		.fpu softvfp
  36              	HAL_I2C_AddrCallback:
  37              		@ args = 0, pretend = 0, frame = 0
  38              		@ frame_needed = 0, uses_anonymous_args = 0
  39              		@ link register save eliminated.
  40 0000 7047     		bx	lr
  42              		.section	.text.I2C_DMAXferCplt,"ax",%progbits
  43              		.align	1
  44              		.syntax unified
  45              		.thumb
  46              		.thumb_func
  47              		.fpu softvfp
  49              	I2C_DMAXferCplt:
  50              		@ args = 0, pretend = 0, frame = 0
  51              		@ frame_needed = 0, uses_anonymous_args = 0
  52 0000 2DE9F041 		push	{r4, r5, r6, r7, r8, lr}
  53 0004 446A     		ldr	r4, [r0, #36]
  54 0006 2368     		ldr	r3, [r4]
  55 0008 94F83D10 		ldrb	r1, [r4, #61]	@ zero_extendqisi2
  56 000c 94F83E50 		ldrb	r5, [r4, #62]	@ zero_extendqisi2
  57 0010 E26A     		ldr	r2, [r4, #44]
  58 0012 5E68     		ldr	r6, [r3, #4]
  59 0014 676B     		ldr	r7, [r4, #52]
  60 0016 26F44076 		bic	r6, r6, #768
  61 001a 5E60     		str	r6, [r3, #4]
  62 001c 0026     		movs	r6, #0
ARM GAS  /tmp/ccN79Q8s.s 			page 2


  63 001e C8B2     		uxtb	r0, r1
  64 0020 BE62     		str	r6, [r7, #40]
  65 0022 01F02101 		and	r1, r1, #33
  66 0026 A76B     		ldr	r7, [r4, #56]
  67 0028 2129     		cmp	r1, #33
  68 002a EDB2     		uxtb	r5, r5
  69 002c BE62     		str	r6, [r7, #40]
  70 002e 05D0     		beq	.L4
  71 0030 00F02201 		and	r1, r0, #34
  72 0034 2229     		cmp	r1, #34
  73 0036 22D1     		bne	.L5
  74 0038 202D     		cmp	r5, #32
  75 003a 20D1     		bne	.L5
  76              	.L4:
  77 003c 5A68     		ldr	r2, [r3, #4]
  78 003e 2928     		cmp	r0, #41
  79 0040 22F40062 		bic	r2, r2, #2048
  80 0044 5A60     		str	r2, [r3, #4]
  81 0046 4FF00003 		mov	r3, #0
  82 004a 6385     		strh	r3, [r4, #42]	@ movhi
  83 004c 0ED1     		bne	.L6
  84 004e 2123     		movs	r3, #33
  85 0050 2363     		str	r3, [r4, #48]
  86 0052 2823     		movs	r3, #40
  87 0054 84F83D30 		strb	r3, [r4, #61]
  88 0058 E36D     		ldr	r3, [r4, #92]
  89              	.L29:
  90 005a 2046     		mov	r0, r4
  91 005c 9847     		blx	r3
  92              	.L7:
  93 005e 2268     		ldr	r2, [r4]
  94 0060 5368     		ldr	r3, [r2, #4]
  95 0062 43F44073 		orr	r3, r3, #768
  96 0066 5360     		str	r3, [r2, #4]
  97              	.L3:
  98 0068 BDE8F081 		pop	{r4, r5, r6, r7, r8, pc}
  99              	.L6:
 100 006c 2A28     		cmp	r0, #42
 101 006e F6D1     		bne	.L7
 102 0070 2223     		movs	r3, #34
 103 0072 2363     		str	r3, [r4, #48]
 104 0074 2823     		movs	r3, #40
 105 0076 84F83D30 		strb	r3, [r4, #61]
 106 007a 236E     		ldr	r3, [r4, #96]
 107 007c EDE7     		b	.L29
 108              	.L5:
 109 007e 94F83E10 		ldrb	r1, [r4, #62]	@ zero_extendqisi2
 110 0082 0029     		cmp	r1, #0
 111 0084 F0D0     		beq	.L3
 112 0086 618D     		ldrh	r1, [r4, #42]
 113 0088 89B2     		uxth	r1, r1
 114 008a 0129     		cmp	r1, #1
 115 008c 02BF     		ittt	eq
 116 008e 1968     		ldreq	r1, [r3]
 117 0090 21F48061 		biceq	r1, r1, #1024
 118 0094 1960     		streq	r1, [r3]
 119 0096 5968     		ldr	r1, [r3, #4]
ARM GAS  /tmp/ccN79Q8s.s 			page 3


 120 0098 12F5803F 		cmn	r2, #65536
 121 009c 21F44071 		bic	r1, r1, #768
 122 00a0 5960     		str	r1, [r3, #4]
 123 00a2 06D0     		beq	.L10
 124 00a4 082A     		cmp	r2, #8
 125 00a6 04D0     		beq	.L10
 126 00a8 B2F12A4F 		cmp	r2, #-1442840576
 127 00ac 01D0     		beq	.L10
 128 00ae 202A     		cmp	r2, #32
 129 00b0 03D1     		bne	.L11
 130              	.L10:
 131 00b2 1A68     		ldr	r2, [r3]
 132 00b4 42F40072 		orr	r2, r2, #512
 133 00b8 1A60     		str	r2, [r3]
 134              	.L11:
 135 00ba 5A68     		ldr	r2, [r3, #4]
 136 00bc 22F48052 		bic	r2, r2, #4096
 137 00c0 5A60     		str	r2, [r3, #4]
 138 00c2 5A68     		ldr	r2, [r3, #4]
 139 00c4 22F40062 		bic	r2, r2, #2048
 140 00c8 5A60     		str	r2, [r3, #4]
 141 00ca 0023     		movs	r3, #0
 142 00cc 6385     		strh	r3, [r4, #42]	@ movhi
 143 00ce 236C     		ldr	r3, [r4, #64]
 144 00d0 23B1     		cbz	r3, .L12
 145 00d2 236F     		ldr	r3, [r4, #112]
 146              	.L30:
 147 00d4 2046     		mov	r0, r4
 148 00d6 BDE8F041 		pop	{r4, r5, r6, r7, r8, lr}
 149 00da 1847     		bx	r3	@ indirect register sibling call
 150              	.L12:
 151 00dc 2022     		movs	r2, #32
 152 00de 84F83D20 		strb	r2, [r4, #61]
 153 00e2 94F83E20 		ldrb	r2, [r4, #62]	@ zero_extendqisi2
 154 00e6 84F83E30 		strb	r3, [r4, #62]
 155 00ea 402A     		cmp	r2, #64
 156 00ec 15BF     		itete	ne
 157 00ee 1223     		movne	r3, #18
 158 00f0 2363     		streq	r3, [r4, #48]
 159 00f2 2363     		strne	r3, [r4, #48]
 160 00f4 E36E     		ldreq	r3, [r4, #108]
 161 00f6 18BF     		it	ne
 162 00f8 A36D     		ldrne	r3, [r4, #88]
 163 00fa EBE7     		b	.L30
 165              		.section	.text.I2C_DMAError,"ax",%progbits
 166              		.align	1
 167              		.syntax unified
 168              		.thumb
 169              		.thumb_func
 170              		.fpu softvfp
 172              	I2C_DMAError:
 173              		@ args = 0, pretend = 0, frame = 0
 174              		@ frame_needed = 0, uses_anonymous_args = 0
 175              		@ link register save eliminated.
 176 0000 0023     		movs	r3, #0
 177 0002 406A     		ldr	r0, [r0, #36]
 178 0004 426B     		ldr	r2, [r0, #52]
ARM GAS  /tmp/ccN79Q8s.s 			page 4


 179 0006 0168     		ldr	r1, [r0]
 180 0008 9362     		str	r3, [r2, #40]
 181 000a 826B     		ldr	r2, [r0, #56]
 182 000c 9362     		str	r3, [r2, #40]
 183 000e 0A68     		ldr	r2, [r1]
 184 0010 22F48062 		bic	r2, r2, #1024
 185 0014 0A60     		str	r2, [r1]
 186 0016 2022     		movs	r2, #32
 187 0018 4385     		strh	r3, [r0, #42]	@ movhi
 188 001a 80F83D20 		strb	r2, [r0, #61]
 189 001e 80F83E30 		strb	r3, [r0, #62]
 190 0022 036C     		ldr	r3, [r0, #64]
 191 0024 43F01003 		orr	r3, r3, #16
 192 0028 0364     		str	r3, [r0, #64]
 193 002a 036F     		ldr	r3, [r0, #112]
 194 002c 1847     		bx	r3	@ indirect register sibling call
 196              		.section	.text.I2C_DMAAbort,"ax",%progbits
 197              		.align	1
 198              		.syntax unified
 199              		.thumb
 200              		.thumb_func
 201              		.fpu softvfp
 203              	I2C_DMAAbort:
 204              		@ args = 0, pretend = 0, frame = 0
 205              		@ frame_needed = 0, uses_anonymous_args = 0
 206              		@ link register save eliminated.
 207 0000 0023     		movs	r3, #0
 208 0002 70B4     		push	{r4, r5, r6}
 209 0004 406A     		ldr	r0, [r0, #36]
 210 0006 0268     		ldr	r2, [r0]
 211 0008 90F83D10 		ldrb	r1, [r0, #61]	@ zero_extendqisi2
 212 000c 1468     		ldr	r4, [r2]
 213 000e 466B     		ldr	r6, [r0, #52]
 214 0010 856B     		ldr	r5, [r0, #56]
 215 0012 24F48064 		bic	r4, r4, #1024
 216 0016 B362     		str	r3, [r6, #40]
 217 0018 AB62     		str	r3, [r5, #40]
 218 001a 1460     		str	r4, [r2]
 219 001c 4385     		strh	r3, [r0, #42]	@ movhi
 220 001e 1468     		ldr	r4, [r2]
 221 0020 7363     		str	r3, [r6, #52]
 222 0022 24F00104 		bic	r4, r4, #1
 223 0026 6B63     		str	r3, [r5, #52]
 224 0028 1460     		str	r4, [r2]
 225 002a 90F83D40 		ldrb	r4, [r0, #61]	@ zero_extendqisi2
 226 002e C9B2     		uxtb	r1, r1
 227 0030 602C     		cmp	r4, #96
 228 0032 08D1     		bne	.L33
 229 0034 2022     		movs	r2, #32
 230 0036 80F83D20 		strb	r2, [r0, #61]
 231 003a 80F83E30 		strb	r3, [r0, #62]
 232 003e 0364     		str	r3, [r0, #64]
 233 0040 436F     		ldr	r3, [r0, #116]
 234              	.L36:
 235 0042 70BC     		pop	{r4, r5, r6}
 236 0044 1847     		bx	r3	@ indirect register sibling call
 237              	.L33:
ARM GAS  /tmp/ccN79Q8s.s 			page 5


 238 0046 01F02801 		and	r1, r1, #40
 239 004a 2829     		cmp	r1, #40
 240 004c 0CD1     		bne	.L34
 241 004e 1468     		ldr	r4, [r2]
 242 0050 44F00104 		orr	r4, r4, #1
 243 0054 1460     		str	r4, [r2]
 244 0056 1468     		ldr	r4, [r2]
 245 0058 44F48064 		orr	r4, r4, #1024
 246 005c 1460     		str	r4, [r2]
 247 005e 0363     		str	r3, [r0, #48]
 248 0060 80F83D10 		strb	r1, [r0, #61]
 249              	.L35:
 250 0064 036F     		ldr	r3, [r0, #112]
 251 0066 ECE7     		b	.L36
 252              	.L34:
 253 0068 2022     		movs	r2, #32
 254 006a 80F83D20 		strb	r2, [r0, #61]
 255 006e 80F83E30 		strb	r3, [r0, #62]
 256 0072 F7E7     		b	.L35
 258              		.section	.text.I2C_IsAcknowledgeFailed,"ax",%progbits
 259              		.align	1
 260              		.syntax unified
 261              		.thumb
 262              		.thumb_func
 263              		.fpu softvfp
 265              	I2C_IsAcknowledgeFailed:
 266              		@ args = 0, pretend = 0, frame = 0
 267              		@ frame_needed = 0, uses_anonymous_args = 0
 268              		@ link register save eliminated.
 269 0000 0168     		ldr	r1, [r0]
 270 0002 0022     		movs	r2, #0
 271 0004 4B69     		ldr	r3, [r1, #20]
 272 0006 13F48063 		ands	r3, r3, #1024
 273 000a 10D0     		beq	.L39
 274 000c 6FF48063 		mvn	r3, #1024
 275 0010 4B61     		str	r3, [r1, #20]
 276 0012 2023     		movs	r3, #32
 277 0014 0263     		str	r2, [r0, #48]
 278 0016 80F83D30 		strb	r3, [r0, #61]
 279 001a 80F83E20 		strb	r2, [r0, #62]
 280 001e 036C     		ldr	r3, [r0, #64]
 281 0020 80F83C20 		strb	r2, [r0, #60]
 282 0024 43F00403 		orr	r3, r3, #4
 283 0028 0364     		str	r3, [r0, #64]
 284 002a 0120     		movs	r0, #1
 285 002c 7047     		bx	lr
 286              	.L39:
 287 002e 1846     		mov	r0, r3
 288 0030 7047     		bx	lr
 290              		.section	.text.I2C_WaitOnMasterAddressFlagUntilTimeout,"ax",%progbits
 291              		.align	1
 292              		.syntax unified
 293              		.thumb
 294              		.thumb_func
 295              		.fpu softvfp
 297              	I2C_WaitOnMasterAddressFlagUntilTimeout:
 298              		@ args = 0, pretend = 0, frame = 0
ARM GAS  /tmp/ccN79Q8s.s 			page 6


 299              		@ frame_needed = 0, uses_anonymous_args = 0
 300 0000 2DE9F041 		push	{r4, r5, r6, r7, r8, lr}
 301 0004 0446     		mov	r4, r0
 302 0006 0F46     		mov	r7, r1
 303 0008 1646     		mov	r6, r2
 304 000a 9846     		mov	r8, r3
 305              	.L41:
 306 000c 2568     		ldr	r5, [r4]
 307              	.L44:
 308 000e 6869     		ldr	r0, [r5, #20]
 309 0010 27EA0000 		bic	r0, r7, r0
 310 0014 80B2     		uxth	r0, r0
 311 0016 B8B1     		cbz	r0, .L43
 312 0018 6B69     		ldr	r3, [r5, #20]
 313 001a 5A05     		lsls	r2, r3, #21
 314 001c 16D5     		bpl	.L42
 315 001e 2B68     		ldr	r3, [r5]
 316 0020 2022     		movs	r2, #32
 317 0022 43F40073 		orr	r3, r3, #512
 318 0026 2B60     		str	r3, [r5]
 319 0028 6FF48063 		mvn	r3, #1024
 320 002c 6B61     		str	r3, [r5, #20]
 321 002e 0023     		movs	r3, #0
 322 0030 2363     		str	r3, [r4, #48]
 323 0032 84F83D20 		strb	r2, [r4, #61]
 324 0036 84F83E30 		strb	r3, [r4, #62]
 325 003a 226C     		ldr	r2, [r4, #64]
 326 003c 42F00402 		orr	r2, r2, #4
 327              	.L50:
 328 0040 0120     		movs	r0, #1
 329 0042 2264     		str	r2, [r4, #64]
 330 0044 84F83C30 		strb	r3, [r4, #60]
 331              	.L43:
 332 0048 BDE8F081 		pop	{r4, r5, r6, r7, r8, pc}
 333              	.L42:
 334 004c 731C     		adds	r3, r6, #1
 335 004e DED0     		beq	.L44
 336 0050 FFF7FEFF 		bl	HAL_GetTick
 337 0054 A0EB0800 		sub	r0, r0, r8
 338 0058 B042     		cmp	r0, r6
 339 005a 01D8     		bhi	.L45
 340 005c 002E     		cmp	r6, #0
 341 005e D5D1     		bne	.L41
 342              	.L45:
 343 0060 0023     		movs	r3, #0
 344 0062 2022     		movs	r2, #32
 345 0064 2363     		str	r3, [r4, #48]
 346 0066 84F83D20 		strb	r2, [r4, #61]
 347 006a 84F83E30 		strb	r3, [r4, #62]
 348 006e 226C     		ldr	r2, [r4, #64]
 349 0070 42F02002 		orr	r2, r2, #32
 350 0074 E4E7     		b	.L50
 352              		.section	.text.I2C_ITError,"ax",%progbits
 353              		.align	1
 354              		.syntax unified
 355              		.thumb
 356              		.thumb_func
ARM GAS  /tmp/ccN79Q8s.s 			page 7


 357              		.fpu softvfp
 359              	I2C_ITError:
 360              		@ args = 0, pretend = 0, frame = 0
 361              		@ frame_needed = 0, uses_anonymous_args = 0
 362 0000 10B5     		push	{r4, lr}
 363 0002 90F83D20 		ldrb	r2, [r0, #61]	@ zero_extendqisi2
 364 0006 90F83E10 		ldrb	r1, [r0, #62]	@ zero_extendqisi2
 365 000a 0446     		mov	r4, r0
 366 000c 1029     		cmp	r1, #16
 367 000e 0368     		ldr	r3, [r0]
 368 0010 D2B2     		uxtb	r2, r2
 369 0012 12D1     		bne	.L52
 370 0014 222A     		cmp	r2, #34
 371 0016 10D1     		bne	.L52
 372 0018 1968     		ldr	r1, [r3]
 373 001a 21F40061 		bic	r1, r1, #2048
 374 001e 1960     		str	r1, [r3]
 375              	.L53:
 376 0020 5968     		ldr	r1, [r3, #4]
 377 0022 0905     		lsls	r1, r1, #20
 378 0024 04D4     		bmi	.L55
 379 0026 602A     		cmp	r2, #96
 380 0028 1CBF     		itt	ne
 381 002a 2022     		movne	r2, #32
 382 002c 84F83D20 		strbne	r2, [r4, #61]
 383              	.L55:
 384 0030 0022     		movs	r2, #0
 385 0032 2263     		str	r2, [r4, #48]
 386 0034 84F83E20 		strb	r2, [r4, #62]
 387 0038 07E0     		b	.L54
 388              	.L52:
 389 003a 02F02801 		and	r1, r2, #40
 390 003e 2829     		cmp	r1, #40
 391 0040 EED1     		bne	.L53
 392 0042 0022     		movs	r2, #0
 393 0044 2263     		str	r2, [r4, #48]
 394 0046 84F83D10 		strb	r1, [r4, #61]
 395              	.L54:
 396 004a 5A68     		ldr	r2, [r3, #4]
 397 004c 12F40062 		ands	r2, r2, #2048
 398 0050 4DD0     		beq	.L56
 399 0052 5A68     		ldr	r2, [r3, #4]
 400 0054 606B     		ldr	r0, [r4, #52]
 401 0056 22F40062 		bic	r2, r2, #2048
 402 005a 5A60     		str	r2, [r3, #4]
 403 005c 90F82130 		ldrb	r3, [r0, #33]	@ zero_extendqisi2
 404 0060 012B     		cmp	r3, #1
 405 0062 354B     		ldr	r3, .L87
 406 0064 29D0     		beq	.L57
 407 0066 4363     		str	r3, [r0, #52]
 408 0068 FFF7FEFF 		bl	HAL_DMA_Abort_IT
 409 006c 50B1     		cbz	r0, .L59
 410 006e 2268     		ldr	r2, [r4]
 411 0070 606B     		ldr	r0, [r4, #52]
 412 0072 1368     		ldr	r3, [r2]
 413 0074 23F00103 		bic	r3, r3, #1
 414 0078 1360     		str	r3, [r2]
ARM GAS  /tmp/ccN79Q8s.s 			page 8


 415 007a 2023     		movs	r3, #32
 416 007c 84F83D30 		strb	r3, [r4, #61]
 417              	.L86:
 418 0080 436B     		ldr	r3, [r0, #52]
 419              	.L84:
 420 0082 9847     		blx	r3
 421              	.L59:
 422 0084 94F83D30 		ldrb	r3, [r4, #61]	@ zero_extendqisi2
 423 0088 226C     		ldr	r2, [r4, #64]
 424 008a DBB2     		uxtb	r3, r3
 425 008c 5207     		lsls	r2, r2, #29
 426 008e 52D5     		bpl	.L51
 427 0090 282B     		cmp	r3, #40
 428 0092 50D1     		bne	.L51
 429 0094 2268     		ldr	r2, [r4]
 430 0096 2046     		mov	r0, r4
 431 0098 5368     		ldr	r3, [r2, #4]
 432 009a 23F4E063 		bic	r3, r3, #1792
 433 009e 5360     		str	r3, [r2, #4]
 434 00a0 264B     		ldr	r3, .L87+4
 435 00a2 2022     		movs	r2, #32
 436 00a4 E362     		str	r3, [r4, #44]
 437 00a6 0023     		movs	r3, #0
 438 00a8 2363     		str	r3, [r4, #48]
 439 00aa 84F83D20 		strb	r2, [r4, #61]
 440 00ae 84F83E30 		strb	r3, [r4, #62]
 441 00b2 636E     		ldr	r3, [r4, #100]
 442 00b4 BDE81040 		pop	{r4, lr}
 443 00b8 1847     		bx	r3	@ indirect register sibling call
 444              	.L57:
 445 00ba A06B     		ldr	r0, [r4, #56]
 446 00bc 4363     		str	r3, [r0, #52]
 447 00be FFF7FEFF 		bl	HAL_DMA_Abort_IT
 448 00c2 0028     		cmp	r0, #0
 449 00c4 DED0     		beq	.L59
 450 00c6 2368     		ldr	r3, [r4]
 451 00c8 5A69     		ldr	r2, [r3, #20]
 452 00ca 5206     		lsls	r2, r2, #25
 453 00cc 05D5     		bpl	.L61
 454 00ce 1A69     		ldr	r2, [r3, #16]
 455 00d0 636A     		ldr	r3, [r4, #36]
 456 00d2 1A70     		strb	r2, [r3]
 457 00d4 636A     		ldr	r3, [r4, #36]
 458 00d6 0133     		adds	r3, r3, #1
 459 00d8 6362     		str	r3, [r4, #36]
 460              	.L61:
 461 00da 2268     		ldr	r2, [r4]
 462 00dc A06B     		ldr	r0, [r4, #56]
 463 00de 1368     		ldr	r3, [r2]
 464 00e0 23F00103 		bic	r3, r3, #1
 465 00e4 1360     		str	r3, [r2]
 466 00e6 2023     		movs	r3, #32
 467 00e8 84F83D30 		strb	r3, [r4, #61]
 468 00ec C8E7     		b	.L86
 469              	.L56:
 470 00ee 94F83D10 		ldrb	r1, [r4, #61]	@ zero_extendqisi2
 471 00f2 6029     		cmp	r1, #96
ARM GAS  /tmp/ccN79Q8s.s 			page 9


 472 00f4 14D1     		bne	.L62
 473 00f6 2021     		movs	r1, #32
 474 00f8 84F83D10 		strb	r1, [r4, #61]
 475 00fc 2264     		str	r2, [r4, #64]
 476 00fe 5A69     		ldr	r2, [r3, #20]
 477 0100 5006     		lsls	r0, r2, #25
 478 0102 05D5     		bpl	.L63
 479 0104 1A69     		ldr	r2, [r3, #16]
 480 0106 636A     		ldr	r3, [r4, #36]
 481 0108 1A70     		strb	r2, [r3]
 482 010a 636A     		ldr	r3, [r4, #36]
 483 010c 0133     		adds	r3, r3, #1
 484 010e 6362     		str	r3, [r4, #36]
 485              	.L63:
 486 0110 2268     		ldr	r2, [r4]
 487 0112 1368     		ldr	r3, [r2]
 488 0114 23F00103 		bic	r3, r3, #1
 489 0118 1360     		str	r3, [r2]
 490 011a 636F     		ldr	r3, [r4, #116]
 491              	.L85:
 492 011c 2046     		mov	r0, r4
 493 011e B0E7     		b	.L84
 494              	.L62:
 495 0120 5A69     		ldr	r2, [r3, #20]
 496 0122 5106     		lsls	r1, r2, #25
 497 0124 05D5     		bpl	.L64
 498 0126 1A69     		ldr	r2, [r3, #16]
 499 0128 636A     		ldr	r3, [r4, #36]
 500 012a 1A70     		strb	r2, [r3]
 501 012c 636A     		ldr	r3, [r4, #36]
 502 012e 0133     		adds	r3, r3, #1
 503 0130 6362     		str	r3, [r4, #36]
 504              	.L64:
 505 0132 236F     		ldr	r3, [r4, #112]
 506 0134 F2E7     		b	.L85
 507              	.L51:
 508 0136 10BD     		pop	{r4, pc}
 509              	.L88:
 510              		.align	2
 511              	.L87:
 512 0138 00000000 		.word	I2C_DMAAbort
 513 013c 0000FFFF 		.word	-65536
 515              		.section	.text.I2C_WaitOnBTFFlagUntilTimeout,"ax",%progbits
 516              		.align	1
 517              		.syntax unified
 518              		.thumb
 519              		.thumb_func
 520              		.fpu softvfp
 522              	I2C_WaitOnBTFFlagUntilTimeout:
 523              		@ args = 0, pretend = 0, frame = 0
 524              		@ frame_needed = 0, uses_anonymous_args = 0
 525 0000 70B5     		push	{r4, r5, r6, lr}
 526 0002 0446     		mov	r4, r0
 527 0004 0D46     		mov	r5, r1
 528 0006 1646     		mov	r6, r2
 529              	.L92:
 530 0008 2368     		ldr	r3, [r4]
ARM GAS  /tmp/ccN79Q8s.s 			page 10


 531 000a 5B69     		ldr	r3, [r3, #20]
 532 000c 5B07     		lsls	r3, r3, #29
 533 000e 01D5     		bpl	.L94
 534 0010 0020     		movs	r0, #0
 535              	.L91:
 536 0012 70BD     		pop	{r4, r5, r6, pc}
 537              	.L94:
 538 0014 2046     		mov	r0, r4
 539 0016 FFF7FEFF 		bl	I2C_IsAcknowledgeFailed
 540 001a A8B9     		cbnz	r0, .L95
 541 001c 6A1C     		adds	r2, r5, #1
 542 001e F3D0     		beq	.L92
 543 0020 FFF7FEFF 		bl	HAL_GetTick
 544 0024 801B     		subs	r0, r0, r6
 545 0026 A842     		cmp	r0, r5
 546 0028 01D8     		bhi	.L93
 547 002a 002D     		cmp	r5, #0
 548 002c ECD1     		bne	.L92
 549              	.L93:
 550 002e 0023     		movs	r3, #0
 551 0030 2022     		movs	r2, #32
 552 0032 2363     		str	r3, [r4, #48]
 553 0034 84F83D20 		strb	r2, [r4, #61]
 554 0038 84F83E30 		strb	r3, [r4, #62]
 555 003c 226C     		ldr	r2, [r4, #64]
 556 003e 84F83C30 		strb	r3, [r4, #60]
 557 0042 42F02002 		orr	r2, r2, #32
 558 0046 2264     		str	r2, [r4, #64]
 559              	.L95:
 560 0048 0120     		movs	r0, #1
 561 004a E2E7     		b	.L91
 563              		.section	.text.HAL_I2C_AbortCpltCallback,"ax",%progbits
 564              		.align	1
 565              		.weak	HAL_I2C_AbortCpltCallback
 566              		.syntax unified
 567              		.thumb
 568              		.thumb_func
 569              		.fpu softvfp
 571              	HAL_I2C_AbortCpltCallback:
 572              		@ args = 0, pretend = 0, frame = 0
 573              		@ frame_needed = 0, uses_anonymous_args = 0
 574              		@ link register save eliminated.
 575 0000 7047     		bx	lr
 577              		.section	.text.HAL_I2C_MspDeInit,"ax",%progbits
 578              		.align	1
 579              		.weak	HAL_I2C_MspDeInit
 580              		.syntax unified
 581              		.thumb
 582              		.thumb_func
 583              		.fpu softvfp
 585              	HAL_I2C_MspDeInit:
 586              		@ args = 0, pretend = 0, frame = 0
 587              		@ frame_needed = 0, uses_anonymous_args = 0
 588              		@ link register save eliminated.
 589 0000 7047     		bx	lr
 591              		.section	.text.HAL_I2C_MasterTxCpltCallback,"ax",%progbits
 592              		.align	1
ARM GAS  /tmp/ccN79Q8s.s 			page 11


 593              		.weak	HAL_I2C_MasterTxCpltCallback
 594              		.syntax unified
 595              		.thumb
 596              		.thumb_func
 597              		.fpu softvfp
 599              	HAL_I2C_MasterTxCpltCallback:
 600              		@ args = 0, pretend = 0, frame = 0
 601              		@ frame_needed = 0, uses_anonymous_args = 0
 602              		@ link register save eliminated.
 603 0000 7047     		bx	lr
 605              		.section	.text.HAL_I2C_MasterRxCpltCallback,"ax",%progbits
 606              		.align	1
 607              		.weak	HAL_I2C_MasterRxCpltCallback
 608              		.syntax unified
 609              		.thumb
 610              		.thumb_func
 611              		.fpu softvfp
 613              	HAL_I2C_MasterRxCpltCallback:
 614              		@ args = 0, pretend = 0, frame = 0
 615              		@ frame_needed = 0, uses_anonymous_args = 0
 616              		@ link register save eliminated.
 617 0000 7047     		bx	lr
 619              		.section	.text.HAL_I2C_SlaveTxCpltCallback,"ax",%progbits
 620              		.align	1
 621              		.weak	HAL_I2C_SlaveTxCpltCallback
 622              		.syntax unified
 623              		.thumb
 624              		.thumb_func
 625              		.fpu softvfp
 627              	HAL_I2C_SlaveTxCpltCallback:
 628              		@ args = 0, pretend = 0, frame = 0
 629              		@ frame_needed = 0, uses_anonymous_args = 0
 630              		@ link register save eliminated.
 631 0000 7047     		bx	lr
 633              		.section	.text.HAL_I2C_SlaveRxCpltCallback,"ax",%progbits
 634              		.align	1
 635              		.weak	HAL_I2C_SlaveRxCpltCallback
 636              		.syntax unified
 637              		.thumb
 638              		.thumb_func
 639              		.fpu softvfp
 641              	HAL_I2C_SlaveRxCpltCallback:
 642              		@ args = 0, pretend = 0, frame = 0
 643              		@ frame_needed = 0, uses_anonymous_args = 0
 644              		@ link register save eliminated.
 645 0000 7047     		bx	lr
 647              		.section	.text.HAL_I2C_ListenCpltCallback,"ax",%progbits
 648              		.align	1
 649              		.weak	HAL_I2C_ListenCpltCallback
 650              		.syntax unified
 651              		.thumb
 652              		.thumb_func
 653              		.fpu softvfp
 655              	HAL_I2C_ListenCpltCallback:
 656              		@ args = 0, pretend = 0, frame = 0
 657              		@ frame_needed = 0, uses_anonymous_args = 0
 658              		@ link register save eliminated.
ARM GAS  /tmp/ccN79Q8s.s 			page 12


 659 0000 7047     		bx	lr
 661              		.section	.text.HAL_I2C_MemTxCpltCallback,"ax",%progbits
 662              		.align	1
 663              		.weak	HAL_I2C_MemTxCpltCallback
 664              		.syntax unified
 665              		.thumb
 666              		.thumb_func
 667              		.fpu softvfp
 669              	HAL_I2C_MemTxCpltCallback:
 670              		@ args = 0, pretend = 0, frame = 0
 671              		@ frame_needed = 0, uses_anonymous_args = 0
 672              		@ link register save eliminated.
 673 0000 7047     		bx	lr
 675              		.section	.text.HAL_I2C_MemRxCpltCallback,"ax",%progbits
 676              		.align	1
 677              		.weak	HAL_I2C_MemRxCpltCallback
 678              		.syntax unified
 679              		.thumb
 680              		.thumb_func
 681              		.fpu softvfp
 683              	HAL_I2C_MemRxCpltCallback:
 684              		@ args = 0, pretend = 0, frame = 0
 685              		@ frame_needed = 0, uses_anonymous_args = 0
 686              		@ link register save eliminated.
 687 0000 7047     		bx	lr
 689              		.section	.text.HAL_I2C_ErrorCallback,"ax",%progbits
 690              		.align	1
 691              		.weak	HAL_I2C_ErrorCallback
 692              		.syntax unified
 693              		.thumb
 694              		.thumb_func
 695              		.fpu softvfp
 697              	HAL_I2C_ErrorCallback:
 698              		@ args = 0, pretend = 0, frame = 0
 699              		@ frame_needed = 0, uses_anonymous_args = 0
 700              		@ link register save eliminated.
 701 0000 7047     		bx	lr
 703              		.section	.text.I2C_WaitOnRXNEFlagUntilTimeout,"ax",%progbits
 704              		.align	1
 705              		.syntax unified
 706              		.thumb
 707              		.thumb_func
 708              		.fpu softvfp
 710              	I2C_WaitOnRXNEFlagUntilTimeout:
 711              		@ args = 0, pretend = 0, frame = 0
 712              		@ frame_needed = 0, uses_anonymous_args = 0
 713 0000 70B5     		push	{r4, r5, r6, lr}
 714 0002 0446     		mov	r4, r0
 715 0004 0D46     		mov	r5, r1
 716 0006 1646     		mov	r6, r2
 717              	.L110:
 718 0008 2168     		ldr	r1, [r4]
 719 000a 4B69     		ldr	r3, [r1, #20]
 720 000c 13F04003 		ands	r3, r3, #64
 721 0010 01D0     		beq	.L114
 722 0012 0020     		movs	r0, #0
 723 0014 10E0     		b	.L112
ARM GAS  /tmp/ccN79Q8s.s 			page 13


 724              	.L114:
 725 0016 4A69     		ldr	r2, [r1, #20]
 726 0018 D206     		lsls	r2, r2, #27
 727 001a 0ED5     		bpl	.L111
 728 001c 6FF01002 		mvn	r2, #16
 729 0020 4A61     		str	r2, [r1, #20]
 730 0022 2022     		movs	r2, #32
 731 0024 2363     		str	r3, [r4, #48]
 732 0026 84F83D20 		strb	r2, [r4, #61]
 733 002a 84F83E30 		strb	r3, [r4, #62]
 734 002e 226C     		ldr	r2, [r4, #64]
 735              	.L116:
 736 0030 0120     		movs	r0, #1
 737 0032 2264     		str	r2, [r4, #64]
 738 0034 84F83C30 		strb	r3, [r4, #60]
 739              	.L112:
 740 0038 70BD     		pop	{r4, r5, r6, pc}
 741              	.L111:
 742 003a FFF7FEFF 		bl	HAL_GetTick
 743 003e 801B     		subs	r0, r0, r6
 744 0040 A842     		cmp	r0, r5
 745 0042 01D8     		bhi	.L113
 746 0044 002D     		cmp	r5, #0
 747 0046 DFD1     		bne	.L110
 748              	.L113:
 749 0048 0023     		movs	r3, #0
 750 004a 2022     		movs	r2, #32
 751 004c 2363     		str	r3, [r4, #48]
 752 004e 84F83D20 		strb	r2, [r4, #61]
 753 0052 84F83E30 		strb	r3, [r4, #62]
 754 0056 226C     		ldr	r2, [r4, #64]
 755 0058 42F02002 		orr	r2, r2, #32
 756 005c E8E7     		b	.L116
 758              		.section	.text.I2C_WaitOnFlagUntilTimeout,"ax",%progbits
 759              		.align	1
 760              		.syntax unified
 761              		.thumb
 762              		.thumb_func
 763              		.fpu softvfp
 765              	I2C_WaitOnFlagUntilTimeout:
 766              		@ args = 4, pretend = 0, frame = 0
 767              		@ frame_needed = 0, uses_anonymous_args = 0
 768 0000 2DE9F846 		push	{r3, r4, r5, r6, r7, r9, r10, lr}
 769 0004 0646     		mov	r6, r0
 770 0006 0F46     		mov	r7, r1
 771 0008 9146     		mov	r9, r2
 772 000a 1D46     		mov	r5, r3
 773 000c 4FEA114A 		lsr	r10, r1, #16
 774              	.L118:
 775 0010 3368     		ldr	r3, [r6]
 776              	.L119:
 777 0012 BAF1010F 		cmp	r10, #1
 778 0016 0CBF     		ite	eq
 779 0018 5C69     		ldreq	r4, [r3, #20]
 780 001a 9C69     		ldrne	r4, [r3, #24]
 781 001c 27EA0404 		bic	r4, r7, r4
 782 0020 A4B2     		uxth	r4, r4
ARM GAS  /tmp/ccN79Q8s.s 			page 14


 783 0022 B4FA84F4 		clz	r4, r4
 784 0026 6409     		lsrs	r4, r4, #5
 785 0028 A145     		cmp	r9, r4
 786 002a 01D0     		beq	.L124
 787 002c 0020     		movs	r0, #0
 788 002e 17E0     		b	.L121
 789              	.L124:
 790 0030 6A1C     		adds	r2, r5, #1
 791 0032 EED0     		beq	.L119
 792 0034 FFF7FEFF 		bl	HAL_GetTick
 793 0038 089B     		ldr	r3, [sp, #32]
 794 003a C01A     		subs	r0, r0, r3
 795 003c A842     		cmp	r0, r5
 796 003e 01D8     		bhi	.L120
 797 0040 002D     		cmp	r5, #0
 798 0042 E5D1     		bne	.L118
 799              	.L120:
 800 0044 0023     		movs	r3, #0
 801 0046 2022     		movs	r2, #32
 802 0048 0120     		movs	r0, #1
 803 004a 3363     		str	r3, [r6, #48]
 804 004c 86F83D20 		strb	r2, [r6, #61]
 805 0050 86F83E30 		strb	r3, [r6, #62]
 806 0054 326C     		ldr	r2, [r6, #64]
 807 0056 86F83C30 		strb	r3, [r6, #60]
 808 005a 42F02002 		orr	r2, r2, #32
 809 005e 3264     		str	r2, [r6, #64]
 810              	.L121:
 811 0060 BDE8F886 		pop	{r3, r4, r5, r6, r7, r9, r10, pc}
 813              		.section	.text.I2C_WaitOnTXEFlagUntilTimeout,"ax",%progbits
 814              		.align	1
 815              		.syntax unified
 816              		.thumb
 817              		.thumb_func
 818              		.fpu softvfp
 820              	I2C_WaitOnTXEFlagUntilTimeout:
 821              		@ args = 0, pretend = 0, frame = 0
 822              		@ frame_needed = 0, uses_anonymous_args = 0
 823 0000 70B5     		push	{r4, r5, r6, lr}
 824 0002 0446     		mov	r4, r0
 825 0004 0D46     		mov	r5, r1
 826 0006 1646     		mov	r6, r2
 827              	.L132:
 828 0008 2368     		ldr	r3, [r4]
 829 000a 5B69     		ldr	r3, [r3, #20]
 830 000c 1B06     		lsls	r3, r3, #24
 831 000e 01D5     		bpl	.L134
 832 0010 0020     		movs	r0, #0
 833              	.L131:
 834 0012 70BD     		pop	{r4, r5, r6, pc}
 835              	.L134:
 836 0014 2046     		mov	r0, r4
 837 0016 FFF7FEFF 		bl	I2C_IsAcknowledgeFailed
 838 001a A8B9     		cbnz	r0, .L135
 839 001c 6A1C     		adds	r2, r5, #1
 840 001e F3D0     		beq	.L132
 841 0020 FFF7FEFF 		bl	HAL_GetTick
ARM GAS  /tmp/ccN79Q8s.s 			page 15


 842 0024 801B     		subs	r0, r0, r6
 843 0026 A842     		cmp	r0, r5
 844 0028 01D8     		bhi	.L133
 845 002a 002D     		cmp	r5, #0
 846 002c ECD1     		bne	.L132
 847              	.L133:
 848 002e 0023     		movs	r3, #0
 849 0030 2022     		movs	r2, #32
 850 0032 2363     		str	r3, [r4, #48]
 851 0034 84F83D20 		strb	r2, [r4, #61]
 852 0038 84F83E30 		strb	r3, [r4, #62]
 853 003c 226C     		ldr	r2, [r4, #64]
 854 003e 84F83C30 		strb	r3, [r4, #60]
 855 0042 42F02002 		orr	r2, r2, #32
 856 0046 2264     		str	r2, [r4, #64]
 857              	.L135:
 858 0048 0120     		movs	r0, #1
 859 004a E2E7     		b	.L131
 861              		.section	.text.I2C_RequestMemoryWrite,"ax",%progbits
 862              		.align	1
 863              		.syntax unified
 864              		.thumb
 865              		.thumb_func
 866              		.fpu softvfp
 868              	I2C_RequestMemoryWrite:
 869              		@ args = 8, pretend = 0, frame = 8
 870              		@ frame_needed = 0, uses_anonymous_args = 0
 871 0000 2DE9F043 		push	{r4, r5, r6, r7, r8, r9, lr}
 872 0004 1546     		mov	r5, r2
 873 0006 0268     		ldr	r2, [r0]
 874 0008 9946     		mov	r9, r3
 875 000a 1368     		ldr	r3, [r2]
 876 000c 85B0     		sub	sp, sp, #20
 877 000e 43F48073 		orr	r3, r3, #256
 878 0012 1360     		str	r3, [r2]
 879 0014 DDE90C78 		ldrd	r7, r8, [sp, #48]
 880 0018 0E46     		mov	r6, r1
 881 001a 3B46     		mov	r3, r7
 882 001c 0022     		movs	r2, #0
 883 001e 4FF00111 		mov	r1, #65537
 884 0022 CDF80080 		str	r8, [sp]
 885 0026 0446     		mov	r4, r0
 886 0028 FFF7FEFF 		bl	I2C_WaitOnFlagUntilTimeout
 887 002c 18B1     		cbz	r0, .L140
 888              	.L148:
 889 002e 0120     		movs	r0, #1
 890              	.L141:
 891 0030 05B0     		add	sp, sp, #20
 892              		@ sp needed
 893 0032 BDE8F083 		pop	{r4, r5, r6, r7, r8, r9, pc}
 894              	.L140:
 895 0036 2368     		ldr	r3, [r4]
 896 0038 06F0FE06 		and	r6, r6, #254
 897 003c 1E61     		str	r6, [r3, #16]
 898 003e 3A46     		mov	r2, r7
 899 0040 4346     		mov	r3, r8
 900 0042 2046     		mov	r0, r4
ARM GAS  /tmp/ccN79Q8s.s 			page 16


 901 0044 1649     		ldr	r1, .L151
 902 0046 FFF7FEFF 		bl	I2C_WaitOnMasterAddressFlagUntilTimeout
 903 004a 0028     		cmp	r0, #0
 904 004c EFD1     		bne	.L148
 905 004e 2368     		ldr	r3, [r4]
 906 0050 0390     		str	r0, [sp, #12]
 907 0052 5A69     		ldr	r2, [r3, #20]
 908 0054 3946     		mov	r1, r7
 909 0056 0392     		str	r2, [sp, #12]
 910 0058 9B69     		ldr	r3, [r3, #24]
 911 005a 4246     		mov	r2, r8
 912 005c 0393     		str	r3, [sp, #12]
 913 005e 2046     		mov	r0, r4
 914 0060 039B     		ldr	r3, [sp, #12]
 915 0062 FFF7FEFF 		bl	I2C_WaitOnTXEFlagUntilTimeout
 916 0066 40B1     		cbz	r0, .L143
 917              	.L150:
 918 0068 236C     		ldr	r3, [r4, #64]
 919 006a 042B     		cmp	r3, #4
 920 006c 01BF     		itttt	eq
 921 006e 2268     		ldreq	r2, [r4]
 922 0070 1368     		ldreq	r3, [r2]
 923 0072 43F40073 		orreq	r3, r3, #512
 924 0076 1360     		streq	r3, [r2]
 925 0078 D9E7     		b	.L148
 926              	.L143:
 927 007a B9F1010F 		cmp	r9, #1
 928 007e 2368     		ldr	r3, [r4]
 929 0080 02D1     		bne	.L144
 930              	.L146:
 931 0082 EDB2     		uxtb	r5, r5
 932 0084 1D61     		str	r5, [r3, #16]
 933 0086 D3E7     		b	.L141
 934              	.L144:
 935 0088 2A0A     		lsrs	r2, r5, #8
 936 008a 1A61     		str	r2, [r3, #16]
 937 008c 3946     		mov	r1, r7
 938 008e 4246     		mov	r2, r8
 939 0090 2046     		mov	r0, r4
 940 0092 FFF7FEFF 		bl	I2C_WaitOnTXEFlagUntilTimeout
 941 0096 0028     		cmp	r0, #0
 942 0098 E6D1     		bne	.L150
 943 009a 2368     		ldr	r3, [r4]
 944 009c F1E7     		b	.L146
 945              	.L152:
 946 009e 00BF     		.align	2
 947              	.L151:
 948 00a0 02000100 		.word	65538
 950              		.section	.text.I2C_RequestMemoryRead,"ax",%progbits
 951              		.align	1
 952              		.syntax unified
 953              		.thumb
 954              		.thumb_func
 955              		.fpu softvfp
 957              	I2C_RequestMemoryRead:
 958              		@ args = 8, pretend = 0, frame = 8
 959              		@ frame_needed = 0, uses_anonymous_args = 0
ARM GAS  /tmp/ccN79Q8s.s 			page 17


 960 0000 2DE9FF47 		push	{r0, r1, r2, r3, r4, r5, r6, r7, r8, r9, r10, lr}
 961 0004 9A46     		mov	r10, r3
 962 0006 DDE90C78 		ldrd	r7, r8, [sp, #48]
 963 000a 0368     		ldr	r3, [r0]
 964 000c 1546     		mov	r5, r2
 965 000e 1A68     		ldr	r2, [r3]
 966 0010 0E46     		mov	r6, r1
 967 0012 42F48062 		orr	r2, r2, #1024
 968 0016 1A60     		str	r2, [r3]
 969 0018 1A68     		ldr	r2, [r3]
 970 001a 4FF00111 		mov	r1, #65537
 971 001e 42F48072 		orr	r2, r2, #256
 972 0022 1A60     		str	r2, [r3]
 973 0024 3B46     		mov	r3, r7
 974 0026 0022     		movs	r2, #0
 975 0028 CDF80080 		str	r8, [sp]
 976 002c 0446     		mov	r4, r0
 977 002e FFF7FEFF 		bl	I2C_WaitOnFlagUntilTimeout
 978 0032 18B1     		cbz	r0, .L154
 979              	.L164:
 980 0034 0120     		movs	r0, #1
 981              	.L155:
 982 0036 04B0     		add	sp, sp, #16
 983              		@ sp needed
 984 0038 BDE8F087 		pop	{r4, r5, r6, r7, r8, r9, r10, pc}
 985              	.L154:
 986 003c 2368     		ldr	r3, [r4]
 987 003e 5FFA86F9 		uxtb	r9, r6
 988 0042 06F0FE06 		and	r6, r6, #254
 989 0046 1E61     		str	r6, [r3, #16]
 990 0048 3A46     		mov	r2, r7
 991 004a 4346     		mov	r3, r8
 992 004c 2046     		mov	r0, r4
 993 004e 2849     		ldr	r1, .L169
 994 0050 FFF7FEFF 		bl	I2C_WaitOnMasterAddressFlagUntilTimeout
 995 0054 0028     		cmp	r0, #0
 996 0056 EDD1     		bne	.L164
 997 0058 2368     		ldr	r3, [r4]
 998 005a 0390     		str	r0, [sp, #12]
 999 005c 5A69     		ldr	r2, [r3, #20]
 1000 005e 3946     		mov	r1, r7
 1001 0060 0392     		str	r2, [sp, #12]
 1002 0062 9B69     		ldr	r3, [r3, #24]
 1003 0064 4246     		mov	r2, r8
 1004 0066 0393     		str	r3, [sp, #12]
 1005 0068 2046     		mov	r0, r4
 1006 006a 039B     		ldr	r3, [sp, #12]
 1007 006c FFF7FEFF 		bl	I2C_WaitOnTXEFlagUntilTimeout
 1008 0070 40B1     		cbz	r0, .L157
 1009              	.L167:
 1010 0072 236C     		ldr	r3, [r4, #64]
 1011 0074 042B     		cmp	r3, #4
 1012 0076 01BF     		itttt	eq
 1013 0078 2268     		ldreq	r2, [r4]
 1014 007a 1368     		ldreq	r3, [r2]
 1015 007c 43F40073 		orreq	r3, r3, #512
 1016 0080 1360     		streq	r3, [r2]
ARM GAS  /tmp/ccN79Q8s.s 			page 18


 1017 0082 D7E7     		b	.L164
 1018              	.L157:
 1019 0084 BAF1010F 		cmp	r10, #1
 1020 0088 2368     		ldr	r3, [r4]
 1021 008a 26D1     		bne	.L158
 1022              	.L162:
 1023 008c EDB2     		uxtb	r5, r5
 1024 008e 4246     		mov	r2, r8
 1025 0090 3946     		mov	r1, r7
 1026 0092 2046     		mov	r0, r4
 1027 0094 1D61     		str	r5, [r3, #16]
 1028 0096 FFF7FEFF 		bl	I2C_WaitOnTXEFlagUntilTimeout
 1029 009a 0246     		mov	r2, r0
 1030 009c 0028     		cmp	r0, #0
 1031 009e E8D1     		bne	.L167
 1032 00a0 2168     		ldr	r1, [r4]
 1033 00a2 2046     		mov	r0, r4
 1034 00a4 0B68     		ldr	r3, [r1]
 1035 00a6 43F48073 		orr	r3, r3, #256
 1036 00aa 0B60     		str	r3, [r1]
 1037 00ac 3B46     		mov	r3, r7
 1038 00ae 4FF00111 		mov	r1, #65537
 1039 00b2 CDF80080 		str	r8, [sp]
 1040 00b6 FFF7FEFF 		bl	I2C_WaitOnFlagUntilTimeout
 1041 00ba 0028     		cmp	r0, #0
 1042 00bc BAD1     		bne	.L164
 1043 00be 2268     		ldr	r2, [r4]
 1044 00c0 49F00103 		orr	r3, r9, #1
 1045 00c4 1361     		str	r3, [r2, #16]
 1046 00c6 2046     		mov	r0, r4
 1047 00c8 4346     		mov	r3, r8
 1048 00ca 3A46     		mov	r2, r7
 1049 00cc 0849     		ldr	r1, .L169
 1050 00ce FFF7FEFF 		bl	I2C_WaitOnMasterAddressFlagUntilTimeout
 1051 00d2 0038     		subs	r0, r0, #0
 1052 00d4 18BF     		it	ne
 1053 00d6 0120     		movne	r0, #1
 1054 00d8 ADE7     		b	.L155
 1055              	.L158:
 1056 00da 2A0A     		lsrs	r2, r5, #8
 1057 00dc 1A61     		str	r2, [r3, #16]
 1058 00de 3946     		mov	r1, r7
 1059 00e0 4246     		mov	r2, r8
 1060 00e2 2046     		mov	r0, r4
 1061 00e4 FFF7FEFF 		bl	I2C_WaitOnTXEFlagUntilTimeout
 1062 00e8 0028     		cmp	r0, #0
 1063 00ea C2D1     		bne	.L167
 1064 00ec 2368     		ldr	r3, [r4]
 1065 00ee CDE7     		b	.L162
 1066              	.L170:
 1067              		.align	2
 1068              	.L169:
 1069 00f0 02000100 		.word	65538
 1071              		.section	.text.HAL_I2C_Init,"ax",%progbits
 1072              		.align	1
 1073              		.global	HAL_I2C_Init
 1074              		.syntax unified
ARM GAS  /tmp/ccN79Q8s.s 			page 19


 1075              		.thumb
 1076              		.thumb_func
 1077              		.fpu softvfp
 1079              	HAL_I2C_Init:
 1080              		@ args = 0, pretend = 0, frame = 0
 1081              		@ frame_needed = 0, uses_anonymous_args = 0
 1082 0000 70B5     		push	{r4, r5, r6, lr}
 1083 0002 0446     		mov	r4, r0
 1084 0004 08B9     		cbnz	r0, .L172
 1085              	.L178:
 1086 0006 0120     		movs	r0, #1
 1087              	.L173:
 1088 0008 70BD     		pop	{r4, r5, r6, pc}
 1089              	.L172:
 1090 000a 90F83D30 		ldrb	r3, [r0, #61]	@ zero_extendqisi2
 1091 000e 03F0FF02 		and	r2, r3, #255
 1092 0012 E3B9     		cbnz	r3, .L174
 1093 0014 524B     		ldr	r3, .L192
 1094 0016 80F83C20 		strb	r2, [r0, #60]
 1095 001a 4365     		str	r3, [r0, #84]
 1096 001c 514B     		ldr	r3, .L192+4
 1097 001e 8365     		str	r3, [r0, #88]
 1098 0020 514B     		ldr	r3, .L192+8
 1099 0022 C365     		str	r3, [r0, #92]
 1100 0024 514B     		ldr	r3, .L192+12
 1101 0026 0366     		str	r3, [r0, #96]
 1102 0028 514B     		ldr	r3, .L192+16
 1103 002a 4366     		str	r3, [r0, #100]
 1104 002c 514B     		ldr	r3, .L192+20
 1105 002e 8366     		str	r3, [r0, #104]
 1106 0030 514B     		ldr	r3, .L192+24
 1107 0032 C366     		str	r3, [r0, #108]
 1108 0034 514B     		ldr	r3, .L192+28
 1109 0036 0367     		str	r3, [r0, #112]
 1110 0038 514B     		ldr	r3, .L192+32
 1111 003a 4367     		str	r3, [r0, #116]
 1112 003c 514B     		ldr	r3, .L192+36
 1113 003e 8367     		str	r3, [r0, #120]
 1114 0040 C36F     		ldr	r3, [r0, #124]
 1115 0042 0BB9     		cbnz	r3, .L175
 1116 0044 504B     		ldr	r3, .L192+40
 1117 0046 C367     		str	r3, [r0, #124]
 1118              	.L175:
 1119 0048 2046     		mov	r0, r4
 1120 004a E36F     		ldr	r3, [r4, #124]
 1121 004c 9847     		blx	r3
 1122              	.L174:
 1123 004e 2423     		movs	r3, #36
 1124 0050 2268     		ldr	r2, [r4]
 1125 0052 84F83D30 		strb	r3, [r4, #61]
 1126 0056 1368     		ldr	r3, [r2]
 1127 0058 23F00103 		bic	r3, r3, #1
 1128 005c 1360     		str	r3, [r2]
 1129 005e FFF7FEFF 		bl	HAL_RCC_GetPCLK1Freq
 1130 0062 4A4A     		ldr	r2, .L192+44
 1131 0064 6368     		ldr	r3, [r4, #4]
 1132 0066 9342     		cmp	r3, r2
ARM GAS  /tmp/ccN79Q8s.s 			page 20


 1133 0068 94BF     		ite	ls
 1134 006a 494A     		ldrls	r2, .L192+48
 1135 006c 494A     		ldrhi	r2, .L192+52
 1136 006e 9042     		cmp	r0, r2
 1137 0070 8CBF     		ite	hi
 1138 0072 0022     		movhi	r2, #0
 1139 0074 0122     		movls	r2, #1
 1140 0076 002A     		cmp	r2, #0
 1141 0078 C5D1     		bne	.L178
 1142 007a 474E     		ldr	r6, .L192+56
 1143 007c 2168     		ldr	r1, [r4]
 1144 007e B0FBF6F6 		udiv	r6, r0, r6
 1145 0082 4A68     		ldr	r2, [r1, #4]
 1146 0084 22F03F02 		bic	r2, r2, #63
 1147 0088 3243     		orrs	r2, r2, r6
 1148 008a 4A60     		str	r2, [r1, #4]
 1149 008c 3F4A     		ldr	r2, .L192+44
 1150 008e 0D6A     		ldr	r5, [r1, #32]
 1151 0090 9342     		cmp	r3, r2
 1152 0092 81BF     		itttt	hi
 1153 0094 4FF49672 		movhi	r2, #300
 1154 0098 7243     		mulhi	r2, r2, r6
 1155 009a 4FF47A76 		movhi	r6, #1000
 1156 009e B2FBF6F2 		udivhi	r2, r2, r6
 1157 00a2 25F03F05 		bic	r5, r5, #63
 1158 00a6 94BF     		ite	ls
 1159 00a8 721C     		addls	r2, r6, #1
 1160 00aa 0132     		addhi	r2, r2, #1
 1161 00ac 2A43     		orrs	r2, r2, r5
 1162 00ae 0A62     		str	r2, [r1, #32]
 1163 00b0 CD69     		ldr	r5, [r1, #28]
 1164 00b2 421E     		subs	r2, r0, #1
 1165 00b4 3548     		ldr	r0, .L192+44
 1166 00b6 25F44F45 		bic	r5, r5, #52992
 1167 00ba 8342     		cmp	r3, r0
 1168 00bc 25F0FF05 		bic	r5, r5, #255
 1169 00c0 32D8     		bhi	.L181
 1170 00c2 5B00     		lsls	r3, r3, #1
 1171 00c4 B2FBF3F3 		udiv	r3, r2, r3
 1172 00c8 40F6FC72 		movw	r2, #4092
 1173 00cc 0133     		adds	r3, r3, #1
 1174 00ce 1342     		tst	r3, r2
 1175 00d0 42D0     		beq	.L186
 1176 00d2 C3F30B03 		ubfx	r3, r3, #0, #12
 1177              	.L182:
 1178 00d6 2B43     		orrs	r3, r3, r5
 1179 00d8 CB61     		str	r3, [r1, #28]
 1180 00da 0A68     		ldr	r2, [r1]
 1181 00dc D4E90730 		ldrd	r3, r0, [r4, #28]
 1182 00e0 22F0C002 		bic	r2, r2, #192
 1183 00e4 0343     		orrs	r3, r3, r0
 1184 00e6 1343     		orrs	r3, r3, r2
 1185 00e8 0B60     		str	r3, [r1]
 1186 00ea 8A68     		ldr	r2, [r1, #8]
 1187 00ec D4E90303 		ldrd	r0, r3, [r4, #12]
 1188 00f0 22F40342 		bic	r2, r2, #33536
 1189 00f4 0343     		orrs	r3, r3, r0
ARM GAS  /tmp/ccN79Q8s.s 			page 21


 1190 00f6 22F0FF02 		bic	r2, r2, #255
 1191 00fa 1343     		orrs	r3, r3, r2
 1192 00fc 8B60     		str	r3, [r1, #8]
 1193 00fe CA68     		ldr	r2, [r1, #12]
 1194 0100 D4E90530 		ldrd	r3, r0, [r4, #20]
 1195 0104 22F0FF02 		bic	r2, r2, #255
 1196 0108 0343     		orrs	r3, r3, r0
 1197 010a 1343     		orrs	r3, r3, r2
 1198 010c CB60     		str	r3, [r1, #12]
 1199 010e 0B68     		ldr	r3, [r1]
 1200 0110 0020     		movs	r0, #0
 1201 0112 43F00103 		orr	r3, r3, #1
 1202 0116 0B60     		str	r3, [r1]
 1203 0118 2023     		movs	r3, #32
 1204 011a 2064     		str	r0, [r4, #64]
 1205 011c 84F83D30 		strb	r3, [r4, #61]
 1206 0120 2063     		str	r0, [r4, #48]
 1207 0122 84F83E00 		strb	r0, [r4, #62]
 1208 0126 6FE7     		b	.L173
 1209              	.L181:
 1210 0128 A068     		ldr	r0, [r4, #8]
 1211 012a 50B9     		cbnz	r0, .L183
 1212 012c 03EB4303 		add	r3, r3, r3, lsl #1
 1213 0130 B2FBF3F3 		udiv	r3, r2, r3
 1214 0134 0133     		adds	r3, r3, #1
 1215 0136 C3F30B03 		ubfx	r3, r3, #0, #12
 1216 013a 7BB1     		cbz	r3, .L188
 1217 013c 43F40043 		orr	r3, r3, #32768
 1218 0140 C9E7     		b	.L182
 1219              	.L183:
 1220 0142 1920     		movs	r0, #25
 1221 0144 4343     		muls	r3, r0, r3
 1222 0146 B2FBF3F3 		udiv	r3, r2, r3
 1223 014a 0133     		adds	r3, r3, #1
 1224 014c C3F30B03 		ubfx	r3, r3, #0, #12
 1225 0150 23B1     		cbz	r3, .L188
 1226 0152 43F44043 		orr	r3, r3, #49152
 1227 0156 BEE7     		b	.L182
 1228              	.L186:
 1229 0158 0423     		movs	r3, #4
 1230 015a BCE7     		b	.L182
 1231              	.L188:
 1232 015c 0123     		movs	r3, #1
 1233 015e BAE7     		b	.L182
 1234              	.L193:
 1235              		.align	2
 1236              	.L192:
 1237 0160 00000000 		.word	HAL_I2C_MasterTxCpltCallback
 1238 0164 00000000 		.word	HAL_I2C_MasterRxCpltCallback
 1239 0168 00000000 		.word	HAL_I2C_SlaveTxCpltCallback
 1240 016c 00000000 		.word	HAL_I2C_SlaveRxCpltCallback
 1241 0170 00000000 		.word	HAL_I2C_ListenCpltCallback
 1242 0174 00000000 		.word	HAL_I2C_MemTxCpltCallback
 1243 0178 00000000 		.word	HAL_I2C_MemRxCpltCallback
 1244 017c 00000000 		.word	HAL_I2C_ErrorCallback
 1245 0180 00000000 		.word	HAL_I2C_AbortCpltCallback
 1246 0184 00000000 		.word	HAL_I2C_AddrCallback
ARM GAS  /tmp/ccN79Q8s.s 			page 22


 1247 0188 00000000 		.word	HAL_I2C_MspInit
 1248 018c A0860100 		.word	100000
 1249 0190 7F841E00 		.word	1999999
 1250 0194 FF083D00 		.word	3999999
 1251 0198 40420F00 		.word	1000000
 1253              		.section	.text.HAL_I2C_DeInit,"ax",%progbits
 1254              		.align	1
 1255              		.global	HAL_I2C_DeInit
 1256              		.syntax unified
 1257              		.thumb
 1258              		.thumb_func
 1259              		.fpu softvfp
 1261              	HAL_I2C_DeInit:
 1262              		@ args = 0, pretend = 0, frame = 0
 1263              		@ frame_needed = 0, uses_anonymous_args = 0
 1264 0000 10B5     		push	{r4, lr}
 1265 0002 0446     		mov	r4, r0
 1266 0004 D8B1     		cbz	r0, .L197
 1267 0006 2423     		movs	r3, #36
 1268 0008 0268     		ldr	r2, [r0]
 1269 000a 80F83D30 		strb	r3, [r0, #61]
 1270 000e 1368     		ldr	r3, [r2]
 1271 0010 23F00103 		bic	r3, r3, #1
 1272 0014 1360     		str	r3, [r2]
 1273 0016 D0F88030 		ldr	r3, [r0, #128]
 1274 001a 13B9     		cbnz	r3, .L196
 1275 001c 094B     		ldr	r3, .L198
 1276 001e C0F88030 		str	r3, [r0, #128]
 1277              	.L196:
 1278 0022 2046     		mov	r0, r4
 1279 0024 D4F88030 		ldr	r3, [r4, #128]
 1280 0028 9847     		blx	r3
 1281 002a 0020     		movs	r0, #0
 1282 002c 2064     		str	r0, [r4, #64]
 1283 002e 84F83C00 		strb	r0, [r4, #60]
 1284 0032 84F83D00 		strb	r0, [r4, #61]
 1285 0036 2063     		str	r0, [r4, #48]
 1286 0038 84F83E00 		strb	r0, [r4, #62]
 1287              	.L195:
 1288 003c 10BD     		pop	{r4, pc}
 1289              	.L197:
 1290 003e 0120     		movs	r0, #1
 1291 0040 FCE7     		b	.L195
 1292              	.L199:
 1293 0042 00BF     		.align	2
 1294              	.L198:
 1295 0044 00000000 		.word	HAL_I2C_MspDeInit
 1297              		.section	.text.HAL_I2C_RegisterCallback,"ax",%progbits
 1298              		.align	1
 1299              		.global	HAL_I2C_RegisterCallback
 1300              		.syntax unified
 1301              		.thumb
 1302              		.thumb_func
 1303              		.fpu softvfp
 1305              	HAL_I2C_RegisterCallback:
 1306              		@ args = 0, pretend = 0, frame = 0
 1307              		@ frame_needed = 0, uses_anonymous_args = 0
ARM GAS  /tmp/ccN79Q8s.s 			page 23


 1308 0000 10B5     		push	{r4, lr}
 1309 0002 2AB9     		cbnz	r2, .L201
 1310 0004 036C     		ldr	r3, [r0, #64]
 1311 0006 43F48073 		orr	r3, r3, #256
 1312 000a 0364     		str	r3, [r0, #64]
 1313 000c 0120     		movs	r0, #1
 1314              	.L202:
 1315 000e 10BD     		pop	{r4, pc}
 1316              	.L201:
 1317 0010 90F83C30 		ldrb	r3, [r0, #60]	@ zero_extendqisi2
 1318 0014 012B     		cmp	r3, #1
 1319 0016 44D0     		beq	.L219
 1320 0018 0123     		movs	r3, #1
 1321 001a 90F83D40 		ldrb	r4, [r0, #61]	@ zero_extendqisi2
 1322 001e 80F83C30 		strb	r3, [r0, #60]
 1323 0022 202C     		cmp	r4, #32
 1324 0024 2BD1     		bne	.L203
 1325 0026 0A29     		cmp	r1, #10
 1326 0028 23D8     		bhi	.L204
 1327 002a DFE801F0 		tbb	[pc, r1]
 1328              	.L206:
 1329 002e 06       		.byte	(.L216-.L206)/2
 1330 002f 0C       		.byte	(.L215-.L206)/2
 1331 0030 0F       		.byte	(.L214-.L206)/2
 1332 0031 11       		.byte	(.L213-.L206)/2
 1333 0032 13       		.byte	(.L212-.L206)/2
 1334 0033 15       		.byte	(.L211-.L206)/2
 1335 0034 17       		.byte	(.L210-.L206)/2
 1336 0035 19       		.byte	(.L209-.L206)/2
 1337 0036 1B       		.byte	(.L208-.L206)/2
 1338 0037 1D       		.byte	(.L207-.L206)/2
 1339 0038 1F       		.byte	(.L205-.L206)/2
 1340 0039 00       		.p2align 1
 1341              	.L216:
 1342 003a 4265     		str	r2, [r0, #84]
 1343              	.L217:
 1344 003c 0023     		movs	r3, #0
 1345 003e 80F83C30 		strb	r3, [r0, #60]
 1346 0042 0846     		mov	r0, r1
 1347 0044 E3E7     		b	.L202
 1348              	.L215:
 1349 0046 8265     		str	r2, [r0, #88]
 1350              	.L227:
 1351 0048 0021     		movs	r1, #0
 1352 004a F7E7     		b	.L217
 1353              	.L214:
 1354 004c C265     		str	r2, [r0, #92]
 1355 004e FBE7     		b	.L227
 1356              	.L213:
 1357 0050 0266     		str	r2, [r0, #96]
 1358 0052 F9E7     		b	.L227
 1359              	.L212:
 1360 0054 4266     		str	r2, [r0, #100]
 1361 0056 F7E7     		b	.L227
 1362              	.L211:
 1363 0058 8266     		str	r2, [r0, #104]
 1364 005a F5E7     		b	.L227
ARM GAS  /tmp/ccN79Q8s.s 			page 24


 1365              	.L210:
 1366 005c C266     		str	r2, [r0, #108]
 1367 005e F3E7     		b	.L227
 1368              	.L209:
 1369 0060 0267     		str	r2, [r0, #112]
 1370 0062 F1E7     		b	.L227
 1371              	.L208:
 1372 0064 4267     		str	r2, [r0, #116]
 1373 0066 EFE7     		b	.L227
 1374              	.L207:
 1375 0068 C267     		str	r2, [r0, #124]
 1376 006a EDE7     		b	.L227
 1377              	.L205:
 1378 006c C0F88020 		str	r2, [r0, #128]
 1379 0070 EAE7     		b	.L227
 1380              	.L204:
 1381 0072 036C     		ldr	r3, [r0, #64]
 1382 0074 43F48073 		orr	r3, r3, #256
 1383 0078 0364     		str	r3, [r0, #64]
 1384              	.L226:
 1385 007a 0121     		movs	r1, #1
 1386 007c DEE7     		b	.L217
 1387              	.L203:
 1388 007e 90F83D40 		ldrb	r4, [r0, #61]	@ zero_extendqisi2
 1389 0082 44B9     		cbnz	r4, .L218
 1390 0084 0929     		cmp	r1, #9
 1391 0086 EFD0     		beq	.L207
 1392 0088 0A29     		cmp	r1, #10
 1393 008a EFD0     		beq	.L205
 1394 008c 026C     		ldr	r2, [r0, #64]
 1395 008e 42F48072 		orr	r2, r2, #256
 1396 0092 0264     		str	r2, [r0, #64]
 1397 0094 F1E7     		b	.L226
 1398              	.L218:
 1399 0096 026C     		ldr	r2, [r0, #64]
 1400 0098 1946     		mov	r1, r3
 1401 009a 42F48072 		orr	r2, r2, #256
 1402 009e 0264     		str	r2, [r0, #64]
 1403 00a0 CCE7     		b	.L217
 1404              	.L219:
 1405 00a2 0220     		movs	r0, #2
 1406 00a4 B3E7     		b	.L202
 1408              		.section	.text.HAL_I2C_UnRegisterCallback,"ax",%progbits
 1409              		.align	1
 1410              		.global	HAL_I2C_UnRegisterCallback
 1411              		.syntax unified
 1412              		.thumb
 1413              		.thumb_func
 1414              		.fpu softvfp
 1416              	HAL_I2C_UnRegisterCallback:
 1417              		@ args = 0, pretend = 0, frame = 0
 1418              		@ frame_needed = 0, uses_anonymous_args = 0
 1419              		@ link register save eliminated.
 1420 0000 90F83C30 		ldrb	r3, [r0, #60]	@ zero_extendqisi2
 1421 0004 012B     		cmp	r3, #1
 1422 0006 4FD0     		beq	.L246
 1423 0008 0123     		movs	r3, #1
ARM GAS  /tmp/ccN79Q8s.s 			page 25


 1424 000a 90F83D20 		ldrb	r2, [r0, #61]	@ zero_extendqisi2
 1425 000e 80F83C30 		strb	r3, [r0, #60]
 1426 0012 202A     		cmp	r2, #32
 1427 0014 36D1     		bne	.L230
 1428 0016 0A29     		cmp	r1, #10
 1429 0018 2ED8     		bhi	.L231
 1430 001a DFE801F0 		tbb	[pc, r1]
 1431              	.L233:
 1432 001e 06       		.byte	(.L243-.L233)/2
 1433 001f 0D       		.byte	(.L242-.L233)/2
 1434 0020 11       		.byte	(.L241-.L233)/2
 1435 0021 14       		.byte	(.L240-.L233)/2
 1436 0022 17       		.byte	(.L239-.L233)/2
 1437 0023 1A       		.byte	(.L238-.L233)/2
 1438 0024 1D       		.byte	(.L237-.L233)/2
 1439 0025 20       		.byte	(.L236-.L233)/2
 1440 0026 23       		.byte	(.L235-.L233)/2
 1441 0027 26       		.byte	(.L234-.L233)/2
 1442 0028 29       		.byte	(.L232-.L233)/2
 1443 0029 00       		.p2align 1
 1444              	.L243:
 1445 002a 204B     		ldr	r3, .L255
 1446 002c 4365     		str	r3, [r0, #84]
 1447              	.L244:
 1448 002e 0023     		movs	r3, #0
 1449 0030 80F83C30 		strb	r3, [r0, #60]
 1450 0034 0846     		mov	r0, r1
 1451 0036 7047     		bx	lr
 1452              	.L242:
 1453 0038 1D4B     		ldr	r3, .L255+4
 1454 003a 8365     		str	r3, [r0, #88]
 1455              	.L254:
 1456 003c 0021     		movs	r1, #0
 1457 003e F6E7     		b	.L244
 1458              	.L241:
 1459 0040 1C4B     		ldr	r3, .L255+8
 1460 0042 C365     		str	r3, [r0, #92]
 1461 0044 FAE7     		b	.L254
 1462              	.L240:
 1463 0046 1C4B     		ldr	r3, .L255+12
 1464 0048 0366     		str	r3, [r0, #96]
 1465 004a F7E7     		b	.L254
 1466              	.L239:
 1467 004c 1B4B     		ldr	r3, .L255+16
 1468 004e 4366     		str	r3, [r0, #100]
 1469 0050 F4E7     		b	.L254
 1470              	.L238:
 1471 0052 1B4B     		ldr	r3, .L255+20
 1472 0054 8366     		str	r3, [r0, #104]
 1473 0056 F1E7     		b	.L254
 1474              	.L237:
 1475 0058 1A4B     		ldr	r3, .L255+24
 1476 005a C366     		str	r3, [r0, #108]
 1477 005c EEE7     		b	.L254
 1478              	.L236:
 1479 005e 1A4B     		ldr	r3, .L255+28
 1480 0060 0367     		str	r3, [r0, #112]
ARM GAS  /tmp/ccN79Q8s.s 			page 26


 1481 0062 EBE7     		b	.L254
 1482              	.L235:
 1483 0064 194B     		ldr	r3, .L255+32
 1484 0066 4367     		str	r3, [r0, #116]
 1485 0068 E8E7     		b	.L254
 1486              	.L234:
 1487 006a 194B     		ldr	r3, .L255+36
 1488 006c C367     		str	r3, [r0, #124]
 1489 006e E5E7     		b	.L254
 1490              	.L232:
 1491 0070 184B     		ldr	r3, .L255+40
 1492 0072 C0F88030 		str	r3, [r0, #128]
 1493 0076 E1E7     		b	.L254
 1494              	.L231:
 1495 0078 036C     		ldr	r3, [r0, #64]
 1496 007a 43F48073 		orr	r3, r3, #256
 1497 007e 0364     		str	r3, [r0, #64]
 1498              	.L253:
 1499 0080 0121     		movs	r1, #1
 1500 0082 D4E7     		b	.L244
 1501              	.L230:
 1502 0084 90F83D20 		ldrb	r2, [r0, #61]	@ zero_extendqisi2
 1503 0088 42B9     		cbnz	r2, .L245
 1504 008a 0929     		cmp	r1, #9
 1505 008c EDD0     		beq	.L234
 1506 008e 0A29     		cmp	r1, #10
 1507 0090 EED0     		beq	.L232
 1508 0092 026C     		ldr	r2, [r0, #64]
 1509 0094 42F48072 		orr	r2, r2, #256
 1510 0098 0264     		str	r2, [r0, #64]
 1511 009a F1E7     		b	.L253
 1512              	.L245:
 1513 009c 026C     		ldr	r2, [r0, #64]
 1514 009e 1946     		mov	r1, r3
 1515 00a0 42F48072 		orr	r2, r2, #256
 1516 00a4 0264     		str	r2, [r0, #64]
 1517 00a6 C2E7     		b	.L244
 1518              	.L246:
 1519 00a8 0220     		movs	r0, #2
 1520 00aa 7047     		bx	lr
 1521              	.L256:
 1522              		.align	2
 1523              	.L255:
 1524 00ac 00000000 		.word	HAL_I2C_MasterTxCpltCallback
 1525 00b0 00000000 		.word	HAL_I2C_MasterRxCpltCallback
 1526 00b4 00000000 		.word	HAL_I2C_SlaveTxCpltCallback
 1527 00b8 00000000 		.word	HAL_I2C_SlaveRxCpltCallback
 1528 00bc 00000000 		.word	HAL_I2C_ListenCpltCallback
 1529 00c0 00000000 		.word	HAL_I2C_MemTxCpltCallback
 1530 00c4 00000000 		.word	HAL_I2C_MemRxCpltCallback
 1531 00c8 00000000 		.word	HAL_I2C_ErrorCallback
 1532 00cc 00000000 		.word	HAL_I2C_AbortCpltCallback
 1533 00d0 00000000 		.word	HAL_I2C_MspInit
 1534 00d4 00000000 		.word	HAL_I2C_MspDeInit
 1536              		.section	.text.HAL_I2C_RegisterAddrCallback,"ax",%progbits
 1537              		.align	1
 1538              		.global	HAL_I2C_RegisterAddrCallback
ARM GAS  /tmp/ccN79Q8s.s 			page 27


 1539              		.syntax unified
 1540              		.thumb
 1541              		.thumb_func
 1542              		.fpu softvfp
 1544              	HAL_I2C_RegisterAddrCallback:
 1545              		@ args = 0, pretend = 0, frame = 0
 1546              		@ frame_needed = 0, uses_anonymous_args = 0
 1547              		@ link register save eliminated.
 1548 0000 0346     		mov	r3, r0
 1549 0002 29B9     		cbnz	r1, .L258
 1550 0004 026C     		ldr	r2, [r0, #64]
 1551 0006 42F48072 		orr	r2, r2, #256
 1552 000a 0264     		str	r2, [r0, #64]
 1553 000c 0120     		movs	r0, #1
 1554 000e 7047     		bx	lr
 1555              	.L258:
 1556 0010 90F83C20 		ldrb	r2, [r0, #60]	@ zero_extendqisi2
 1557 0014 012A     		cmp	r2, #1
 1558 0016 13D0     		beq	.L262
 1559 0018 93F83D20 		ldrb	r2, [r3, #61]	@ zero_extendqisi2
 1560 001c 0120     		movs	r0, #1
 1561 001e 202A     		cmp	r2, #32
 1562 0020 18BF     		it	ne
 1563 0022 1A6C     		ldrne	r2, [r3, #64]
 1564 0024 83F83C00 		strb	r0, [r3, #60]
 1565 0028 1CBF     		itt	ne
 1566 002a 42F48072 		orrne	r2, r2, #256
 1567 002e 1A64     		strne	r2, [r3, #64]
 1568 0030 4FF00002 		mov	r2, #0
 1569 0034 04BF     		itt	eq
 1570 0036 0020     		moveq	r0, #0
 1571 0038 9967     		streq	r1, [r3, #120]
 1572 003a 83F83C20 		strb	r2, [r3, #60]
 1573 003e 7047     		bx	lr
 1574              	.L262:
 1575 0040 0220     		movs	r0, #2
 1576 0042 7047     		bx	lr
 1578              		.section	.text.HAL_I2C_UnRegisterAddrCallback,"ax",%progbits
 1579              		.align	1
 1580              		.global	HAL_I2C_UnRegisterAddrCallback
 1581              		.syntax unified
 1582              		.thumb
 1583              		.thumb_func
 1584              		.fpu softvfp
 1586              	HAL_I2C_UnRegisterAddrCallback:
 1587              		@ args = 0, pretend = 0, frame = 0
 1588              		@ frame_needed = 0, uses_anonymous_args = 0
 1589              		@ link register save eliminated.
 1590 0000 90F83C20 		ldrb	r2, [r0, #60]	@ zero_extendqisi2
 1591 0004 0346     		mov	r3, r0
 1592 0006 012A     		cmp	r2, #1
 1593 0008 14D0     		beq	.L267
 1594 000a 93F83D20 		ldrb	r2, [r3, #61]	@ zero_extendqisi2
 1595 000e 0120     		movs	r0, #1
 1596 0010 202A     		cmp	r2, #32
 1597 0012 15BF     		itete	ne
 1598 0014 1A6C     		ldrne	r2, [r3, #64]
ARM GAS  /tmp/ccN79Q8s.s 			page 28


 1599 0016 084A     		ldreq	r2, .L268
 1600 0018 42F48072 		orrne	r2, r2, #256
 1601 001c 9A67     		streq	r2, [r3, #120]
 1602 001e 18BF     		it	ne
 1603 0020 1A64     		strne	r2, [r3, #64]
 1604 0022 4FF00002 		mov	r2, #0
 1605 0026 83F83C00 		strb	r0, [r3, #60]
 1606 002a 08BF     		it	eq
 1607 002c 0020     		moveq	r0, #0
 1608 002e 83F83C20 		strb	r2, [r3, #60]
 1609 0032 7047     		bx	lr
 1610              	.L267:
 1611 0034 0220     		movs	r0, #2
 1612 0036 7047     		bx	lr
 1613              	.L269:
 1614              		.align	2
 1615              	.L268:
 1616 0038 00000000 		.word	HAL_I2C_AddrCallback
 1618              		.section	.text.HAL_I2C_Master_Transmit,"ax",%progbits
 1619              		.align	1
 1620              		.global	HAL_I2C_Master_Transmit
 1621              		.syntax unified
 1622              		.thumb
 1623              		.thumb_func
 1624              		.fpu softvfp
 1626              	HAL_I2C_Master_Transmit:
 1627              		@ args = 4, pretend = 0, frame = 8
 1628              		@ frame_needed = 0, uses_anonymous_args = 0
 1629 0000 2DE9F043 		push	{r4, r5, r6, r7, r8, r9, lr}
 1630 0004 0446     		mov	r4, r0
 1631 0006 85B0     		sub	sp, sp, #20
 1632 0008 9846     		mov	r8, r3
 1633 000a 0D46     		mov	r5, r1
 1634 000c 9146     		mov	r9, r2
 1635 000e 0C9F     		ldr	r7, [sp, #48]
 1636 0010 FFF7FEFF 		bl	HAL_GetTick
 1637 0014 94F83D30 		ldrb	r3, [r4, #61]	@ zero_extendqisi2
 1638 0018 0646     		mov	r6, r0
 1639 001a 202B     		cmp	r3, #32
 1640 001c 04D0     		beq	.L271
 1641              	.L273:
 1642 001e 0225     		movs	r5, #2
 1643              	.L272:
 1644 0020 2846     		mov	r0, r5
 1645 0022 05B0     		add	sp, sp, #20
 1646              		@ sp needed
 1647 0024 BDE8F083 		pop	{r4, r5, r6, r7, r8, r9, pc}
 1648              	.L271:
 1649 0028 0090     		str	r0, [sp]
 1650 002a 1923     		movs	r3, #25
 1651 002c 0122     		movs	r2, #1
 1652 002e 2046     		mov	r0, r4
 1653 0030 5849     		ldr	r1, .L308
 1654 0032 FFF7FEFF 		bl	I2C_WaitOnFlagUntilTimeout
 1655 0036 0028     		cmp	r0, #0
 1656 0038 F1D1     		bne	.L273
 1657 003a 94F83C30 		ldrb	r3, [r4, #60]	@ zero_extendqisi2
ARM GAS  /tmp/ccN79Q8s.s 			page 29


 1658 003e 012B     		cmp	r3, #1
 1659 0040 EDD0     		beq	.L273
 1660 0042 0123     		movs	r3, #1
 1661 0044 2168     		ldr	r1, [r4]
 1662 0046 84F83C30 		strb	r3, [r4, #60]
 1663 004a 0B68     		ldr	r3, [r1]
 1664 004c DB07     		lsls	r3, r3, #31
 1665 004e 5EBF     		ittt	pl
 1666 0050 0B68     		ldrpl	r3, [r1]
 1667 0052 43F00103 		orrpl	r3, r3, #1
 1668 0056 0B60     		strpl	r3, [r1]
 1669 0058 0B68     		ldr	r3, [r1]
 1670 005a 23F40063 		bic	r3, r3, #2048
 1671 005e 0B60     		str	r3, [r1]
 1672 0060 2123     		movs	r3, #33
 1673 0062 84F83D30 		strb	r3, [r4, #61]
 1674 0066 1023     		movs	r3, #16
 1675 0068 84F83E30 		strb	r3, [r4, #62]
 1676 006c 0023     		movs	r3, #0
 1677 006e 2364     		str	r3, [r4, #64]
 1678 0070 A4F82A80 		strh	r8, [r4, #42]	@ movhi
 1679 0074 638D     		ldrh	r3, [r4, #42]
 1680 0076 C4F82490 		str	r9, [r4, #36]
 1681 007a 2385     		strh	r3, [r4, #40]	@ movhi
 1682 007c 464B     		ldr	r3, .L308+4
 1683 007e E362     		str	r3, [r4, #44]
 1684 0080 E36A     		ldr	r3, [r4, #44]
 1685 0082 082B     		cmp	r3, #8
 1686 0084 04D0     		beq	.L303
 1687 0086 012B     		cmp	r3, #1
 1688 0088 02D0     		beq	.L303
 1689 008a 13F5803F 		cmn	r3, #65536
 1690 008e 04D1     		bne	.L276
 1691              	.L303:
 1692 0090 0B68     		ldr	r3, [r1]
 1693 0092 43F48073 		orr	r3, r3, #256
 1694 0096 0B60     		str	r3, [r1]
 1695 0098 02E0     		b	.L277
 1696              	.L276:
 1697 009a 236B     		ldr	r3, [r4, #48]
 1698 009c 122B     		cmp	r3, #18
 1699 009e F7D0     		beq	.L303
 1700              	.L277:
 1701 00a0 3B46     		mov	r3, r7
 1702 00a2 0022     		movs	r2, #0
 1703 00a4 4FF00111 		mov	r1, #65537
 1704 00a8 2046     		mov	r0, r4
 1705 00aa 0096     		str	r6, [sp]
 1706 00ac FFF7FEFF 		bl	I2C_WaitOnFlagUntilTimeout
 1707 00b0 08B1     		cbz	r0, .L278
 1708              	.L305:
 1709 00b2 0125     		movs	r5, #1
 1710 00b4 B4E7     		b	.L272
 1711              	.L278:
 1712 00b6 2369     		ldr	r3, [r4, #16]
 1713 00b8 2268     		ldr	r2, [r4]
 1714 00ba B3F5804F 		cmp	r3, #16384
ARM GAS  /tmp/ccN79Q8s.s 			page 30


 1715 00be 21D1     		bne	.L279
 1716 00c0 05F0FE05 		and	r5, r5, #254
 1717 00c4 1561     		str	r5, [r2, #16]
 1718              	.L280:
 1719 00c6 3346     		mov	r3, r6
 1720 00c8 3A46     		mov	r2, r7
 1721 00ca 2046     		mov	r0, r4
 1722 00cc 3349     		ldr	r1, .L308+8
 1723 00ce FFF7FEFF 		bl	I2C_WaitOnMasterAddressFlagUntilTimeout
 1724 00d2 0546     		mov	r5, r0
 1725 00d4 0028     		cmp	r0, #0
 1726 00d6 ECD1     		bne	.L305
 1727 00d8 2368     		ldr	r3, [r4]
 1728 00da 0390     		str	r0, [sp, #12]
 1729 00dc 5A69     		ldr	r2, [r3, #20]
 1730 00de 0392     		str	r2, [sp, #12]
 1731 00e0 9B69     		ldr	r3, [r3, #24]
 1732 00e2 0393     		str	r3, [sp, #12]
 1733 00e4 039B     		ldr	r3, [sp, #12]
 1734              	.L282:
 1735 00e6 238D     		ldrh	r3, [r4, #40]
 1736 00e8 F3B9     		cbnz	r3, .L285
 1737 00ea 2168     		ldr	r1, [r4]
 1738 00ec 0A68     		ldr	r2, [r1]
 1739 00ee 42F40072 		orr	r2, r2, #512
 1740 00f2 0A60     		str	r2, [r1]
 1741 00f4 2022     		movs	r2, #32
 1742 00f6 84F83C30 		strb	r3, [r4, #60]
 1743 00fa 84F83D20 		strb	r2, [r4, #61]
 1744 00fe 84F83E30 		strb	r3, [r4, #62]
 1745 0102 8DE7     		b	.L272
 1746              	.L279:
 1747 0104 EB11     		asrs	r3, r5, #7
 1748 0106 03F00603 		and	r3, r3, #6
 1749 010a 43F0F003 		orr	r3, r3, #240
 1750 010e 1361     		str	r3, [r2, #16]
 1751 0110 2046     		mov	r0, r4
 1752 0112 3346     		mov	r3, r6
 1753 0114 3A46     		mov	r2, r7
 1754 0116 2249     		ldr	r1, .L308+12
 1755 0118 FFF7FEFF 		bl	I2C_WaitOnMasterAddressFlagUntilTimeout
 1756 011c 0028     		cmp	r0, #0
 1757 011e C8D1     		bne	.L305
 1758 0120 2368     		ldr	r3, [r4]
 1759 0122 EDB2     		uxtb	r5, r5
 1760 0124 1D61     		str	r5, [r3, #16]
 1761 0126 CEE7     		b	.L280
 1762              	.L285:
 1763 0128 3246     		mov	r2, r6
 1764 012a 3946     		mov	r1, r7
 1765 012c 2046     		mov	r0, r4
 1766 012e FFF7FEFF 		bl	I2C_WaitOnTXEFlagUntilTimeout
 1767 0132 40B1     		cbz	r0, .L283
 1768              	.L307:
 1769 0134 236C     		ldr	r3, [r4, #64]
 1770 0136 042B     		cmp	r3, #4
 1771 0138 01BF     		itttt	eq
ARM GAS  /tmp/ccN79Q8s.s 			page 31


 1772 013a 2268     		ldreq	r2, [r4]
 1773 013c 1368     		ldreq	r3, [r2]
 1774 013e 43F40073 		orreq	r3, r3, #512
 1775 0142 1360     		streq	r3, [r2]
 1776 0144 B5E7     		b	.L305
 1777              	.L283:
 1778 0146 636A     		ldr	r3, [r4, #36]
 1779 0148 2068     		ldr	r0, [r4]
 1780 014a 1A46     		mov	r2, r3
 1781 014c 12F8011B 		ldrb	r1, [r2], #1	@ zero_extendqisi2
 1782 0150 0161     		str	r1, [r0, #16]
 1783 0152 6262     		str	r2, [r4, #36]
 1784 0154 628D     		ldrh	r2, [r4, #42]
 1785 0156 013A     		subs	r2, r2, #1
 1786 0158 92B2     		uxth	r2, r2
 1787 015a 6285     		strh	r2, [r4, #42]	@ movhi
 1788 015c 228D     		ldrh	r2, [r4, #40]
 1789 015e D0F814C0 		ldr	ip, [r0, #20]
 1790 0162 511E     		subs	r1, r2, #1
 1791 0164 89B2     		uxth	r1, r1
 1792 0166 1CF0040F 		tst	ip, #4
 1793 016a 2185     		strh	r1, [r4, #40]	@ movhi
 1794 016c 0AD0     		beq	.L284
 1795 016e 49B1     		cbz	r1, .L284
 1796 0170 5978     		ldrb	r1, [r3, #1]	@ zero_extendqisi2
 1797 0172 0233     		adds	r3, r3, #2
 1798 0174 0161     		str	r1, [r0, #16]
 1799 0176 6362     		str	r3, [r4, #36]
 1800 0178 638D     		ldrh	r3, [r4, #42]
 1801 017a 023A     		subs	r2, r2, #2
 1802 017c 013B     		subs	r3, r3, #1
 1803 017e 9BB2     		uxth	r3, r3
 1804 0180 6385     		strh	r3, [r4, #42]	@ movhi
 1805 0182 2285     		strh	r2, [r4, #40]	@ movhi
 1806              	.L284:
 1807 0184 3246     		mov	r2, r6
 1808 0186 3946     		mov	r1, r7
 1809 0188 2046     		mov	r0, r4
 1810 018a FFF7FEFF 		bl	I2C_WaitOnBTFFlagUntilTimeout
 1811 018e 0028     		cmp	r0, #0
 1812 0190 A9D0     		beq	.L282
 1813 0192 CFE7     		b	.L307
 1814              	.L309:
 1815              		.align	2
 1816              	.L308:
 1817 0194 02001000 		.word	1048578
 1818 0198 0000FFFF 		.word	-65536
 1819 019c 02000100 		.word	65538
 1820 01a0 08000100 		.word	65544
 1822              		.section	.text.HAL_I2C_Master_Receive,"ax",%progbits
 1823              		.align	1
 1824              		.global	HAL_I2C_Master_Receive
 1825              		.syntax unified
 1826              		.thumb
 1827              		.thumb_func
 1828              		.fpu softvfp
 1830              	HAL_I2C_Master_Receive:
ARM GAS  /tmp/ccN79Q8s.s 			page 32


 1831              		@ args = 4, pretend = 0, frame = 24
 1832              		@ frame_needed = 0, uses_anonymous_args = 0
 1833 0000 2DE9F043 		push	{r4, r5, r6, r7, r8, r9, lr}
 1834 0004 0446     		mov	r4, r0
 1835 0006 89B0     		sub	sp, sp, #36
 1836 0008 9846     		mov	r8, r3
 1837 000a 0E46     		mov	r6, r1
 1838 000c 9146     		mov	r9, r2
 1839 000e 109F     		ldr	r7, [sp, #64]
 1840 0010 FFF7FEFF 		bl	HAL_GetTick
 1841 0014 94F83D30 		ldrb	r3, [r4, #61]	@ zero_extendqisi2
 1842 0018 0546     		mov	r5, r0
 1843 001a 202B     		cmp	r3, #32
 1844 001c 04D0     		beq	.L311
 1845              	.L313:
 1846 001e 0226     		movs	r6, #2
 1847              	.L312:
 1848 0020 3046     		mov	r0, r6
 1849 0022 09B0     		add	sp, sp, #36
 1850              		@ sp needed
 1851 0024 BDE8F083 		pop	{r4, r5, r6, r7, r8, r9, pc}
 1852              	.L311:
 1853 0028 0090     		str	r0, [sp]
 1854 002a 1923     		movs	r3, #25
 1855 002c 0122     		movs	r2, #1
 1856 002e 2046     		mov	r0, r4
 1857 0030 9B49     		ldr	r1, .L349
 1858 0032 FFF7FEFF 		bl	I2C_WaitOnFlagUntilTimeout
 1859 0036 0028     		cmp	r0, #0
 1860 0038 F1D1     		bne	.L313
 1861 003a 94F83C30 		ldrb	r3, [r4, #60]	@ zero_extendqisi2
 1862 003e 012B     		cmp	r3, #1
 1863 0040 EDD0     		beq	.L313
 1864 0042 0123     		movs	r3, #1
 1865 0044 2168     		ldr	r1, [r4]
 1866 0046 84F83C30 		strb	r3, [r4, #60]
 1867 004a 0B68     		ldr	r3, [r1]
 1868 004c D807     		lsls	r0, r3, #31
 1869 004e 5EBF     		ittt	pl
 1870 0050 0B68     		ldrpl	r3, [r1]
 1871 0052 43F00103 		orrpl	r3, r3, #1
 1872 0056 0B60     		strpl	r3, [r1]
 1873 0058 0B68     		ldr	r3, [r1]
 1874 005a 23F40063 		bic	r3, r3, #2048
 1875 005e 0B60     		str	r3, [r1]
 1876 0060 2223     		movs	r3, #34
 1877 0062 84F83D30 		strb	r3, [r4, #61]
 1878 0066 1023     		movs	r3, #16
 1879 0068 84F83E30 		strb	r3, [r4, #62]
 1880 006c 0023     		movs	r3, #0
 1881 006e 2364     		str	r3, [r4, #64]
 1882 0070 A4F82A80 		strh	r8, [r4, #42]	@ movhi
 1883 0074 638D     		ldrh	r3, [r4, #42]
 1884 0076 C4F82490 		str	r9, [r4, #36]
 1885 007a 2385     		strh	r3, [r4, #40]	@ movhi
 1886 007c 894B     		ldr	r3, .L349+4
 1887 007e E362     		str	r3, [r4, #44]
ARM GAS  /tmp/ccN79Q8s.s 			page 33


 1888 0080 E36A     		ldr	r3, [r4, #44]
 1889 0082 0A68     		ldr	r2, [r1]
 1890 0084 082B     		cmp	r3, #8
 1891 0086 42F48062 		orr	r2, r2, #1024
 1892 008a 0A60     		str	r2, [r1]
 1893 008c 04D0     		beq	.L344
 1894 008e 012B     		cmp	r3, #1
 1895 0090 02D0     		beq	.L344
 1896 0092 13F5803F 		cmn	r3, #65536
 1897 0096 04D1     		bne	.L316
 1898              	.L344:
 1899 0098 0B68     		ldr	r3, [r1]
 1900 009a 43F48073 		orr	r3, r3, #256
 1901 009e 0B60     		str	r3, [r1]
 1902 00a0 02E0     		b	.L317
 1903              	.L316:
 1904 00a2 236B     		ldr	r3, [r4, #48]
 1905 00a4 112B     		cmp	r3, #17
 1906 00a6 F7D0     		beq	.L344
 1907              	.L317:
 1908 00a8 3B46     		mov	r3, r7
 1909 00aa 0022     		movs	r2, #0
 1910 00ac 4FF00111 		mov	r1, #65537
 1911 00b0 2046     		mov	r0, r4
 1912 00b2 0095     		str	r5, [sp]
 1913 00b4 FFF7FEFF 		bl	I2C_WaitOnFlagUntilTimeout
 1914 00b8 08B1     		cbz	r0, .L318
 1915              	.L321:
 1916 00ba 0126     		movs	r6, #1
 1917 00bc B0E7     		b	.L312
 1918              	.L318:
 1919 00be 2269     		ldr	r2, [r4, #16]
 1920 00c0 2368     		ldr	r3, [r4]
 1921 00c2 B2F5804F 		cmp	r2, #16384
 1922 00c6 27D1     		bne	.L319
 1923 00c8 46F00106 		orr	r6, r6, #1
 1924 00cc F6B2     		uxtb	r6, r6
 1925 00ce 1E61     		str	r6, [r3, #16]
 1926              	.L320:
 1927 00d0 2B46     		mov	r3, r5
 1928 00d2 3A46     		mov	r2, r7
 1929 00d4 2046     		mov	r0, r4
 1930 00d6 7449     		ldr	r1, .L349+8
 1931 00d8 FFF7FEFF 		bl	I2C_WaitOnMasterAddressFlagUntilTimeout
 1932 00dc 0646     		mov	r6, r0
 1933 00de 0028     		cmp	r0, #0
 1934 00e0 EBD1     		bne	.L321
 1935 00e2 228D     		ldrh	r2, [r4, #40]
 1936 00e4 2368     		ldr	r3, [r4]
 1937 00e6 002A     		cmp	r2, #0
 1938 00e8 4AD1     		bne	.L322
 1939 00ea 0390     		str	r0, [sp, #12]
 1940 00ec 5A69     		ldr	r2, [r3, #20]
 1941 00ee 0392     		str	r2, [sp, #12]
 1942 00f0 9A69     		ldr	r2, [r3, #24]
 1943 00f2 0392     		str	r2, [sp, #12]
 1944 00f4 039A     		ldr	r2, [sp, #12]
ARM GAS  /tmp/ccN79Q8s.s 			page 34


 1945 00f6 1A68     		ldr	r2, [r3]
 1946 00f8 42F40072 		orr	r2, r2, #512
 1947 00fc 1A60     		str	r2, [r3]
 1948              	.L323:
 1949 00fe DFF8B081 		ldr	r8, .L349+16
 1950              	.L325:
 1951 0102 238D     		ldrh	r3, [r4, #40]
 1952 0104 002B     		cmp	r3, #0
 1953 0106 6BD1     		bne	.L331
 1954 0108 2022     		movs	r2, #32
 1955 010a 84F83C30 		strb	r3, [r4, #60]
 1956 010e 84F83D20 		strb	r2, [r4, #61]
 1957 0112 84F83E30 		strb	r3, [r4, #62]
 1958 0116 83E7     		b	.L312
 1959              	.L319:
 1960 0118 4FEAE618 		asr	r8, r6, #7
 1961 011c 08F00608 		and	r8, r8, #6
 1962 0120 48F0F002 		orr	r2, r8, #240
 1963 0124 1A61     		str	r2, [r3, #16]
 1964 0126 2046     		mov	r0, r4
 1965 0128 2B46     		mov	r3, r5
 1966 012a 3A46     		mov	r2, r7
 1967 012c 5F49     		ldr	r1, .L349+12
 1968 012e FFF7FEFF 		bl	I2C_WaitOnMasterAddressFlagUntilTimeout
 1969 0132 0028     		cmp	r0, #0
 1970 0134 C1D1     		bne	.L321
 1971 0136 2368     		ldr	r3, [r4]
 1972 0138 F6B2     		uxtb	r6, r6
 1973 013a 3A46     		mov	r2, r7
 1974 013c 1E61     		str	r6, [r3, #16]
 1975 013e 2046     		mov	r0, r4
 1976 0140 2B46     		mov	r3, r5
 1977 0142 5949     		ldr	r1, .L349+8
 1978 0144 FFF7FEFF 		bl	I2C_WaitOnMasterAddressFlagUntilTimeout
 1979 0148 0246     		mov	r2, r0
 1980 014a 0028     		cmp	r0, #0
 1981 014c B5D1     		bne	.L321
 1982 014e 2368     		ldr	r3, [r4]
 1983 0150 0790     		str	r0, [sp, #28]
 1984 0152 5969     		ldr	r1, [r3, #20]
 1985 0154 2046     		mov	r0, r4
 1986 0156 0791     		str	r1, [sp, #28]
 1987 0158 9969     		ldr	r1, [r3, #24]
 1988 015a 0791     		str	r1, [sp, #28]
 1989 015c 0799     		ldr	r1, [sp, #28]
 1990 015e 1968     		ldr	r1, [r3]
 1991 0160 41F48071 		orr	r1, r1, #256
 1992 0164 1960     		str	r1, [r3]
 1993 0166 3B46     		mov	r3, r7
 1994 0168 4FF00111 		mov	r1, #65537
 1995 016c 0095     		str	r5, [sp]
 1996 016e FFF7FEFF 		bl	I2C_WaitOnFlagUntilTimeout
 1997 0172 0028     		cmp	r0, #0
 1998 0174 A1D1     		bne	.L321
 1999 0176 2268     		ldr	r2, [r4]
 2000 0178 48F0F103 		orr	r3, r8, #241
 2001 017c 1361     		str	r3, [r2, #16]
ARM GAS  /tmp/ccN79Q8s.s 			page 35


 2002 017e A7E7     		b	.L320
 2003              	.L322:
 2004 0180 012A     		cmp	r2, #1
 2005 0182 11D1     		bne	.L324
 2006 0184 1A68     		ldr	r2, [r3]
 2007 0186 22F48062 		bic	r2, r2, #1024
 2008 018a 1A60     		str	r2, [r3]
 2009              		.syntax unified
 2010              	@ 142 "./cmsis/inc/cmsis_gcc.h" 1
 2011 018c 72B6     		cpsid i
 2012              	@ 0 "" 2
 2013              		.thumb
 2014              		.syntax unified
 2015 018e 2368     		ldr	r3, [r4]
 2016 0190 0490     		str	r0, [sp, #16]
 2017 0192 5A69     		ldr	r2, [r3, #20]
 2018 0194 0492     		str	r2, [sp, #16]
 2019 0196 9A69     		ldr	r2, [r3, #24]
 2020 0198 0492     		str	r2, [sp, #16]
 2021 019a 049A     		ldr	r2, [sp, #16]
 2022 019c 1A68     		ldr	r2, [r3]
 2023 019e 42F40072 		orr	r2, r2, #512
 2024              	.L345:
 2025 01a2 1A60     		str	r2, [r3]
 2026              		.syntax unified
 2027              	@ 131 "./cmsis/inc/cmsis_gcc.h" 1
 2028 01a4 62B6     		cpsie i
 2029              	@ 0 "" 2
 2030              		.thumb
 2031              		.syntax unified
 2032 01a6 AAE7     		b	.L323
 2033              	.L324:
 2034 01a8 022A     		cmp	r2, #2
 2035 01aa 1A68     		ldr	r2, [r3]
 2036 01ac 0ED1     		bne	.L326
 2037 01ae 42F40062 		orr	r2, r2, #2048
 2038 01b2 1A60     		str	r2, [r3]
 2039              		.syntax unified
 2040              	@ 142 "./cmsis/inc/cmsis_gcc.h" 1
 2041 01b4 72B6     		cpsid i
 2042              	@ 0 "" 2
 2043              		.thumb
 2044              		.syntax unified
 2045 01b6 2368     		ldr	r3, [r4]
 2046 01b8 0590     		str	r0, [sp, #20]
 2047 01ba 5A69     		ldr	r2, [r3, #20]
 2048 01bc 0592     		str	r2, [sp, #20]
 2049 01be 9A69     		ldr	r2, [r3, #24]
 2050 01c0 0592     		str	r2, [sp, #20]
 2051 01c2 059A     		ldr	r2, [sp, #20]
 2052 01c4 1A68     		ldr	r2, [r3]
 2053 01c6 22F48062 		bic	r2, r2, #1024
 2054 01ca EAE7     		b	.L345
 2055              	.L326:
 2056 01cc 42F48062 		orr	r2, r2, #1024
 2057 01d0 1A60     		str	r2, [r3]
 2058 01d2 0690     		str	r0, [sp, #24]
ARM GAS  /tmp/ccN79Q8s.s 			page 36


 2059 01d4 5A69     		ldr	r2, [r3, #20]
 2060 01d6 0692     		str	r2, [sp, #24]
 2061 01d8 9B69     		ldr	r3, [r3, #24]
 2062 01da 0693     		str	r3, [sp, #24]
 2063 01dc 069B     		ldr	r3, [sp, #24]
 2064 01de 8EE7     		b	.L323
 2065              	.L331:
 2066 01e0 032B     		cmp	r3, #3
 2067 01e2 67D8     		bhi	.L327
 2068 01e4 012B     		cmp	r3, #1
 2069 01e6 16D1     		bne	.L328
 2070 01e8 2A46     		mov	r2, r5
 2071 01ea 3946     		mov	r1, r7
 2072 01ec 2046     		mov	r0, r4
 2073 01ee FFF7FEFF 		bl	I2C_WaitOnRXNEFlagUntilTimeout
 2074 01f2 0028     		cmp	r0, #0
 2075 01f4 7FF461AF 		bne	.L321
 2076              	.L347:
 2077 01f8 2368     		ldr	r3, [r4]
 2078 01fa 1A69     		ldr	r2, [r3, #16]
 2079 01fc 636A     		ldr	r3, [r4, #36]
 2080 01fe 1A70     		strb	r2, [r3]
 2081              	.L346:
 2082 0200 636A     		ldr	r3, [r4, #36]
 2083 0202 0133     		adds	r3, r3, #1
 2084 0204 6362     		str	r3, [r4, #36]
 2085 0206 238D     		ldrh	r3, [r4, #40]
 2086 0208 013B     		subs	r3, r3, #1
 2087 020a 2385     		strh	r3, [r4, #40]	@ movhi
 2088 020c 638D     		ldrh	r3, [r4, #42]
 2089 020e 013B     		subs	r3, r3, #1
 2090 0210 9BB2     		uxth	r3, r3
 2091 0212 6385     		strh	r3, [r4, #42]	@ movhi
 2092 0214 75E7     		b	.L325
 2093              	.L328:
 2094 0216 022B     		cmp	r3, #2
 2095 0218 4FF00002 		mov	r2, #0
 2096 021c 3B46     		mov	r3, r7
 2097 021e 4146     		mov	r1, r8
 2098 0220 2046     		mov	r0, r4
 2099 0222 0095     		str	r5, [sp]
 2100 0224 19D1     		bne	.L330
 2101 0226 FFF7FEFF 		bl	I2C_WaitOnFlagUntilTimeout
 2102 022a 0028     		cmp	r0, #0
 2103 022c 7FF445AF 		bne	.L321
 2104              		.syntax unified
 2105              	@ 142 "./cmsis/inc/cmsis_gcc.h" 1
 2106 0230 72B6     		cpsid i
 2107              	@ 0 "" 2
 2108              		.thumb
 2109              		.syntax unified
 2110              	.L348:
 2111 0232 2368     		ldr	r3, [r4]
 2112 0234 1A68     		ldr	r2, [r3]
 2113 0236 42F40072 		orr	r2, r2, #512
 2114 023a 1A60     		str	r2, [r3]
 2115 023c 1A69     		ldr	r2, [r3, #16]
ARM GAS  /tmp/ccN79Q8s.s 			page 37


 2116 023e 636A     		ldr	r3, [r4, #36]
 2117 0240 1A70     		strb	r2, [r3]
 2118 0242 636A     		ldr	r3, [r4, #36]
 2119 0244 0133     		adds	r3, r3, #1
 2120 0246 6362     		str	r3, [r4, #36]
 2121 0248 238D     		ldrh	r3, [r4, #40]
 2122 024a 013B     		subs	r3, r3, #1
 2123 024c 2385     		strh	r3, [r4, #40]	@ movhi
 2124 024e 638D     		ldrh	r3, [r4, #42]
 2125 0250 013B     		subs	r3, r3, #1
 2126 0252 9BB2     		uxth	r3, r3
 2127 0254 6385     		strh	r3, [r4, #42]	@ movhi
 2128              		.syntax unified
 2129              	@ 131 "./cmsis/inc/cmsis_gcc.h" 1
 2130 0256 62B6     		cpsie i
 2131              	@ 0 "" 2
 2132              		.thumb
 2133              		.syntax unified
 2134 0258 CEE7     		b	.L347
 2135              	.L330:
 2136 025a FFF7FEFF 		bl	I2C_WaitOnFlagUntilTimeout
 2137 025e 0246     		mov	r2, r0
 2138 0260 0028     		cmp	r0, #0
 2139 0262 7FF42AAF 		bne	.L321
 2140 0266 2168     		ldr	r1, [r4]
 2141 0268 0B68     		ldr	r3, [r1]
 2142 026a 23F48063 		bic	r3, r3, #1024
 2143 026e 0B60     		str	r3, [r1]
 2144              		.syntax unified
 2145              	@ 142 "./cmsis/inc/cmsis_gcc.h" 1
 2146 0270 72B6     		cpsid i
 2147              	@ 0 "" 2
 2148              		.thumb
 2149              		.syntax unified
 2150 0272 2368     		ldr	r3, [r4]
 2151 0274 2046     		mov	r0, r4
 2152 0276 1969     		ldr	r1, [r3, #16]
 2153 0278 636A     		ldr	r3, [r4, #36]
 2154 027a 1970     		strb	r1, [r3]
 2155 027c 636A     		ldr	r3, [r4, #36]
 2156 027e 4146     		mov	r1, r8
 2157 0280 0133     		adds	r3, r3, #1
 2158 0282 6362     		str	r3, [r4, #36]
 2159 0284 238D     		ldrh	r3, [r4, #40]
 2160 0286 0095     		str	r5, [sp]
 2161 0288 013B     		subs	r3, r3, #1
 2162 028a 2385     		strh	r3, [r4, #40]	@ movhi
 2163 028c 638D     		ldrh	r3, [r4, #42]
 2164 028e 013B     		subs	r3, r3, #1
 2165 0290 9BB2     		uxth	r3, r3
 2166 0292 6385     		strh	r3, [r4, #42]	@ movhi
 2167 0294 3B46     		mov	r3, r7
 2168 0296 FFF7FEFF 		bl	I2C_WaitOnFlagUntilTimeout
 2169 029a 0028     		cmp	r0, #0
 2170 029c C9D0     		beq	.L348
 2171 029e 0CE7     		b	.L321
 2172              	.L350:
ARM GAS  /tmp/ccN79Q8s.s 			page 38


 2173              		.align	2
 2174              	.L349:
 2175 02a0 02001000 		.word	1048578
 2176 02a4 0000FFFF 		.word	-65536
 2177 02a8 02000100 		.word	65538
 2178 02ac 08000100 		.word	65544
 2179 02b0 04000100 		.word	65540
 2180              	.L327:
 2181 02b4 2A46     		mov	r2, r5
 2182 02b6 3946     		mov	r1, r7
 2183 02b8 2046     		mov	r0, r4
 2184 02ba FFF7FEFF 		bl	I2C_WaitOnRXNEFlagUntilTimeout
 2185 02be 0028     		cmp	r0, #0
 2186 02c0 7FF4FBAE 		bne	.L321
 2187 02c4 2368     		ldr	r3, [r4]
 2188 02c6 1A69     		ldr	r2, [r3, #16]
 2189 02c8 636A     		ldr	r3, [r4, #36]
 2190 02ca 1A70     		strb	r2, [r3]
 2191 02cc 626A     		ldr	r2, [r4, #36]
 2192 02ce 531C     		adds	r3, r2, #1
 2193 02d0 6362     		str	r3, [r4, #36]
 2194 02d2 238D     		ldrh	r3, [r4, #40]
 2195 02d4 013B     		subs	r3, r3, #1
 2196 02d6 2385     		strh	r3, [r4, #40]	@ movhi
 2197 02d8 638D     		ldrh	r3, [r4, #42]
 2198 02da 013B     		subs	r3, r3, #1
 2199 02dc 9BB2     		uxth	r3, r3
 2200 02de 6385     		strh	r3, [r4, #42]	@ movhi
 2201 02e0 2368     		ldr	r3, [r4]
 2202 02e2 5969     		ldr	r1, [r3, #20]
 2203 02e4 4907     		lsls	r1, r1, #29
 2204 02e6 7FF50CAF 		bpl	.L325
 2205 02ea 1B69     		ldr	r3, [r3, #16]
 2206 02ec 5370     		strb	r3, [r2, #1]
 2207 02ee 87E7     		b	.L346
 2209              		.section	.text.HAL_I2C_Slave_Transmit,"ax",%progbits
 2210              		.align	1
 2211              		.global	HAL_I2C_Slave_Transmit
 2212              		.syntax unified
 2213              		.thumb
 2214              		.thumb_func
 2215              		.fpu softvfp
 2217              	HAL_I2C_Slave_Transmit:
 2218              		@ args = 0, pretend = 0, frame = 8
 2219              		@ frame_needed = 0, uses_anonymous_args = 0
 2220 0000 2DE9F043 		push	{r4, r5, r6, r7, r8, r9, lr}
 2221 0004 0446     		mov	r4, r0
 2222 0006 85B0     		sub	sp, sp, #20
 2223 0008 1E46     		mov	r6, r3
 2224 000a 8946     		mov	r9, r1
 2225 000c 9046     		mov	r8, r2
 2226 000e FFF7FEFF 		bl	HAL_GetTick
 2227 0012 94F83D30 		ldrb	r3, [r4, #61]	@ zero_extendqisi2
 2228 0016 0746     		mov	r7, r0
 2229 0018 202B     		cmp	r3, #32
 2230 001a 40F09B80 		bne	.L362
 2231 001e B9F1000F 		cmp	r9, #0
ARM GAS  /tmp/ccN79Q8s.s 			page 39


 2232 0022 03D1     		bne	.L353
 2233              	.L372:
 2234 0024 0120     		movs	r0, #1
 2235              	.L352:
 2236 0026 05B0     		add	sp, sp, #20
 2237              		@ sp needed
 2238 0028 BDE8F083 		pop	{r4, r5, r6, r7, r8, r9, pc}
 2239              	.L353:
 2240 002c B8F1000F 		cmp	r8, #0
 2241 0030 F8D0     		beq	.L372
 2242 0032 94F83C30 		ldrb	r3, [r4, #60]	@ zero_extendqisi2
 2243 0036 012B     		cmp	r3, #1
 2244 0038 00F08C80 		beq	.L362
 2245 003c 0123     		movs	r3, #1
 2246 003e 2568     		ldr	r5, [r4]
 2247 0040 84F83C30 		strb	r3, [r4, #60]
 2248 0044 2B68     		ldr	r3, [r5]
 2249 0046 0022     		movs	r2, #0
 2250 0048 DB07     		lsls	r3, r3, #31
 2251 004a 58BF     		it	pl
 2252 004c 2B68     		ldrpl	r3, [r5]
 2253 004e 4249     		ldr	r1, .L373
 2254 0050 5CBF     		itt	pl
 2255 0052 43F00103 		orrpl	r3, r3, #1
 2256 0056 2B60     		strpl	r3, [r5]
 2257 0058 2B68     		ldr	r3, [r5]
 2258 005a 23F40063 		bic	r3, r3, #2048
 2259 005e 2B60     		str	r3, [r5]
 2260 0060 2123     		movs	r3, #33
 2261 0062 84F83D30 		strb	r3, [r4, #61]
 2262 0066 2023     		movs	r3, #32
 2263 0068 84F83E30 		strb	r3, [r4, #62]
 2264 006c 2264     		str	r2, [r4, #64]
 2265 006e A4F82A80 		strh	r8, [r4, #42]	@ movhi
 2266 0072 638D     		ldrh	r3, [r4, #42]
 2267 0074 C4F82490 		str	r9, [r4, #36]
 2268 0078 2385     		strh	r3, [r4, #40]	@ movhi
 2269 007a 384B     		ldr	r3, .L373+4
 2270 007c E362     		str	r3, [r4, #44]
 2271 007e 2B68     		ldr	r3, [r5]
 2272 0080 43F48063 		orr	r3, r3, #1024
 2273 0084 2B60     		str	r3, [r5]
 2274 0086 0090     		str	r0, [sp]
 2275 0088 3346     		mov	r3, r6
 2276 008a 2046     		mov	r0, r4
 2277 008c FFF7FEFF 		bl	I2C_WaitOnFlagUntilTimeout
 2278 0090 0246     		mov	r2, r0
 2279 0092 0028     		cmp	r0, #0
 2280 0094 C6D1     		bne	.L372
 2281 0096 2368     		ldr	r3, [r4]
 2282 0098 0290     		str	r0, [sp, #8]
 2283 009a 5969     		ldr	r1, [r3, #20]
 2284 009c 0291     		str	r1, [sp, #8]
 2285 009e 9B69     		ldr	r3, [r3, #24]
 2286 00a0 0293     		str	r3, [sp, #8]
 2287 00a2 029B     		ldr	r3, [sp, #8]
 2288 00a4 2369     		ldr	r3, [r4, #16]
ARM GAS  /tmp/ccN79Q8s.s 			page 40


 2289 00a6 B3F5404F 		cmp	r3, #49152
 2290 00aa 0ED1     		bne	.L357
 2291 00ac 3346     		mov	r3, r6
 2292 00ae 2046     		mov	r0, r4
 2293 00b0 2949     		ldr	r1, .L373
 2294 00b2 0097     		str	r7, [sp]
 2295 00b4 FFF7FEFF 		bl	I2C_WaitOnFlagUntilTimeout
 2296 00b8 0028     		cmp	r0, #0
 2297 00ba B3D1     		bne	.L372
 2298 00bc 2368     		ldr	r3, [r4]
 2299 00be 0390     		str	r0, [sp, #12]
 2300 00c0 5A69     		ldr	r2, [r3, #20]
 2301 00c2 0392     		str	r2, [sp, #12]
 2302 00c4 9B69     		ldr	r3, [r3, #24]
 2303 00c6 0393     		str	r3, [sp, #12]
 2304 00c8 039B     		ldr	r3, [sp, #12]
 2305              	.L357:
 2306 00ca 228D     		ldrh	r2, [r4, #40]
 2307 00cc C2B9     		cbnz	r2, .L360
 2308 00ce 3346     		mov	r3, r6
 2309 00d0 4FF48231 		mov	r1, #66560
 2310 00d4 2046     		mov	r0, r4
 2311 00d6 0097     		str	r7, [sp]
 2312 00d8 FFF7FEFF 		bl	I2C_WaitOnFlagUntilTimeout
 2313 00dc 0028     		cmp	r0, #0
 2314 00de A1D1     		bne	.L372
 2315 00e0 6FF48062 		mvn	r2, #1024
 2316 00e4 2368     		ldr	r3, [r4]
 2317 00e6 5A61     		str	r2, [r3, #20]
 2318 00e8 1A68     		ldr	r2, [r3]
 2319 00ea 22F48062 		bic	r2, r2, #1024
 2320 00ee 1A60     		str	r2, [r3]
 2321 00f0 2023     		movs	r3, #32
 2322 00f2 84F83C00 		strb	r0, [r4, #60]
 2323 00f6 84F83D30 		strb	r3, [r4, #61]
 2324 00fa 84F83E00 		strb	r0, [r4, #62]
 2325 00fe 92E7     		b	.L352
 2326              	.L360:
 2327 0100 3A46     		mov	r2, r7
 2328 0102 3146     		mov	r1, r6
 2329 0104 2046     		mov	r0, r4
 2330 0106 FFF7FEFF 		bl	I2C_WaitOnTXEFlagUntilTimeout
 2331 010a 2268     		ldr	r2, [r4]
 2332 010c 20B1     		cbz	r0, .L358
 2333 010e 1368     		ldr	r3, [r2]
 2334 0110 23F48063 		bic	r3, r3, #1024
 2335 0114 1360     		str	r3, [r2]
 2336 0116 85E7     		b	.L372
 2337              	.L358:
 2338 0118 636A     		ldr	r3, [r4, #36]
 2339 011a 1946     		mov	r1, r3
 2340 011c 11F8010B 		ldrb	r0, [r1], #1	@ zero_extendqisi2
 2341 0120 1061     		str	r0, [r2, #16]
 2342 0122 6162     		str	r1, [r4, #36]
 2343 0124 618D     		ldrh	r1, [r4, #42]
 2344 0126 0139     		subs	r1, r1, #1
 2345 0128 89B2     		uxth	r1, r1
ARM GAS  /tmp/ccN79Q8s.s 			page 41


 2346 012a 6185     		strh	r1, [r4, #42]	@ movhi
 2347 012c 218D     		ldrh	r1, [r4, #40]
 2348 012e 5569     		ldr	r5, [r2, #20]
 2349 0130 481E     		subs	r0, r1, #1
 2350 0132 80B2     		uxth	r0, r0
 2351 0134 6D07     		lsls	r5, r5, #29
 2352 0136 2085     		strh	r0, [r4, #40]	@ movhi
 2353 0138 C7D5     		bpl	.L357
 2354 013a 0028     		cmp	r0, #0
 2355 013c C5D0     		beq	.L357
 2356 013e 5878     		ldrb	r0, [r3, #1]	@ zero_extendqisi2
 2357 0140 0233     		adds	r3, r3, #2
 2358 0142 1061     		str	r0, [r2, #16]
 2359 0144 6362     		str	r3, [r4, #36]
 2360 0146 638D     		ldrh	r3, [r4, #42]
 2361 0148 0239     		subs	r1, r1, #2
 2362 014a 013B     		subs	r3, r3, #1
 2363 014c 9BB2     		uxth	r3, r3
 2364 014e 6385     		strh	r3, [r4, #42]	@ movhi
 2365 0150 2185     		strh	r1, [r4, #40]	@ movhi
 2366 0152 BAE7     		b	.L357
 2367              	.L362:
 2368 0154 0220     		movs	r0, #2
 2369 0156 66E7     		b	.L352
 2370              	.L374:
 2371              		.align	2
 2372              	.L373:
 2373 0158 02000100 		.word	65538
 2374 015c 0000FFFF 		.word	-65536
 2376              		.section	.text.HAL_I2C_Slave_Receive,"ax",%progbits
 2377              		.align	1
 2378              		.global	HAL_I2C_Slave_Receive
 2379              		.syntax unified
 2380              		.thumb
 2381              		.thumb_func
 2382              		.fpu softvfp
 2384              	HAL_I2C_Slave_Receive:
 2385              		@ args = 0, pretend = 0, frame = 8
 2386              		@ frame_needed = 0, uses_anonymous_args = 0
 2387 0000 2DE9F043 		push	{r4, r5, r6, r7, r8, r9, lr}
 2388 0004 0446     		mov	r4, r0
 2389 0006 85B0     		sub	sp, sp, #20
 2390 0008 1E46     		mov	r6, r3
 2391 000a 8946     		mov	r9, r1
 2392 000c 9046     		mov	r8, r2
 2393 000e FFF7FEFF 		bl	HAL_GetTick
 2394 0012 94F83D30 		ldrb	r3, [r4, #61]	@ zero_extendqisi2
 2395 0016 0746     		mov	r7, r0
 2396 0018 202B     		cmp	r3, #32
 2397 001a 40F0AA80 		bne	.L390
 2398 001e B9F1000F 		cmp	r9, #0
 2399 0022 04D1     		bne	.L377
 2400              	.L403:
 2401 0024 0125     		movs	r5, #1
 2402              	.L401:
 2403 0026 2846     		mov	r0, r5
 2404 0028 05B0     		add	sp, sp, #20
ARM GAS  /tmp/ccN79Q8s.s 			page 42


 2405              		@ sp needed
 2406 002a BDE8F083 		pop	{r4, r5, r6, r7, r8, r9, pc}
 2407              	.L377:
 2408 002e B8F1000F 		cmp	r8, #0
 2409 0032 F7D0     		beq	.L403
 2410 0034 94F83C30 		ldrb	r3, [r4, #60]	@ zero_extendqisi2
 2411 0038 012B     		cmp	r3, #1
 2412 003a 00F09A80 		beq	.L390
 2413 003e 0123     		movs	r3, #1
 2414 0040 2568     		ldr	r5, [r4]
 2415 0042 84F83C30 		strb	r3, [r4, #60]
 2416 0046 2B68     		ldr	r3, [r5]
 2417 0048 0022     		movs	r2, #0
 2418 004a DB07     		lsls	r3, r3, #31
 2419 004c 58BF     		it	pl
 2420 004e 2B68     		ldrpl	r3, [r5]
 2421 0050 4949     		ldr	r1, .L404
 2422 0052 5CBF     		itt	pl
 2423 0054 43F00103 		orrpl	r3, r3, #1
 2424 0058 2B60     		strpl	r3, [r5]
 2425 005a 2B68     		ldr	r3, [r5]
 2426 005c 23F40063 		bic	r3, r3, #2048
 2427 0060 2B60     		str	r3, [r5]
 2428 0062 2223     		movs	r3, #34
 2429 0064 84F83D30 		strb	r3, [r4, #61]
 2430 0068 2023     		movs	r3, #32
 2431 006a 84F83E30 		strb	r3, [r4, #62]
 2432 006e 2264     		str	r2, [r4, #64]
 2433 0070 A4F82A80 		strh	r8, [r4, #42]	@ movhi
 2434 0074 638D     		ldrh	r3, [r4, #42]
 2435 0076 C4F82490 		str	r9, [r4, #36]
 2436 007a 2385     		strh	r3, [r4, #40]	@ movhi
 2437 007c 3F4B     		ldr	r3, .L404+4
 2438 007e E362     		str	r3, [r4, #44]
 2439 0080 2B68     		ldr	r3, [r5]
 2440 0082 43F48063 		orr	r3, r3, #1024
 2441 0086 2B60     		str	r3, [r5]
 2442 0088 0090     		str	r0, [sp]
 2443 008a 3346     		mov	r3, r6
 2444 008c 2046     		mov	r0, r4
 2445 008e FFF7FEFF 		bl	I2C_WaitOnFlagUntilTimeout
 2446 0092 0546     		mov	r5, r0
 2447 0094 0028     		cmp	r0, #0
 2448 0096 C5D1     		bne	.L403
 2449 0098 2368     		ldr	r3, [r4]
 2450 009a 0290     		str	r0, [sp, #8]
 2451 009c 5A69     		ldr	r2, [r3, #20]
 2452 009e 0292     		str	r2, [sp, #8]
 2453 00a0 9B69     		ldr	r3, [r3, #24]
 2454 00a2 0293     		str	r3, [sp, #8]
 2455 00a4 029B     		ldr	r3, [sp, #8]
 2456              	.L380:
 2457 00a6 238D     		ldrh	r3, [r4, #40]
 2458 00a8 C3B9     		cbnz	r3, .L383
 2459              	.L384:
 2460 00aa 2268     		ldr	r2, [r4]
 2461 00ac 5369     		ldr	r3, [r2, #20]
ARM GAS  /tmp/ccN79Q8s.s 			page 43


 2462 00ae DB06     		lsls	r3, r3, #27
 2463 00b0 41D5     		bpl	.L387
 2464 00b2 0023     		movs	r3, #0
 2465 00b4 0393     		str	r3, [sp, #12]
 2466 00b6 5169     		ldr	r1, [r2, #20]
 2467 00b8 0391     		str	r1, [sp, #12]
 2468 00ba 1168     		ldr	r1, [r2]
 2469 00bc 41F00101 		orr	r1, r1, #1
 2470 00c0 1160     		str	r1, [r2]
 2471 00c2 0399     		ldr	r1, [sp, #12]
 2472 00c4 1168     		ldr	r1, [r2]
 2473 00c6 21F48061 		bic	r1, r1, #1024
 2474 00ca 1160     		str	r1, [r2]
 2475 00cc 2022     		movs	r2, #32
 2476 00ce 84F83C30 		strb	r3, [r4, #60]
 2477 00d2 84F83D20 		strb	r2, [r4, #61]
 2478 00d6 84F83E30 		strb	r3, [r4, #62]
 2479 00da A4E7     		b	.L401
 2480              	.L383:
 2481 00dc 3A46     		mov	r2, r7
 2482 00de 3146     		mov	r1, r6
 2483 00e0 2046     		mov	r0, r4
 2484 00e2 FFF7FEFF 		bl	I2C_WaitOnRXNEFlagUntilTimeout
 2485 00e6 2368     		ldr	r3, [r4]
 2486 00e8 20B1     		cbz	r0, .L381
 2487 00ea 1A68     		ldr	r2, [r3]
 2488 00ec 22F48062 		bic	r2, r2, #1024
 2489 00f0 1A60     		str	r2, [r3]
 2490 00f2 97E7     		b	.L403
 2491              	.L381:
 2492 00f4 1A69     		ldr	r2, [r3, #16]
 2493 00f6 636A     		ldr	r3, [r4, #36]
 2494 00f8 1A70     		strb	r2, [r3]
 2495 00fa 628D     		ldrh	r2, [r4, #42]
 2496 00fc 616A     		ldr	r1, [r4, #36]
 2497 00fe 013A     		subs	r2, r2, #1
 2498 0100 92B2     		uxth	r2, r2
 2499 0102 4B1C     		adds	r3, r1, #1
 2500 0104 6285     		strh	r2, [r4, #42]	@ movhi
 2501 0106 2268     		ldr	r2, [r4]
 2502 0108 6362     		str	r3, [r4, #36]
 2503 010a 238D     		ldrh	r3, [r4, #40]
 2504 010c 5069     		ldr	r0, [r2, #20]
 2505 010e 013B     		subs	r3, r3, #1
 2506 0110 9BB2     		uxth	r3, r3
 2507 0112 4007     		lsls	r0, r0, #29
 2508 0114 2385     		strh	r3, [r4, #40]	@ movhi
 2509 0116 C6D5     		bpl	.L380
 2510 0118 002B     		cmp	r3, #0
 2511 011a C4D0     		beq	.L380
 2512 011c 1369     		ldr	r3, [r2, #16]
 2513 011e 4B70     		strb	r3, [r1, #1]
 2514 0120 636A     		ldr	r3, [r4, #36]
 2515 0122 0133     		adds	r3, r3, #1
 2516 0124 6362     		str	r3, [r4, #36]
 2517 0126 238D     		ldrh	r3, [r4, #40]
 2518 0128 013B     		subs	r3, r3, #1
ARM GAS  /tmp/ccN79Q8s.s 			page 44


 2519 012a 2385     		strh	r3, [r4, #40]	@ movhi
 2520 012c 638D     		ldrh	r3, [r4, #42]
 2521 012e 013B     		subs	r3, r3, #1
 2522 0130 9BB2     		uxth	r3, r3
 2523 0132 6385     		strh	r3, [r4, #42]	@ movhi
 2524 0134 B7E7     		b	.L380
 2525              	.L387:
 2526 0136 2046     		mov	r0, r4
 2527 0138 FFF7FEFF 		bl	I2C_IsAcknowledgeFailed
 2528 013c 98B9     		cbnz	r0, .L385
 2529 013e FFF7FEFF 		bl	HAL_GetTick
 2530 0142 C01B     		subs	r0, r0, r7
 2531 0144 8642     		cmp	r6, r0
 2532 0146 01D3     		bcc	.L386
 2533 0148 002E     		cmp	r6, #0
 2534 014a AED1     		bne	.L384
 2535              	.L386:
 2536 014c 0023     		movs	r3, #0
 2537 014e 2022     		movs	r2, #32
 2538 0150 2363     		str	r3, [r4, #48]
 2539 0152 84F83D20 		strb	r2, [r4, #61]
 2540 0156 84F83E30 		strb	r3, [r4, #62]
 2541 015a 226C     		ldr	r2, [r4, #64]
 2542 015c 84F83C30 		strb	r3, [r4, #60]
 2543 0160 42F02002 		orr	r2, r2, #32
 2544 0164 2264     		str	r2, [r4, #64]
 2545              	.L385:
 2546 0166 2268     		ldr	r2, [r4]
 2547 0168 1368     		ldr	r3, [r2]
 2548 016a 23F48063 		bic	r3, r3, #1024
 2549 016e 1360     		str	r3, [r2]
 2550 0170 58E7     		b	.L403
 2551              	.L390:
 2552 0172 0225     		movs	r5, #2
 2553 0174 57E7     		b	.L401
 2554              	.L405:
 2555 0176 00BF     		.align	2
 2556              	.L404:
 2557 0178 02000100 		.word	65538
 2558 017c 0000FFFF 		.word	-65536
 2560              		.section	.text.HAL_I2C_Master_Transmit_IT,"ax",%progbits
 2561              		.align	1
 2562              		.global	HAL_I2C_Master_Transmit_IT
 2563              		.syntax unified
 2564              		.thumb
 2565              		.thumb_func
 2566              		.fpu softvfp
 2568              	HAL_I2C_Master_Transmit_IT:
 2569              		@ args = 0, pretend = 0, frame = 8
 2570              		@ frame_needed = 0, uses_anonymous_args = 0
 2571 0000 37B5     		push	{r0, r1, r2, r4, r5, lr}
 2572 0002 0024     		movs	r4, #0
 2573 0004 0194     		str	r4, [sp, #4]
 2574 0006 90F83D40 		ldrb	r4, [r0, #61]	@ zero_extendqisi2
 2575 000a 202C     		cmp	r4, #32
 2576 000c 02D0     		beq	.L407
 2577              	.L411:
ARM GAS  /tmp/ccN79Q8s.s 			page 45


 2578 000e 0220     		movs	r0, #2
 2579              	.L408:
 2580 0010 03B0     		add	sp, sp, #12
 2581              		@ sp needed
 2582 0012 30BD     		pop	{r4, r5, pc}
 2583              	.L407:
 2584 0014 46F2A815 		movw	r5, #25000
 2585 0018 234C     		ldr	r4, .L417
 2586 001a 2468     		ldr	r4, [r4]
 2587 001c B4FBF5F5 		udiv	r5, r4, r5
 2588 0020 1924     		movs	r4, #25
 2589 0022 6C43     		muls	r4, r5, r4
 2590 0024 0194     		str	r4, [sp, #4]
 2591              	.L410:
 2592 0026 019C     		ldr	r4, [sp, #4]
 2593 0028 013C     		subs	r4, r4, #1
 2594 002a 0194     		str	r4, [sp, #4]
 2595 002c 019C     		ldr	r4, [sp, #4]
 2596 002e 6CB9     		cbnz	r4, .L409
 2597 0030 2023     		movs	r3, #32
 2598 0032 0463     		str	r4, [r0, #48]
 2599 0034 80F83D30 		strb	r3, [r0, #61]
 2600 0038 80F83E40 		strb	r4, [r0, #62]
 2601 003c 036C     		ldr	r3, [r0, #64]
 2602 003e 80F83C40 		strb	r4, [r0, #60]
 2603 0042 43F02003 		orr	r3, r3, #32
 2604 0046 0364     		str	r3, [r0, #64]
 2605 0048 0120     		movs	r0, #1
 2606 004a E1E7     		b	.L408
 2607              	.L409:
 2608 004c 0468     		ldr	r4, [r0]
 2609 004e A569     		ldr	r5, [r4, #24]
 2610 0050 AD07     		lsls	r5, r5, #30
 2611 0052 E8D4     		bmi	.L410
 2612 0054 90F83C50 		ldrb	r5, [r0, #60]	@ zero_extendqisi2
 2613 0058 012D     		cmp	r5, #1
 2614 005a D8D0     		beq	.L411
 2615 005c 2568     		ldr	r5, [r4]
 2616 005e ED07     		lsls	r5, r5, #31
 2617 0060 5EBF     		ittt	pl
 2618 0062 2568     		ldrpl	r5, [r4]
 2619 0064 45F00105 		orrpl	r5, r5, #1
 2620 0068 2560     		strpl	r5, [r4]
 2621 006a 2568     		ldr	r5, [r4]
 2622 006c 25F40065 		bic	r5, r5, #2048
 2623 0070 2560     		str	r5, [r4]
 2624 0072 2125     		movs	r5, #33
 2625 0074 80F83D50 		strb	r5, [r0, #61]
 2626 0078 1025     		movs	r5, #16
 2627 007a 80F83E50 		strb	r5, [r0, #62]
 2628 007e 0025     		movs	r5, #0
 2629 0080 0564     		str	r5, [r0, #64]
 2630 0082 4385     		strh	r3, [r0, #42]	@ movhi
 2631 0084 438D     		ldrh	r3, [r0, #42]
 2632 0086 4262     		str	r2, [r0, #36]
 2633 0088 0385     		strh	r3, [r0, #40]	@ movhi
 2634 008a 084B     		ldr	r3, .L417+4
ARM GAS  /tmp/ccN79Q8s.s 			page 46


 2635 008c C362     		str	r3, [r0, #44]
 2636 008e 4164     		str	r1, [r0, #68]
 2637 0090 2368     		ldr	r3, [r4]
 2638 0092 43F48073 		orr	r3, r3, #256
 2639 0096 2360     		str	r3, [r4]
 2640 0098 80F83C50 		strb	r5, [r0, #60]
 2641 009c 6368     		ldr	r3, [r4, #4]
 2642 009e 2846     		mov	r0, r5
 2643 00a0 43F4E063 		orr	r3, r3, #1792
 2644 00a4 6360     		str	r3, [r4, #4]
 2645 00a6 B3E7     		b	.L408
 2646              	.L418:
 2647              		.align	2
 2648              	.L417:
 2649 00a8 00000000 		.word	SystemCoreClock
 2650 00ac 0000FFFF 		.word	-65536
 2652              		.section	.text.HAL_I2C_Master_Receive_IT,"ax",%progbits
 2653              		.align	1
 2654              		.global	HAL_I2C_Master_Receive_IT
 2655              		.syntax unified
 2656              		.thumb
 2657              		.thumb_func
 2658              		.fpu softvfp
 2660              	HAL_I2C_Master_Receive_IT:
 2661              		@ args = 0, pretend = 0, frame = 8
 2662              		@ frame_needed = 0, uses_anonymous_args = 0
 2663 0000 37B5     		push	{r0, r1, r2, r4, r5, lr}
 2664 0002 0024     		movs	r4, #0
 2665 0004 0194     		str	r4, [sp, #4]
 2666 0006 90F83D40 		ldrb	r4, [r0, #61]	@ zero_extendqisi2
 2667 000a 202C     		cmp	r4, #32
 2668 000c 02D0     		beq	.L420
 2669              	.L424:
 2670 000e 0220     		movs	r0, #2
 2671              	.L421:
 2672 0010 03B0     		add	sp, sp, #12
 2673              		@ sp needed
 2674 0012 30BD     		pop	{r4, r5, pc}
 2675              	.L420:
 2676 0014 46F2A815 		movw	r5, #25000
 2677 0018 254C     		ldr	r4, .L430
 2678 001a 2468     		ldr	r4, [r4]
 2679 001c B4FBF5F5 		udiv	r5, r4, r5
 2680 0020 1924     		movs	r4, #25
 2681 0022 6C43     		muls	r4, r5, r4
 2682 0024 0194     		str	r4, [sp, #4]
 2683              	.L423:
 2684 0026 019C     		ldr	r4, [sp, #4]
 2685 0028 013C     		subs	r4, r4, #1
 2686 002a 0194     		str	r4, [sp, #4]
 2687 002c 019C     		ldr	r4, [sp, #4]
 2688 002e 6CB9     		cbnz	r4, .L422
 2689 0030 2023     		movs	r3, #32
 2690 0032 0463     		str	r4, [r0, #48]
 2691 0034 80F83D30 		strb	r3, [r0, #61]
 2692 0038 80F83E40 		strb	r4, [r0, #62]
 2693 003c 036C     		ldr	r3, [r0, #64]
ARM GAS  /tmp/ccN79Q8s.s 			page 47


 2694 003e 80F83C40 		strb	r4, [r0, #60]
 2695 0042 43F02003 		orr	r3, r3, #32
 2696 0046 0364     		str	r3, [r0, #64]
 2697 0048 0120     		movs	r0, #1
 2698 004a E1E7     		b	.L421
 2699              	.L422:
 2700 004c 0468     		ldr	r4, [r0]
 2701 004e A569     		ldr	r5, [r4, #24]
 2702 0050 AD07     		lsls	r5, r5, #30
 2703 0052 E8D4     		bmi	.L423
 2704 0054 90F83C50 		ldrb	r5, [r0, #60]	@ zero_extendqisi2
 2705 0058 012D     		cmp	r5, #1
 2706 005a D8D0     		beq	.L424
 2707 005c 2568     		ldr	r5, [r4]
 2708 005e ED07     		lsls	r5, r5, #31
 2709 0060 5EBF     		ittt	pl
 2710 0062 2568     		ldrpl	r5, [r4]
 2711 0064 45F00105 		orrpl	r5, r5, #1
 2712 0068 2560     		strpl	r5, [r4]
 2713 006a 2568     		ldr	r5, [r4]
 2714 006c 25F40065 		bic	r5, r5, #2048
 2715 0070 2560     		str	r5, [r4]
 2716 0072 2225     		movs	r5, #34
 2717 0074 80F83D50 		strb	r5, [r0, #61]
 2718 0078 1025     		movs	r5, #16
 2719 007a 80F83E50 		strb	r5, [r0, #62]
 2720 007e 0025     		movs	r5, #0
 2721 0080 0564     		str	r5, [r0, #64]
 2722 0082 4385     		strh	r3, [r0, #42]	@ movhi
 2723 0084 438D     		ldrh	r3, [r0, #42]
 2724 0086 4262     		str	r2, [r0, #36]
 2725 0088 0385     		strh	r3, [r0, #40]	@ movhi
 2726 008a 0A4B     		ldr	r3, .L430+4
 2727 008c C362     		str	r3, [r0, #44]
 2728 008e 4164     		str	r1, [r0, #68]
 2729 0090 2368     		ldr	r3, [r4]
 2730 0092 43F48063 		orr	r3, r3, #1024
 2731 0096 2360     		str	r3, [r4]
 2732 0098 2368     		ldr	r3, [r4]
 2733 009a 43F48073 		orr	r3, r3, #256
 2734 009e 2360     		str	r3, [r4]
 2735 00a0 80F83C50 		strb	r5, [r0, #60]
 2736 00a4 6368     		ldr	r3, [r4, #4]
 2737 00a6 2846     		mov	r0, r5
 2738 00a8 43F4E063 		orr	r3, r3, #1792
 2739 00ac 6360     		str	r3, [r4, #4]
 2740 00ae AFE7     		b	.L421
 2741              	.L431:
 2742              		.align	2
 2743              	.L430:
 2744 00b0 00000000 		.word	SystemCoreClock
 2745 00b4 0000FFFF 		.word	-65536
 2747              		.section	.text.HAL_I2C_Slave_Transmit_IT,"ax",%progbits
 2748              		.align	1
 2749              		.global	HAL_I2C_Slave_Transmit_IT
 2750              		.syntax unified
 2751              		.thumb
ARM GAS  /tmp/ccN79Q8s.s 			page 48


 2752              		.thumb_func
 2753              		.fpu softvfp
 2755              	HAL_I2C_Slave_Transmit_IT:
 2756              		@ args = 0, pretend = 0, frame = 0
 2757              		@ frame_needed = 0, uses_anonymous_args = 0
 2758 0000 10B5     		push	{r4, lr}
 2759 0002 90F83D30 		ldrb	r3, [r0, #61]	@ zero_extendqisi2
 2760 0006 202B     		cmp	r3, #32
 2761 0008 2DD1     		bne	.L438
 2762 000a 51B3     		cbz	r1, .L437
 2763 000c 4AB3     		cbz	r2, .L437
 2764 000e 90F83C30 		ldrb	r3, [r0, #60]	@ zero_extendqisi2
 2765 0012 012B     		cmp	r3, #1
 2766 0014 27D0     		beq	.L438
 2767 0016 0468     		ldr	r4, [r0]
 2768 0018 2368     		ldr	r3, [r4]
 2769 001a DB07     		lsls	r3, r3, #31
 2770 001c 5EBF     		ittt	pl
 2771 001e 2368     		ldrpl	r3, [r4]
 2772 0020 43F00103 		orrpl	r3, r3, #1
 2773 0024 2360     		strpl	r3, [r4]
 2774 0026 2368     		ldr	r3, [r4]
 2775 0028 23F40063 		bic	r3, r3, #2048
 2776 002c 2360     		str	r3, [r4]
 2777 002e 2123     		movs	r3, #33
 2778 0030 80F83D30 		strb	r3, [r0, #61]
 2779 0034 2023     		movs	r3, #32
 2780 0036 80F83E30 		strb	r3, [r0, #62]
 2781 003a 0023     		movs	r3, #0
 2782 003c 0364     		str	r3, [r0, #64]
 2783 003e 4285     		strh	r2, [r0, #42]	@ movhi
 2784 0040 428D     		ldrh	r2, [r0, #42]
 2785 0042 4162     		str	r1, [r0, #36]
 2786 0044 0285     		strh	r2, [r0, #40]	@ movhi
 2787 0046 094A     		ldr	r2, .L439
 2788 0048 C262     		str	r2, [r0, #44]
 2789 004a 2268     		ldr	r2, [r4]
 2790 004c 42F48062 		orr	r2, r2, #1024
 2791 0050 2260     		str	r2, [r4]
 2792 0052 80F83C30 		strb	r3, [r0, #60]
 2793 0056 1846     		mov	r0, r3
 2794 0058 6268     		ldr	r2, [r4, #4]
 2795 005a 42F4E062 		orr	r2, r2, #1792
 2796 005e 6260     		str	r2, [r4, #4]
 2797              	.L433:
 2798 0060 10BD     		pop	{r4, pc}
 2799              	.L437:
 2800 0062 0120     		movs	r0, #1
 2801 0064 FCE7     		b	.L433
 2802              	.L438:
 2803 0066 0220     		movs	r0, #2
 2804 0068 FAE7     		b	.L433
 2805              	.L440:
 2806 006a 00BF     		.align	2
 2807              	.L439:
 2808 006c 0000FFFF 		.word	-65536
 2810              		.section	.text.HAL_I2C_Slave_Receive_IT,"ax",%progbits
ARM GAS  /tmp/ccN79Q8s.s 			page 49


 2811              		.align	1
 2812              		.global	HAL_I2C_Slave_Receive_IT
 2813              		.syntax unified
 2814              		.thumb
 2815              		.thumb_func
 2816              		.fpu softvfp
 2818              	HAL_I2C_Slave_Receive_IT:
 2819              		@ args = 0, pretend = 0, frame = 0
 2820              		@ frame_needed = 0, uses_anonymous_args = 0
 2821 0000 10B5     		push	{r4, lr}
 2822 0002 90F83D30 		ldrb	r3, [r0, #61]	@ zero_extendqisi2
 2823 0006 202B     		cmp	r3, #32
 2824 0008 2DD1     		bne	.L447
 2825 000a 51B3     		cbz	r1, .L446
 2826 000c 4AB3     		cbz	r2, .L446
 2827 000e 90F83C30 		ldrb	r3, [r0, #60]	@ zero_extendqisi2
 2828 0012 012B     		cmp	r3, #1
 2829 0014 27D0     		beq	.L447
 2830 0016 0468     		ldr	r4, [r0]
 2831 0018 2368     		ldr	r3, [r4]
 2832 001a DB07     		lsls	r3, r3, #31
 2833 001c 5EBF     		ittt	pl
 2834 001e 2368     		ldrpl	r3, [r4]
 2835 0020 43F00103 		orrpl	r3, r3, #1
 2836 0024 2360     		strpl	r3, [r4]
 2837 0026 2368     		ldr	r3, [r4]
 2838 0028 23F40063 		bic	r3, r3, #2048
 2839 002c 2360     		str	r3, [r4]
 2840 002e 2223     		movs	r3, #34
 2841 0030 80F83D30 		strb	r3, [r0, #61]
 2842 0034 2023     		movs	r3, #32
 2843 0036 80F83E30 		strb	r3, [r0, #62]
 2844 003a 0023     		movs	r3, #0
 2845 003c 0364     		str	r3, [r0, #64]
 2846 003e 4285     		strh	r2, [r0, #42]	@ movhi
 2847 0040 428D     		ldrh	r2, [r0, #42]
 2848 0042 4162     		str	r1, [r0, #36]
 2849 0044 0285     		strh	r2, [r0, #40]	@ movhi
 2850 0046 094A     		ldr	r2, .L448
 2851 0048 C262     		str	r2, [r0, #44]
 2852 004a 2268     		ldr	r2, [r4]
 2853 004c 42F48062 		orr	r2, r2, #1024
 2854 0050 2260     		str	r2, [r4]
 2855 0052 80F83C30 		strb	r3, [r0, #60]
 2856 0056 1846     		mov	r0, r3
 2857 0058 6268     		ldr	r2, [r4, #4]
 2858 005a 42F4E062 		orr	r2, r2, #1792
 2859 005e 6260     		str	r2, [r4, #4]
 2860              	.L442:
 2861 0060 10BD     		pop	{r4, pc}
 2862              	.L446:
 2863 0062 0120     		movs	r0, #1
 2864 0064 FCE7     		b	.L442
 2865              	.L447:
 2866 0066 0220     		movs	r0, #2
 2867 0068 FAE7     		b	.L442
 2868              	.L449:
ARM GAS  /tmp/ccN79Q8s.s 			page 50


 2869 006a 00BF     		.align	2
 2870              	.L448:
 2871 006c 0000FFFF 		.word	-65536
 2873              		.section	.text.HAL_I2C_Master_Transmit_DMA,"ax",%progbits
 2874              		.align	1
 2875              		.global	HAL_I2C_Master_Transmit_DMA
 2876              		.syntax unified
 2877              		.thumb
 2878              		.thumb_func
 2879              		.fpu softvfp
 2881              	HAL_I2C_Master_Transmit_DMA:
 2882              		@ args = 0, pretend = 0, frame = 8
 2883              		@ frame_needed = 0, uses_anonymous_args = 0
 2884 0000 F7B5     		push	{r0, r1, r2, r4, r5, r6, r7, lr}
 2885 0002 0F46     		mov	r7, r1
 2886 0004 1146     		mov	r1, r2
 2887 0006 0022     		movs	r2, #0
 2888 0008 0192     		str	r2, [sp, #4]
 2889 000a 90F83D20 		ldrb	r2, [r0, #61]	@ zero_extendqisi2
 2890 000e 0446     		mov	r4, r0
 2891 0010 202A     		cmp	r2, #32
 2892 0012 02D0     		beq	.L451
 2893              	.L455:
 2894 0014 0220     		movs	r0, #2
 2895              	.L452:
 2896 0016 03B0     		add	sp, sp, #12
 2897              		@ sp needed
 2898 0018 F0BD     		pop	{r4, r5, r6, r7, pc}
 2899              	.L451:
 2900 001a 46F2A810 		movw	r0, #25000
 2901 001e 3E4A     		ldr	r2, .L464
 2902 0020 1268     		ldr	r2, [r2]
 2903 0022 B2FBF0F0 		udiv	r0, r2, r0
 2904 0026 1922     		movs	r2, #25
 2905 0028 4243     		muls	r2, r0, r2
 2906 002a 0192     		str	r2, [sp, #4]
 2907              	.L454:
 2908 002c 019A     		ldr	r2, [sp, #4]
 2909 002e 013A     		subs	r2, r2, #1
 2910 0030 0192     		str	r2, [sp, #4]
 2911 0032 019A     		ldr	r2, [sp, #4]
 2912 0034 6AB9     		cbnz	r2, .L453
 2913 0036 2023     		movs	r3, #32
 2914 0038 2263     		str	r2, [r4, #48]
 2915 003a 84F83D30 		strb	r3, [r4, #61]
 2916 003e 84F83E20 		strb	r2, [r4, #62]
 2917 0042 236C     		ldr	r3, [r4, #64]
 2918 0044 84F83C20 		strb	r2, [r4, #60]
 2919 0048 43F02003 		orr	r3, r3, #32
 2920 004c 2364     		str	r3, [r4, #64]
 2921              	.L463:
 2922 004e 0120     		movs	r0, #1
 2923 0050 E1E7     		b	.L452
 2924              	.L453:
 2925 0052 2568     		ldr	r5, [r4]
 2926 0054 AA69     		ldr	r2, [r5, #24]
 2927 0056 9007     		lsls	r0, r2, #30
ARM GAS  /tmp/ccN79Q8s.s 			page 51


 2928 0058 E8D4     		bmi	.L454
 2929 005a 94F83C20 		ldrb	r2, [r4, #60]	@ zero_extendqisi2
 2930 005e 012A     		cmp	r2, #1
 2931 0060 D8D0     		beq	.L455
 2932 0062 0122     		movs	r2, #1
 2933 0064 84F83C20 		strb	r2, [r4, #60]
 2934 0068 2A68     		ldr	r2, [r5]
 2935 006a 0026     		movs	r6, #0
 2936 006c D207     		lsls	r2, r2, #31
 2937 006e 5EBF     		ittt	pl
 2938 0070 2A68     		ldrpl	r2, [r5]
 2939 0072 42F00102 		orrpl	r2, r2, #1
 2940 0076 2A60     		strpl	r2, [r5]
 2941 0078 2A68     		ldr	r2, [r5]
 2942 007a 22F40062 		bic	r2, r2, #2048
 2943 007e 2A60     		str	r2, [r5]
 2944 0080 2122     		movs	r2, #33
 2945 0082 84F83D20 		strb	r2, [r4, #61]
 2946 0086 1022     		movs	r2, #16
 2947 0088 84F83E20 		strb	r2, [r4, #62]
 2948 008c 2664     		str	r6, [r4, #64]
 2949 008e 6385     		strh	r3, [r4, #42]	@ movhi
 2950 0090 608D     		ldrh	r0, [r4, #42]
 2951 0092 224A     		ldr	r2, .L464+4
 2952 0094 83B2     		uxth	r3, r0
 2953 0096 E262     		str	r2, [r4, #44]
 2954 0098 6162     		str	r1, [r4, #36]
 2955 009a 2385     		strh	r3, [r4, #40]	@ movhi
 2956 009c 6764     		str	r7, [r4, #68]
 2957 009e 5BB3     		cbz	r3, .L457
 2958 00a0 606B     		ldr	r0, [r4, #52]
 2959 00a2 1F4A     		ldr	r2, .L464+8
 2960 00a4 4663     		str	r6, [r0, #52]
 2961 00a6 8262     		str	r2, [r0, #40]
 2962 00a8 1E4A     		ldr	r2, .L464+12
 2963 00aa C0E90B62 		strd	r6, r2, [r0, #44]
 2964 00ae 05F11002 		add	r2, r5, #16
 2965 00b2 FFF7FEFF 		bl	HAL_DMA_Start_IT
 2966 00b6 98B9     		cbnz	r0, .L458
 2967 00b8 2368     		ldr	r3, [r4]
 2968 00ba 1A68     		ldr	r2, [r3]
 2969 00bc 42F48062 		orr	r2, r2, #1024
 2970 00c0 1A60     		str	r2, [r3]
 2971 00c2 1A68     		ldr	r2, [r3]
 2972 00c4 42F48072 		orr	r2, r2, #256
 2973 00c8 1A60     		str	r2, [r3]
 2974 00ca 84F83C00 		strb	r0, [r4, #60]
 2975 00ce 5A68     		ldr	r2, [r3, #4]
 2976 00d0 42F44072 		orr	r2, r2, #768
 2977 00d4 5A60     		str	r2, [r3, #4]
 2978 00d6 5A68     		ldr	r2, [r3, #4]
 2979 00d8 42F40062 		orr	r2, r2, #2048
 2980 00dc 5A60     		str	r2, [r3, #4]
 2981 00de 9AE7     		b	.L452
 2982              	.L458:
 2983 00e0 2023     		movs	r3, #32
 2984 00e2 84F83D30 		strb	r3, [r4, #61]
ARM GAS  /tmp/ccN79Q8s.s 			page 52


 2985 00e6 84F83E60 		strb	r6, [r4, #62]
 2986 00ea 236C     		ldr	r3, [r4, #64]
 2987 00ec 84F83C60 		strb	r6, [r4, #60]
 2988 00f0 43F01003 		orr	r3, r3, #16
 2989 00f4 2364     		str	r3, [r4, #64]
 2990 00f6 AAE7     		b	.L463
 2991              	.L457:
 2992 00f8 2A68     		ldr	r2, [r5]
 2993 00fa 1846     		mov	r0, r3
 2994 00fc 42F48062 		orr	r2, r2, #1024
 2995 0100 2A60     		str	r2, [r5]
 2996 0102 2A68     		ldr	r2, [r5]
 2997 0104 42F48072 		orr	r2, r2, #256
 2998 0108 2A60     		str	r2, [r5]
 2999 010a 84F83C30 		strb	r3, [r4, #60]
 3000 010e 6A68     		ldr	r2, [r5, #4]
 3001 0110 42F4E062 		orr	r2, r2, #1792
 3002 0114 6A60     		str	r2, [r5, #4]
 3003 0116 7EE7     		b	.L452
 3004              	.L465:
 3005              		.align	2
 3006              	.L464:
 3007 0118 00000000 		.word	SystemCoreClock
 3008 011c 0000FFFF 		.word	-65536
 3009 0120 00000000 		.word	I2C_DMAXferCplt
 3010 0124 00000000 		.word	I2C_DMAError
 3012              		.section	.text.HAL_I2C_Master_Receive_DMA,"ax",%progbits
 3013              		.align	1
 3014              		.global	HAL_I2C_Master_Receive_DMA
 3015              		.syntax unified
 3016              		.thumb
 3017              		.thumb_func
 3018              		.fpu softvfp
 3020              	HAL_I2C_Master_Receive_DMA:
 3021              		@ args = 0, pretend = 0, frame = 8
 3022              		@ frame_needed = 0, uses_anonymous_args = 0
 3023 0000 73B5     		push	{r0, r1, r4, r5, r6, lr}
 3024 0002 0446     		mov	r4, r0
 3025 0004 0020     		movs	r0, #0
 3026 0006 0190     		str	r0, [sp, #4]
 3027 0008 94F83D00 		ldrb	r0, [r4, #61]	@ zero_extendqisi2
 3028 000c 2028     		cmp	r0, #32
 3029 000e 02D0     		beq	.L467
 3030              	.L471:
 3031 0010 0220     		movs	r0, #2
 3032              	.L468:
 3033 0012 02B0     		add	sp, sp, #8
 3034              		@ sp needed
 3035 0014 70BD     		pop	{r4, r5, r6, pc}
 3036              	.L467:
 3037 0016 46F2A815 		movw	r5, #25000
 3038 001a 3E48     		ldr	r0, .L480
 3039 001c 0068     		ldr	r0, [r0]
 3040 001e B0FBF5F5 		udiv	r5, r0, r5
 3041 0022 1920     		movs	r0, #25
 3042 0024 6843     		muls	r0, r5, r0
 3043 0026 0190     		str	r0, [sp, #4]
ARM GAS  /tmp/ccN79Q8s.s 			page 53


 3044              	.L470:
 3045 0028 0198     		ldr	r0, [sp, #4]
 3046 002a 0138     		subs	r0, r0, #1
 3047 002c 0190     		str	r0, [sp, #4]
 3048 002e 0198     		ldr	r0, [sp, #4]
 3049 0030 68B9     		cbnz	r0, .L469
 3050 0032 2023     		movs	r3, #32
 3051 0034 2063     		str	r0, [r4, #48]
 3052 0036 84F83D30 		strb	r3, [r4, #61]
 3053 003a 84F83E00 		strb	r0, [r4, #62]
 3054 003e 236C     		ldr	r3, [r4, #64]
 3055 0040 84F83C00 		strb	r0, [r4, #60]
 3056 0044 43F02003 		orr	r3, r3, #32
 3057 0048 2364     		str	r3, [r4, #64]
 3058              	.L479:
 3059 004a 0120     		movs	r0, #1
 3060 004c E1E7     		b	.L468
 3061              	.L469:
 3062 004e 2568     		ldr	r5, [r4]
 3063 0050 A869     		ldr	r0, [r5, #24]
 3064 0052 8607     		lsls	r6, r0, #30
 3065 0054 E8D4     		bmi	.L470
 3066 0056 94F83C00 		ldrb	r0, [r4, #60]	@ zero_extendqisi2
 3067 005a 0128     		cmp	r0, #1
 3068 005c D8D0     		beq	.L471
 3069 005e 0120     		movs	r0, #1
 3070 0060 84F83C00 		strb	r0, [r4, #60]
 3071 0064 2868     		ldr	r0, [r5]
 3072 0066 0026     		movs	r6, #0
 3073 0068 C007     		lsls	r0, r0, #31
 3074 006a 5EBF     		ittt	pl
 3075 006c 2868     		ldrpl	r0, [r5]
 3076 006e 40F00100 		orrpl	r0, r0, #1
 3077 0072 2860     		strpl	r0, [r5]
 3078 0074 2868     		ldr	r0, [r5]
 3079 0076 20F40060 		bic	r0, r0, #2048
 3080 007a 2860     		str	r0, [r5]
 3081 007c 2220     		movs	r0, #34
 3082 007e 84F83D00 		strb	r0, [r4, #61]
 3083 0082 1020     		movs	r0, #16
 3084 0084 84F83E00 		strb	r0, [r4, #62]
 3085 0088 2664     		str	r6, [r4, #64]
 3086 008a 6385     		strh	r3, [r4, #42]	@ movhi
 3087 008c 608D     		ldrh	r0, [r4, #42]
 3088 008e 6262     		str	r2, [r4, #36]
 3089 0090 83B2     		uxth	r3, r0
 3090 0092 2148     		ldr	r0, .L480+4
 3091 0094 2385     		strh	r3, [r4, #40]	@ movhi
 3092 0096 E062     		str	r0, [r4, #44]
 3093 0098 6164     		str	r1, [r4, #68]
 3094 009a 5BB3     		cbz	r3, .L473
 3095 009c A06B     		ldr	r0, [r4, #56]
 3096 009e 1F49     		ldr	r1, .L480+8
 3097 00a0 4663     		str	r6, [r0, #52]
 3098 00a2 8162     		str	r1, [r0, #40]
 3099 00a4 1E49     		ldr	r1, .L480+12
 3100 00a6 C0E90B61 		strd	r6, r1, [r0, #44]
ARM GAS  /tmp/ccN79Q8s.s 			page 54


 3101 00aa 05F11001 		add	r1, r5, #16
 3102 00ae FFF7FEFF 		bl	HAL_DMA_Start_IT
 3103 00b2 98B9     		cbnz	r0, .L474
 3104 00b4 2368     		ldr	r3, [r4]
 3105 00b6 1A68     		ldr	r2, [r3]
 3106 00b8 42F48062 		orr	r2, r2, #1024
 3107 00bc 1A60     		str	r2, [r3]
 3108 00be 1A68     		ldr	r2, [r3]
 3109 00c0 42F48072 		orr	r2, r2, #256
 3110 00c4 1A60     		str	r2, [r3]
 3111 00c6 84F83C00 		strb	r0, [r4, #60]
 3112 00ca 5A68     		ldr	r2, [r3, #4]
 3113 00cc 42F44072 		orr	r2, r2, #768
 3114 00d0 5A60     		str	r2, [r3, #4]
 3115 00d2 5A68     		ldr	r2, [r3, #4]
 3116 00d4 42F40062 		orr	r2, r2, #2048
 3117 00d8 5A60     		str	r2, [r3, #4]
 3118 00da 9AE7     		b	.L468
 3119              	.L474:
 3120 00dc 2023     		movs	r3, #32
 3121 00de 84F83D30 		strb	r3, [r4, #61]
 3122 00e2 84F83E60 		strb	r6, [r4, #62]
 3123 00e6 236C     		ldr	r3, [r4, #64]
 3124 00e8 84F83C60 		strb	r6, [r4, #60]
 3125 00ec 43F01003 		orr	r3, r3, #16
 3126 00f0 2364     		str	r3, [r4, #64]
 3127 00f2 AAE7     		b	.L479
 3128              	.L473:
 3129 00f4 2A68     		ldr	r2, [r5]
 3130 00f6 1846     		mov	r0, r3
 3131 00f8 42F48062 		orr	r2, r2, #1024
 3132 00fc 2A60     		str	r2, [r5]
 3133 00fe 2A68     		ldr	r2, [r5]
 3134 0100 42F48072 		orr	r2, r2, #256
 3135 0104 2A60     		str	r2, [r5]
 3136 0106 84F83C30 		strb	r3, [r4, #60]
 3137 010a 6A68     		ldr	r2, [r5, #4]
 3138 010c 42F4E062 		orr	r2, r2, #1792
 3139 0110 6A60     		str	r2, [r5, #4]
 3140 0112 7EE7     		b	.L468
 3141              	.L481:
 3142              		.align	2
 3143              	.L480:
 3144 0114 00000000 		.word	SystemCoreClock
 3145 0118 0000FFFF 		.word	-65536
 3146 011c 00000000 		.word	I2C_DMAXferCplt
 3147 0120 00000000 		.word	I2C_DMAError
 3149              		.section	.text.HAL_I2C_Slave_Transmit_DMA,"ax",%progbits
 3150              		.align	1
 3151              		.global	HAL_I2C_Slave_Transmit_DMA
 3152              		.syntax unified
 3153              		.thumb
 3154              		.thumb_func
 3155              		.fpu softvfp
 3157              	HAL_I2C_Slave_Transmit_DMA:
 3158              		@ args = 0, pretend = 0, frame = 0
 3159              		@ frame_needed = 0, uses_anonymous_args = 0
ARM GAS  /tmp/ccN79Q8s.s 			page 55


 3160 0000 F8B5     		push	{r3, r4, r5, r6, r7, lr}
 3161 0002 1346     		mov	r3, r2
 3162 0004 90F83D20 		ldrb	r2, [r0, #61]	@ zero_extendqisi2
 3163 0008 0446     		mov	r4, r0
 3164 000a 202A     		cmp	r2, #32
 3165 000c 4DD1     		bne	.L489
 3166 000e 0029     		cmp	r1, #0
 3167 0010 49D0     		beq	.L488
 3168 0012 002B     		cmp	r3, #0
 3169 0014 47D0     		beq	.L488
 3170 0016 90F83C20 		ldrb	r2, [r0, #60]	@ zero_extendqisi2
 3171 001a 012A     		cmp	r2, #1
 3172 001c 45D0     		beq	.L489
 3173 001e 0122     		movs	r2, #1
 3174 0020 80F83C20 		strb	r2, [r0, #60]
 3175 0024 0268     		ldr	r2, [r0]
 3176 0026 0025     		movs	r5, #0
 3177 0028 1068     		ldr	r0, [r2]
 3178 002a 2026     		movs	r6, #32
 3179 002c C007     		lsls	r0, r0, #31
 3180 002e 58BF     		it	pl
 3181 0030 1068     		ldrpl	r0, [r2]
 3182 0032 1F4F     		ldr	r7, .L490
 3183 0034 5CBF     		itt	pl
 3184 0036 40F00100 		orrpl	r0, r0, #1
 3185 003a 1060     		strpl	r0, [r2]
 3186 003c 1068     		ldr	r0, [r2]
 3187 003e 20F40060 		bic	r0, r0, #2048
 3188 0042 42F8100B 		str	r0, [r2], #16
 3189 0046 2120     		movs	r0, #33
 3190 0048 84F83D00 		strb	r0, [r4, #61]
 3191 004c 84F83E60 		strb	r6, [r4, #62]
 3192 0050 1848     		ldr	r0, .L490+4
 3193 0052 2564     		str	r5, [r4, #64]
 3194 0054 6385     		strh	r3, [r4, #42]	@ movhi
 3195 0056 638D     		ldrh	r3, [r4, #42]
 3196 0058 E062     		str	r0, [r4, #44]
 3197 005a 606B     		ldr	r0, [r4, #52]
 3198 005c 9BB2     		uxth	r3, r3
 3199 005e 6162     		str	r1, [r4, #36]
 3200 0060 2385     		strh	r3, [r4, #40]	@ movhi
 3201 0062 8762     		str	r7, [r0, #40]
 3202 0064 144F     		ldr	r7, .L490+8
 3203 0066 4563     		str	r5, [r0, #52]
 3204 0068 C0E90B57 		strd	r5, r7, [r0, #44]
 3205 006c FFF7FEFF 		bl	HAL_DMA_Start_IT
 3206 0070 78B9     		cbnz	r0, .L485
 3207 0072 2368     		ldr	r3, [r4]
 3208 0074 1A68     		ldr	r2, [r3]
 3209 0076 42F48062 		orr	r2, r2, #1024
 3210 007a 1A60     		str	r2, [r3]
 3211 007c 84F83C00 		strb	r0, [r4, #60]
 3212 0080 5A68     		ldr	r2, [r3, #4]
 3213 0082 42F44072 		orr	r2, r2, #768
 3214 0086 5A60     		str	r2, [r3, #4]
 3215 0088 5A68     		ldr	r2, [r3, #4]
 3216 008a 42F40062 		orr	r2, r2, #2048
ARM GAS  /tmp/ccN79Q8s.s 			page 56


 3217 008e 5A60     		str	r2, [r3, #4]
 3218              	.L483:
 3219 0090 F8BD     		pop	{r3, r4, r5, r6, r7, pc}
 3220              	.L485:
 3221 0092 84F83D60 		strb	r6, [r4, #61]
 3222 0096 84F83E50 		strb	r5, [r4, #62]
 3223 009a 236C     		ldr	r3, [r4, #64]
 3224 009c 84F83C50 		strb	r5, [r4, #60]
 3225 00a0 43F01003 		orr	r3, r3, #16
 3226 00a4 2364     		str	r3, [r4, #64]
 3227              	.L488:
 3228 00a6 0120     		movs	r0, #1
 3229 00a8 F2E7     		b	.L483
 3230              	.L489:
 3231 00aa 0220     		movs	r0, #2
 3232 00ac F0E7     		b	.L483
 3233              	.L491:
 3234 00ae 00BF     		.align	2
 3235              	.L490:
 3236 00b0 00000000 		.word	I2C_DMAXferCplt
 3237 00b4 0000FFFF 		.word	-65536
 3238 00b8 00000000 		.word	I2C_DMAError
 3240              		.section	.text.HAL_I2C_Slave_Receive_DMA,"ax",%progbits
 3241              		.align	1
 3242              		.global	HAL_I2C_Slave_Receive_DMA
 3243              		.syntax unified
 3244              		.thumb
 3245              		.thumb_func
 3246              		.fpu softvfp
 3248              	HAL_I2C_Slave_Receive_DMA:
 3249              		@ args = 0, pretend = 0, frame = 0
 3250              		@ frame_needed = 0, uses_anonymous_args = 0
 3251 0000 F8B5     		push	{r3, r4, r5, r6, r7, lr}
 3252 0002 90F83D30 		ldrb	r3, [r0, #61]	@ zero_extendqisi2
 3253 0006 0446     		mov	r4, r0
 3254 0008 202B     		cmp	r3, #32
 3255 000a 0E46     		mov	r6, r1
 3256 000c 4FD1     		bne	.L499
 3257 000e 0029     		cmp	r1, #0
 3258 0010 4BD0     		beq	.L498
 3259 0012 002A     		cmp	r2, #0
 3260 0014 49D0     		beq	.L498
 3261 0016 90F83C30 		ldrb	r3, [r0, #60]	@ zero_extendqisi2
 3262 001a 012B     		cmp	r3, #1
 3263 001c 47D0     		beq	.L499
 3264 001e 0123     		movs	r3, #1
 3265 0020 0168     		ldr	r1, [r0]
 3266 0022 80F83C30 		strb	r3, [r0, #60]
 3267 0026 0B68     		ldr	r3, [r1]
 3268 0028 0025     		movs	r5, #0
 3269 002a DB07     		lsls	r3, r3, #31
 3270 002c 58BF     		it	pl
 3271 002e 0B68     		ldrpl	r3, [r1]
 3272 0030 4FF02007 		mov	r7, #32
 3273 0034 5CBF     		itt	pl
 3274 0036 43F00103 		orrpl	r3, r3, #1
 3275 003a 0B60     		strpl	r3, [r1]
ARM GAS  /tmp/ccN79Q8s.s 			page 57


 3276 003c 0B68     		ldr	r3, [r1]
 3277 003e 23F40063 		bic	r3, r3, #2048
 3278 0042 41F8103B 		str	r3, [r1], #16
 3279 0046 2223     		movs	r3, #34
 3280 0048 80F83D30 		strb	r3, [r0, #61]
 3281 004c 80F83E70 		strb	r7, [r0, #62]
 3282 0050 0564     		str	r5, [r0, #64]
 3283 0052 4285     		strh	r2, [r0, #42]	@ movhi
 3284 0054 438D     		ldrh	r3, [r0, #42]
 3285 0056 174A     		ldr	r2, .L500
 3286 0058 9BB2     		uxth	r3, r3
 3287 005a C262     		str	r2, [r0, #44]
 3288 005c 0385     		strh	r3, [r0, #40]	@ movhi
 3289 005e 164A     		ldr	r2, .L500+4
 3290 0060 4662     		str	r6, [r0, #36]
 3291 0062 806B     		ldr	r0, [r0, #56]
 3292 0064 8262     		str	r2, [r0, #40]
 3293 0066 154A     		ldr	r2, .L500+8
 3294 0068 4563     		str	r5, [r0, #52]
 3295 006a C0E90B52 		strd	r5, r2, [r0, #44]
 3296 006e 3246     		mov	r2, r6
 3297 0070 FFF7FEFF 		bl	HAL_DMA_Start_IT
 3298 0074 78B9     		cbnz	r0, .L495
 3299 0076 2368     		ldr	r3, [r4]
 3300 0078 1A68     		ldr	r2, [r3]
 3301 007a 42F48062 		orr	r2, r2, #1024
 3302 007e 1A60     		str	r2, [r3]
 3303 0080 84F83C00 		strb	r0, [r4, #60]
 3304 0084 5A68     		ldr	r2, [r3, #4]
 3305 0086 42F44072 		orr	r2, r2, #768
 3306 008a 5A60     		str	r2, [r3, #4]
 3307 008c 5A68     		ldr	r2, [r3, #4]
 3308 008e 42F40062 		orr	r2, r2, #2048
 3309 0092 5A60     		str	r2, [r3, #4]
 3310              	.L493:
 3311 0094 F8BD     		pop	{r3, r4, r5, r6, r7, pc}
 3312              	.L495:
 3313 0096 84F83D70 		strb	r7, [r4, #61]
 3314 009a 84F83E50 		strb	r5, [r4, #62]
 3315 009e 236C     		ldr	r3, [r4, #64]
 3316 00a0 84F83C50 		strb	r5, [r4, #60]
 3317 00a4 43F01003 		orr	r3, r3, #16
 3318 00a8 2364     		str	r3, [r4, #64]
 3319              	.L498:
 3320 00aa 0120     		movs	r0, #1
 3321 00ac F2E7     		b	.L493
 3322              	.L499:
 3323 00ae 0220     		movs	r0, #2
 3324 00b0 F0E7     		b	.L493
 3325              	.L501:
 3326 00b2 00BF     		.align	2
 3327              	.L500:
 3328 00b4 0000FFFF 		.word	-65536
 3329 00b8 00000000 		.word	I2C_DMAXferCplt
 3330 00bc 00000000 		.word	I2C_DMAError
 3332              		.section	.text.HAL_I2C_Mem_Write,"ax",%progbits
 3333              		.align	1
ARM GAS  /tmp/ccN79Q8s.s 			page 58


 3334              		.global	HAL_I2C_Mem_Write
 3335              		.syntax unified
 3336              		.thumb
 3337              		.thumb_func
 3338              		.fpu softvfp
 3340              	HAL_I2C_Mem_Write:
 3341              		@ args = 12, pretend = 0, frame = 0
 3342              		@ frame_needed = 0, uses_anonymous_args = 0
 3343 0000 2DE9F743 		push	{r0, r1, r2, r4, r5, r6, r7, r8, r9, lr}
 3344 0004 0446     		mov	r4, r0
 3345 0006 9946     		mov	r9, r3
 3346 0008 0F46     		mov	r7, r1
 3347 000a 9046     		mov	r8, r2
 3348 000c 0C9E     		ldr	r6, [sp, #48]
 3349 000e FFF7FEFF 		bl	HAL_GetTick
 3350 0012 94F83D30 		ldrb	r3, [r4, #61]	@ zero_extendqisi2
 3351 0016 0546     		mov	r5, r0
 3352 0018 202B     		cmp	r3, #32
 3353 001a 03D0     		beq	.L503
 3354              	.L505:
 3355 001c 0220     		movs	r0, #2
 3356              	.L504:
 3357 001e 03B0     		add	sp, sp, #12
 3358              		@ sp needed
 3359 0020 BDE8F083 		pop	{r4, r5, r6, r7, r8, r9, pc}
 3360              	.L503:
 3361 0024 0090     		str	r0, [sp]
 3362 0026 1923     		movs	r3, #25
 3363 0028 0122     		movs	r2, #1
 3364 002a 2046     		mov	r0, r4
 3365 002c 3A49     		ldr	r1, .L528
 3366 002e FFF7FEFF 		bl	I2C_WaitOnFlagUntilTimeout
 3367 0032 0028     		cmp	r0, #0
 3368 0034 F2D1     		bne	.L505
 3369 0036 94F83C30 		ldrb	r3, [r4, #60]	@ zero_extendqisi2
 3370 003a 012B     		cmp	r3, #1
 3371 003c EED0     		beq	.L505
 3372 003e 0123     		movs	r3, #1
 3373 0040 2068     		ldr	r0, [r4]
 3374 0042 84F83C30 		strb	r3, [r4, #60]
 3375 0046 0368     		ldr	r3, [r0]
 3376 0048 4246     		mov	r2, r8
 3377 004a D907     		lsls	r1, r3, #31
 3378 004c 58BF     		it	pl
 3379 004e 0368     		ldrpl	r3, [r0]
 3380 0050 3946     		mov	r1, r7
 3381 0052 5CBF     		itt	pl
 3382 0054 43F00103 		orrpl	r3, r3, #1
 3383 0058 0360     		strpl	r3, [r0]
 3384 005a 0368     		ldr	r3, [r0]
 3385 005c 23F40063 		bic	r3, r3, #2048
 3386 0060 0360     		str	r3, [r0]
 3387 0062 2123     		movs	r3, #33
 3388 0064 84F83D30 		strb	r3, [r4, #61]
 3389 0068 4023     		movs	r3, #64
 3390 006a 84F83E30 		strb	r3, [r4, #62]
 3391 006e 0023     		movs	r3, #0
ARM GAS  /tmp/ccN79Q8s.s 			page 59


 3392 0070 2364     		str	r3, [r4, #64]
 3393 0072 0A9B     		ldr	r3, [sp, #40]
 3394 0074 2046     		mov	r0, r4
 3395 0076 6362     		str	r3, [r4, #36]
 3396 0078 BDF82C30 		ldrh	r3, [sp, #44]
 3397 007c CDE90065 		strd	r6, r5, [sp]
 3398 0080 6385     		strh	r3, [r4, #42]	@ movhi
 3399 0082 638D     		ldrh	r3, [r4, #42]
 3400 0084 2385     		strh	r3, [r4, #40]	@ movhi
 3401 0086 254B     		ldr	r3, .L528+4
 3402 0088 E362     		str	r3, [r4, #44]
 3403 008a 4B46     		mov	r3, r9
 3404 008c FFF7FEFF 		bl	I2C_RequestMemoryWrite
 3405 0090 0028     		cmp	r0, #0
 3406 0092 2AD0     		beq	.L507
 3407              	.L525:
 3408 0094 0120     		movs	r0, #1
 3409 0096 C2E7     		b	.L504
 3410              	.L511:
 3411 0098 FFF7FEFF 		bl	I2C_WaitOnTXEFlagUntilTimeout
 3412 009c 40B1     		cbz	r0, .L508
 3413              	.L527:
 3414 009e 236C     		ldr	r3, [r4, #64]
 3415 00a0 042B     		cmp	r3, #4
 3416 00a2 01BF     		itttt	eq
 3417 00a4 2268     		ldreq	r2, [r4]
 3418 00a6 1368     		ldreq	r3, [r2]
 3419 00a8 43F40073 		orreq	r3, r3, #512
 3420 00ac 1360     		streq	r3, [r2]
 3421 00ae F1E7     		b	.L525
 3422              	.L508:
 3423 00b0 636A     		ldr	r3, [r4, #36]
 3424 00b2 2768     		ldr	r7, [r4]
 3425 00b4 1A46     		mov	r2, r3
 3426 00b6 12F8011B 		ldrb	r1, [r2], #1	@ zero_extendqisi2
 3427 00ba 3961     		str	r1, [r7, #16]
 3428 00bc 6262     		str	r2, [r4, #36]
 3429 00be 628D     		ldrh	r2, [r4, #42]
 3430 00c0 218D     		ldrh	r1, [r4, #40]
 3431 00c2 013A     		subs	r2, r2, #1
 3432 00c4 92B2     		uxth	r2, r2
 3433 00c6 6285     		strh	r2, [r4, #42]	@ movhi
 3434 00c8 7A69     		ldr	r2, [r7, #20]
 3435 00ca 481E     		subs	r0, r1, #1
 3436 00cc 80B2     		uxth	r0, r0
 3437 00ce 5207     		lsls	r2, r2, #29
 3438 00d0 2085     		strh	r0, [r4, #40]	@ movhi
 3439 00d2 0AD5     		bpl	.L507
 3440 00d4 48B1     		cbz	r0, .L507
 3441 00d6 5A78     		ldrb	r2, [r3, #1]	@ zero_extendqisi2
 3442 00d8 0233     		adds	r3, r3, #2
 3443 00da 3A61     		str	r2, [r7, #16]
 3444 00dc 6362     		str	r3, [r4, #36]
 3445 00de 638D     		ldrh	r3, [r4, #42]
 3446 00e0 0239     		subs	r1, r1, #2
 3447 00e2 013B     		subs	r3, r3, #1
 3448 00e4 9BB2     		uxth	r3, r3
ARM GAS  /tmp/ccN79Q8s.s 			page 60


 3449 00e6 2185     		strh	r1, [r4, #40]	@ movhi
 3450 00e8 6385     		strh	r3, [r4, #42]	@ movhi
 3451              	.L507:
 3452 00ea 238D     		ldrh	r3, [r4, #40]
 3453 00ec 2A46     		mov	r2, r5
 3454 00ee 3146     		mov	r1, r6
 3455 00f0 2046     		mov	r0, r4
 3456 00f2 002B     		cmp	r3, #0
 3457 00f4 D0D1     		bne	.L511
 3458 00f6 FFF7FEFF 		bl	I2C_WaitOnBTFFlagUntilTimeout
 3459 00fa 0028     		cmp	r0, #0
 3460 00fc CFD1     		bne	.L527
 3461 00fe 2268     		ldr	r2, [r4]
 3462 0100 1368     		ldr	r3, [r2]
 3463 0102 43F40073 		orr	r3, r3, #512
 3464 0106 1360     		str	r3, [r2]
 3465 0108 2023     		movs	r3, #32
 3466 010a 84F83C00 		strb	r0, [r4, #60]
 3467 010e 84F83D30 		strb	r3, [r4, #61]
 3468 0112 84F83E00 		strb	r0, [r4, #62]
 3469 0116 82E7     		b	.L504
 3470              	.L529:
 3471              		.align	2
 3472              	.L528:
 3473 0118 02001000 		.word	1048578
 3474 011c 0000FFFF 		.word	-65536
 3476              		.section	.text.HAL_I2C_Mem_Read,"ax",%progbits
 3477              		.align	1
 3478              		.global	HAL_I2C_Mem_Read
 3479              		.syntax unified
 3480              		.thumb
 3481              		.thumb_func
 3482              		.fpu softvfp
 3484              	HAL_I2C_Mem_Read:
 3485              		@ args = 12, pretend = 0, frame = 16
 3486              		@ frame_needed = 0, uses_anonymous_args = 0
 3487 0000 2DE9F043 		push	{r4, r5, r6, r7, r8, r9, lr}
 3488 0004 0446     		mov	r4, r0
 3489 0006 87B0     		sub	sp, sp, #28
 3490 0008 9946     		mov	r9, r3
 3491 000a 0D46     		mov	r5, r1
 3492 000c 9046     		mov	r8, r2
 3493 000e 109F     		ldr	r7, [sp, #64]
 3494 0010 FFF7FEFF 		bl	HAL_GetTick
 3495 0014 94F83D30 		ldrb	r3, [r4, #61]	@ zero_extendqisi2
 3496 0018 0646     		mov	r6, r0
 3497 001a 202B     		cmp	r3, #32
 3498 001c 04D0     		beq	.L531
 3499              	.L533:
 3500 001e 0225     		movs	r5, #2
 3501              	.L532:
 3502 0020 2846     		mov	r0, r5
 3503 0022 07B0     		add	sp, sp, #28
 3504              		@ sp needed
 3505 0024 BDE8F083 		pop	{r4, r5, r6, r7, r8, r9, pc}
 3506              	.L531:
 3507 0028 0090     		str	r0, [sp]
ARM GAS  /tmp/ccN79Q8s.s 			page 61


 3508 002a 1923     		movs	r3, #25
 3509 002c 0122     		movs	r2, #1
 3510 002e 2046     		mov	r0, r4
 3511 0030 7D49     		ldr	r1, .L557
 3512 0032 FFF7FEFF 		bl	I2C_WaitOnFlagUntilTimeout
 3513 0036 0028     		cmp	r0, #0
 3514 0038 F1D1     		bne	.L533
 3515 003a 94F83C30 		ldrb	r3, [r4, #60]	@ zero_extendqisi2
 3516 003e 012B     		cmp	r3, #1
 3517 0040 EDD0     		beq	.L533
 3518 0042 0123     		movs	r3, #1
 3519 0044 2068     		ldr	r0, [r4]
 3520 0046 84F83C30 		strb	r3, [r4, #60]
 3521 004a 0368     		ldr	r3, [r0]
 3522 004c 2946     		mov	r1, r5
 3523 004e DB07     		lsls	r3, r3, #31
 3524 0050 58BF     		it	pl
 3525 0052 0368     		ldrpl	r3, [r0]
 3526 0054 4246     		mov	r2, r8
 3527 0056 5CBF     		itt	pl
 3528 0058 43F00103 		orrpl	r3, r3, #1
 3529 005c 0360     		strpl	r3, [r0]
 3530 005e 0368     		ldr	r3, [r0]
 3531 0060 23F40063 		bic	r3, r3, #2048
 3532 0064 0360     		str	r3, [r0]
 3533 0066 2223     		movs	r3, #34
 3534 0068 84F83D30 		strb	r3, [r4, #61]
 3535 006c 4023     		movs	r3, #64
 3536 006e 84F83E30 		strb	r3, [r4, #62]
 3537 0072 0023     		movs	r3, #0
 3538 0074 2364     		str	r3, [r4, #64]
 3539 0076 0E9B     		ldr	r3, [sp, #56]
 3540 0078 2046     		mov	r0, r4
 3541 007a 6362     		str	r3, [r4, #36]
 3542 007c BDF83C30 		ldrh	r3, [sp, #60]
 3543 0080 CDE90076 		strd	r7, r6, [sp]
 3544 0084 6385     		strh	r3, [r4, #42]	@ movhi
 3545 0086 638D     		ldrh	r3, [r4, #42]
 3546 0088 2385     		strh	r3, [r4, #40]	@ movhi
 3547 008a 684B     		ldr	r3, .L557+4
 3548 008c E362     		str	r3, [r4, #44]
 3549 008e 4B46     		mov	r3, r9
 3550 0090 FFF7FEFF 		bl	I2C_RequestMemoryRead
 3551 0094 0546     		mov	r5, r0
 3552 0096 08B1     		cbz	r0, .L535
 3553              	.L543:
 3554 0098 0125     		movs	r5, #1
 3555 009a C1E7     		b	.L532
 3556              	.L535:
 3557 009c 228D     		ldrh	r2, [r4, #40]
 3558 009e 2368     		ldr	r3, [r4]
 3559 00a0 B2B9     		cbnz	r2, .L536
 3560 00a2 0290     		str	r0, [sp, #8]
 3561 00a4 5A69     		ldr	r2, [r3, #20]
 3562 00a6 0292     		str	r2, [sp, #8]
 3563 00a8 9A69     		ldr	r2, [r3, #24]
 3564 00aa 0292     		str	r2, [sp, #8]
ARM GAS  /tmp/ccN79Q8s.s 			page 62


 3565 00ac 029A     		ldr	r2, [sp, #8]
 3566 00ae 1A68     		ldr	r2, [r3]
 3567 00b0 42F40072 		orr	r2, r2, #512
 3568 00b4 1A60     		str	r2, [r3]
 3569              	.L537:
 3570 00b6 DFF87881 		ldr	r8, .L557+8
 3571              	.L539:
 3572 00ba 238D     		ldrh	r3, [r4, #40]
 3573 00bc 002B     		cmp	r3, #0
 3574 00be 37D1     		bne	.L546
 3575 00c0 2022     		movs	r2, #32
 3576 00c2 84F83C30 		strb	r3, [r4, #60]
 3577 00c6 84F83D20 		strb	r2, [r4, #61]
 3578 00ca 84F83E30 		strb	r3, [r4, #62]
 3579 00ce A7E7     		b	.L532
 3580              	.L536:
 3581 00d0 012A     		cmp	r2, #1
 3582 00d2 11D1     		bne	.L538
 3583 00d4 1A68     		ldr	r2, [r3]
 3584 00d6 22F48062 		bic	r2, r2, #1024
 3585 00da 1A60     		str	r2, [r3]
 3586              		.syntax unified
 3587              	@ 142 "./cmsis/inc/cmsis_gcc.h" 1
 3588 00dc 72B6     		cpsid i
 3589              	@ 0 "" 2
 3590              		.thumb
 3591              		.syntax unified
 3592 00de 2368     		ldr	r3, [r4]
 3593 00e0 0390     		str	r0, [sp, #12]
 3594 00e2 5A69     		ldr	r2, [r3, #20]
 3595 00e4 0392     		str	r2, [sp, #12]
 3596 00e6 9A69     		ldr	r2, [r3, #24]
 3597 00e8 0392     		str	r2, [sp, #12]
 3598 00ea 039A     		ldr	r2, [sp, #12]
 3599 00ec 1A68     		ldr	r2, [r3]
 3600 00ee 42F40072 		orr	r2, r2, #512
 3601              	.L553:
 3602 00f2 1A60     		str	r2, [r3]
 3603              		.syntax unified
 3604              	@ 131 "./cmsis/inc/cmsis_gcc.h" 1
 3605 00f4 62B6     		cpsie i
 3606              	@ 0 "" 2
 3607              		.thumb
 3608              		.syntax unified
 3609 00f6 DEE7     		b	.L537
 3610              	.L538:
 3611 00f8 022A     		cmp	r2, #2
 3612 00fa 1A68     		ldr	r2, [r3]
 3613 00fc 0ED1     		bne	.L540
 3614 00fe 42F40062 		orr	r2, r2, #2048
 3615 0102 1A60     		str	r2, [r3]
 3616              		.syntax unified
 3617              	@ 142 "./cmsis/inc/cmsis_gcc.h" 1
 3618 0104 72B6     		cpsid i
 3619              	@ 0 "" 2
 3620              		.thumb
 3621              		.syntax unified
ARM GAS  /tmp/ccN79Q8s.s 			page 63


 3622 0106 2368     		ldr	r3, [r4]
 3623 0108 0490     		str	r0, [sp, #16]
 3624 010a 5A69     		ldr	r2, [r3, #20]
 3625 010c 0492     		str	r2, [sp, #16]
 3626 010e 9A69     		ldr	r2, [r3, #24]
 3627 0110 0492     		str	r2, [sp, #16]
 3628 0112 049A     		ldr	r2, [sp, #16]
 3629 0114 1A68     		ldr	r2, [r3]
 3630 0116 22F48062 		bic	r2, r2, #1024
 3631 011a EAE7     		b	.L553
 3632              	.L540:
 3633 011c 42F48062 		orr	r2, r2, #1024
 3634 0120 1A60     		str	r2, [r3]
 3635 0122 0590     		str	r0, [sp, #20]
 3636 0124 5A69     		ldr	r2, [r3, #20]
 3637 0126 0592     		str	r2, [sp, #20]
 3638 0128 9B69     		ldr	r3, [r3, #24]
 3639 012a 0593     		str	r3, [sp, #20]
 3640 012c 059B     		ldr	r3, [sp, #20]
 3641 012e C2E7     		b	.L537
 3642              	.L546:
 3643 0130 032B     		cmp	r3, #3
 3644 0132 5BD8     		bhi	.L541
 3645 0134 012B     		cmp	r3, #1
 3646 0136 15D1     		bne	.L542
 3647 0138 3246     		mov	r2, r6
 3648 013a 3946     		mov	r1, r7
 3649 013c 2046     		mov	r0, r4
 3650 013e FFF7FEFF 		bl	I2C_WaitOnRXNEFlagUntilTimeout
 3651 0142 0028     		cmp	r0, #0
 3652 0144 A8D1     		bne	.L543
 3653              	.L555:
 3654 0146 2368     		ldr	r3, [r4]
 3655 0148 1A69     		ldr	r2, [r3, #16]
 3656 014a 636A     		ldr	r3, [r4, #36]
 3657 014c 1A70     		strb	r2, [r3]
 3658              	.L554:
 3659 014e 636A     		ldr	r3, [r4, #36]
 3660 0150 0133     		adds	r3, r3, #1
 3661 0152 6362     		str	r3, [r4, #36]
 3662 0154 238D     		ldrh	r3, [r4, #40]
 3663 0156 013B     		subs	r3, r3, #1
 3664 0158 2385     		strh	r3, [r4, #40]	@ movhi
 3665 015a 638D     		ldrh	r3, [r4, #42]
 3666 015c 013B     		subs	r3, r3, #1
 3667 015e 9BB2     		uxth	r3, r3
 3668 0160 6385     		strh	r3, [r4, #42]	@ movhi
 3669 0162 AAE7     		b	.L539
 3670              	.L542:
 3671 0164 022B     		cmp	r3, #2
 3672 0166 4FF00002 		mov	r2, #0
 3673 016a 3B46     		mov	r3, r7
 3674 016c 4146     		mov	r1, r8
 3675 016e 2046     		mov	r0, r4
 3676 0170 0096     		str	r6, [sp]
 3677 0172 18D1     		bne	.L545
 3678 0174 FFF7FEFF 		bl	I2C_WaitOnFlagUntilTimeout
ARM GAS  /tmp/ccN79Q8s.s 			page 64


 3679 0178 0028     		cmp	r0, #0
 3680 017a 8DD1     		bne	.L543
 3681              		.syntax unified
 3682              	@ 142 "./cmsis/inc/cmsis_gcc.h" 1
 3683 017c 72B6     		cpsid i
 3684              	@ 0 "" 2
 3685              		.thumb
 3686              		.syntax unified
 3687              	.L556:
 3688 017e 2368     		ldr	r3, [r4]
 3689 0180 1A68     		ldr	r2, [r3]
 3690 0182 42F40072 		orr	r2, r2, #512
 3691 0186 1A60     		str	r2, [r3]
 3692 0188 1A69     		ldr	r2, [r3, #16]
 3693 018a 636A     		ldr	r3, [r4, #36]
 3694 018c 1A70     		strb	r2, [r3]
 3695 018e 636A     		ldr	r3, [r4, #36]
 3696 0190 0133     		adds	r3, r3, #1
 3697 0192 6362     		str	r3, [r4, #36]
 3698 0194 238D     		ldrh	r3, [r4, #40]
 3699 0196 013B     		subs	r3, r3, #1
 3700 0198 2385     		strh	r3, [r4, #40]	@ movhi
 3701 019a 638D     		ldrh	r3, [r4, #42]
 3702 019c 013B     		subs	r3, r3, #1
 3703 019e 9BB2     		uxth	r3, r3
 3704 01a0 6385     		strh	r3, [r4, #42]	@ movhi
 3705              		.syntax unified
 3706              	@ 131 "./cmsis/inc/cmsis_gcc.h" 1
 3707 01a2 62B6     		cpsie i
 3708              	@ 0 "" 2
 3709              		.thumb
 3710              		.syntax unified
 3711 01a4 CFE7     		b	.L555
 3712              	.L545:
 3713 01a6 FFF7FEFF 		bl	I2C_WaitOnFlagUntilTimeout
 3714 01aa 0246     		mov	r2, r0
 3715 01ac 0028     		cmp	r0, #0
 3716 01ae 7FF473AF 		bne	.L543
 3717 01b2 2168     		ldr	r1, [r4]
 3718 01b4 0B68     		ldr	r3, [r1]
 3719 01b6 23F48063 		bic	r3, r3, #1024
 3720 01ba 0B60     		str	r3, [r1]
 3721              		.syntax unified
 3722              	@ 142 "./cmsis/inc/cmsis_gcc.h" 1
 3723 01bc 72B6     		cpsid i
 3724              	@ 0 "" 2
 3725              		.thumb
 3726              		.syntax unified
 3727 01be 2368     		ldr	r3, [r4]
 3728 01c0 2046     		mov	r0, r4
 3729 01c2 1969     		ldr	r1, [r3, #16]
 3730 01c4 636A     		ldr	r3, [r4, #36]
 3731 01c6 1970     		strb	r1, [r3]
 3732 01c8 636A     		ldr	r3, [r4, #36]
 3733 01ca 4146     		mov	r1, r8
 3734 01cc 0133     		adds	r3, r3, #1
 3735 01ce 6362     		str	r3, [r4, #36]
ARM GAS  /tmp/ccN79Q8s.s 			page 65


 3736 01d0 238D     		ldrh	r3, [r4, #40]
 3737 01d2 0096     		str	r6, [sp]
 3738 01d4 013B     		subs	r3, r3, #1
 3739 01d6 2385     		strh	r3, [r4, #40]	@ movhi
 3740 01d8 638D     		ldrh	r3, [r4, #42]
 3741 01da 013B     		subs	r3, r3, #1
 3742 01dc 9BB2     		uxth	r3, r3
 3743 01de 6385     		strh	r3, [r4, #42]	@ movhi
 3744 01e0 3B46     		mov	r3, r7
 3745 01e2 FFF7FEFF 		bl	I2C_WaitOnFlagUntilTimeout
 3746 01e6 0028     		cmp	r0, #0
 3747 01e8 C9D0     		beq	.L556
 3748 01ea 55E7     		b	.L543
 3749              	.L541:
 3750 01ec 3246     		mov	r2, r6
 3751 01ee 3946     		mov	r1, r7
 3752 01f0 2046     		mov	r0, r4
 3753 01f2 FFF7FEFF 		bl	I2C_WaitOnRXNEFlagUntilTimeout
 3754 01f6 0028     		cmp	r0, #0
 3755 01f8 7FF44EAF 		bne	.L543
 3756 01fc 2368     		ldr	r3, [r4]
 3757 01fe 1A69     		ldr	r2, [r3, #16]
 3758 0200 636A     		ldr	r3, [r4, #36]
 3759 0202 1A70     		strb	r2, [r3]
 3760 0204 626A     		ldr	r2, [r4, #36]
 3761 0206 531C     		adds	r3, r2, #1
 3762 0208 6362     		str	r3, [r4, #36]
 3763 020a 238D     		ldrh	r3, [r4, #40]
 3764 020c 013B     		subs	r3, r3, #1
 3765 020e 2385     		strh	r3, [r4, #40]	@ movhi
 3766 0210 638D     		ldrh	r3, [r4, #42]
 3767 0212 013B     		subs	r3, r3, #1
 3768 0214 9BB2     		uxth	r3, r3
 3769 0216 6385     		strh	r3, [r4, #42]	@ movhi
 3770 0218 2368     		ldr	r3, [r4]
 3771 021a 5969     		ldr	r1, [r3, #20]
 3772 021c 4907     		lsls	r1, r1, #29
 3773 021e 7FF54CAF 		bpl	.L539
 3774 0222 1B69     		ldr	r3, [r3, #16]
 3775 0224 5370     		strb	r3, [r2, #1]
 3776 0226 92E7     		b	.L554
 3777              	.L558:
 3778              		.align	2
 3779              	.L557:
 3780 0228 02001000 		.word	1048578
 3781 022c 0000FFFF 		.word	-65536
 3782 0230 04000100 		.word	65540
 3784              		.section	.text.HAL_I2C_Mem_Write_IT,"ax",%progbits
 3785              		.align	1
 3786              		.global	HAL_I2C_Mem_Write_IT
 3787              		.syntax unified
 3788              		.thumb
 3789              		.thumb_func
 3790              		.fpu softvfp
 3792              	HAL_I2C_Mem_Write_IT:
 3793              		@ args = 8, pretend = 0, frame = 8
 3794              		@ frame_needed = 0, uses_anonymous_args = 0
ARM GAS  /tmp/ccN79Q8s.s 			page 66


 3795 0000 73B5     		push	{r0, r1, r4, r5, r6, lr}
 3796 0002 0024     		movs	r4, #0
 3797 0004 0194     		str	r4, [sp, #4]
 3798 0006 90F83D40 		ldrb	r4, [r0, #61]	@ zero_extendqisi2
 3799 000a 202C     		cmp	r4, #32
 3800 000c 02D0     		beq	.L560
 3801              	.L564:
 3802 000e 0220     		movs	r0, #2
 3803              	.L561:
 3804 0010 02B0     		add	sp, sp, #8
 3805              		@ sp needed
 3806 0012 70BD     		pop	{r4, r5, r6, pc}
 3807              	.L560:
 3808 0014 46F2A815 		movw	r5, #25000
 3809 0018 264C     		ldr	r4, .L570
 3810 001a 2468     		ldr	r4, [r4]
 3811 001c B4FBF5F5 		udiv	r5, r4, r5
 3812 0020 1924     		movs	r4, #25
 3813 0022 6C43     		muls	r4, r5, r4
 3814 0024 0194     		str	r4, [sp, #4]
 3815              	.L563:
 3816 0026 019C     		ldr	r4, [sp, #4]
 3817 0028 013C     		subs	r4, r4, #1
 3818 002a 0194     		str	r4, [sp, #4]
 3819 002c 019C     		ldr	r4, [sp, #4]
 3820 002e 6CB9     		cbnz	r4, .L562
 3821 0030 2023     		movs	r3, #32
 3822 0032 0463     		str	r4, [r0, #48]
 3823 0034 80F83D30 		strb	r3, [r0, #61]
 3824 0038 80F83E40 		strb	r4, [r0, #62]
 3825 003c 036C     		ldr	r3, [r0, #64]
 3826 003e 80F83C40 		strb	r4, [r0, #60]
 3827 0042 43F02003 		orr	r3, r3, #32
 3828 0046 0364     		str	r3, [r0, #64]
 3829 0048 0120     		movs	r0, #1
 3830 004a E1E7     		b	.L561
 3831              	.L562:
 3832 004c 0468     		ldr	r4, [r0]
 3833 004e A569     		ldr	r5, [r4, #24]
 3834 0050 AE07     		lsls	r6, r5, #30
 3835 0052 E8D4     		bmi	.L563
 3836 0054 90F83C50 		ldrb	r5, [r0, #60]	@ zero_extendqisi2
 3837 0058 012D     		cmp	r5, #1
 3838 005a D8D0     		beq	.L564
 3839 005c 2568     		ldr	r5, [r4]
 3840 005e 069E     		ldr	r6, [sp, #24]
 3841 0060 ED07     		lsls	r5, r5, #31
 3842 0062 5EBF     		ittt	pl
 3843 0064 2568     		ldrpl	r5, [r4]
 3844 0066 45F00105 		orrpl	r5, r5, #1
 3845 006a 2560     		strpl	r5, [r4]
 3846 006c 2568     		ldr	r5, [r4]
 3847 006e 25F40065 		bic	r5, r5, #2048
 3848 0072 2560     		str	r5, [r4]
 3849 0074 2125     		movs	r5, #33
 3850 0076 80F83D50 		strb	r5, [r0, #61]
 3851 007a 4025     		movs	r5, #64
ARM GAS  /tmp/ccN79Q8s.s 			page 67


 3852 007c 80F83E50 		strb	r5, [r0, #62]
 3853 0080 0025     		movs	r5, #0
 3854 0082 4662     		str	r6, [r0, #36]
 3855 0084 BDF81C60 		ldrh	r6, [sp, #28]
 3856 0088 0564     		str	r5, [r0, #64]
 3857 008a 4685     		strh	r6, [r0, #42]	@ movhi
 3858 008c 468D     		ldrh	r6, [r0, #42]
 3859 008e 0685     		strh	r6, [r0, #40]	@ movhi
 3860 0090 094E     		ldr	r6, .L570+4
 3861 0092 C662     		str	r6, [r0, #44]
 3862 0094 4164     		str	r1, [r0, #68]
 3863 0096 8264     		str	r2, [r0, #72]
 3864 0098 C364     		str	r3, [r0, #76]
 3865 009a 0565     		str	r5, [r0, #80]
 3866 009c 2368     		ldr	r3, [r4]
 3867 009e 43F48073 		orr	r3, r3, #256
 3868 00a2 2360     		str	r3, [r4]
 3869 00a4 80F83C50 		strb	r5, [r0, #60]
 3870 00a8 6368     		ldr	r3, [r4, #4]
 3871 00aa 2846     		mov	r0, r5
 3872 00ac 43F4E063 		orr	r3, r3, #1792
 3873 00b0 6360     		str	r3, [r4, #4]
 3874 00b2 ADE7     		b	.L561
 3875              	.L571:
 3876              		.align	2
 3877              	.L570:
 3878 00b4 00000000 		.word	SystemCoreClock
 3879 00b8 0000FFFF 		.word	-65536
 3881              		.section	.text.HAL_I2C_Mem_Read_IT,"ax",%progbits
 3882              		.align	1
 3883              		.global	HAL_I2C_Mem_Read_IT
 3884              		.syntax unified
 3885              		.thumb
 3886              		.thumb_func
 3887              		.fpu softvfp
 3889              	HAL_I2C_Mem_Read_IT:
 3890              		@ args = 8, pretend = 0, frame = 8
 3891              		@ frame_needed = 0, uses_anonymous_args = 0
 3892 0000 F7B5     		push	{r0, r1, r2, r4, r5, r6, r7, lr}
 3893 0002 0024     		movs	r4, #0
 3894 0004 0194     		str	r4, [sp, #4]
 3895 0006 90F83D40 		ldrb	r4, [r0, #61]	@ zero_extendqisi2
 3896 000a 202C     		cmp	r4, #32
 3897 000c 02D0     		beq	.L573
 3898              	.L577:
 3899 000e 0220     		movs	r0, #2
 3900              	.L574:
 3901 0010 03B0     		add	sp, sp, #12
 3902              		@ sp needed
 3903 0012 F0BD     		pop	{r4, r5, r6, r7, pc}
 3904              	.L573:
 3905 0014 46F2A815 		movw	r5, #25000
 3906 0018 2B4C     		ldr	r4, .L584
 3907 001a 2468     		ldr	r4, [r4]
 3908 001c B4FBF5F5 		udiv	r5, r4, r5
 3909 0020 1924     		movs	r4, #25
 3910 0022 6C43     		muls	r4, r5, r4
ARM GAS  /tmp/ccN79Q8s.s 			page 68


 3911 0024 0194     		str	r4, [sp, #4]
 3912              	.L576:
 3913 0026 019C     		ldr	r4, [sp, #4]
 3914 0028 013C     		subs	r4, r4, #1
 3915 002a 0194     		str	r4, [sp, #4]
 3916 002c 019C     		ldr	r4, [sp, #4]
 3917 002e 6CB9     		cbnz	r4, .L575
 3918 0030 2023     		movs	r3, #32
 3919 0032 0463     		str	r4, [r0, #48]
 3920 0034 80F83D30 		strb	r3, [r0, #61]
 3921 0038 80F83E40 		strb	r4, [r0, #62]
 3922 003c 036C     		ldr	r3, [r0, #64]
 3923 003e 80F83C40 		strb	r4, [r0, #60]
 3924 0042 43F02003 		orr	r3, r3, #32
 3925 0046 0364     		str	r3, [r0, #64]
 3926 0048 0120     		movs	r0, #1
 3927 004a E1E7     		b	.L574
 3928              	.L575:
 3929 004c 0468     		ldr	r4, [r0]
 3930 004e A569     		ldr	r5, [r4, #24]
 3931 0050 AE07     		lsls	r6, r5, #30
 3932 0052 E8D4     		bmi	.L576
 3933 0054 90F83C50 		ldrb	r5, [r0, #60]	@ zero_extendqisi2
 3934 0058 012D     		cmp	r5, #1
 3935 005a D8D0     		beq	.L577
 3936 005c 2568     		ldr	r5, [r4]
 3937 005e 0026     		movs	r6, #0
 3938 0060 ED07     		lsls	r5, r5, #31
 3939 0062 58BF     		it	pl
 3940 0064 2568     		ldrpl	r5, [r4]
 3941 0066 194F     		ldr	r7, .L584+4
 3942 0068 5CBF     		itt	pl
 3943 006a 45F00105 		orrpl	r5, r5, #1
 3944 006e 2560     		strpl	r5, [r4]
 3945 0070 2568     		ldr	r5, [r4]
 3946 0072 25F40065 		bic	r5, r5, #2048
 3947 0076 2560     		str	r5, [r4]
 3948 0078 2225     		movs	r5, #34
 3949 007a 80F83D50 		strb	r5, [r0, #61]
 3950 007e 4025     		movs	r5, #64
 3951 0080 80F83E50 		strb	r5, [r0, #62]
 3952 0084 089D     		ldr	r5, [sp, #32]
 3953 0086 0664     		str	r6, [r0, #64]
 3954 0088 4562     		str	r5, [r0, #36]
 3955 008a BDF82450 		ldrh	r5, [sp, #36]
 3956 008e 4585     		strh	r5, [r0, #42]	@ movhi
 3957 0090 458D     		ldrh	r5, [r0, #42]
 3958 0092 C762     		str	r7, [r0, #44]
 3959 0094 4164     		str	r1, [r0, #68]
 3960 0096 8264     		str	r2, [r0, #72]
 3961 0098 C364     		str	r3, [r0, #76]
 3962 009a 0665     		str	r6, [r0, #80]
 3963 009c 2368     		ldr	r3, [r4]
 3964 009e ADB2     		uxth	r5, r5
 3965 00a0 43F48063 		orr	r3, r3, #1024
 3966 00a4 0585     		strh	r5, [r0, #40]	@ movhi
 3967 00a6 2360     		str	r3, [r4]
ARM GAS  /tmp/ccN79Q8s.s 			page 69


 3968 00a8 2368     		ldr	r3, [r4]
 3969 00aa 43F48073 		orr	r3, r3, #256
 3970 00ae 2360     		str	r3, [r4]
 3971 00b0 80F83C60 		strb	r6, [r0, #60]
 3972 00b4 2DB1     		cbz	r5, .L579
 3973 00b6 6368     		ldr	r3, [r4, #4]
 3974 00b8 3046     		mov	r0, r6
 3975 00ba 43F4E063 		orr	r3, r3, #1792
 3976 00be 6360     		str	r3, [r4, #4]
 3977 00c0 A6E7     		b	.L574
 3978              	.L579:
 3979 00c2 2846     		mov	r0, r5
 3980 00c4 A4E7     		b	.L574
 3981              	.L585:
 3982 00c6 00BF     		.align	2
 3983              	.L584:
 3984 00c8 00000000 		.word	SystemCoreClock
 3985 00cc 0000FFFF 		.word	-65536
 3987              		.section	.text.HAL_I2C_Mem_Write_DMA,"ax",%progbits
 3988              		.align	1
 3989              		.global	HAL_I2C_Mem_Write_DMA
 3990              		.syntax unified
 3991              		.thumb
 3992              		.thumb_func
 3993              		.fpu softvfp
 3995              	HAL_I2C_Mem_Write_DMA:
 3996              		@ args = 8, pretend = 0, frame = 8
 3997              		@ frame_needed = 0, uses_anonymous_args = 0
 3998 0000 2DE9F04F 		push	{r4, r5, r6, r7, r8, r9, r10, fp, lr}
 3999 0004 9946     		mov	r9, r3
 4000 0006 0023     		movs	r3, #0
 4001 0008 0446     		mov	r4, r0
 4002 000a 85B0     		sub	sp, sp, #20
 4003 000c 0293     		str	r3, [sp, #8]
 4004 000e 0F46     		mov	r7, r1
 4005 0010 9046     		mov	r8, r2
 4006 0012 DDF838B0 		ldr	fp, [sp, #56]
 4007 0016 FFF7FEFF 		bl	HAL_GetTick
 4008 001a 94F83D30 		ldrb	r3, [r4, #61]	@ zero_extendqisi2
 4009 001e 8246     		mov	r10, r0
 4010 0020 202B     		cmp	r3, #32
 4011 0022 03D0     		beq	.L587
 4012              	.L591:
 4013 0024 0220     		movs	r0, #2
 4014              	.L588:
 4015 0026 05B0     		add	sp, sp, #20
 4016              		@ sp needed
 4017 0028 BDE8F08F 		pop	{r4, r5, r6, r7, r8, r9, r10, fp, pc}
 4018              	.L587:
 4019 002c 46F2A812 		movw	r2, #25000
 4020 0030 414B     		ldr	r3, .L601
 4021 0032 1B68     		ldr	r3, [r3]
 4022 0034 B3FBF2F2 		udiv	r2, r3, r2
 4023 0038 1923     		movs	r3, #25
 4024 003a 5343     		muls	r3, r2, r3
 4025 003c 0293     		str	r3, [sp, #8]
 4026              	.L590:
ARM GAS  /tmp/ccN79Q8s.s 			page 70


 4027 003e 029B     		ldr	r3, [sp, #8]
 4028 0040 013B     		subs	r3, r3, #1
 4029 0042 0293     		str	r3, [sp, #8]
 4030 0044 029B     		ldr	r3, [sp, #8]
 4031 0046 63B9     		cbnz	r3, .L589
 4032 0048 2022     		movs	r2, #32
 4033 004a 2363     		str	r3, [r4, #48]
 4034 004c 84F83D20 		strb	r2, [r4, #61]
 4035 0050 84F83E30 		strb	r3, [r4, #62]
 4036 0054 226C     		ldr	r2, [r4, #64]
 4037 0056 42F02002 		orr	r2, r2, #32
 4038              	.L600:
 4039 005a 2264     		str	r2, [r4, #64]
 4040 005c 84F83C30 		strb	r3, [r4, #60]
 4041 0060 5FE0     		b	.L595
 4042              	.L589:
 4043 0062 2568     		ldr	r5, [r4]
 4044 0064 AB69     		ldr	r3, [r5, #24]
 4045 0066 9A07     		lsls	r2, r3, #30
 4046 0068 E9D4     		bmi	.L590
 4047 006a 94F83C30 		ldrb	r3, [r4, #60]	@ zero_extendqisi2
 4048 006e 012B     		cmp	r3, #1
 4049 0070 D8D0     		beq	.L591
 4050 0072 0123     		movs	r3, #1
 4051 0074 84F83C30 		strb	r3, [r4, #60]
 4052 0078 2B68     		ldr	r3, [r5]
 4053 007a 0026     		movs	r6, #0
 4054 007c DB07     		lsls	r3, r3, #31
 4055 007e 58BF     		it	pl
 4056 0080 2B68     		ldrpl	r3, [r5]
 4057 0082 2E4A     		ldr	r2, .L601+4
 4058 0084 5CBF     		itt	pl
 4059 0086 43F00103 		orrpl	r3, r3, #1
 4060 008a 2B60     		strpl	r3, [r5]
 4061 008c 2B68     		ldr	r3, [r5]
 4062 008e 23F40063 		bic	r3, r3, #2048
 4063 0092 2B60     		str	r3, [r5]
 4064 0094 2123     		movs	r3, #33
 4065 0096 84F83D30 		strb	r3, [r4, #61]
 4066 009a 4023     		movs	r3, #64
 4067 009c 84F83E30 		strb	r3, [r4, #62]
 4068 00a0 BDF83C30 		ldrh	r3, [sp, #60]
 4069 00a4 2664     		str	r6, [r4, #64]
 4070 00a6 6385     		strh	r3, [r4, #42]	@ movhi
 4071 00a8 638D     		ldrh	r3, [r4, #42]
 4072 00aa C4F824B0 		str	fp, [r4, #36]
 4073 00ae 9BB2     		uxth	r3, r3
 4074 00b0 2385     		strh	r3, [r4, #40]	@ movhi
 4075 00b2 E262     		str	r2, [r4, #44]
 4076 00b4 002B     		cmp	r3, #0
 4077 00b6 36D0     		beq	.L593
 4078 00b8 606B     		ldr	r0, [r4, #52]
 4079 00ba 214A     		ldr	r2, .L601+8
 4080 00bc 5946     		mov	r1, fp
 4081 00be 8262     		str	r2, [r0, #40]
 4082 00c0 204A     		ldr	r2, .L601+12
 4083 00c2 4663     		str	r6, [r0, #52]
ARM GAS  /tmp/ccN79Q8s.s 			page 71


 4084 00c4 C0E90B62 		strd	r6, r2, [r0, #44]
 4085 00c8 05F11002 		add	r2, r5, #16
 4086 00cc FFF7FEFF 		bl	HAL_DMA_Start_IT
 4087 00d0 E0B9     		cbnz	r0, .L594
 4088 00d2 2323     		movs	r3, #35
 4089 00d4 4246     		mov	r2, r8
 4090 00d6 0093     		str	r3, [sp]
 4091 00d8 3946     		mov	r1, r7
 4092 00da 4B46     		mov	r3, r9
 4093 00dc 2046     		mov	r0, r4
 4094 00de CDF804A0 		str	r10, [sp, #4]
 4095 00e2 FFF7FEFF 		bl	I2C_RequestMemoryWrite
 4096 00e6 E0B9     		cbnz	r0, .L595
 4097 00e8 2368     		ldr	r3, [r4]
 4098 00ea 0390     		str	r0, [sp, #12]
 4099 00ec 5A69     		ldr	r2, [r3, #20]
 4100 00ee 0392     		str	r2, [sp, #12]
 4101 00f0 9A69     		ldr	r2, [r3, #24]
 4102 00f2 84F83C00 		strb	r0, [r4, #60]
 4103 00f6 0392     		str	r2, [sp, #12]
 4104 00f8 039A     		ldr	r2, [sp, #12]
 4105 00fa 5A68     		ldr	r2, [r3, #4]
 4106 00fc 42F48072 		orr	r2, r2, #256
 4107 0100 5A60     		str	r2, [r3, #4]
 4108 0102 5A68     		ldr	r2, [r3, #4]
 4109 0104 42F40062 		orr	r2, r2, #2048
 4110 0108 5A60     		str	r2, [r3, #4]
 4111 010a 8CE7     		b	.L588
 4112              	.L594:
 4113 010c 2023     		movs	r3, #32
 4114 010e 84F83D30 		strb	r3, [r4, #61]
 4115 0112 84F83E60 		strb	r6, [r4, #62]
 4116 0116 236C     		ldr	r3, [r4, #64]
 4117 0118 84F83C60 		strb	r6, [r4, #60]
 4118 011c 43F01003 		orr	r3, r3, #16
 4119 0120 2364     		str	r3, [r4, #64]
 4120              	.L595:
 4121 0122 0120     		movs	r0, #1
 4122 0124 7FE7     		b	.L588
 4123              	.L593:
 4124 0126 2022     		movs	r2, #32
 4125 0128 84F83D20 		strb	r2, [r4, #61]
 4126 012c 84F83E30 		strb	r3, [r4, #62]
 4127 0130 226C     		ldr	r2, [r4, #64]
 4128 0132 42F04002 		orr	r2, r2, #64
 4129 0136 90E7     		b	.L600
 4130              	.L602:
 4131              		.align	2
 4132              	.L601:
 4133 0138 00000000 		.word	SystemCoreClock
 4134 013c 0000FFFF 		.word	-65536
 4135 0140 00000000 		.word	I2C_DMAXferCplt
 4136 0144 00000000 		.word	I2C_DMAError
 4138              		.section	.text.HAL_I2C_Mem_Read_DMA,"ax",%progbits
 4139              		.align	1
 4140              		.global	HAL_I2C_Mem_Read_DMA
 4141              		.syntax unified
ARM GAS  /tmp/ccN79Q8s.s 			page 72


 4142              		.thumb
 4143              		.thumb_func
 4144              		.fpu softvfp
 4146              	HAL_I2C_Mem_Read_DMA:
 4147              		@ args = 8, pretend = 0, frame = 16
 4148              		@ frame_needed = 0, uses_anonymous_args = 0
 4149 0000 2DE9F047 		push	{r4, r5, r6, r7, r8, r9, r10, lr}
 4150 0004 86B0     		sub	sp, sp, #24
 4151 0006 0446     		mov	r4, r0
 4152 0008 9946     		mov	r9, r3
 4153 000a 0F46     		mov	r7, r1
 4154 000c 9046     		mov	r8, r2
 4155 000e 0E9D     		ldr	r5, [sp, #56]
 4156 0010 FFF7FEFF 		bl	HAL_GetTick
 4157 0014 0023     		movs	r3, #0
 4158 0016 0393     		str	r3, [sp, #12]
 4159 0018 94F83D30 		ldrb	r3, [r4, #61]	@ zero_extendqisi2
 4160 001c 8246     		mov	r10, r0
 4161 001e 202B     		cmp	r3, #32
 4162 0020 03D0     		beq	.L604
 4163              	.L608:
 4164 0022 0220     		movs	r0, #2
 4165              	.L605:
 4166 0024 06B0     		add	sp, sp, #24
 4167              		@ sp needed
 4168 0026 BDE8F087 		pop	{r4, r5, r6, r7, r8, r9, r10, pc}
 4169              	.L604:
 4170 002a 46F2A812 		movw	r2, #25000
 4171 002e 524B     		ldr	r3, .L621
 4172 0030 1B68     		ldr	r3, [r3]
 4173 0032 B3FBF2F2 		udiv	r2, r3, r2
 4174 0036 1923     		movs	r3, #25
 4175 0038 5343     		muls	r3, r2, r3
 4176 003a 0393     		str	r3, [sp, #12]
 4177              	.L607:
 4178 003c 039B     		ldr	r3, [sp, #12]
 4179 003e 013B     		subs	r3, r3, #1
 4180 0040 0393     		str	r3, [sp, #12]
 4181 0042 039B     		ldr	r3, [sp, #12]
 4182 0044 6BB9     		cbnz	r3, .L606
 4183 0046 2022     		movs	r2, #32
 4184 0048 2363     		str	r3, [r4, #48]
 4185 004a 84F83D20 		strb	r2, [r4, #61]
 4186 004e 84F83E30 		strb	r3, [r4, #62]
 4187 0052 226C     		ldr	r2, [r4, #64]
 4188 0054 84F83C30 		strb	r3, [r4, #60]
 4189 0058 42F02002 		orr	r2, r2, #32
 4190 005c 2264     		str	r2, [r4, #64]
 4191              	.L620:
 4192 005e 0120     		movs	r0, #1
 4193 0060 E0E7     		b	.L605
 4194              	.L606:
 4195 0062 2168     		ldr	r1, [r4]
 4196 0064 8B69     		ldr	r3, [r1, #24]
 4197 0066 9A07     		lsls	r2, r3, #30
 4198 0068 E8D4     		bmi	.L607
 4199 006a 94F83C30 		ldrb	r3, [r4, #60]	@ zero_extendqisi2
ARM GAS  /tmp/ccN79Q8s.s 			page 73


 4200 006e 012B     		cmp	r3, #1
 4201 0070 D7D0     		beq	.L608
 4202 0072 0123     		movs	r3, #1
 4203 0074 84F83C30 		strb	r3, [r4, #60]
 4204 0078 0B68     		ldr	r3, [r1]
 4205 007a 0026     		movs	r6, #0
 4206 007c DB07     		lsls	r3, r3, #31
 4207 007e 58BF     		it	pl
 4208 0080 0B68     		ldrpl	r3, [r1]
 4209 0082 3E4A     		ldr	r2, .L621+4
 4210 0084 5CBF     		itt	pl
 4211 0086 43F00103 		orrpl	r3, r3, #1
 4212 008a 0B60     		strpl	r3, [r1]
 4213 008c 0B68     		ldr	r3, [r1]
 4214 008e 23F40063 		bic	r3, r3, #2048
 4215 0092 0B60     		str	r3, [r1]
 4216 0094 2223     		movs	r3, #34
 4217 0096 84F83D30 		strb	r3, [r4, #61]
 4218 009a 4023     		movs	r3, #64
 4219 009c 84F83E30 		strb	r3, [r4, #62]
 4220 00a0 BDF83C30 		ldrh	r3, [sp, #60]
 4221 00a4 2664     		str	r6, [r4, #64]
 4222 00a6 6385     		strh	r3, [r4, #42]	@ movhi
 4223 00a8 638D     		ldrh	r3, [r4, #42]
 4224 00aa 6562     		str	r5, [r4, #36]
 4225 00ac 9BB2     		uxth	r3, r3
 4226 00ae 2385     		strh	r3, [r4, #40]	@ movhi
 4227 00b0 E262     		str	r2, [r4, #44]
 4228 00b2 002B     		cmp	r3, #0
 4229 00b4 43D0     		beq	.L610
 4230 00b6 A06B     		ldr	r0, [r4, #56]
 4231 00b8 314A     		ldr	r2, .L621+8
 4232 00ba 4663     		str	r6, [r0, #52]
 4233 00bc 8262     		str	r2, [r0, #40]
 4234 00be 314A     		ldr	r2, .L621+12
 4235 00c0 1031     		adds	r1, r1, #16
 4236 00c2 C0E90B62 		strd	r6, r2, [r0, #44]
 4237 00c6 2A46     		mov	r2, r5
 4238 00c8 FFF7FEFF 		bl	HAL_DMA_Start_IT
 4239 00cc 0028     		cmp	r0, #0
 4240 00ce 2AD1     		bne	.L611
 4241 00d0 2323     		movs	r3, #35
 4242 00d2 4246     		mov	r2, r8
 4243 00d4 0093     		str	r3, [sp]
 4244 00d6 3946     		mov	r1, r7
 4245 00d8 4B46     		mov	r3, r9
 4246 00da 2046     		mov	r0, r4
 4247 00dc CDF804A0 		str	r10, [sp, #4]
 4248 00e0 FFF7FEFF 		bl	I2C_RequestMemoryRead
 4249 00e4 0028     		cmp	r0, #0
 4250 00e6 BAD1     		bne	.L620
 4251 00e8 228D     		ldrh	r2, [r4, #40]
 4252 00ea 2368     		ldr	r3, [r4]
 4253 00ec 012A     		cmp	r2, #1
 4254 00ee 0BBF     		itete	eq
 4255 00f0 1A68     		ldreq	r2, [r3]
 4256 00f2 5A68     		ldrne	r2, [r3, #4]
ARM GAS  /tmp/ccN79Q8s.s 			page 74


 4257 00f4 22F48062 		biceq	r2, r2, #1024
 4258 00f8 42F48052 		orrne	r2, r2, #4096
 4259 00fc 0CBF     		ite	eq
 4260 00fe 1A60     		streq	r2, [r3]
 4261 0100 5A60     		strne	r2, [r3, #4]
 4262 0102 0022     		movs	r2, #0
 4263 0104 0492     		str	r2, [sp, #16]
 4264 0106 5969     		ldr	r1, [r3, #20]
 4265 0108 0491     		str	r1, [sp, #16]
 4266 010a 9969     		ldr	r1, [r3, #24]
 4267 010c 84F83C20 		strb	r2, [r4, #60]
 4268 0110 0491     		str	r1, [sp, #16]
 4269 0112 0499     		ldr	r1, [sp, #16]
 4270 0114 5A68     		ldr	r2, [r3, #4]
 4271 0116 42F48072 		orr	r2, r2, #256
 4272 011a 5A60     		str	r2, [r3, #4]
 4273 011c 5A68     		ldr	r2, [r3, #4]
 4274 011e 42F40062 		orr	r2, r2, #2048
 4275 0122 5A60     		str	r2, [r3, #4]
 4276 0124 7EE7     		b	.L605
 4277              	.L611:
 4278 0126 2023     		movs	r3, #32
 4279 0128 84F83D30 		strb	r3, [r4, #61]
 4280 012c 84F83E60 		strb	r6, [r4, #62]
 4281 0130 236C     		ldr	r3, [r4, #64]
 4282 0132 84F83C60 		strb	r6, [r4, #60]
 4283 0136 43F01003 		orr	r3, r3, #16
 4284 013a 2364     		str	r3, [r4, #64]
 4285 013c 8FE7     		b	.L620
 4286              	.L610:
 4287 013e 2323     		movs	r3, #35
 4288 0140 4246     		mov	r2, r8
 4289 0142 0093     		str	r3, [sp]
 4290 0144 3946     		mov	r1, r7
 4291 0146 4B46     		mov	r3, r9
 4292 0148 2046     		mov	r0, r4
 4293 014a CDF804A0 		str	r10, [sp, #4]
 4294 014e FFF7FEFF 		bl	I2C_RequestMemoryRead
 4295 0152 0028     		cmp	r0, #0
 4296 0154 83D1     		bne	.L620
 4297 0156 2368     		ldr	r3, [r4]
 4298 0158 0590     		str	r0, [sp, #20]
 4299 015a 5A69     		ldr	r2, [r3, #20]
 4300 015c 0592     		str	r2, [sp, #20]
 4301 015e 9A69     		ldr	r2, [r3, #24]
 4302 0160 0592     		str	r2, [sp, #20]
 4303 0162 059A     		ldr	r2, [sp, #20]
 4304 0164 1A68     		ldr	r2, [r3]
 4305 0166 42F40072 		orr	r2, r2, #512
 4306 016a 1A60     		str	r2, [r3]
 4307 016c 2023     		movs	r3, #32
 4308 016e 84F83C00 		strb	r0, [r4, #60]
 4309 0172 84F83D30 		strb	r3, [r4, #61]
 4310 0176 55E7     		b	.L605
 4311              	.L622:
 4312              		.align	2
 4313              	.L621:
ARM GAS  /tmp/ccN79Q8s.s 			page 75


 4314 0178 00000000 		.word	SystemCoreClock
 4315 017c 0000FFFF 		.word	-65536
 4316 0180 00000000 		.word	I2C_DMAXferCplt
 4317 0184 00000000 		.word	I2C_DMAError
 4319              		.section	.text.HAL_I2C_IsDeviceReady,"ax",%progbits
 4320              		.align	1
 4321              		.global	HAL_I2C_IsDeviceReady
 4322              		.syntax unified
 4323              		.thumb
 4324              		.thumb_func
 4325              		.fpu softvfp
 4327              	HAL_I2C_IsDeviceReady:
 4328              		@ args = 0, pretend = 0, frame = 8
 4329              		@ frame_needed = 0, uses_anonymous_args = 0
 4330 0000 2DE9F04F 		push	{r4, r5, r6, r7, r8, r9, r10, fp, lr}
 4331 0004 0446     		mov	r4, r0
 4332 0006 85B0     		sub	sp, sp, #20
 4333 0008 1E46     		mov	r6, r3
 4334 000a 0F46     		mov	r7, r1
 4335 000c 9146     		mov	r9, r2
 4336 000e FFF7FEFF 		bl	HAL_GetTick
 4337 0012 94F83D30 		ldrb	r3, [r4, #61]	@ zero_extendqisi2
 4338 0016 0546     		mov	r5, r0
 4339 0018 202B     		cmp	r3, #32
 4340 001a 03D0     		beq	.L624
 4341              	.L626:
 4342 001c 0220     		movs	r0, #2
 4343              	.L625:
 4344 001e 05B0     		add	sp, sp, #20
 4345              		@ sp needed
 4346 0020 BDE8F08F 		pop	{r4, r5, r6, r7, r8, r9, r10, fp, pc}
 4347              	.L624:
 4348 0024 0090     		str	r0, [sp]
 4349 0026 1923     		movs	r3, #25
 4350 0028 0122     		movs	r2, #1
 4351 002a 2046     		mov	r0, r4
 4352 002c 4849     		ldr	r1, .L645
 4353 002e FFF7FEFF 		bl	I2C_WaitOnFlagUntilTimeout
 4354 0032 0028     		cmp	r0, #0
 4355 0034 F2D1     		bne	.L626
 4356 0036 94F83C30 		ldrb	r3, [r4, #60]	@ zero_extendqisi2
 4357 003a 012B     		cmp	r3, #1
 4358 003c EED0     		beq	.L626
 4359 003e 0123     		movs	r3, #1
 4360 0040 84F83C30 		strb	r3, [r4, #60]
 4361 0044 2368     		ldr	r3, [r4]
 4362 0046 4FF0010A 		mov	r10, #1
 4363 004a 1A68     		ldr	r2, [r3]
 4364 004c DFF800B1 		ldr	fp, .L645
 4365 0050 D207     		lsls	r2, r2, #31
 4366 0052 58BF     		it	pl
 4367 0054 1A68     		ldrpl	r2, [r3]
 4368 0056 07F0FE07 		and	r7, r7, #254
 4369 005a 5CBF     		itt	pl
 4370 005c 42F00102 		orrpl	r2, r2, #1
 4371 0060 1A60     		strpl	r2, [r3]
 4372 0062 1A68     		ldr	r2, [r3]
ARM GAS  /tmp/ccN79Q8s.s 			page 76


 4373 0064 22F40062 		bic	r2, r2, #2048
 4374 0068 1A60     		str	r2, [r3]
 4375 006a 2423     		movs	r3, #36
 4376 006c 84F83D30 		strb	r3, [r4, #61]
 4377 0070 0023     		movs	r3, #0
 4378 0072 2364     		str	r3, [r4, #64]
 4379 0074 A3F58033 		sub	r3, r3, #65536
 4380 0078 E362     		str	r3, [r4, #44]
 4381              	.L636:
 4382 007a 2268     		ldr	r2, [r4]
 4383 007c 4FF00111 		mov	r1, #65537
 4384 0080 1368     		ldr	r3, [r2]
 4385 0082 2046     		mov	r0, r4
 4386 0084 43F48073 		orr	r3, r3, #256
 4387 0088 1360     		str	r3, [r2]
 4388 008a 3346     		mov	r3, r6
 4389 008c 0022     		movs	r2, #0
 4390 008e 0095     		str	r5, [sp]
 4391 0090 FFF7FEFF 		bl	I2C_WaitOnFlagUntilTimeout
 4392 0094 08B1     		cbz	r0, .L628
 4393              	.L644:
 4394 0096 0120     		movs	r0, #1
 4395 0098 C1E7     		b	.L625
 4396              	.L628:
 4397 009a 2368     		ldr	r3, [r4]
 4398 009c 4FF0A008 		mov	r8, #160
 4399 00a0 1F61     		str	r7, [r3, #16]
 4400 00a2 FFF7FEFF 		bl	HAL_GetTick
 4401 00a6 0546     		mov	r5, r0
 4402 00a8 2368     		ldr	r3, [r4]
 4403 00aa 5A69     		ldr	r2, [r3, #20]
 4404 00ac 5B69     		ldr	r3, [r3, #20]
 4405 00ae C2F34002 		ubfx	r2, r2, #1, #1
 4406 00b2 C3F38023 		ubfx	r3, r3, #10, #1
 4407              	.L629:
 4408 00b6 94F83D10 		ldrb	r1, [r4, #61]	@ zero_extendqisi2
 4409 00ba A029     		cmp	r1, #160
 4410 00bc 01D0     		beq	.L632
 4411 00be 1343     		orrs	r3, r2, r3
 4412 00c0 21D0     		beq	.L633
 4413              	.L632:
 4414 00c2 4FF02008 		mov	r8, #32
 4415 00c6 2368     		ldr	r3, [r4]
 4416 00c8 84F83D80 		strb	r8, [r4, #61]
 4417 00cc 5A69     		ldr	r2, [r3, #20]
 4418 00ce 12F0020F 		tst	r2, #2
 4419 00d2 1A68     		ldr	r2, [r3]
 4420 00d4 42F40072 		orr	r2, r2, #512
 4421 00d8 1A60     		str	r2, [r3]
 4422 00da 24D0     		beq	.L634
 4423 00dc 0022     		movs	r2, #0
 4424 00de 0392     		str	r2, [sp, #12]
 4425 00e0 5A69     		ldr	r2, [r3, #20]
 4426 00e2 2046     		mov	r0, r4
 4427 00e4 0392     		str	r2, [sp, #12]
 4428 00e6 9B69     		ldr	r3, [r3, #24]
 4429 00e8 0122     		movs	r2, #1
ARM GAS  /tmp/ccN79Q8s.s 			page 77


 4430 00ea 0393     		str	r3, [sp, #12]
 4431 00ec 039B     		ldr	r3, [sp, #12]
 4432 00ee 1849     		ldr	r1, .L645
 4433 00f0 1923     		movs	r3, #25
 4434 00f2 0095     		str	r5, [sp]
 4435 00f4 FFF7FEFF 		bl	I2C_WaitOnFlagUntilTimeout
 4436 00f8 0028     		cmp	r0, #0
 4437 00fa CCD1     		bne	.L644
 4438 00fc 84F83D80 		strb	r8, [r4, #61]
 4439 0100 84F83C00 		strb	r0, [r4, #60]
 4440 0104 8BE7     		b	.L625
 4441              	.L633:
 4442 0106 FFF7FEFF 		bl	HAL_GetTick
 4443 010a 401B     		subs	r0, r0, r5
 4444 010c B042     		cmp	r0, r6
 4445 010e 00D8     		bhi	.L630
 4446 0110 0EB9     		cbnz	r6, .L631
 4447              	.L630:
 4448 0112 84F83D80 		strb	r8, [r4, #61]
 4449              	.L631:
 4450 0116 2368     		ldr	r3, [r4]
 4451 0118 5A69     		ldr	r2, [r3, #20]
 4452 011a 5B69     		ldr	r3, [r3, #20]
 4453 011c C2F34002 		ubfx	r2, r2, #1, #1
 4454 0120 C3F38023 		ubfx	r3, r3, #10, #1
 4455 0124 C7E7     		b	.L629
 4456              	.L634:
 4457 0126 6FF48062 		mvn	r2, #1024
 4458 012a 5946     		mov	r1, fp
 4459 012c 5A61     		str	r2, [r3, #20]
 4460 012e 2046     		mov	r0, r4
 4461 0130 1923     		movs	r3, #25
 4462 0132 0122     		movs	r2, #1
 4463 0134 0095     		str	r5, [sp]
 4464 0136 FFF7FEFF 		bl	I2C_WaitOnFlagUntilTimeout
 4465 013a 0028     		cmp	r0, #0
 4466 013c ABD1     		bne	.L644
 4467 013e 0AF1010A 		add	r10, r10, #1
 4468 0142 CA45     		cmp	r10, r9
 4469 0144 99D3     		bcc	.L636
 4470 0146 84F83D80 		strb	r8, [r4, #61]
 4471 014a 84F83C00 		strb	r0, [r4, #60]
 4472 014e A2E7     		b	.L644
 4473              	.L646:
 4474              		.align	2
 4475              	.L645:
 4476 0150 02001000 		.word	1048578
 4478              		.section	.text.HAL_I2C_Master_Seq_Transmit_IT,"ax",%progbits
 4479              		.align	1
 4480              		.global	HAL_I2C_Master_Seq_Transmit_IT
 4481              		.syntax unified
 4482              		.thumb
 4483              		.thumb_func
 4484              		.fpu softvfp
 4486              	HAL_I2C_Master_Seq_Transmit_IT:
 4487              		@ args = 4, pretend = 0, frame = 8
 4488              		@ frame_needed = 0, uses_anonymous_args = 0
ARM GAS  /tmp/ccN79Q8s.s 			page 78


 4489 0000 73B5     		push	{r0, r1, r4, r5, r6, lr}
 4490 0002 0024     		movs	r4, #0
 4491 0004 0094     		str	r4, [sp]
 4492 0006 0194     		str	r4, [sp, #4]
 4493 0008 90F83D40 		ldrb	r4, [r0, #61]	@ zero_extendqisi2
 4494 000c 069D     		ldr	r5, [sp, #24]
 4495 000e 202C     		cmp	r4, #32
 4496 0010 02D0     		beq	.L648
 4497              	.L654:
 4498 0012 0220     		movs	r0, #2
 4499              	.L649:
 4500 0014 02B0     		add	sp, sp, #8
 4501              		@ sp needed
 4502 0016 70BD     		pop	{r4, r5, r6, pc}
 4503              	.L648:
 4504 0018 082D     		cmp	r5, #8
 4505 001a 01D0     		beq	.L650
 4506 001c 012D     		cmp	r5, #1
 4507 001e 1FD1     		bne	.L651
 4508              	.L650:
 4509 0020 46F2A816 		movw	r6, #25000
 4510 0024 294C     		ldr	r4, .L668
 4511 0026 2468     		ldr	r4, [r4]
 4512 0028 B4FBF6F6 		udiv	r6, r4, r6
 4513 002c 1924     		movs	r4, #25
 4514 002e 7443     		muls	r4, r6, r4
 4515 0030 0194     		str	r4, [sp, #4]
 4516              	.L653:
 4517 0032 019C     		ldr	r4, [sp, #4]
 4518 0034 013C     		subs	r4, r4, #1
 4519 0036 0194     		str	r4, [sp, #4]
 4520 0038 019C     		ldr	r4, [sp, #4]
 4521 003a 6CB9     		cbnz	r4, .L652
 4522 003c 2023     		movs	r3, #32
 4523 003e 0463     		str	r4, [r0, #48]
 4524 0040 80F83D30 		strb	r3, [r0, #61]
 4525 0044 80F83E40 		strb	r4, [r0, #62]
 4526 0048 036C     		ldr	r3, [r0, #64]
 4527 004a 80F83C40 		strb	r4, [r0, #60]
 4528 004e 43F02003 		orr	r3, r3, #32
 4529 0052 0364     		str	r3, [r0, #64]
 4530 0054 0120     		movs	r0, #1
 4531 0056 DDE7     		b	.L649
 4532              	.L652:
 4533 0058 0468     		ldr	r4, [r0]
 4534 005a A469     		ldr	r4, [r4, #24]
 4535 005c A407     		lsls	r4, r4, #30
 4536 005e E8D4     		bmi	.L653
 4537              	.L651:
 4538 0060 90F83C40 		ldrb	r4, [r0, #60]	@ zero_extendqisi2
 4539 0064 012C     		cmp	r4, #1
 4540 0066 D4D0     		beq	.L654
 4541 0068 0468     		ldr	r4, [r0]
 4542 006a 2668     		ldr	r6, [r4]
 4543 006c F607     		lsls	r6, r6, #31
 4544 006e 5EBF     		ittt	pl
 4545 0070 2668     		ldrpl	r6, [r4]
ARM GAS  /tmp/ccN79Q8s.s 			page 79


 4546 0072 46F00106 		orrpl	r6, r6, #1
 4547 0076 2660     		strpl	r6, [r4]
 4548 0078 2668     		ldr	r6, [r4]
 4549 007a 26F40066 		bic	r6, r6, #2048
 4550 007e 2660     		str	r6, [r4]
 4551 0080 2126     		movs	r6, #33
 4552 0082 80F83D60 		strb	r6, [r0, #61]
 4553 0086 1026     		movs	r6, #16
 4554 0088 80F83E60 		strb	r6, [r0, #62]
 4555 008c 0026     		movs	r6, #0
 4556 008e 0664     		str	r6, [r0, #64]
 4557 0090 4385     		strh	r3, [r0, #42]	@ movhi
 4558 0092 438D     		ldrh	r3, [r0, #42]
 4559 0094 C562     		str	r5, [r0, #44]
 4560 0096 4164     		str	r1, [r0, #68]
 4561 0098 0385     		strh	r3, [r0, #40]	@ movhi
 4562 009a 036B     		ldr	r3, [r0, #48]
 4563 009c 4262     		str	r2, [r0, #36]
 4564 009e 0093     		str	r3, [sp]
 4565 00a0 009B     		ldr	r3, [sp]
 4566 00a2 112B     		cmp	r3, #17
 4567 00a4 05D1     		bne	.L656
 4568 00a6 B5F52A0F 		cmp	r5, #11141120
 4569 00aa 02D0     		beq	.L656
 4570 00ac B5F12A4F 		cmp	r5, #-1442840576
 4571 00b0 03D1     		bne	.L657
 4572              	.L656:
 4573 00b2 2368     		ldr	r3, [r4]
 4574 00b4 43F48073 		orr	r3, r3, #256
 4575 00b8 2360     		str	r3, [r4]
 4576              	.L657:
 4577 00ba 0023     		movs	r3, #0
 4578 00bc 80F83C30 		strb	r3, [r0, #60]
 4579 00c0 6268     		ldr	r2, [r4, #4]
 4580 00c2 1846     		mov	r0, r3
 4581 00c4 42F4E062 		orr	r2, r2, #1792
 4582 00c8 6260     		str	r2, [r4, #4]
 4583 00ca A3E7     		b	.L649
 4584              	.L669:
 4585              		.align	2
 4586              	.L668:
 4587 00cc 00000000 		.word	SystemCoreClock
 4589              		.section	.text.HAL_I2C_Master_Seq_Transmit_DMA,"ax",%progbits
 4590              		.align	1
 4591              		.global	HAL_I2C_Master_Seq_Transmit_DMA
 4592              		.syntax unified
 4593              		.thumb
 4594              		.thumb_func
 4595              		.fpu softvfp
 4597              	HAL_I2C_Master_Seq_Transmit_DMA:
 4598              		@ args = 4, pretend = 0, frame = 8
 4599              		@ frame_needed = 0, uses_anonymous_args = 0
 4600 0000 F7B5     		push	{r0, r1, r2, r4, r5, r6, r7, lr}
 4601 0002 0446     		mov	r4, r0
 4602 0004 0846     		mov	r0, r1
 4603 0006 1146     		mov	r1, r2
 4604 0008 0022     		movs	r2, #0
ARM GAS  /tmp/ccN79Q8s.s 			page 80


 4605 000a 0092     		str	r2, [sp]
 4606 000c 0192     		str	r2, [sp, #4]
 4607 000e 94F83D20 		ldrb	r2, [r4, #61]	@ zero_extendqisi2
 4608 0012 089E     		ldr	r6, [sp, #32]
 4609 0014 202A     		cmp	r2, #32
 4610 0016 02D0     		beq	.L671
 4611              	.L674:
 4612 0018 0220     		movs	r0, #2
 4613              	.L672:
 4614 001a 03B0     		add	sp, sp, #12
 4615              		@ sp needed
 4616 001c F0BD     		pop	{r4, r5, r6, r7, pc}
 4617              	.L671:
 4618 001e 082E     		cmp	r6, #8
 4619 0020 5CD0     		beq	.L673
 4620 0022 012E     		cmp	r6, #1
 4621 0024 5AD0     		beq	.L673
 4622              	.L678:
 4623 0026 94F83C20 		ldrb	r2, [r4, #60]	@ zero_extendqisi2
 4624 002a 012A     		cmp	r2, #1
 4625 002c F4D0     		beq	.L674
 4626 002e 0122     		movs	r2, #1
 4627 0030 2568     		ldr	r5, [r4]
 4628 0032 84F83C20 		strb	r2, [r4, #60]
 4629 0036 2A68     		ldr	r2, [r5]
 4630 0038 D707     		lsls	r7, r2, #31
 4631 003a 58BF     		it	pl
 4632 003c 2A68     		ldrpl	r2, [r5]
 4633 003e 4FF00007 		mov	r7, #0
 4634 0042 5CBF     		itt	pl
 4635 0044 42F00102 		orrpl	r2, r2, #1
 4636 0048 2A60     		strpl	r2, [r5]
 4637 004a 2A68     		ldr	r2, [r5]
 4638 004c 22F40062 		bic	r2, r2, #2048
 4639 0050 2A60     		str	r2, [r5]
 4640 0052 2122     		movs	r2, #33
 4641 0054 84F83D20 		strb	r2, [r4, #61]
 4642 0058 1022     		movs	r2, #16
 4643 005a 84F83E20 		strb	r2, [r4, #62]
 4644 005e 2764     		str	r7, [r4, #64]
 4645 0060 6385     		strh	r3, [r4, #42]	@ movhi
 4646 0062 638D     		ldrh	r3, [r4, #42]
 4647 0064 E662     		str	r6, [r4, #44]
 4648 0066 6064     		str	r0, [r4, #68]
 4649 0068 226B     		ldr	r2, [r4, #48]
 4650 006a 9BB2     		uxth	r3, r3
 4651 006c 6162     		str	r1, [r4, #36]
 4652 006e 2385     		strh	r3, [r4, #40]	@ movhi
 4653 0070 0092     		str	r2, [sp]
 4654 0072 002B     		cmp	r3, #0
 4655 0074 5FD0     		beq	.L680
 4656 0076 606B     		ldr	r0, [r4, #52]
 4657 0078 3B4A     		ldr	r2, .L705
 4658 007a 4763     		str	r7, [r0, #52]
 4659 007c 8262     		str	r2, [r0, #40]
 4660 007e 3B4A     		ldr	r2, .L705+4
 4661 0080 C0E90B72 		strd	r7, r2, [r0, #44]
ARM GAS  /tmp/ccN79Q8s.s 			page 81


 4662 0084 05F11002 		add	r2, r5, #16
 4663 0088 FFF7FEFF 		bl	HAL_DMA_Start_IT
 4664 008c 0028     		cmp	r0, #0
 4665 008e 46D1     		bne	.L681
 4666 0090 2368     		ldr	r3, [r4]
 4667 0092 1A68     		ldr	r2, [r3]
 4668 0094 42F48062 		orr	r2, r2, #1024
 4669 0098 1A60     		str	r2, [r3]
 4670 009a 009A     		ldr	r2, [sp]
 4671 009c 112A     		cmp	r2, #17
 4672 009e 05D1     		bne	.L682
 4673 00a0 B6F52A0F 		cmp	r6, #11141120
 4674 00a4 02D0     		beq	.L682
 4675 00a6 B6F12A4F 		cmp	r6, #-1442840576
 4676 00aa 03D1     		bne	.L683
 4677              	.L682:
 4678 00ac 1A68     		ldr	r2, [r3]
 4679 00ae 42F48072 		orr	r2, r2, #256
 4680 00b2 1A60     		str	r2, [r3]
 4681              	.L683:
 4682 00b4 0022     		movs	r2, #0
 4683 00b6 043E     		subs	r6, r6, #4
 4684 00b8 1C2E     		cmp	r6, #28
 4685 00ba 84F83C20 		strb	r2, [r4, #60]
 4686 00be 08D8     		bhi	.L684
 4687 00c0 2B4A     		ldr	r2, .L705+8
 4688 00c2 22FA06F6 		lsr	r6, r2, r6
 4689 00c6 F207     		lsls	r2, r6, #31
 4690 00c8 42BF     		ittt	mi
 4691 00ca 5A68     		ldrmi	r2, [r3, #4]
 4692 00cc 42F40062 		orrmi	r2, r2, #2048
 4693 00d0 5A60     		strmi	r2, [r3, #4]
 4694              	.L684:
 4695 00d2 5A68     		ldr	r2, [r3, #4]
 4696 00d4 42F44072 		orr	r2, r2, #768
 4697 00d8 5A60     		str	r2, [r3, #4]
 4698 00da 9EE7     		b	.L672
 4699              	.L673:
 4700 00dc 46F2A815 		movw	r5, #25000
 4701 00e0 244A     		ldr	r2, .L705+12
 4702 00e2 1268     		ldr	r2, [r2]
 4703 00e4 B2FBF5F5 		udiv	r5, r2, r5
 4704 00e8 1922     		movs	r2, #25
 4705 00ea 6A43     		muls	r2, r5, r2
 4706 00ec 0192     		str	r2, [sp, #4]
 4707              	.L677:
 4708 00ee 019A     		ldr	r2, [sp, #4]
 4709 00f0 013A     		subs	r2, r2, #1
 4710 00f2 0192     		str	r2, [sp, #4]
 4711 00f4 019A     		ldr	r2, [sp, #4]
 4712 00f6 6AB9     		cbnz	r2, .L676
 4713 00f8 2023     		movs	r3, #32
 4714 00fa 2263     		str	r2, [r4, #48]
 4715 00fc 84F83D30 		strb	r3, [r4, #61]
 4716 0100 84F83E20 		strb	r2, [r4, #62]
 4717 0104 236C     		ldr	r3, [r4, #64]
 4718 0106 84F83C20 		strb	r2, [r4, #60]
ARM GAS  /tmp/ccN79Q8s.s 			page 82


 4719 010a 43F02003 		orr	r3, r3, #32
 4720 010e 2364     		str	r3, [r4, #64]
 4721              	.L704:
 4722 0110 0120     		movs	r0, #1
 4723 0112 82E7     		b	.L672
 4724              	.L676:
 4725 0114 2268     		ldr	r2, [r4]
 4726 0116 9269     		ldr	r2, [r2, #24]
 4727 0118 9207     		lsls	r2, r2, #30
 4728 011a E8D4     		bmi	.L677
 4729 011c 83E7     		b	.L678
 4730              	.L681:
 4731 011e 2023     		movs	r3, #32
 4732 0120 84F83D30 		strb	r3, [r4, #61]
 4733 0124 84F83E70 		strb	r7, [r4, #62]
 4734 0128 236C     		ldr	r3, [r4, #64]
 4735 012a 84F83C70 		strb	r7, [r4, #60]
 4736 012e 43F01003 		orr	r3, r3, #16
 4737 0132 2364     		str	r3, [r4, #64]
 4738 0134 ECE7     		b	.L704
 4739              	.L680:
 4740 0136 2B68     		ldr	r3, [r5]
 4741 0138 43F48063 		orr	r3, r3, #1024
 4742 013c 2B60     		str	r3, [r5]
 4743 013e 009B     		ldr	r3, [sp]
 4744 0140 112B     		cmp	r3, #17
 4745 0142 05D1     		bne	.L685
 4746 0144 B6F52A0F 		cmp	r6, #11141120
 4747 0148 02D0     		beq	.L685
 4748 014a B6F12A4F 		cmp	r6, #-1442840576
 4749 014e 03D1     		bne	.L686
 4750              	.L685:
 4751 0150 2B68     		ldr	r3, [r5]
 4752 0152 43F48073 		orr	r3, r3, #256
 4753 0156 2B60     		str	r3, [r5]
 4754              	.L686:
 4755 0158 0020     		movs	r0, #0
 4756 015a 84F83C00 		strb	r0, [r4, #60]
 4757 015e 6B68     		ldr	r3, [r5, #4]
 4758 0160 43F4E063 		orr	r3, r3, #1792
 4759 0164 6B60     		str	r3, [r5, #4]
 4760 0166 58E7     		b	.L672
 4761              	.L706:
 4762              		.align	2
 4763              	.L705:
 4764 0168 00000000 		.word	I2C_DMAXferCplt
 4765 016c 00000000 		.word	I2C_DMAError
 4766 0170 01100010 		.word	268439553
 4767 0174 00000000 		.word	SystemCoreClock
 4769              		.section	.text.HAL_I2C_Master_Seq_Receive_IT,"ax",%progbits
 4770              		.align	1
 4771              		.global	HAL_I2C_Master_Seq_Receive_IT
 4772              		.syntax unified
 4773              		.thumb
 4774              		.thumb_func
 4775              		.fpu softvfp
 4777              	HAL_I2C_Master_Seq_Receive_IT:
ARM GAS  /tmp/ccN79Q8s.s 			page 83


 4778              		@ args = 4, pretend = 0, frame = 8
 4779              		@ frame_needed = 0, uses_anonymous_args = 0
 4780 0000 73B5     		push	{r0, r1, r4, r5, r6, lr}
 4781 0002 0024     		movs	r4, #0
 4782 0004 0094     		str	r4, [sp]
 4783 0006 0194     		str	r4, [sp, #4]
 4784 0008 90F83D40 		ldrb	r4, [r0, #61]	@ zero_extendqisi2
 4785 000c 069D     		ldr	r5, [sp, #24]
 4786 000e 202C     		cmp	r4, #32
 4787 0010 02D0     		beq	.L708
 4788              	.L714:
 4789 0012 0220     		movs	r0, #2
 4790              	.L709:
 4791 0014 02B0     		add	sp, sp, #8
 4792              		@ sp needed
 4793 0016 70BD     		pop	{r4, r5, r6, pc}
 4794              	.L708:
 4795 0018 082D     		cmp	r5, #8
 4796 001a 01D0     		beq	.L710
 4797 001c 012D     		cmp	r5, #1
 4798 001e 1FD1     		bne	.L711
 4799              	.L710:
 4800 0020 46F2A816 		movw	r6, #25000
 4801 0024 384C     		ldr	r4, .L736
 4802 0026 2468     		ldr	r4, [r4]
 4803 0028 B4FBF6F6 		udiv	r6, r4, r6
 4804 002c 1924     		movs	r4, #25
 4805 002e 7443     		muls	r4, r6, r4
 4806 0030 0194     		str	r4, [sp, #4]
 4807              	.L713:
 4808 0032 019C     		ldr	r4, [sp, #4]
 4809 0034 013C     		subs	r4, r4, #1
 4810 0036 0194     		str	r4, [sp, #4]
 4811 0038 019C     		ldr	r4, [sp, #4]
 4812 003a 6CB9     		cbnz	r4, .L712
 4813 003c 2023     		movs	r3, #32
 4814 003e 0463     		str	r4, [r0, #48]
 4815 0040 80F83D30 		strb	r3, [r0, #61]
 4816 0044 80F83E40 		strb	r4, [r0, #62]
 4817 0048 036C     		ldr	r3, [r0, #64]
 4818 004a 80F83C40 		strb	r4, [r0, #60]
 4819 004e 43F02003 		orr	r3, r3, #32
 4820 0052 0364     		str	r3, [r0, #64]
 4821 0054 0120     		movs	r0, #1
 4822 0056 DDE7     		b	.L709
 4823              	.L712:
 4824 0058 0468     		ldr	r4, [r0]
 4825 005a A469     		ldr	r4, [r4, #24]
 4826 005c A407     		lsls	r4, r4, #30
 4827 005e E8D4     		bmi	.L713
 4828              	.L711:
 4829 0060 90F83C40 		ldrb	r4, [r0, #60]	@ zero_extendqisi2
 4830 0064 012C     		cmp	r4, #1
 4831 0066 D4D0     		beq	.L714
 4832 0068 0124     		movs	r4, #1
 4833 006a 80F83C40 		strb	r4, [r0, #60]
 4834 006e 0468     		ldr	r4, [r0]
ARM GAS  /tmp/ccN79Q8s.s 			page 84


 4835 0070 2668     		ldr	r6, [r4]
 4836 0072 F607     		lsls	r6, r6, #31
 4837 0074 5EBF     		ittt	pl
 4838 0076 2668     		ldrpl	r6, [r4]
 4839 0078 46F00106 		orrpl	r6, r6, #1
 4840 007c 2660     		strpl	r6, [r4]
 4841 007e 2668     		ldr	r6, [r4]
 4842 0080 26F40066 		bic	r6, r6, #2048
 4843 0084 2660     		str	r6, [r4]
 4844 0086 2226     		movs	r6, #34
 4845 0088 80F83D60 		strb	r6, [r0, #61]
 4846 008c 1026     		movs	r6, #16
 4847 008e 80F83E60 		strb	r6, [r0, #62]
 4848 0092 0026     		movs	r6, #0
 4849 0094 0664     		str	r6, [r0, #64]
 4850 0096 4385     		strh	r3, [r0, #42]	@ movhi
 4851 0098 438D     		ldrh	r3, [r0, #42]
 4852 009a C562     		str	r5, [r0, #44]
 4853 009c 4164     		str	r1, [r0, #68]
 4854 009e 0385     		strh	r3, [r0, #40]	@ movhi
 4855 00a0 036B     		ldr	r3, [r0, #48]
 4856 00a2 4262     		str	r2, [r0, #36]
 4857 00a4 0093     		str	r3, [sp]
 4858 00a6 438D     		ldrh	r3, [r0, #42]
 4859 00a8 9BB2     		uxth	r3, r3
 4860 00aa 022B     		cmp	r3, #2
 4861 00ac 25D1     		bne	.L716
 4862 00ae 202D     		cmp	r5, #32
 4863 00b0 01D0     		beq	.L717
 4864 00b2 102D     		cmp	r5, #16
 4865 00b4 21D1     		bne	.L716
 4866              	.L717:
 4867 00b6 009B     		ldr	r3, [sp]
 4868 00b8 122B     		cmp	r3, #18
 4869 00ba 2368     		ldr	r3, [r4]
 4870 00bc 1ED1     		bne	.L735
 4871 00be 4FF44071 		mov	r1, #768
 4872 00c2 23F48063 		bic	r3, r3, #1024
 4873 00c6 2360     		str	r3, [r4]
 4874 00c8 2368     		ldr	r3, [r4]
 4875 00ca 43F40063 		orr	r3, r3, #2048
 4876 00ce 2360     		str	r3, [r4]
 4877              	.L719:
 4878 00d0 009B     		ldr	r3, [sp]
 4879 00d2 122B     		cmp	r3, #18
 4880 00d4 05D1     		bne	.L720
 4881 00d6 B5F52A0F 		cmp	r5, #11141120
 4882 00da 02D0     		beq	.L720
 4883 00dc B5F12A4F 		cmp	r5, #-1442840576
 4884 00e0 03D1     		bne	.L721
 4885              	.L720:
 4886 00e2 2368     		ldr	r3, [r4]
 4887 00e4 43F48073 		orr	r3, r3, #256
 4888 00e8 2360     		str	r3, [r4]
 4889              	.L721:
 4890 00ea 0023     		movs	r3, #0
 4891 00ec 80F83C30 		strb	r3, [r0, #60]
ARM GAS  /tmp/ccN79Q8s.s 			page 85


 4892 00f0 6268     		ldr	r2, [r4, #4]
 4893 00f2 1846     		mov	r0, r3
 4894 00f4 0A43     		orrs	r2, r2, r1
 4895 00f6 6260     		str	r2, [r4, #4]
 4896 00f8 8CE7     		b	.L709
 4897              	.L716:
 4898 00fa 2368     		ldr	r3, [r4]
 4899              	.L735:
 4900 00fc 43F48063 		orr	r3, r3, #1024
 4901 0100 4FF4E061 		mov	r1, #1792
 4902 0104 2360     		str	r3, [r4]
 4903 0106 E3E7     		b	.L719
 4904              	.L737:
 4905              		.align	2
 4906              	.L736:
 4907 0108 00000000 		.word	SystemCoreClock
 4909              		.section	.text.HAL_I2C_Master_Seq_Receive_DMA,"ax",%progbits
 4910              		.align	1
 4911              		.global	HAL_I2C_Master_Seq_Receive_DMA
 4912              		.syntax unified
 4913              		.thumb
 4914              		.thumb_func
 4915              		.fpu softvfp
 4917              	HAL_I2C_Master_Seq_Receive_DMA:
 4918              		@ args = 4, pretend = 0, frame = 8
 4919              		@ frame_needed = 0, uses_anonymous_args = 0
 4920 0000 F7B5     		push	{r0, r1, r2, r4, r5, r6, r7, lr}
 4921 0002 0446     		mov	r4, r0
 4922 0004 0020     		movs	r0, #0
 4923 0006 0090     		str	r0, [sp]
 4924 0008 0190     		str	r0, [sp, #4]
 4925 000a 94F83D00 		ldrb	r0, [r4, #61]	@ zero_extendqisi2
 4926 000e 089E     		ldr	r6, [sp, #32]
 4927 0010 2028     		cmp	r0, #32
 4928 0012 02D0     		beq	.L739
 4929              	.L742:
 4930 0014 0220     		movs	r0, #2
 4931              	.L740:
 4932 0016 03B0     		add	sp, sp, #12
 4933              		@ sp needed
 4934 0018 F0BD     		pop	{r4, r5, r6, r7, pc}
 4935              	.L739:
 4936 001a 082E     		cmp	r6, #8
 4937 001c 44D0     		beq	.L741
 4938 001e 012E     		cmp	r6, #1
 4939 0020 42D0     		beq	.L741
 4940              	.L746:
 4941 0022 94F83C00 		ldrb	r0, [r4, #60]	@ zero_extendqisi2
 4942 0026 0128     		cmp	r0, #1
 4943 0028 F4D0     		beq	.L742
 4944 002a 0120     		movs	r0, #1
 4945 002c 2568     		ldr	r5, [r4]
 4946 002e 84F83C00 		strb	r0, [r4, #60]
 4947 0032 2868     		ldr	r0, [r5]
 4948 0034 C007     		lsls	r0, r0, #31
 4949 0036 5EBF     		ittt	pl
 4950 0038 2868     		ldrpl	r0, [r5]
ARM GAS  /tmp/ccN79Q8s.s 			page 86


 4951 003a 40F00100 		orrpl	r0, r0, #1
 4952 003e 2860     		strpl	r0, [r5]
 4953 0040 2868     		ldr	r0, [r5]
 4954 0042 20F40060 		bic	r0, r0, #2048
 4955 0046 2860     		str	r0, [r5]
 4956 0048 6868     		ldr	r0, [r5, #4]
 4957 004a 20F48050 		bic	r0, r0, #4096
 4958 004e 6860     		str	r0, [r5, #4]
 4959 0050 2220     		movs	r0, #34
 4960 0052 84F83D00 		strb	r0, [r4, #61]
 4961 0056 1020     		movs	r0, #16
 4962 0058 84F83E00 		strb	r0, [r4, #62]
 4963 005c 0020     		movs	r0, #0
 4964 005e 2064     		str	r0, [r4, #64]
 4965 0060 6385     		strh	r3, [r4, #42]	@ movhi
 4966 0062 638D     		ldrh	r3, [r4, #42]
 4967 0064 E662     		str	r6, [r4, #44]
 4968 0066 6164     		str	r1, [r4, #68]
 4969 0068 216B     		ldr	r1, [r4, #48]
 4970 006a 9BB2     		uxth	r3, r3
 4971 006c 6262     		str	r2, [r4, #36]
 4972 006e 2385     		strh	r3, [r4, #40]	@ movhi
 4973 0070 0091     		str	r1, [sp]
 4974 0072 002B     		cmp	r3, #0
 4975 0074 00F08880 		beq	.L748
 4976 0078 618D     		ldrh	r1, [r4, #42]
 4977 007a 89B2     		uxth	r1, r1
 4978 007c 0229     		cmp	r1, #2
 4979 007e 68D1     		bne	.L749
 4980 0080 202E     		cmp	r6, #32
 4981 0082 01D0     		beq	.L750
 4982 0084 102E     		cmp	r6, #16
 4983 0086 64D1     		bne	.L749
 4984              	.L750:
 4985 0088 0099     		ldr	r1, [sp]
 4986 008a 1229     		cmp	r1, #18
 4987 008c 2968     		ldr	r1, [r5]
 4988 008e 2CD1     		bne	.L751
 4989 0090 21F48061 		bic	r1, r1, #1024
 4990 0094 2960     		str	r1, [r5]
 4991 0096 2968     		ldr	r1, [r5]
 4992 0098 41F40061 		orr	r1, r1, #2048
 4993 009c 2960     		str	r1, [r5]
 4994              	.L753:
 4995 009e 6968     		ldr	r1, [r5, #4]
 4996 00a0 41F48051 		orr	r1, r1, #4096
 4997 00a4 6960     		str	r1, [r5, #4]
 4998 00a6 23E0     		b	.L752
 4999              	.L741:
 5000 00a8 46F2A815 		movw	r5, #25000
 5001 00ac 4348     		ldr	r0, .L789
 5002 00ae 0068     		ldr	r0, [r0]
 5003 00b0 B0FBF5F5 		udiv	r5, r0, r5
 5004 00b4 1920     		movs	r0, #25
 5005 00b6 6843     		muls	r0, r5, r0
 5006 00b8 0190     		str	r0, [sp, #4]
 5007              	.L745:
ARM GAS  /tmp/ccN79Q8s.s 			page 87


 5008 00ba 0198     		ldr	r0, [sp, #4]
 5009 00bc 0138     		subs	r0, r0, #1
 5010 00be 0190     		str	r0, [sp, #4]
 5011 00c0 0198     		ldr	r0, [sp, #4]
 5012 00c2 68B9     		cbnz	r0, .L744
 5013 00c4 2023     		movs	r3, #32
 5014 00c6 2063     		str	r0, [r4, #48]
 5015 00c8 84F83D30 		strb	r3, [r4, #61]
 5016 00cc 84F83E00 		strb	r0, [r4, #62]
 5017 00d0 236C     		ldr	r3, [r4, #64]
 5018 00d2 84F83C00 		strb	r0, [r4, #60]
 5019 00d6 43F02003 		orr	r3, r3, #32
 5020 00da 2364     		str	r3, [r4, #64]
 5021              	.L788:
 5022 00dc 0120     		movs	r0, #1
 5023 00de 9AE7     		b	.L740
 5024              	.L744:
 5025 00e0 2068     		ldr	r0, [r4]
 5026 00e2 8069     		ldr	r0, [r0, #24]
 5027 00e4 8507     		lsls	r5, r0, #30
 5028 00e6 E8D4     		bmi	.L745
 5029 00e8 9BE7     		b	.L746
 5030              	.L751:
 5031 00ea 41F48061 		orr	r1, r1, #1024
 5032 00ee 2960     		str	r1, [r5]
 5033              	.L752:
 5034 00f0 0027     		movs	r7, #0
 5035 00f2 A06B     		ldr	r0, [r4, #56]
 5036 00f4 3249     		ldr	r1, .L789+4
 5037 00f6 C762     		str	r7, [r0, #44]
 5038 00f8 8162     		str	r1, [r0, #40]
 5039 00fa 3249     		ldr	r1, .L789+8
 5040 00fc 4763     		str	r7, [r0, #52]
 5041 00fe 0163     		str	r1, [r0, #48]
 5042 0100 05F11001 		add	r1, r5, #16
 5043 0104 FFF7FEFF 		bl	HAL_DMA_Start_IT
 5044 0108 0028     		cmp	r0, #0
 5045 010a 31D1     		bne	.L754
 5046 010c 009B     		ldr	r3, [sp]
 5047 010e 122B     		cmp	r3, #18
 5048 0110 2368     		ldr	r3, [r4]
 5049 0112 05D1     		bne	.L755
 5050 0114 B6F52A0F 		cmp	r6, #11141120
 5051 0118 02D0     		beq	.L755
 5052 011a B6F12A4F 		cmp	r6, #-1442840576
 5053 011e 24D1     		bne	.L761
 5054              	.L755:
 5055 0120 4FF44075 		mov	r5, #768
 5056 0124 1A68     		ldr	r2, [r3]
 5057 0126 42F48072 		orr	r2, r2, #256
 5058 012a 1A60     		str	r2, [r3]
 5059              	.L756:
 5060 012c 0022     		movs	r2, #0
 5061 012e 043E     		subs	r6, r6, #4
 5062 0130 1C2E     		cmp	r6, #28
 5063 0132 84F83C20 		strb	r2, [r4, #60]
 5064 0136 08D8     		bhi	.L758
ARM GAS  /tmp/ccN79Q8s.s 			page 88


 5065 0138 2349     		ldr	r1, .L789+12
 5066 013a 21FA06F6 		lsr	r6, r1, r6
 5067 013e F207     		lsls	r2, r6, #31
 5068 0140 42BF     		ittt	mi
 5069 0142 5968     		ldrmi	r1, [r3, #4]
 5070 0144 41F40061 		orrmi	r1, r1, #2048
 5071 0148 5960     		strmi	r1, [r3, #4]
 5072              	.L758:
 5073 014a 5A68     		ldr	r2, [r3, #4]
 5074 014c 2A43     		orrs	r2, r2, r5
 5075 014e 5A60     		str	r2, [r3, #4]
 5076 0150 61E7     		b	.L740
 5077              	.L749:
 5078 0152 2968     		ldr	r1, [r5]
 5079 0154 202E     		cmp	r6, #32
 5080 0156 41F48061 		orr	r1, r1, #1024
 5081 015a 2960     		str	r1, [r5]
 5082 015c 9FD0     		beq	.L753
 5083 015e B6F12A4F 		cmp	r6, #-1442840576
 5084 0162 9CD0     		beq	.L753
 5085 0164 102E     		cmp	r6, #16
 5086 0166 C3D1     		bne	.L752
 5087 0168 99E7     		b	.L753
 5088              	.L761:
 5089 016a 4FF48075 		mov	r5, #256
 5090 016e DDE7     		b	.L756
 5091              	.L754:
 5092 0170 2023     		movs	r3, #32
 5093 0172 84F83D30 		strb	r3, [r4, #61]
 5094 0176 84F83E70 		strb	r7, [r4, #62]
 5095 017a 236C     		ldr	r3, [r4, #64]
 5096 017c 84F83C70 		strb	r7, [r4, #60]
 5097 0180 43F01003 		orr	r3, r3, #16
 5098 0184 2364     		str	r3, [r4, #64]
 5099 0186 A9E7     		b	.L788
 5100              	.L748:
 5101 0188 2B68     		ldr	r3, [r5]
 5102 018a 43F48063 		orr	r3, r3, #1024
 5103 018e 2B60     		str	r3, [r5]
 5104 0190 009B     		ldr	r3, [sp]
 5105 0192 122B     		cmp	r3, #18
 5106 0194 05D1     		bne	.L759
 5107 0196 B6F52A0F 		cmp	r6, #11141120
 5108 019a 02D0     		beq	.L759
 5109 019c B6F12A4F 		cmp	r6, #-1442840576
 5110 01a0 03D1     		bne	.L760
 5111              	.L759:
 5112 01a2 2B68     		ldr	r3, [r5]
 5113 01a4 43F48073 		orr	r3, r3, #256
 5114 01a8 2B60     		str	r3, [r5]
 5115              	.L760:
 5116 01aa 0020     		movs	r0, #0
 5117 01ac 84F83C00 		strb	r0, [r4, #60]
 5118 01b0 6B68     		ldr	r3, [r5, #4]
 5119 01b2 43F4E063 		orr	r3, r3, #1792
 5120 01b6 6B60     		str	r3, [r5, #4]
 5121 01b8 2DE7     		b	.L740
ARM GAS  /tmp/ccN79Q8s.s 			page 89


 5122              	.L790:
 5123 01ba 00BF     		.align	2
 5124              	.L789:
 5125 01bc 00000000 		.word	SystemCoreClock
 5126 01c0 00000000 		.word	I2C_DMAXferCplt
 5127 01c4 00000000 		.word	I2C_DMAError
 5128 01c8 01100010 		.word	268439553
 5130              		.section	.text.HAL_I2C_Slave_Seq_Transmit_IT,"ax",%progbits
 5131              		.align	1
 5132              		.global	HAL_I2C_Slave_Seq_Transmit_IT
 5133              		.syntax unified
 5134              		.thumb
 5135              		.thumb_func
 5136              		.fpu softvfp
 5138              	HAL_I2C_Slave_Seq_Transmit_IT:
 5139              		@ args = 0, pretend = 0, frame = 8
 5140              		@ frame_needed = 0, uses_anonymous_args = 0
 5141 0000 37B5     		push	{r0, r1, r2, r4, r5, lr}
 5142 0002 90F83D40 		ldrb	r4, [r0, #61]	@ zero_extendqisi2
 5143 0006 04F02804 		and	r4, r4, #40
 5144 000a 282C     		cmp	r4, #40
 5145 000c 31D1     		bne	.L797
 5146 000e 0029     		cmp	r1, #0
 5147 0010 2DD0     		beq	.L796
 5148 0012 002A     		cmp	r2, #0
 5149 0014 2BD0     		beq	.L796
 5150 0016 90F83C40 		ldrb	r4, [r0, #60]	@ zero_extendqisi2
 5151 001a 012C     		cmp	r4, #1
 5152 001c 29D0     		beq	.L797
 5153 001e 0568     		ldr	r5, [r0]
 5154 0020 2C68     		ldr	r4, [r5]
 5155 0022 E407     		lsls	r4, r4, #31
 5156 0024 5EBF     		ittt	pl
 5157 0026 2C68     		ldrpl	r4, [r5]
 5158 0028 44F00104 		orrpl	r4, r4, #1
 5159 002c 2C60     		strpl	r4, [r5]
 5160 002e 2C68     		ldr	r4, [r5]
 5161 0030 24F40064 		bic	r4, r4, #2048
 5162 0034 2C60     		str	r4, [r5]
 5163 0036 2924     		movs	r4, #41
 5164 0038 80F83D40 		strb	r4, [r0, #61]
 5165 003c 2024     		movs	r4, #32
 5166 003e 80F83E40 		strb	r4, [r0, #62]
 5167 0042 0024     		movs	r4, #0
 5168 0044 0464     		str	r4, [r0, #64]
 5169 0046 4285     		strh	r2, [r0, #42]	@ movhi
 5170 0048 428D     		ldrh	r2, [r0, #42]
 5171 004a C362     		str	r3, [r0, #44]
 5172 004c 0194     		str	r4, [sp, #4]
 5173 004e 6B69     		ldr	r3, [r5, #20]
 5174 0050 4162     		str	r1, [r0, #36]
 5175 0052 0193     		str	r3, [sp, #4]
 5176 0054 AB69     		ldr	r3, [r5, #24]
 5177 0056 0285     		strh	r2, [r0, #40]	@ movhi
 5178 0058 80F83C40 		strb	r4, [r0, #60]
 5179 005c 2046     		mov	r0, r4
 5180 005e 0193     		str	r3, [sp, #4]
ARM GAS  /tmp/ccN79Q8s.s 			page 90


 5181 0060 019B     		ldr	r3, [sp, #4]
 5182 0062 6B68     		ldr	r3, [r5, #4]
 5183 0064 43F4E063 		orr	r3, r3, #1792
 5184 0068 6B60     		str	r3, [r5, #4]
 5185              	.L792:
 5186 006a 03B0     		add	sp, sp, #12
 5187              		@ sp needed
 5188 006c 30BD     		pop	{r4, r5, pc}
 5189              	.L796:
 5190 006e 0120     		movs	r0, #1
 5191 0070 FBE7     		b	.L792
 5192              	.L797:
 5193 0072 0220     		movs	r0, #2
 5194 0074 F9E7     		b	.L792
 5196              		.section	.text.HAL_I2C_Slave_Seq_Transmit_DMA,"ax",%progbits
 5197              		.align	1
 5198              		.global	HAL_I2C_Slave_Seq_Transmit_DMA
 5199              		.syntax unified
 5200              		.thumb
 5201              		.thumb_func
 5202              		.fpu softvfp
 5204              	HAL_I2C_Slave_Seq_Transmit_DMA:
 5205              		@ args = 0, pretend = 0, frame = 8
 5206              		@ frame_needed = 0, uses_anonymous_args = 0
 5207 0000 2DE9F743 		push	{r0, r1, r2, r4, r5, r6, r7, r8, r9, lr}
 5208 0004 9946     		mov	r9, r3
 5209 0006 90F83D30 		ldrb	r3, [r0, #61]	@ zero_extendqisi2
 5210 000a 0446     		mov	r4, r0
 5211 000c 03F02803 		and	r3, r3, #40
 5212 0010 282B     		cmp	r3, #40
 5213 0012 0E46     		mov	r6, r1
 5214 0014 1746     		mov	r7, r2
 5215 0016 40F08C80 		bne	.L809
 5216 001a 0029     		cmp	r1, #0
 5217 001c 00F08780 		beq	.L808
 5218 0020 002A     		cmp	r2, #0
 5219 0022 00F08480 		beq	.L808
 5220 0026 90F83C30 		ldrb	r3, [r0, #60]	@ zero_extendqisi2
 5221 002a 012B     		cmp	r3, #1
 5222 002c 00F08180 		beq	.L809
 5223 0030 0123     		movs	r3, #1
 5224 0032 0568     		ldr	r5, [r0]
 5225 0034 80F83C30 		strb	r3, [r0, #60]
 5226 0038 6B68     		ldr	r3, [r5, #4]
 5227 003a 23F44073 		bic	r3, r3, #768
 5228 003e 6B60     		str	r3, [r5, #4]
 5229 0040 90F83D30 		ldrb	r3, [r0, #61]	@ zero_extendqisi2
 5230 0044 2A2B     		cmp	r3, #42
 5231 0046 52D1     		bne	.L800
 5232 0048 6B68     		ldr	r3, [r5, #4]
 5233 004a 1905     		lsls	r1, r3, #20
 5234 004c 0DD5     		bpl	.L802
 5235 004e 806B     		ldr	r0, [r0, #56]
 5236 0050 58B1     		cbz	r0, .L802
 5237 0052 6B68     		ldr	r3, [r5, #4]
 5238 0054 23F40063 		bic	r3, r3, #2048
 5239 0058 6B60     		str	r3, [r5, #4]
ARM GAS  /tmp/ccN79Q8s.s 			page 91


 5240 005a 374B     		ldr	r3, .L826
 5241 005c 4363     		str	r3, [r0, #52]
 5242 005e FFF7FEFF 		bl	HAL_DMA_Abort_IT
 5243 0062 10B1     		cbz	r0, .L802
 5244 0064 A06B     		ldr	r0, [r4, #56]
 5245              	.L825:
 5246 0066 436B     		ldr	r3, [r0, #52]
 5247 0068 9847     		blx	r3
 5248              	.L802:
 5249 006a 2268     		ldr	r2, [r4]
 5250 006c 0025     		movs	r5, #0
 5251 006e 1368     		ldr	r3, [r2]
 5252 0070 4FF02008 		mov	r8, #32
 5253 0074 DB07     		lsls	r3, r3, #31
 5254 0076 58BF     		it	pl
 5255 0078 1368     		ldrpl	r3, [r2]
 5256 007a 606B     		ldr	r0, [r4, #52]
 5257 007c 5CBF     		itt	pl
 5258 007e 43F00103 		orrpl	r3, r3, #1
 5259 0082 1360     		strpl	r3, [r2]
 5260 0084 1368     		ldr	r3, [r2]
 5261 0086 2D49     		ldr	r1, .L826+4
 5262 0088 23F40063 		bic	r3, r3, #2048
 5263 008c 42F8103B 		str	r3, [r2], #16
 5264 0090 2923     		movs	r3, #41
 5265 0092 84F83D30 		strb	r3, [r4, #61]
 5266 0096 84F83E80 		strb	r8, [r4, #62]
 5267 009a 2564     		str	r5, [r4, #64]
 5268 009c 6785     		strh	r7, [r4, #42]	@ movhi
 5269 009e 638D     		ldrh	r3, [r4, #42]
 5270 00a0 6662     		str	r6, [r4, #36]
 5271 00a2 9BB2     		uxth	r3, r3
 5272 00a4 2385     		strh	r3, [r4, #40]	@ movhi
 5273 00a6 C4F82C90 		str	r9, [r4, #44]
 5274 00aa 8162     		str	r1, [r0, #40]
 5275 00ac 2449     		ldr	r1, .L826+8
 5276 00ae 4563     		str	r5, [r0, #52]
 5277 00b0 C0E90B51 		strd	r5, r1, [r0, #44]
 5278 00b4 3146     		mov	r1, r6
 5279 00b6 FFF7FEFF 		bl	HAL_DMA_Start_IT
 5280 00ba 0028     		cmp	r0, #0
 5281 00bc 2DD1     		bne	.L805
 5282 00be 2368     		ldr	r3, [r4]
 5283 00c0 1A68     		ldr	r2, [r3]
 5284 00c2 42F48062 		orr	r2, r2, #1024
 5285 00c6 1A60     		str	r2, [r3]
 5286 00c8 0190     		str	r0, [sp, #4]
 5287 00ca 5A69     		ldr	r2, [r3, #20]
 5288 00cc 0192     		str	r2, [sp, #4]
 5289 00ce 9A69     		ldr	r2, [r3, #24]
 5290 00d0 84F83C00 		strb	r0, [r4, #60]
 5291 00d4 0192     		str	r2, [sp, #4]
 5292 00d6 019A     		ldr	r2, [sp, #4]
 5293 00d8 5A68     		ldr	r2, [r3, #4]
 5294 00da 42F44072 		orr	r2, r2, #768
 5295 00de 5A60     		str	r2, [r3, #4]
 5296 00e0 5A68     		ldr	r2, [r3, #4]
ARM GAS  /tmp/ccN79Q8s.s 			page 92


 5297 00e2 42F40062 		orr	r2, r2, #2048
 5298 00e6 5A60     		str	r2, [r3, #4]
 5299              	.L799:
 5300 00e8 03B0     		add	sp, sp, #12
 5301              		@ sp needed
 5302 00ea BDE8F083 		pop	{r4, r5, r6, r7, r8, r9, pc}
 5303              	.L800:
 5304 00ee 90F83D30 		ldrb	r3, [r0, #61]	@ zero_extendqisi2
 5305 00f2 292B     		cmp	r3, #41
 5306 00f4 B9D1     		bne	.L802
 5307 00f6 6B68     		ldr	r3, [r5, #4]
 5308 00f8 1A05     		lsls	r2, r3, #20
 5309 00fa B6D5     		bpl	.L802
 5310 00fc 6B68     		ldr	r3, [r5, #4]
 5311 00fe 406B     		ldr	r0, [r0, #52]
 5312 0100 23F40063 		bic	r3, r3, #2048
 5313 0104 6B60     		str	r3, [r5, #4]
 5314 0106 0028     		cmp	r0, #0
 5315 0108 AFD0     		beq	.L802
 5316 010a 0B4B     		ldr	r3, .L826
 5317 010c 4363     		str	r3, [r0, #52]
 5318 010e FFF7FEFF 		bl	HAL_DMA_Abort_IT
 5319 0112 0028     		cmp	r0, #0
 5320 0114 A9D0     		beq	.L802
 5321 0116 606B     		ldr	r0, [r4, #52]
 5322 0118 A5E7     		b	.L825
 5323              	.L805:
 5324 011a 84F83D80 		strb	r8, [r4, #61]
 5325 011e 84F83E50 		strb	r5, [r4, #62]
 5326 0122 236C     		ldr	r3, [r4, #64]
 5327 0124 84F83C50 		strb	r5, [r4, #60]
 5328 0128 43F01003 		orr	r3, r3, #16
 5329 012c 2364     		str	r3, [r4, #64]
 5330              	.L808:
 5331 012e 0120     		movs	r0, #1
 5332 0130 DAE7     		b	.L799
 5333              	.L809:
 5334 0132 0220     		movs	r0, #2
 5335 0134 D8E7     		b	.L799
 5336              	.L827:
 5337 0136 00BF     		.align	2
 5338              	.L826:
 5339 0138 00000000 		.word	I2C_DMAAbort
 5340 013c 00000000 		.word	I2C_DMAXferCplt
 5341 0140 00000000 		.word	I2C_DMAError
 5343              		.section	.text.HAL_I2C_Slave_Seq_Receive_IT,"ax",%progbits
 5344              		.align	1
 5345              		.global	HAL_I2C_Slave_Seq_Receive_IT
 5346              		.syntax unified
 5347              		.thumb
 5348              		.thumb_func
 5349              		.fpu softvfp
 5351              	HAL_I2C_Slave_Seq_Receive_IT:
 5352              		@ args = 0, pretend = 0, frame = 8
 5353              		@ frame_needed = 0, uses_anonymous_args = 0
 5354 0000 37B5     		push	{r0, r1, r2, r4, r5, lr}
 5355 0002 90F83D40 		ldrb	r4, [r0, #61]	@ zero_extendqisi2
ARM GAS  /tmp/ccN79Q8s.s 			page 93


 5356 0006 04F02804 		and	r4, r4, #40
 5357 000a 282C     		cmp	r4, #40
 5358 000c 31D1     		bne	.L834
 5359 000e 0029     		cmp	r1, #0
 5360 0010 2DD0     		beq	.L833
 5361 0012 002A     		cmp	r2, #0
 5362 0014 2BD0     		beq	.L833
 5363 0016 90F83C40 		ldrb	r4, [r0, #60]	@ zero_extendqisi2
 5364 001a 012C     		cmp	r4, #1
 5365 001c 29D0     		beq	.L834
 5366 001e 0568     		ldr	r5, [r0]
 5367 0020 2C68     		ldr	r4, [r5]
 5368 0022 E407     		lsls	r4, r4, #31
 5369 0024 5EBF     		ittt	pl
 5370 0026 2C68     		ldrpl	r4, [r5]
 5371 0028 44F00104 		orrpl	r4, r4, #1
 5372 002c 2C60     		strpl	r4, [r5]
 5373 002e 2C68     		ldr	r4, [r5]
 5374 0030 24F40064 		bic	r4, r4, #2048
 5375 0034 2C60     		str	r4, [r5]
 5376 0036 2A24     		movs	r4, #42
 5377 0038 80F83D40 		strb	r4, [r0, #61]
 5378 003c 2024     		movs	r4, #32
 5379 003e 80F83E40 		strb	r4, [r0, #62]
 5380 0042 0024     		movs	r4, #0
 5381 0044 0464     		str	r4, [r0, #64]
 5382 0046 4285     		strh	r2, [r0, #42]	@ movhi
 5383 0048 428D     		ldrh	r2, [r0, #42]
 5384 004a C362     		str	r3, [r0, #44]
 5385 004c 0194     		str	r4, [sp, #4]
 5386 004e 6B69     		ldr	r3, [r5, #20]
 5387 0050 4162     		str	r1, [r0, #36]
 5388 0052 0193     		str	r3, [sp, #4]
 5389 0054 AB69     		ldr	r3, [r5, #24]
 5390 0056 0285     		strh	r2, [r0, #40]	@ movhi
 5391 0058 80F83C40 		strb	r4, [r0, #60]
 5392 005c 2046     		mov	r0, r4
 5393 005e 0193     		str	r3, [sp, #4]
 5394 0060 019B     		ldr	r3, [sp, #4]
 5395 0062 6B68     		ldr	r3, [r5, #4]
 5396 0064 43F4E063 		orr	r3, r3, #1792
 5397 0068 6B60     		str	r3, [r5, #4]
 5398              	.L829:
 5399 006a 03B0     		add	sp, sp, #12
 5400              		@ sp needed
 5401 006c 30BD     		pop	{r4, r5, pc}
 5402              	.L833:
 5403 006e 0120     		movs	r0, #1
 5404 0070 FBE7     		b	.L829
 5405              	.L834:
 5406 0072 0220     		movs	r0, #2
 5407 0074 F9E7     		b	.L829
 5409              		.section	.text.HAL_I2C_Slave_Seq_Receive_DMA,"ax",%progbits
 5410              		.align	1
 5411              		.global	HAL_I2C_Slave_Seq_Receive_DMA
 5412              		.syntax unified
 5413              		.thumb
ARM GAS  /tmp/ccN79Q8s.s 			page 94


 5414              		.thumb_func
 5415              		.fpu softvfp
 5417              	HAL_I2C_Slave_Seq_Receive_DMA:
 5418              		@ args = 0, pretend = 0, frame = 8
 5419              		@ frame_needed = 0, uses_anonymous_args = 0
 5420 0000 2DE9F743 		push	{r0, r1, r2, r4, r5, r6, r7, r8, r9, lr}
 5421 0004 9946     		mov	r9, r3
 5422 0006 90F83D30 		ldrb	r3, [r0, #61]	@ zero_extendqisi2
 5423 000a 0446     		mov	r4, r0
 5424 000c 03F02803 		and	r3, r3, #40
 5425 0010 282B     		cmp	r3, #40
 5426 0012 0E46     		mov	r6, r1
 5427 0014 1746     		mov	r7, r2
 5428 0016 40F08C80 		bne	.L846
 5429 001a 0029     		cmp	r1, #0
 5430 001c 00F08780 		beq	.L845
 5431 0020 002A     		cmp	r2, #0
 5432 0022 00F08480 		beq	.L845
 5433 0026 90F83C30 		ldrb	r3, [r0, #60]	@ zero_extendqisi2
 5434 002a 012B     		cmp	r3, #1
 5435 002c 00F08180 		beq	.L846
 5436 0030 0123     		movs	r3, #1
 5437 0032 0568     		ldr	r5, [r0]
 5438 0034 80F83C30 		strb	r3, [r0, #60]
 5439 0038 6B68     		ldr	r3, [r5, #4]
 5440 003a 23F44073 		bic	r3, r3, #768
 5441 003e 6B60     		str	r3, [r5, #4]
 5442 0040 90F83D30 		ldrb	r3, [r0, #61]	@ zero_extendqisi2
 5443 0044 2A2B     		cmp	r3, #42
 5444 0046 52D1     		bne	.L837
 5445 0048 6B68     		ldr	r3, [r5, #4]
 5446 004a 1905     		lsls	r1, r3, #20
 5447 004c 0DD5     		bpl	.L839
 5448 004e 806B     		ldr	r0, [r0, #56]
 5449 0050 58B1     		cbz	r0, .L839
 5450 0052 6B68     		ldr	r3, [r5, #4]
 5451 0054 23F40063 		bic	r3, r3, #2048
 5452 0058 6B60     		str	r3, [r5, #4]
 5453 005a 374B     		ldr	r3, .L863
 5454 005c 4363     		str	r3, [r0, #52]
 5455 005e FFF7FEFF 		bl	HAL_DMA_Abort_IT
 5456 0062 10B1     		cbz	r0, .L839
 5457 0064 A06B     		ldr	r0, [r4, #56]
 5458              	.L862:
 5459 0066 436B     		ldr	r3, [r0, #52]
 5460 0068 9847     		blx	r3
 5461              	.L839:
 5462 006a 2168     		ldr	r1, [r4]
 5463 006c 0025     		movs	r5, #0
 5464 006e 0B68     		ldr	r3, [r1]
 5465 0070 4FF02008 		mov	r8, #32
 5466 0074 DB07     		lsls	r3, r3, #31
 5467 0076 58BF     		it	pl
 5468 0078 0B68     		ldrpl	r3, [r1]
 5469 007a A06B     		ldr	r0, [r4, #56]
 5470 007c 5CBF     		itt	pl
 5471 007e 43F00103 		orrpl	r3, r3, #1
ARM GAS  /tmp/ccN79Q8s.s 			page 95


 5472 0082 0B60     		strpl	r3, [r1]
 5473 0084 0B68     		ldr	r3, [r1]
 5474 0086 2D4A     		ldr	r2, .L863+4
 5475 0088 23F40063 		bic	r3, r3, #2048
 5476 008c 41F8103B 		str	r3, [r1], #16
 5477 0090 2A23     		movs	r3, #42
 5478 0092 84F83D30 		strb	r3, [r4, #61]
 5479 0096 84F83E80 		strb	r8, [r4, #62]
 5480 009a 2564     		str	r5, [r4, #64]
 5481 009c 6785     		strh	r7, [r4, #42]	@ movhi
 5482 009e 638D     		ldrh	r3, [r4, #42]
 5483 00a0 6662     		str	r6, [r4, #36]
 5484 00a2 9BB2     		uxth	r3, r3
 5485 00a4 2385     		strh	r3, [r4, #40]	@ movhi
 5486 00a6 C4F82C90 		str	r9, [r4, #44]
 5487 00aa 8262     		str	r2, [r0, #40]
 5488 00ac 244A     		ldr	r2, .L863+8
 5489 00ae 4563     		str	r5, [r0, #52]
 5490 00b0 C0E90B52 		strd	r5, r2, [r0, #44]
 5491 00b4 3246     		mov	r2, r6
 5492 00b6 FFF7FEFF 		bl	HAL_DMA_Start_IT
 5493 00ba 0028     		cmp	r0, #0
 5494 00bc 2DD1     		bne	.L842
 5495 00be 2368     		ldr	r3, [r4]
 5496 00c0 1A68     		ldr	r2, [r3]
 5497 00c2 42F48062 		orr	r2, r2, #1024
 5498 00c6 1A60     		str	r2, [r3]
 5499 00c8 0190     		str	r0, [sp, #4]
 5500 00ca 5A69     		ldr	r2, [r3, #20]
 5501 00cc 0192     		str	r2, [sp, #4]
 5502 00ce 9A69     		ldr	r2, [r3, #24]
 5503 00d0 84F83C00 		strb	r0, [r4, #60]
 5504 00d4 0192     		str	r2, [sp, #4]
 5505 00d6 019A     		ldr	r2, [sp, #4]
 5506 00d8 5A68     		ldr	r2, [r3, #4]
 5507 00da 42F40062 		orr	r2, r2, #2048
 5508 00de 5A60     		str	r2, [r3, #4]
 5509 00e0 5A68     		ldr	r2, [r3, #4]
 5510 00e2 42F44072 		orr	r2, r2, #768
 5511 00e6 5A60     		str	r2, [r3, #4]
 5512              	.L836:
 5513 00e8 03B0     		add	sp, sp, #12
 5514              		@ sp needed
 5515 00ea BDE8F083 		pop	{r4, r5, r6, r7, r8, r9, pc}
 5516              	.L837:
 5517 00ee 90F83D30 		ldrb	r3, [r0, #61]	@ zero_extendqisi2
 5518 00f2 292B     		cmp	r3, #41
 5519 00f4 B9D1     		bne	.L839
 5520 00f6 6B68     		ldr	r3, [r5, #4]
 5521 00f8 1A05     		lsls	r2, r3, #20
 5522 00fa B6D5     		bpl	.L839
 5523 00fc 6B68     		ldr	r3, [r5, #4]
 5524 00fe 406B     		ldr	r0, [r0, #52]
 5525 0100 23F40063 		bic	r3, r3, #2048
 5526 0104 6B60     		str	r3, [r5, #4]
 5527 0106 0028     		cmp	r0, #0
 5528 0108 AFD0     		beq	.L839
ARM GAS  /tmp/ccN79Q8s.s 			page 96


 5529 010a 0B4B     		ldr	r3, .L863
 5530 010c 4363     		str	r3, [r0, #52]
 5531 010e FFF7FEFF 		bl	HAL_DMA_Abort_IT
 5532 0112 0028     		cmp	r0, #0
 5533 0114 A9D0     		beq	.L839
 5534 0116 606B     		ldr	r0, [r4, #52]
 5535 0118 A5E7     		b	.L862
 5536              	.L842:
 5537 011a 84F83D80 		strb	r8, [r4, #61]
 5538 011e 84F83E50 		strb	r5, [r4, #62]
 5539 0122 236C     		ldr	r3, [r4, #64]
 5540 0124 84F83C50 		strb	r5, [r4, #60]
 5541 0128 43F01003 		orr	r3, r3, #16
 5542 012c 2364     		str	r3, [r4, #64]
 5543              	.L845:
 5544 012e 0120     		movs	r0, #1
 5545 0130 DAE7     		b	.L836
 5546              	.L846:
 5547 0132 0220     		movs	r0, #2
 5548 0134 D8E7     		b	.L836
 5549              	.L864:
 5550 0136 00BF     		.align	2
 5551              	.L863:
 5552 0138 00000000 		.word	I2C_DMAAbort
 5553 013c 00000000 		.word	I2C_DMAXferCplt
 5554 0140 00000000 		.word	I2C_DMAError
 5556              		.section	.text.HAL_I2C_EnableListen_IT,"ax",%progbits
 5557              		.align	1
 5558              		.global	HAL_I2C_EnableListen_IT
 5559              		.syntax unified
 5560              		.thumb
 5561              		.thumb_func
 5562              		.fpu softvfp
 5564              	HAL_I2C_EnableListen_IT:
 5565              		@ args = 0, pretend = 0, frame = 0
 5566              		@ frame_needed = 0, uses_anonymous_args = 0
 5567              		@ link register save eliminated.
 5568 0000 90F83D30 		ldrb	r3, [r0, #61]	@ zero_extendqisi2
 5569 0004 202B     		cmp	r3, #32
 5570 0006 14D1     		bne	.L868
 5571 0008 2823     		movs	r3, #40
 5572 000a 80F83D30 		strb	r3, [r0, #61]
 5573 000e 0368     		ldr	r3, [r0]
 5574 0010 0020     		movs	r0, #0
 5575 0012 1A68     		ldr	r2, [r3]
 5576 0014 D207     		lsls	r2, r2, #31
 5577 0016 5EBF     		ittt	pl
 5578 0018 1A68     		ldrpl	r2, [r3]
 5579 001a 42F00102 		orrpl	r2, r2, #1
 5580 001e 1A60     		strpl	r2, [r3]
 5581 0020 1A68     		ldr	r2, [r3]
 5582 0022 42F48062 		orr	r2, r2, #1024
 5583 0026 1A60     		str	r2, [r3]
 5584 0028 5A68     		ldr	r2, [r3, #4]
 5585 002a 42F44072 		orr	r2, r2, #768
 5586 002e 5A60     		str	r2, [r3, #4]
 5587 0030 7047     		bx	lr
ARM GAS  /tmp/ccN79Q8s.s 			page 97


 5588              	.L868:
 5589 0032 0220     		movs	r0, #2
 5590 0034 7047     		bx	lr
 5592              		.section	.text.HAL_I2C_DisableListen_IT,"ax",%progbits
 5593              		.align	1
 5594              		.global	HAL_I2C_DisableListen_IT
 5595              		.syntax unified
 5596              		.thumb
 5597              		.thumb_func
 5598              		.fpu softvfp
 5600              	HAL_I2C_DisableListen_IT:
 5601              		@ args = 0, pretend = 0, frame = 0
 5602              		@ frame_needed = 0, uses_anonymous_args = 0
 5603              		@ link register save eliminated.
 5604 0000 90F83D30 		ldrb	r3, [r0, #61]	@ zero_extendqisi2
 5605 0004 282B     		cmp	r3, #40
 5606 0006 18D1     		bne	.L871
 5607 0008 90F83D20 		ldrb	r2, [r0, #61]	@ zero_extendqisi2
 5608 000c 90F83E30 		ldrb	r3, [r0, #62]	@ zero_extendqisi2
 5609 0010 02F00302 		and	r2, r2, #3
 5610 0014 1343     		orrs	r3, r3, r2
 5611 0016 0363     		str	r3, [r0, #48]
 5612 0018 2023     		movs	r3, #32
 5613 001a 80F83D30 		strb	r3, [r0, #61]
 5614 001e 0023     		movs	r3, #0
 5615 0020 0268     		ldr	r2, [r0]
 5616 0022 80F83E30 		strb	r3, [r0, #62]
 5617 0026 1168     		ldr	r1, [r2]
 5618 0028 1846     		mov	r0, r3
 5619 002a 21F48061 		bic	r1, r1, #1024
 5620 002e 1160     		str	r1, [r2]
 5621 0030 5168     		ldr	r1, [r2, #4]
 5622 0032 21F44071 		bic	r1, r1, #768
 5623 0036 5160     		str	r1, [r2, #4]
 5624 0038 7047     		bx	lr
 5625              	.L871:
 5626 003a 0220     		movs	r0, #2
 5627 003c 7047     		bx	lr
 5629              		.section	.text.HAL_I2C_Master_Abort_IT,"ax",%progbits
 5630              		.align	1
 5631              		.global	HAL_I2C_Master_Abort_IT
 5632              		.syntax unified
 5633              		.thumb
 5634              		.thumb_func
 5635              		.fpu softvfp
 5637              	HAL_I2C_Master_Abort_IT:
 5638              		@ args = 0, pretend = 0, frame = 0
 5639              		@ frame_needed = 0, uses_anonymous_args = 0
 5640 0000 10B5     		push	{r4, lr}
 5641 0002 90F83E20 		ldrb	r2, [r0, #62]	@ zero_extendqisi2
 5642 0006 102A     		cmp	r2, #16
 5643 0008 1CD1     		bne	.L874
 5644 000a 90F83C20 		ldrb	r2, [r0, #60]	@ zero_extendqisi2
 5645 000e 012A     		cmp	r2, #1
 5646 0010 1AD0     		beq	.L875
 5647 0012 0024     		movs	r4, #0
 5648 0014 6022     		movs	r2, #96
ARM GAS  /tmp/ccN79Q8s.s 			page 98


 5649 0016 0463     		str	r4, [r0, #48]
 5650 0018 80F83D20 		strb	r2, [r0, #61]
 5651 001c 0268     		ldr	r2, [r0]
 5652 001e 1168     		ldr	r1, [r2]
 5653 0020 21F48061 		bic	r1, r1, #1024
 5654 0024 1160     		str	r1, [r2]
 5655 0026 1168     		ldr	r1, [r2]
 5656 0028 41F40071 		orr	r1, r1, #512
 5657 002c 1160     		str	r1, [r2]
 5658 002e 4485     		strh	r4, [r0, #42]	@ movhi
 5659 0030 5168     		ldr	r1, [r2, #4]
 5660 0032 21F4E061 		bic	r1, r1, #1792
 5661 0036 5160     		str	r1, [r2, #4]
 5662 0038 80F83C40 		strb	r4, [r0, #60]
 5663 003c FFF7FEFF 		bl	I2C_ITError
 5664 0040 2046     		mov	r0, r4
 5665              	.L873:
 5666 0042 10BD     		pop	{r4, pc}
 5667              	.L874:
 5668 0044 0120     		movs	r0, #1
 5669 0046 FCE7     		b	.L873
 5670              	.L875:
 5671 0048 0220     		movs	r0, #2
 5672 004a FAE7     		b	.L873
 5674              		.section	.text.HAL_I2C_EV_IRQHandler,"ax",%progbits
 5675              		.align	1
 5676              		.global	HAL_I2C_EV_IRQHandler
 5677              		.syntax unified
 5678              		.thumb
 5679              		.thumb_func
 5680              		.fpu softvfp
 5682              	HAL_I2C_EV_IRQHandler:
 5683              		@ args = 0, pretend = 0, frame = 48
 5684              		@ frame_needed = 0, uses_anonymous_args = 0
 5685 0000 70B5     		push	{r4, r5, r6, lr}
 5686 0002 0368     		ldr	r3, [r0]
 5687 0004 0446     		mov	r4, r0
 5688 0006 5A68     		ldr	r2, [r3, #4]
 5689 0008 C16A     		ldr	r1, [r0, #44]
 5690 000a 90F83E50 		ldrb	r5, [r0, #62]	@ zero_extendqisi2
 5691 000e 90F83D00 		ldrb	r0, [r0, #61]	@ zero_extendqisi2
 5692 0012 102D     		cmp	r5, #16
 5693 0014 8CB0     		sub	sp, sp, #48
 5694 0016 EEB2     		uxtb	r6, r5
 5695 0018 C0B2     		uxtb	r0, r0
 5696 001a 02D0     		beq	.L877
 5697 001c 402E     		cmp	r6, #64
 5698 001e 40F0B382 		bne	.L878
 5699              	.L877:
 5700 0022 9D69     		ldr	r5, [r3, #24]
 5701 0024 5869     		ldr	r0, [r3, #20]
 5702 0026 C607     		lsls	r6, r0, #31
 5703 0028 07D4     		bmi	.L879
 5704 002a B1F52A0F 		cmp	r1, #11141120
 5705 002e 02D0     		beq	.L876
 5706 0030 B1F12A4F 		cmp	r1, #-1442840576
 5707 0034 52D1     		bne	.L883
ARM GAS  /tmp/ccN79Q8s.s 			page 99


 5708              	.L876:
 5709 0036 0CB0     		add	sp, sp, #48
 5710              		@ sp needed
 5711 0038 70BD     		pop	{r4, r5, r6, pc}
 5712              	.L879:
 5713 003a 9105     		lsls	r1, r2, #22
 5714 003c 4ED5     		bpl	.L883
 5715 003e E26A     		ldr	r2, [r4, #44]
 5716 0040 B2F52A0F 		cmp	r2, #11141120
 5717 0044 0CD1     		bne	.L884
 5718 0046 0122     		movs	r2, #1
 5719              	.L1172:
 5720 0048 E262     		str	r2, [r4, #44]
 5721              	.L885:
 5722 004a 94F83E20 		ldrb	r2, [r4, #62]	@ zero_extendqisi2
 5723 004e 402A     		cmp	r2, #64
 5724 0050 11D1     		bne	.L886
 5725 0052 226D     		ldr	r2, [r4, #80]
 5726 0054 52B9     		cbnz	r2, .L887
 5727 0056 626C     		ldr	r2, [r4, #68]
 5728 0058 02F0FE02 		and	r2, r2, #254
 5729              	.L1178:
 5730 005c 1A61     		str	r2, [r3, #16]
 5731 005e EAE7     		b	.L876
 5732              	.L884:
 5733 0060 E26A     		ldr	r2, [r4, #44]
 5734 0062 B2F12A4F 		cmp	r2, #-1442840576
 5735 0066 F0D1     		bne	.L885
 5736 0068 0822     		movs	r2, #8
 5737 006a EDE7     		b	.L1172
 5738              	.L887:
 5739 006c 626C     		ldr	r2, [r4, #68]
 5740 006e 42F00102 		orr	r2, r2, #1
 5741 0072 D2B2     		uxtb	r2, r2
 5742 0074 F2E7     		b	.L1178
 5743              	.L886:
 5744 0076 2269     		ldr	r2, [r4, #16]
 5745 0078 B2F5804F 		cmp	r2, #16384
 5746 007c 1BD1     		bne	.L888
 5747 007e 94F83D20 		ldrb	r2, [r4, #61]	@ zero_extendqisi2
 5748 0082 212A     		cmp	r2, #33
 5749 0084 626C     		ldr	r2, [r4, #68]
 5750 0086 12D1     		bne	.L889
 5751 0088 02F0FE02 		and	r2, r2, #254
 5752              	.L1173:
 5753 008c 1A61     		str	r2, [r3, #16]
 5754 008e 626B     		ldr	r2, [r4, #52]
 5755 0090 12B9     		cbnz	r2, .L895
 5756 0092 A16B     		ldr	r1, [r4, #56]
 5757 0094 0029     		cmp	r1, #0
 5758 0096 CED0     		beq	.L876
 5759              	.L895:
 5760 0098 926A     		ldr	r2, [r2, #40]
 5761 009a 1AB9     		cbnz	r2, .L896
 5762 009c A26B     		ldr	r2, [r4, #56]
 5763 009e 926A     		ldr	r2, [r2, #40]
 5764 00a0 002A     		cmp	r2, #0
ARM GAS  /tmp/ccN79Q8s.s 			page 100


 5765 00a2 C8D0     		beq	.L876
 5766              	.L896:
 5767 00a4 5A68     		ldr	r2, [r3, #4]
 5768 00a6 42F40062 		orr	r2, r2, #2048
 5769              	.L1180:
 5770 00aa 5A60     		str	r2, [r3, #4]
 5771 00ac C3E7     		b	.L876
 5772              	.L889:
 5773 00ae 42F00102 		orr	r2, r2, #1
 5774              	.L1194:
 5775 00b2 D2B2     		uxtb	r2, r2
 5776 00b4 EAE7     		b	.L1173
 5777              	.L888:
 5778 00b6 226D     		ldr	r2, [r4, #80]
 5779 00b8 32B9     		cbnz	r2, .L893
 5780 00ba 626C     		ldr	r2, [r4, #68]
 5781 00bc D211     		asrs	r2, r2, #7
 5782 00be 02F00602 		and	r2, r2, #6
 5783 00c2 42F0F002 		orr	r2, r2, #240
 5784 00c6 C9E7     		b	.L1178
 5785              	.L893:
 5786 00c8 226D     		ldr	r2, [r4, #80]
 5787 00ca 012A     		cmp	r2, #1
 5788 00cc B3D1     		bne	.L876
 5789 00ce 626C     		ldr	r2, [r4, #68]
 5790 00d0 D211     		asrs	r2, r2, #7
 5791 00d2 02F00602 		and	r2, r2, #6
 5792 00d6 42F0F102 		orr	r2, r2, #241
 5793 00da BFE7     		b	.L1178
 5794              	.L883:
 5795 00dc 0607     		lsls	r6, r0, #28
 5796 00de 03D5     		bpl	.L894
 5797 00e0 9105     		lsls	r1, r2, #22
 5798 00e2 01D5     		bpl	.L894
 5799 00e4 626C     		ldr	r2, [r4, #68]
 5800 00e6 E4E7     		b	.L1194
 5801              	.L894:
 5802 00e8 8607     		lsls	r6, r0, #30
 5803 00ea 40F1E680 		bpl	.L897
 5804 00ee 9105     		lsls	r1, r2, #22
 5805 00f0 40F1E380 		bpl	.L897
 5806 00f4 94F83E10 		ldrb	r1, [r4, #62]	@ zero_extendqisi2
 5807 00f8 E26A     		ldr	r2, [r4, #44]
 5808 00fa 256B     		ldr	r5, [r4, #48]
 5809 00fc 94F83D00 		ldrb	r0, [r4, #61]	@ zero_extendqisi2
 5810 0100 C9B2     		uxtb	r1, r1
 5811 0102 2228     		cmp	r0, #34
 5812 0104 40F0D180 		bne	.L898
 5813 0108 206D     		ldr	r0, [r4, #80]
 5814 010a 40B9     		cbnz	r0, .L899
 5815 010c 4029     		cmp	r1, #64
 5816 010e 06D1     		bne	.L899
 5817 0110 0090     		str	r0, [sp]
 5818 0112 5A69     		ldr	r2, [r3, #20]
 5819 0114 0092     		str	r2, [sp]
 5820 0116 9B69     		ldr	r3, [r3, #24]
 5821 0118 0093     		str	r3, [sp]
ARM GAS  /tmp/ccN79Q8s.s 			page 101


 5822 011a 009B     		ldr	r3, [sp]
 5823 011c 8BE7     		b	.L876
 5824              	.L899:
 5825 011e 216D     		ldr	r1, [r4, #80]
 5826 0120 81B9     		cbnz	r1, .L900
 5827 0122 2069     		ldr	r0, [r4, #16]
 5828 0124 B0F5404F 		cmp	r0, #49152
 5829 0128 0CD1     		bne	.L900
 5830 012a 0191     		str	r1, [sp, #4]
 5831 012c 5A69     		ldr	r2, [r3, #20]
 5832 012e 0192     		str	r2, [sp, #4]
 5833 0130 9A69     		ldr	r2, [r3, #24]
 5834 0132 0192     		str	r2, [sp, #4]
 5835 0134 019A     		ldr	r2, [sp, #4]
 5836 0136 1A68     		ldr	r2, [r3]
 5837 0138 42F48072 		orr	r2, r2, #256
 5838 013c 1A60     		str	r2, [r3]
 5839              	.L1187:
 5840 013e 236D     		ldr	r3, [r4, #80]
 5841 0140 0133     		adds	r3, r3, #1
 5842 0142 28E0     		b	.L1181
 5843              	.L900:
 5844 0144 618D     		ldrh	r1, [r4, #42]
 5845 0146 89B2     		uxth	r1, r1
 5846 0148 51B9     		cbnz	r1, .L901
 5847 014a 0291     		str	r1, [sp, #8]
 5848 014c 5A69     		ldr	r2, [r3, #20]
 5849 014e 0292     		str	r2, [sp, #8]
 5850 0150 9A69     		ldr	r2, [r3, #24]
 5851 0152 0292     		str	r2, [sp, #8]
 5852 0154 029A     		ldr	r2, [sp, #8]
 5853              	.L1175:
 5854 0156 1A68     		ldr	r2, [r3]
 5855 0158 42F40072 		orr	r2, r2, #512
 5856 015c 1A60     		str	r2, [r3]
 5857 015e 19E0     		b	.L902
 5858              	.L901:
 5859 0160 618D     		ldrh	r1, [r4, #42]
 5860 0162 89B2     		uxth	r1, r1
 5861 0164 0129     		cmp	r1, #1
 5862 0166 4AD1     		bne	.L903
 5863 0168 12F5803F 		cmn	r2, #65536
 5864 016c 1CD1     		bne	.L904
 5865 016e 1A68     		ldr	r2, [r3]
 5866 0170 22F48062 		bic	r2, r2, #1024
 5867 0174 1A60     		str	r2, [r3]
 5868 0176 5A68     		ldr	r2, [r3, #4]
 5869 0178 12F40062 		ands	r2, r2, #2048
 5870 017c 0DD0     		beq	.L905
 5871 017e 1A68     		ldr	r2, [r3]
 5872 0180 22F48062 		bic	r2, r2, #1024
 5873 0184 1A60     		str	r2, [r3]
 5874 0186 0022     		movs	r2, #0
 5875 0188 0392     		str	r2, [sp, #12]
 5876 018a 5A69     		ldr	r2, [r3, #20]
 5877 018c 0392     		str	r2, [sp, #12]
 5878 018e 9B69     		ldr	r3, [r3, #24]
ARM GAS  /tmp/ccN79Q8s.s 			page 102


 5879 0190 0393     		str	r3, [sp, #12]
 5880 0192 039B     		ldr	r3, [sp, #12]
 5881              	.L902:
 5882 0194 0023     		movs	r3, #0
 5883              	.L1181:
 5884 0196 2365     		str	r3, [r4, #80]
 5885 0198 4DE7     		b	.L876
 5886              	.L905:
 5887 019a 0492     		str	r2, [sp, #16]
 5888 019c 5A69     		ldr	r2, [r3, #20]
 5889 019e 0492     		str	r2, [sp, #16]
 5890 01a0 9A69     		ldr	r2, [r3, #24]
 5891 01a2 0492     		str	r2, [sp, #16]
 5892 01a4 049A     		ldr	r2, [sp, #16]
 5893 01a6 D6E7     		b	.L1175
 5894              	.L904:
 5895 01a8 082A     		cmp	r2, #8
 5896 01aa 1CD0     		beq	.L906
 5897 01ac 202A     		cmp	r2, #32
 5898 01ae 1AD0     		beq	.L906
 5899 01b0 122D     		cmp	r5, #18
 5900 01b2 0DD1     		bne	.L907
 5901 01b4 012A     		cmp	r2, #1
 5902 01b6 16D1     		bne	.L906
 5903              	.L908:
 5904 01b8 1A68     		ldr	r2, [r3]
 5905 01ba 22F48062 		bic	r2, r2, #1024
 5906              	.L1174:
 5907 01be 1A60     		str	r2, [r3]
 5908 01c0 0022     		movs	r2, #0
 5909 01c2 0592     		str	r2, [sp, #20]
 5910 01c4 5A69     		ldr	r2, [r3, #20]
 5911 01c6 0592     		str	r2, [sp, #20]
 5912 01c8 9B69     		ldr	r3, [r3, #24]
 5913 01ca 0593     		str	r3, [sp, #20]
 5914 01cc 059B     		ldr	r3, [sp, #20]
 5915 01ce E1E7     		b	.L902
 5916              	.L907:
 5917 01d0 102A     		cmp	r2, #16
 5918 01d2 F1D8     		bhi	.L908
 5919 01d4 8F49     		ldr	r1, .L1197
 5920 01d6 21FA02F2 		lsr	r2, r1, r2
 5921 01da D607     		lsls	r6, r2, #31
 5922 01dc ECD5     		bpl	.L908
 5923 01de 1A68     		ldr	r2, [r3]
 5924 01e0 42F48062 		orr	r2, r2, #1024
 5925 01e4 EBE7     		b	.L1174
 5926              	.L906:
 5927 01e6 1A68     		ldr	r2, [r3]
 5928 01e8 22F48062 		bic	r2, r2, #1024
 5929 01ec 1A60     		str	r2, [r3]
 5930 01ee 0022     		movs	r2, #0
 5931 01f0 0692     		str	r2, [sp, #24]
 5932 01f2 5A69     		ldr	r2, [r3, #20]
 5933 01f4 0692     		str	r2, [sp, #24]
 5934 01f6 9A69     		ldr	r2, [r3, #24]
 5935 01f8 0692     		str	r2, [sp, #24]
ARM GAS  /tmp/ccN79Q8s.s 			page 103


 5936 01fa 069A     		ldr	r2, [sp, #24]
 5937 01fc ABE7     		b	.L1175
 5938              	.L903:
 5939 01fe 618D     		ldrh	r1, [r4, #42]
 5940 0200 89B2     		uxth	r1, r1
 5941 0202 0229     		cmp	r1, #2
 5942 0204 33D1     		bne	.L911
 5943 0206 102A     		cmp	r2, #16
 5944 0208 05D8     		bhi	.L912
 5945 020a 8249     		ldr	r1, .L1197
 5946 020c D140     		lsrs	r1, r1, r2
 5947 020e C943     		mvns	r1, r1
 5948 0210 11F00101 		ands	r1, r1, #1
 5949 0214 20D0     		beq	.L913
 5950              	.L912:
 5951 0216 1968     		ldr	r1, [r3]
 5952 0218 41F40061 		orr	r1, r1, #2048
 5953 021c 1960     		str	r1, [r3]
 5954 021e 0021     		movs	r1, #0
 5955 0220 0791     		str	r1, [sp, #28]
 5956 0222 5969     		ldr	r1, [r3, #20]
 5957 0224 0791     		str	r1, [sp, #28]
 5958 0226 9969     		ldr	r1, [r3, #24]
 5959 0228 0791     		str	r1, [sp, #28]
 5960 022a 0799     		ldr	r1, [sp, #28]
 5961 022c 1968     		ldr	r1, [r3]
 5962 022e 21F48061 		bic	r1, r1, #1024
 5963 0232 1960     		str	r1, [r3]
 5964              	.L914:
 5965 0234 5968     		ldr	r1, [r3, #4]
 5966 0236 0D05     		lsls	r5, r1, #20
 5967 0238 ACD5     		bpl	.L902
 5968 023a 12F5803F 		cmn	r2, #65536
 5969 023e 06D0     		beq	.L915
 5970 0240 511E     		subs	r1, r2, #1
 5971 0242 1F29     		cmp	r1, #31
 5972 0244 A6D8     		bhi	.L902
 5973 0246 744A     		ldr	r2, .L1197+4
 5974 0248 CA40     		lsrs	r2, r2, r1
 5975 024a D007     		lsls	r0, r2, #31
 5976 024c A2D5     		bpl	.L902
 5977              	.L915:
 5978 024e 5A68     		ldr	r2, [r3, #4]
 5979 0250 42F48052 		orr	r2, r2, #4096
 5980 0254 5A60     		str	r2, [r3, #4]
 5981 0256 9DE7     		b	.L902
 5982              	.L913:
 5983 0258 1868     		ldr	r0, [r3]
 5984 025a 40F48060 		orr	r0, r0, #1024
 5985 025e 1860     		str	r0, [r3]
 5986 0260 0891     		str	r1, [sp, #32]
 5987 0262 5969     		ldr	r1, [r3, #20]
 5988 0264 0891     		str	r1, [sp, #32]
 5989 0266 9969     		ldr	r1, [r3, #24]
 5990 0268 0891     		str	r1, [sp, #32]
 5991 026a 0899     		ldr	r1, [sp, #32]
 5992 026c E2E7     		b	.L914
ARM GAS  /tmp/ccN79Q8s.s 			page 104


 5993              	.L911:
 5994 026e 1968     		ldr	r1, [r3]
 5995 0270 41F48061 		orr	r1, r1, #1024
 5996 0274 1960     		str	r1, [r3]
 5997 0276 5968     		ldr	r1, [r3, #4]
 5998 0278 0905     		lsls	r1, r1, #20
 5999 027a 0ED5     		bpl	.L916
 6000 027c 12F5803F 		cmn	r2, #65536
 6001 0280 07D0     		beq	.L917
 6002 0282 013A     		subs	r2, r2, #1
 6003 0284 1F2A     		cmp	r2, #31
 6004 0286 08D8     		bhi	.L916
 6005 0288 6349     		ldr	r1, .L1197+4
 6006 028a 21FA02F2 		lsr	r2, r1, r2
 6007 028e D607     		lsls	r6, r2, #31
 6008 0290 03D5     		bpl	.L916
 6009              	.L917:
 6010 0292 5A68     		ldr	r2, [r3, #4]
 6011 0294 42F48052 		orr	r2, r2, #4096
 6012 0298 5A60     		str	r2, [r3, #4]
 6013              	.L916:
 6014 029a 0022     		movs	r2, #0
 6015 029c 0992     		str	r2, [sp, #36]
 6016 029e 5A69     		ldr	r2, [r3, #20]
 6017 02a0 0992     		str	r2, [sp, #36]
 6018 02a2 9B69     		ldr	r3, [r3, #24]
 6019 02a4 0993     		str	r3, [sp, #36]
 6020 02a6 099B     		ldr	r3, [sp, #36]
 6021 02a8 74E7     		b	.L902
 6022              	.L898:
 6023 02aa 0022     		movs	r2, #0
 6024 02ac 0A92     		str	r2, [sp, #40]
 6025 02ae 5A69     		ldr	r2, [r3, #20]
 6026 02b0 0A92     		str	r2, [sp, #40]
 6027 02b2 9B69     		ldr	r3, [r3, #24]
 6028 02b4 0A93     		str	r3, [sp, #40]
 6029 02b6 0A9B     		ldr	r3, [sp, #40]
 6030 02b8 BDE6     		b	.L876
 6031              	.L897:
 6032 02ba 6D07     		lsls	r5, r5, #29
 6033 02bc 5968     		ldr	r1, [r3, #4]
 6034 02be 40F1AD80 		bpl	.L918
 6035 02c2 0E05     		lsls	r6, r1, #20
 6036 02c4 3FF5B7AE 		bmi	.L876
 6037 02c8 0506     		lsls	r5, r0, #24
 6038 02ca C0F38001 		ubfx	r1, r0, #2, #1
 6039 02ce 67D5     		bpl	.L919
 6040 02d0 5005     		lsls	r0, r2, #21
 6041 02d2 65D5     		bpl	.L919
 6042 02d4 0029     		cmp	r1, #0
 6043 02d6 66D1     		bne	.L920
 6044 02d8 94F83D20 		ldrb	r2, [r4, #61]	@ zero_extendqisi2
 6045 02dc 258D     		ldrh	r5, [r4, #40]
 6046 02de 94F83E10 		ldrb	r1, [r4, #62]	@ zero_extendqisi2
 6047 02e2 D2B2     		uxtb	r2, r2
 6048 02e4 E06A     		ldr	r0, [r4, #44]
 6049 02e6 C9B2     		uxtb	r1, r1
ARM GAS  /tmp/ccN79Q8s.s 			page 105


 6050 02e8 B5B9     		cbnz	r5, .L921
 6051 02ea 212A     		cmp	r2, #33
 6052 02ec 16D1     		bne	.L922
 6053 02ee 0828     		cmp	r0, #8
 6054 02f0 76D0     		beq	.L933
 6055 02f2 2028     		cmp	r0, #32
 6056 02f4 74D0     		beq	.L933
 6057 02f6 10F5803F 		cmn	r0, #65536
 6058 02fa 71D0     		beq	.L933
 6059 02fc 5A68     		ldr	r2, [r3, #4]
 6060 02fe 22F4E062 		bic	r2, r2, #1792
 6061 0302 5A60     		str	r2, [r3, #4]
 6062 0304 1123     		movs	r3, #17
 6063 0306 2363     		str	r3, [r4, #48]
 6064 0308 0023     		movs	r3, #0
 6065 030a 84F83E30 		strb	r3, [r4, #62]
 6066              	.L1196:
 6067 030e 2023     		movs	r3, #32
 6068 0310 84F83D30 		strb	r3, [r4, #61]
 6069              	.L934:
 6070 0314 636D     		ldr	r3, [r4, #84]
 6071 0316 77E0     		b	.L1183
 6072              	.L921:
 6073 0318 212A     		cmp	r2, #33
 6074 031a 05D0     		beq	.L925
 6075              	.L922:
 6076 031c 4029     		cmp	r1, #64
 6077 031e 7FF48AAE 		bne	.L876
 6078 0322 222A     		cmp	r2, #34
 6079 0324 7FF487AE 		bne	.L876
 6080              	.L925:
 6081 0328 628D     		ldrh	r2, [r4, #42]
 6082 032a 92B2     		uxth	r2, r2
 6083 032c 1AB9     		cbnz	r2, .L926
 6084 032e 5A68     		ldr	r2, [r3, #4]
 6085 0330 22F48062 		bic	r2, r2, #1024
 6086 0334 B9E6     		b	.L1180
 6087              	.L926:
 6088 0336 94F83E20 		ldrb	r2, [r4, #62]	@ zero_extendqisi2
 6089 033a 402A     		cmp	r2, #64
 6090 033c 26D1     		bne	.L1191
 6091 033e 226D     		ldr	r2, [r4, #80]
 6092 0340 62B9     		cbnz	r2, .L928
 6093 0342 E26C     		ldr	r2, [r4, #76]
 6094 0344 012A     		cmp	r2, #1
 6095 0346 A26C     		ldr	r2, [r4, #72]
 6096 0348 04D1     		bne	.L929
 6097 034a D2B2     		uxtb	r2, r2
 6098 034c 1A61     		str	r2, [r3, #16]
 6099 034e 236D     		ldr	r3, [r4, #80]
 6100 0350 0233     		adds	r3, r3, #2
 6101 0352 20E7     		b	.L1181
 6102              	.L929:
 6103 0354 C2F30722 		ubfx	r2, r2, #8, #8
 6104              	.L1188:
 6105 0358 1A61     		str	r2, [r3, #16]
 6106 035a F0E6     		b	.L1187
ARM GAS  /tmp/ccN79Q8s.s 			page 106


 6107              	.L928:
 6108 035c 226D     		ldr	r2, [r4, #80]
 6109 035e 012A     		cmp	r2, #1
 6110 0360 02D1     		bne	.L930
 6111 0362 A26C     		ldr	r2, [r4, #72]
 6112 0364 D2B2     		uxtb	r2, r2
 6113 0366 F7E7     		b	.L1188
 6114              	.L930:
 6115 0368 226D     		ldr	r2, [r4, #80]
 6116 036a 022A     		cmp	r2, #2
 6117 036c 7FF463AE 		bne	.L876
 6118 0370 94F83D20 		ldrb	r2, [r4, #61]	@ zero_extendqisi2
 6119 0374 222A     		cmp	r2, #34
 6120 0376 04D1     		bne	.L931
 6121 0378 1A68     		ldr	r2, [r3]
 6122 037a 42F48072 		orr	r2, r2, #256
 6123 037e 1A60     		str	r2, [r3]
 6124 0380 59E6     		b	.L876
 6125              	.L931:
 6126 0382 94F83D20 		ldrb	r2, [r4, #61]	@ zero_extendqisi2
 6127 0386 212A     		cmp	r2, #33
 6128 0388 7FF455AE 		bne	.L876
 6129              	.L1191:
 6130 038c 626A     		ldr	r2, [r4, #36]
 6131 038e 12F8011B 		ldrb	r1, [r2], #1	@ zero_extendqisi2
 6132 0392 1961     		str	r1, [r3, #16]
 6133 0394 6262     		str	r2, [r4, #36]
 6134              	.L1179:
 6135 0396 638D     		ldrh	r3, [r4, #42]
 6136 0398 013B     		subs	r3, r3, #1
 6137 039a 9BB2     		uxth	r3, r3
 6138 039c 6385     		strh	r3, [r4, #42]	@ movhi
 6139 039e 4AE6     		b	.L876
 6140              	.L919:
 6141 03a0 0029     		cmp	r1, #0
 6142 03a2 3FF448AE 		beq	.L876
 6143              	.L920:
 6144 03a6 9205     		lsls	r2, r2, #22
 6145 03a8 7FF545AE 		bpl	.L876
 6146 03ac E16A     		ldr	r1, [r4, #44]
 6147 03ae 94F83D20 		ldrb	r2, [r4, #61]	@ zero_extendqisi2
 6148 03b2 212A     		cmp	r2, #33
 6149 03b4 7FF43FAE 		bne	.L876
 6150 03b8 628D     		ldrh	r2, [r4, #42]
 6151 03ba 92B2     		uxth	r2, r2
 6152 03bc 002A     		cmp	r2, #0
 6153 03be E5D1     		bne	.L1191
 6154 03c0 0829     		cmp	r1, #8
 6155 03c2 0DD0     		beq	.L933
 6156 03c4 2029     		cmp	r1, #32
 6157 03c6 0BD0     		beq	.L933
 6158 03c8 11F5803F 		cmn	r1, #65536
 6159 03cc 08D0     		beq	.L933
 6160 03ce 5968     		ldr	r1, [r3, #4]
 6161 03d0 21F4E061 		bic	r1, r1, #1792
 6162 03d4 5960     		str	r1, [r3, #4]
 6163 03d6 1123     		movs	r3, #17
ARM GAS  /tmp/ccN79Q8s.s 			page 107


 6164 03d8 2363     		str	r3, [r4, #48]
 6165 03da 84F83E20 		strb	r2, [r4, #62]
 6166 03de 96E7     		b	.L1196
 6167              	.L933:
 6168 03e0 5A68     		ldr	r2, [r3, #4]
 6169 03e2 22F4E062 		bic	r2, r2, #1792
 6170 03e6 5A60     		str	r2, [r3, #4]
 6171 03e8 1A68     		ldr	r2, [r3]
 6172 03ea 42F40072 		orr	r2, r2, #512
 6173 03ee 1A60     		str	r2, [r3]
 6174 03f0 0023     		movs	r3, #0
 6175 03f2 2022     		movs	r2, #32
 6176 03f4 2363     		str	r3, [r4, #48]
 6177 03f6 84F83D20 		strb	r2, [r4, #61]
 6178 03fa 94F83E20 		ldrb	r2, [r4, #62]	@ zero_extendqisi2
 6179 03fe 84F83E30 		strb	r3, [r4, #62]
 6180 0402 402A     		cmp	r2, #64
 6181 0404 86D1     		bne	.L934
 6182 0406 A36E     		ldr	r3, [r4, #104]
 6183              	.L1183:
 6184 0408 2046     		mov	r0, r4
 6185 040a 0CB0     		add	sp, sp, #48
 6186              		@ sp needed
 6187 040c BDE87040 		pop	{r4, r5, r6, lr}
 6188 0410 1847     		bx	r3	@ indirect register sibling call
 6189              	.L1198:
 6190 0412 00BF     		.align	2
 6191              	.L1197:
 6192 0414 14000100 		.word	65556
 6193 0418 81800080 		.word	-2147450751
 6194              	.L918:
 6195 041c 0E05     		lsls	r6, r1, #20
 6196 041e 3FF50AAE 		bmi	.L876
 6197 0422 4506     		lsls	r5, r0, #25
 6198 0424 C0F38001 		ubfx	r1, r0, #2, #1
 6199 0428 46D5     		bpl	.L935
 6200 042a 5005     		lsls	r0, r2, #21
 6201 042c 44D5     		bpl	.L935
 6202 042e 0029     		cmp	r1, #0
 6203 0430 45D1     		bne	.L936
 6204 0432 94F83D20 		ldrb	r2, [r4, #61]	@ zero_extendqisi2
 6205 0436 222A     		cmp	r2, #34
 6206 0438 7FF4FDAD 		bne	.L876
 6207 043c 628D     		ldrh	r2, [r4, #42]
 6208 043e 92B2     		uxth	r2, r2
 6209 0440 032A     		cmp	r2, #3
 6210 0442 14D9     		bls	.L937
 6211 0444 1A69     		ldr	r2, [r3, #16]
 6212 0446 636A     		ldr	r3, [r4, #36]
 6213 0448 1A70     		strb	r2, [r3]
 6214 044a 636A     		ldr	r3, [r4, #36]
 6215 044c 0133     		adds	r3, r3, #1
 6216 044e 6362     		str	r3, [r4, #36]
 6217 0450 638D     		ldrh	r3, [r4, #42]
 6218 0452 013B     		subs	r3, r3, #1
 6219 0454 9BB2     		uxth	r3, r3
 6220 0456 6385     		strh	r3, [r4, #42]	@ movhi
ARM GAS  /tmp/ccN79Q8s.s 			page 108


 6221 0458 638D     		ldrh	r3, [r4, #42]
 6222 045a 9BB2     		uxth	r3, r3
 6223 045c 032B     		cmp	r3, #3
 6224 045e 7FF4EAAD 		bne	.L876
 6225 0462 2268     		ldr	r2, [r4]
 6226 0464 5368     		ldr	r3, [r2, #4]
 6227 0466 23F48063 		bic	r3, r3, #1024
 6228 046a 5360     		str	r3, [r2, #4]
 6229 046c E3E5     		b	.L876
 6230              	.L937:
 6231 046e E06A     		ldr	r0, [r4, #44]
 6232 0470 0228     		cmp	r0, #2
 6233 0472 3FF4E0AD 		beq	.L876
 6234 0476 012A     		cmp	r2, #1
 6235 0478 3FF6DDAD 		bhi	.L876
 6236 047c 1A68     		ldr	r2, [r3]
 6237 047e 22F48062 		bic	r2, r2, #1024
 6238 0482 1A60     		str	r2, [r3]
 6239 0484 5A68     		ldr	r2, [r3, #4]
 6240 0486 22F4E062 		bic	r2, r2, #1792
 6241 048a 5A60     		str	r2, [r3, #4]
 6242 048c 1A69     		ldr	r2, [r3, #16]
 6243 048e 636A     		ldr	r3, [r4, #36]
 6244 0490 1A70     		strb	r2, [r3]
 6245 0492 636A     		ldr	r3, [r4, #36]
 6246 0494 0133     		adds	r3, r3, #1
 6247 0496 6362     		str	r3, [r4, #36]
 6248 0498 638D     		ldrh	r3, [r4, #42]
 6249 049a 013B     		subs	r3, r3, #1
 6250 049c 9BB2     		uxth	r3, r3
 6251 049e 6385     		strh	r3, [r4, #42]	@ movhi
 6252 04a0 2023     		movs	r3, #32
 6253 04a2 84F83D30 		strb	r3, [r4, #61]
 6254 04a6 94F83E30 		ldrb	r3, [r4, #62]	@ zero_extendqisi2
 6255 04aa 84F83E10 		strb	r1, [r4, #62]
 6256 04ae 402B     		cmp	r3, #64
 6257 04b0 66D1     		bne	.L948
 6258 04b2 2163     		str	r1, [r4, #48]
 6259              	.L1190:
 6260 04b4 E36E     		ldr	r3, [r4, #108]
 6261 04b6 A7E7     		b	.L1183
 6262              	.L935:
 6263 04b8 0029     		cmp	r1, #0
 6264 04ba 3FF4BCAD 		beq	.L876
 6265              	.L936:
 6266 04be 9205     		lsls	r2, r2, #22
 6267 04c0 7FF5B9AD 		bpl	.L876
 6268 04c4 E26A     		ldr	r2, [r4, #44]
 6269 04c6 608D     		ldrh	r0, [r4, #42]
 6270 04c8 616A     		ldr	r1, [r4, #36]
 6271 04ca 80B2     		uxth	r0, r0
 6272 04cc 0428     		cmp	r0, #4
 6273 04ce 09D1     		bne	.L939
 6274 04d0 5A68     		ldr	r2, [r3, #4]
 6275 04d2 22F48062 		bic	r2, r2, #1024
 6276 04d6 5A60     		str	r2, [r3, #4]
 6277              	.L942:
ARM GAS  /tmp/ccN79Q8s.s 			page 109


 6278 04d8 1B69     		ldr	r3, [r3, #16]
 6279 04da 0B70     		strb	r3, [r1]
 6280              	.L1182:
 6281 04dc 636A     		ldr	r3, [r4, #36]
 6282 04de 0133     		adds	r3, r3, #1
 6283 04e0 6362     		str	r3, [r4, #36]
 6284 04e2 58E7     		b	.L1179
 6285              	.L939:
 6286 04e4 608D     		ldrh	r0, [r4, #42]
 6287 04e6 80B2     		uxth	r0, r0
 6288 04e8 0328     		cmp	r0, #3
 6289 04ea 0CD1     		bne	.L940
 6290 04ec 5868     		ldr	r0, [r3, #4]
 6291 04ee 042A     		cmp	r2, #4
 6292 04f0 20F48060 		bic	r0, r0, #1024
 6293 04f4 5860     		str	r0, [r3, #4]
 6294 04f6 EFD0     		beq	.L942
 6295 04f8 022A     		cmp	r2, #2
 6296 04fa EDD0     		beq	.L942
 6297 04fc 1A68     		ldr	r2, [r3]
 6298 04fe 22F48062 		bic	r2, r2, #1024
 6299 0502 1A60     		str	r2, [r3]
 6300 0504 E8E7     		b	.L942
 6301              	.L940:
 6302 0506 608D     		ldrh	r0, [r4, #42]
 6303 0508 80B2     		uxth	r0, r0
 6304 050a 0228     		cmp	r0, #2
 6305 050c E4D1     		bne	.L942
 6306 050e 012A     		cmp	r2, #1
 6307 0510 01D0     		beq	.L943
 6308 0512 102A     		cmp	r2, #16
 6309 0514 28D1     		bne	.L944
 6310              	.L943:
 6311 0516 1A68     		ldr	r2, [r3]
 6312 0518 22F48062 		bic	r2, r2, #1024
 6313              	.L1176:
 6314 051c 1A60     		str	r2, [r3]
 6315 051e 1B69     		ldr	r3, [r3, #16]
 6316 0520 0B70     		strb	r3, [r1]
 6317 0522 626A     		ldr	r2, [r4, #36]
 6318 0524 531C     		adds	r3, r2, #1
 6319 0526 6362     		str	r3, [r4, #36]
 6320 0528 638D     		ldrh	r3, [r4, #42]
 6321 052a 013B     		subs	r3, r3, #1
 6322 052c 9BB2     		uxth	r3, r3
 6323 052e 6385     		strh	r3, [r4, #42]	@ movhi
 6324 0530 2368     		ldr	r3, [r4]
 6325 0532 1B69     		ldr	r3, [r3, #16]
 6326 0534 5370     		strb	r3, [r2, #1]
 6327 0536 636A     		ldr	r3, [r4, #36]
 6328 0538 2268     		ldr	r2, [r4]
 6329 053a 0133     		adds	r3, r3, #1
 6330 053c 6362     		str	r3, [r4, #36]
 6331 053e 638D     		ldrh	r3, [r4, #42]
 6332 0540 013B     		subs	r3, r3, #1
 6333 0542 9BB2     		uxth	r3, r3
 6334 0544 6385     		strh	r3, [r4, #42]	@ movhi
ARM GAS  /tmp/ccN79Q8s.s 			page 110


 6335 0546 5368     		ldr	r3, [r2, #4]
 6336 0548 23F44073 		bic	r3, r3, #768
 6337 054c 5360     		str	r3, [r2, #4]
 6338 054e 2023     		movs	r3, #32
 6339 0550 84F83D30 		strb	r3, [r4, #61]
 6340 0554 94F83E30 		ldrb	r3, [r4, #62]	@ zero_extendqisi2
 6341 0558 402B     		cmp	r3, #64
 6342 055a 4FF00003 		mov	r3, #0
 6343 055e 84F83E30 		strb	r3, [r4, #62]
 6344 0562 0DD1     		bne	.L948
 6345 0564 2363     		str	r3, [r4, #48]
 6346 0566 A5E7     		b	.L1190
 6347              	.L944:
 6348 0568 042A     		cmp	r2, #4
 6349 056a 01D0     		beq	.L946
 6350 056c 022A     		cmp	r2, #2
 6351 056e 03D1     		bne	.L947
 6352              	.L946:
 6353 0570 1A68     		ldr	r2, [r3]
 6354 0572 42F48062 		orr	r2, r2, #1024
 6355 0576 D1E7     		b	.L1176
 6356              	.L947:
 6357 0578 1A68     		ldr	r2, [r3]
 6358 057a 42F40072 		orr	r2, r2, #512
 6359 057e CDE7     		b	.L1176
 6360              	.L948:
 6361 0580 1223     		movs	r3, #18
 6362 0582 2363     		str	r3, [r4, #48]
 6363 0584 A36D     		ldr	r3, [r4, #88]
 6364 0586 3FE7     		b	.L1183
 6365              	.L878:
 6366 0588 216C     		ldr	r1, [r4, #64]
 6367 058a 21B3     		cbz	r1, .L949
 6368 058c 0025     		movs	r5, #0
 6369 058e 5969     		ldr	r1, [r3, #20]
 6370              	.L950:
 6371 0590 8E07     		lsls	r6, r1, #30
 6372 0592 2AD5     		bpl	.L951
 6373 0594 9605     		lsls	r6, r2, #22
 6374 0596 28D5     		bpl	.L951
 6375 0598 226C     		ldr	r2, [r4, #64]
 6376 059a 02B1     		cbz	r2, .L952
 6377 059c 9D69     		ldr	r5, [r3, #24]
 6378              	.L952:
 6379 059e 94F83D20 		ldrb	r2, [r4, #61]	@ zero_extendqisi2
 6380 05a2 02F02802 		and	r2, r2, #40
 6381 05a6 282A     		cmp	r2, #40
 6382 05a8 18D1     		bne	.L953
 6383 05aa 5A68     		ldr	r2, [r3, #4]
 6384 05ac 6FEA9501 		mvn	r1, r5, lsr #2
 6385 05b0 22F48062 		bic	r2, r2, #1024
 6386 05b4 5A60     		str	r2, [r3, #4]
 6387 05b6 2B06     		lsls	r3, r5, #24
 6388 05b8 4FF00003 		mov	r3, #0
 6389 05bc 2046     		mov	r0, r4
 6390 05be 84F83C30 		strb	r3, [r4, #60]
 6391 05c2 54BF     		ite	pl
ARM GAS  /tmp/ccN79Q8s.s 			page 111


 6392 05c4 A289     		ldrhpl	r2, [r4, #12]
 6393 05c6 228B     		ldrhmi	r2, [r4, #24]
 6394 05c8 A36F     		ldr	r3, [r4, #120]
 6395 05ca 01F00101 		and	r1, r1, #1
 6396 05ce 0CB0     		add	sp, sp, #48
 6397              		@ sp needed
 6398 05d0 BDE87040 		pop	{r4, r5, r6, lr}
 6399 05d4 1847     		bx	r3	@ indirect register sibling call
 6400              	.L949:
 6401 05d6 9D69     		ldr	r5, [r3, #24]
 6402 05d8 5969     		ldr	r1, [r3, #20]
 6403 05da D9E7     		b	.L950
 6404              	.L953:
 6405 05dc 6FF00202 		mvn	r2, #2
 6406 05e0 5A61     		str	r2, [r3, #20]
 6407 05e2 0023     		movs	r3, #0
 6408 05e4 84F83C30 		strb	r3, [r4, #60]
 6409 05e8 25E5     		b	.L876
 6410              	.L951:
 6411 05ea CE06     		lsls	r6, r1, #27
 6412 05ec 40F1AD80 		bpl	.L956
 6413 05f0 9505     		lsls	r5, r2, #22
 6414 05f2 40F1AA80 		bpl	.L956
 6415 05f6 94F83D50 		ldrb	r5, [r4, #61]	@ zero_extendqisi2
 6416 05fa 5A68     		ldr	r2, [r3, #4]
 6417 05fc EDB2     		uxtb	r5, r5
 6418 05fe 22F4E062 		bic	r2, r2, #1792
 6419 0602 5A60     		str	r2, [r3, #4]
 6420 0604 0022     		movs	r2, #0
 6421 0606 0B92     		str	r2, [sp, #44]
 6422 0608 5A69     		ldr	r2, [r3, #20]
 6423 060a 0B92     		str	r2, [sp, #44]
 6424 060c 1A68     		ldr	r2, [r3]
 6425 060e 42F00102 		orr	r2, r2, #1
 6426 0612 1A60     		str	r2, [r3]
 6427 0614 0B9A     		ldr	r2, [sp, #44]
 6428 0616 1A68     		ldr	r2, [r3]
 6429 0618 22F48062 		bic	r2, r2, #1024
 6430 061c 1A60     		str	r2, [r3]
 6431 061e 5A68     		ldr	r2, [r3, #4]
 6432 0620 1205     		lsls	r2, r2, #20
 6433 0622 20D5     		bpl	.L958
 6434 0624 05F0F702 		and	r2, r5, #247
 6435 0628 222A     		cmp	r2, #34
 6436 062a 4AD1     		bne	.L959
 6437 062c A06B     		ldr	r0, [r4, #56]
 6438 062e 0268     		ldr	r2, [r0]
 6439 0630 5268     		ldr	r2, [r2, #4]
 6440 0632 92B2     		uxth	r2, r2
 6441 0634 6285     		strh	r2, [r4, #42]	@ movhi
 6442 0636 628D     		ldrh	r2, [r4, #42]
 6443 0638 92B2     		uxth	r2, r2
 6444 063a 1AB1     		cbz	r2, .L960
 6445 063c 226C     		ldr	r2, [r4, #64]
 6446 063e 42F00402 		orr	r2, r2, #4
 6447 0642 2264     		str	r2, [r4, #64]
 6448              	.L960:
ARM GAS  /tmp/ccN79Q8s.s 			page 112


 6449 0644 5A68     		ldr	r2, [r3, #4]
 6450 0646 22F40062 		bic	r2, r2, #2048
 6451 064a 5A60     		str	r2, [r3, #4]
 6452 064c FFF7FEFF 		bl	HAL_DMA_GetState
 6453 0650 0128     		cmp	r0, #1
 6454 0652 08D0     		beq	.L958
 6455 0654 A06B     		ldr	r0, [r4, #56]
 6456 0656 764B     		ldr	r3, .L1199
 6457 0658 4363     		str	r3, [r0, #52]
 6458 065a FFF7FEFF 		bl	HAL_DMA_Abort_IT
 6459 065e 10B1     		cbz	r0, .L958
 6460 0660 A06B     		ldr	r0, [r4, #56]
 6461              	.L1177:
 6462 0662 436B     		ldr	r3, [r0, #52]
 6463 0664 9847     		blx	r3
 6464              	.L958:
 6465 0666 638D     		ldrh	r3, [r4, #42]
 6466 0668 9BB2     		uxth	r3, r3
 6467 066a 13B3     		cbz	r3, .L964
 6468 066c 2368     		ldr	r3, [r4]
 6469 066e 5A69     		ldr	r2, [r3, #20]
 6470 0670 5607     		lsls	r6, r2, #29
 6471 0672 09D5     		bpl	.L965
 6472 0674 1A69     		ldr	r2, [r3, #16]
 6473 0676 636A     		ldr	r3, [r4, #36]
 6474 0678 1A70     		strb	r2, [r3]
 6475 067a 636A     		ldr	r3, [r4, #36]
 6476 067c 0133     		adds	r3, r3, #1
 6477 067e 6362     		str	r3, [r4, #36]
 6478 0680 638D     		ldrh	r3, [r4, #42]
 6479 0682 013B     		subs	r3, r3, #1
 6480 0684 9BB2     		uxth	r3, r3
 6481 0686 6385     		strh	r3, [r4, #42]	@ movhi
 6482              	.L965:
 6483 0688 2368     		ldr	r3, [r4]
 6484 068a 5A69     		ldr	r2, [r3, #20]
 6485 068c 5006     		lsls	r0, r2, #25
 6486 068e 09D5     		bpl	.L966
 6487 0690 1A69     		ldr	r2, [r3, #16]
 6488 0692 636A     		ldr	r3, [r4, #36]
 6489 0694 1A70     		strb	r2, [r3]
 6490 0696 636A     		ldr	r3, [r4, #36]
 6491 0698 0133     		adds	r3, r3, #1
 6492 069a 6362     		str	r3, [r4, #36]
 6493 069c 638D     		ldrh	r3, [r4, #42]
 6494 069e 013B     		subs	r3, r3, #1
 6495 06a0 9BB2     		uxth	r3, r3
 6496 06a2 6385     		strh	r3, [r4, #42]	@ movhi
 6497              	.L966:
 6498 06a4 638D     		ldrh	r3, [r4, #42]
 6499 06a6 9BB2     		uxth	r3, r3
 6500 06a8 1BB1     		cbz	r3, .L964
 6501 06aa 236C     		ldr	r3, [r4, #64]
 6502 06ac 43F00403 		orr	r3, r3, #4
 6503 06b0 2364     		str	r3, [r4, #64]
 6504              	.L964:
 6505 06b2 236C     		ldr	r3, [r4, #64]
ARM GAS  /tmp/ccN79Q8s.s 			page 113


 6506 06b4 13B3     		cbz	r3, .L968
 6507 06b6 2046     		mov	r0, r4
 6508 06b8 0CB0     		add	sp, sp, #48
 6509              		@ sp needed
 6510 06ba BDE87040 		pop	{r4, r5, r6, lr}
 6511 06be FFF7FEBF 		b	I2C_ITError
 6512              	.L959:
 6513 06c2 606B     		ldr	r0, [r4, #52]
 6514 06c4 0268     		ldr	r2, [r0]
 6515 06c6 5268     		ldr	r2, [r2, #4]
 6516 06c8 92B2     		uxth	r2, r2
 6517 06ca 6285     		strh	r2, [r4, #42]	@ movhi
 6518 06cc 628D     		ldrh	r2, [r4, #42]
 6519 06ce 92B2     		uxth	r2, r2
 6520 06d0 1AB1     		cbz	r2, .L962
 6521 06d2 226C     		ldr	r2, [r4, #64]
 6522 06d4 42F00402 		orr	r2, r2, #4
 6523 06d8 2264     		str	r2, [r4, #64]
 6524              	.L962:
 6525 06da 5A68     		ldr	r2, [r3, #4]
 6526 06dc 22F40062 		bic	r2, r2, #2048
 6527 06e0 5A60     		str	r2, [r3, #4]
 6528 06e2 FFF7FEFF 		bl	HAL_DMA_GetState
 6529 06e6 0128     		cmp	r0, #1
 6530 06e8 BDD0     		beq	.L958
 6531 06ea 606B     		ldr	r0, [r4, #52]
 6532 06ec 504B     		ldr	r3, .L1199
 6533 06ee 4363     		str	r3, [r0, #52]
 6534 06f0 FFF7FEFF 		bl	HAL_DMA_Abort_IT
 6535 06f4 0028     		cmp	r0, #0
 6536 06f6 B6D0     		beq	.L958
 6537 06f8 606B     		ldr	r0, [r4, #52]
 6538 06fa B2E7     		b	.L1177
 6539              	.L968:
 6540 06fc 2A2D     		cmp	r5, #42
 6541 06fe 06D1     		bne	.L969
 6542 0700 2363     		str	r3, [r4, #48]
 6543 0702 2823     		movs	r3, #40
 6544 0704 2046     		mov	r0, r4
 6545 0706 84F83D30 		strb	r3, [r4, #61]
 6546 070a 236E     		ldr	r3, [r4, #96]
 6547 070c 9847     		blx	r3
 6548              	.L969:
 6549 070e 94F83D30 		ldrb	r3, [r4, #61]	@ zero_extendqisi2
 6550 0712 282B     		cmp	r3, #40
 6551 0714 0AD1     		bne	.L970
 6552 0716 474B     		ldr	r3, .L1199+4
 6553 0718 2022     		movs	r2, #32
 6554 071a E362     		str	r3, [r4, #44]
 6555 071c 0023     		movs	r3, #0
 6556 071e 2363     		str	r3, [r4, #48]
 6557 0720 84F83D20 		strb	r2, [r4, #61]
 6558 0724 84F83E30 		strb	r3, [r4, #62]
 6559 0728 636E     		ldr	r3, [r4, #100]
 6560 072a 6DE6     		b	.L1183
 6561              	.L970:
 6562 072c 236B     		ldr	r3, [r4, #48]
ARM GAS  /tmp/ccN79Q8s.s 			page 114


 6563 072e 222B     		cmp	r3, #34
 6564 0730 02D0     		beq	.L971
 6565 0732 222D     		cmp	r5, #34
 6566 0734 7FF47FAC 		bne	.L876
 6567              	.L971:
 6568 0738 0023     		movs	r3, #0
 6569 073a 2022     		movs	r2, #32
 6570 073c 2363     		str	r3, [r4, #48]
 6571 073e 84F83D20 		strb	r2, [r4, #61]
 6572 0742 84F83E30 		strb	r3, [r4, #62]
 6573              	.L1184:
 6574 0746 236E     		ldr	r3, [r4, #96]
 6575 0748 5EE6     		b	.L1183
 6576              	.L956:
 6577 074a 00F0F700 		and	r0, r0, #247
 6578 074e 2128     		cmp	r0, #33
 6579 0750 C1F38005 		ubfx	r5, r1, #2, #1
 6580 0754 33D1     		bne	.L972
 6581 0756 0906     		lsls	r1, r1, #24
 6582 0758 25D5     		bpl	.L973
 6583 075a 5605     		lsls	r6, r2, #21
 6584 075c 23D5     		bpl	.L973
 6585 075e 2DBB     		cbnz	r5, .L974
 6586 0760 94F83D10 		ldrb	r1, [r4, #61]	@ zero_extendqisi2
 6587 0764 628D     		ldrh	r2, [r4, #42]
 6588 0766 C9B2     		uxtb	r1, r1
 6589 0768 92B2     		uxth	r2, r2
 6590 076a 002A     		cmp	r2, #0
 6591 076c 3FF463AC 		beq	.L876
 6592 0770 626A     		ldr	r2, [r4, #36]
 6593 0772 12F8015B 		ldrb	r5, [r2], #1	@ zero_extendqisi2
 6594 0776 1D61     		str	r5, [r3, #16]
 6595 0778 6262     		str	r2, [r4, #36]
 6596 077a 628D     		ldrh	r2, [r4, #42]
 6597 077c 013A     		subs	r2, r2, #1
 6598 077e 92B2     		uxth	r2, r2
 6599 0780 6285     		strh	r2, [r4, #42]	@ movhi
 6600 0782 628D     		ldrh	r2, [r4, #42]
 6601 0784 92B2     		uxth	r2, r2
 6602 0786 002A     		cmp	r2, #0
 6603 0788 7FF455AC 		bne	.L876
 6604 078c 2929     		cmp	r1, #41
 6605 078e 7FF452AC 		bne	.L876
 6606 0792 5A68     		ldr	r2, [r3, #4]
 6607 0794 22F48062 		bic	r2, r2, #1024
 6608 0798 5A60     		str	r2, [r3, #4]
 6609 079a 2823     		movs	r3, #40
 6610 079c 2063     		str	r0, [r4, #48]
 6611 079e 84F83D30 		strb	r3, [r4, #61]
 6612 07a2 E36D     		ldr	r3, [r4, #92]
 6613 07a4 30E6     		b	.L1183
 6614              	.L973:
 6615 07a6 002D     		cmp	r5, #0
 6616 07a8 3FF445AC 		beq	.L876
 6617              	.L974:
 6618 07ac 9505     		lsls	r5, r2, #22
 6619 07ae 7FF542AC 		bpl	.L876
ARM GAS  /tmp/ccN79Q8s.s 			page 115


 6620 07b2 628D     		ldrh	r2, [r4, #42]
 6621 07b4 92B2     		uxth	r2, r2
 6622 07b6 002A     		cmp	r2, #0
 6623 07b8 3FF43DAC 		beq	.L876
 6624 07bc E6E5     		b	.L1191
 6625              	.L972:
 6626 07be 4806     		lsls	r0, r1, #25
 6627 07c0 27D5     		bpl	.L975
 6628 07c2 5105     		lsls	r1, r2, #21
 6629 07c4 25D5     		bpl	.L975
 6630 07c6 3DBB     		cbnz	r5, .L976
 6631 07c8 94F83D20 		ldrb	r2, [r4, #61]	@ zero_extendqisi2
 6632 07cc 618D     		ldrh	r1, [r4, #42]
 6633 07ce D2B2     		uxtb	r2, r2
 6634 07d0 89B2     		uxth	r1, r1
 6635 07d2 0029     		cmp	r1, #0
 6636 07d4 3FF42FAC 		beq	.L876
 6637 07d8 1969     		ldr	r1, [r3, #16]
 6638 07da 636A     		ldr	r3, [r4, #36]
 6639 07dc 1970     		strb	r1, [r3]
 6640 07de 636A     		ldr	r3, [r4, #36]
 6641 07e0 0133     		adds	r3, r3, #1
 6642 07e2 6362     		str	r3, [r4, #36]
 6643 07e4 638D     		ldrh	r3, [r4, #42]
 6644 07e6 013B     		subs	r3, r3, #1
 6645 07e8 9BB2     		uxth	r3, r3
 6646 07ea 6385     		strh	r3, [r4, #42]	@ movhi
 6647 07ec 638D     		ldrh	r3, [r4, #42]
 6648 07ee 9BB2     		uxth	r3, r3
 6649 07f0 002B     		cmp	r3, #0
 6650 07f2 7FF420AC 		bne	.L876
 6651 07f6 2A2A     		cmp	r2, #42
 6652 07f8 7FF41DAC 		bne	.L876
 6653 07fc 2268     		ldr	r2, [r4]
 6654 07fe 5368     		ldr	r3, [r2, #4]
 6655 0800 23F48063 		bic	r3, r3, #1024
 6656 0804 5360     		str	r3, [r2, #4]
 6657 0806 2223     		movs	r3, #34
 6658 0808 2363     		str	r3, [r4, #48]
 6659 080a 2823     		movs	r3, #40
 6660 080c 84F83D30 		strb	r3, [r4, #61]
 6661 0810 99E7     		b	.L1184
 6662              	.L975:
 6663 0812 002D     		cmp	r5, #0
 6664 0814 3FF40FAC 		beq	.L876
 6665              	.L976:
 6666 0818 9205     		lsls	r2, r2, #22
 6667 081a 7FF50CAC 		bpl	.L876
 6668 081e 628D     		ldrh	r2, [r4, #42]
 6669 0820 92B2     		uxth	r2, r2
 6670 0822 002A     		cmp	r2, #0
 6671 0824 3FF407AC 		beq	.L876
 6672 0828 1A69     		ldr	r2, [r3, #16]
 6673 082a 636A     		ldr	r3, [r4, #36]
 6674 082c 1A70     		strb	r2, [r3]
 6675 082e 55E6     		b	.L1182
 6676              	.L1200:
ARM GAS  /tmp/ccN79Q8s.s 			page 116


 6677              		.align	2
 6678              	.L1199:
 6679 0830 00000000 		.word	I2C_DMAAbort
