ARM GAS  /tmp/ccTKlSzs.s 			page 1


   1              		.cpu cortex-m3
   2              		.eabi_attribute 20, 1
   3              		.eabi_attribute 21, 1
   4              		.eabi_attribute 23, 3
   5              		.eabi_attribute 24, 1
   6              		.eabi_attribute 25, 1
   7              		.eabi_attribute 26, 1
   8              		.eabi_attribute 30, 4
   9              		.eabi_attribute 34, 1
  10              		.eabi_attribute 18, 4
  11              		.file	"stm32f1xx_hal_cortex.c"
  12              		.text
  13              		.section	.text.HAL_NVIC_SetPriorityGrouping,"ax",%progbits
  14              		.align	1
  15              		.global	HAL_NVIC_SetPriorityGrouping
  16              		.arch armv7-m
  17              		.syntax unified
  18              		.thumb
  19              		.thumb_func
  20              		.fpu softvfp
  22              	HAL_NVIC_SetPriorityGrouping:
  23              		@ args = 0, pretend = 0, frame = 0
  24              		@ frame_needed = 0, uses_anonymous_args = 0
  25              		@ link register save eliminated.
  26 0000 0749     		ldr	r1, .L2
  27 0002 0302     		lsls	r3, r0, #8
  28 0004 CA68     		ldr	r2, [r1, #12]
  29 0006 03F4E063 		and	r3, r3, #1792
  30 000a 22F4E062 		bic	r2, r2, #1792
  31 000e 1204     		lsls	r2, r2, #16
  32 0010 120C     		lsrs	r2, r2, #16
  33 0012 1343     		orrs	r3, r3, r2
  34 0014 43F0BF63 		orr	r3, r3, #100139008
  35 0018 43F40033 		orr	r3, r3, #131072
  36 001c CB60     		str	r3, [r1, #12]
  37 001e 7047     		bx	lr
  38              	.L3:
  39              		.align	2
  40              	.L2:
  41 0020 00ED00E0 		.word	-536810240
  43              		.section	.text.HAL_NVIC_SetPriority,"ax",%progbits
  44              		.align	1
  45              		.global	HAL_NVIC_SetPriority
  46              		.syntax unified
  47              		.thumb
  48              		.thumb_func
  49              		.fpu softvfp
  51              	HAL_NVIC_SetPriority:
  52              		@ args = 0, pretend = 0, frame = 0
  53              		@ frame_needed = 0, uses_anonymous_args = 0
  54 0000 164B     		ldr	r3, .L9
  55 0002 30B5     		push	{r4, r5, lr}
  56 0004 DC68     		ldr	r4, [r3, #12]
  57 0006 C4F30224 		ubfx	r4, r4, #8, #3
  58 000a C4F10703 		rsb	r3, r4, #7
  59 000e 251D     		adds	r5, r4, #4
  60 0010 042B     		cmp	r3, #4
ARM GAS  /tmp/ccTKlSzs.s 			page 2


  61 0012 28BF     		it	cs
  62 0014 0423     		movcs	r3, #4
  63 0016 062D     		cmp	r5, #6
  64 0018 4FF0FF35 		mov	r5, #-1
  65 001c 98BF     		it	ls
  66 001e 0024     		movls	r4, #0
  67 0020 05FA03F3 		lsl	r3, r5, r3
  68 0024 88BF     		it	hi
  69 0026 033C     		subhi	r4, r4, #3
  70 0028 21EA0303 		bic	r3, r1, r3
  71 002c A340     		lsls	r3, r3, r4
  72 002e 05FA04F4 		lsl	r4, r5, r4
  73 0032 22EA0402 		bic	r2, r2, r4
  74 0036 0028     		cmp	r0, #0
  75 0038 43EA0203 		orr	r3, r3, r2
  76 003c ACBF     		ite	ge
  77 003e 00F16040 		addge	r0, r0, #-536870912
  78 0042 074A     		ldrlt	r2, .L9+4
  79 0044 4FEA0313 		lsl	r3, r3, #4
  80 0048 DBB2     		uxtb	r3, r3
  81 004a ABBF     		itete	ge
  82 004c 00F56140 		addge	r0, r0, #57600
  83 0050 00F00F00 		andlt	r0, r0, #15
  84 0054 80F80033 		strbge	r3, [r0, #768]
  85 0058 1354     		strblt	r3, [r2, r0]
  86 005a 30BD     		pop	{r4, r5, pc}
  87              	.L10:
  88              		.align	2
  89              	.L9:
  90 005c 00ED00E0 		.word	-536810240
  91 0060 14ED00E0 		.word	-536810220
  93              		.section	.text.HAL_NVIC_EnableIRQ,"ax",%progbits
  94              		.align	1
  95              		.global	HAL_NVIC_EnableIRQ
  96              		.syntax unified
  97              		.thumb
  98              		.thumb_func
  99              		.fpu softvfp
 101              	HAL_NVIC_EnableIRQ:
 102              		@ args = 0, pretend = 0, frame = 0
 103              		@ frame_needed = 0, uses_anonymous_args = 0
 104              		@ link register save eliminated.
 105 0000 0028     		cmp	r0, #0
 106 0002 08DB     		blt	.L11
 107 0004 0123     		movs	r3, #1
 108 0006 4209     		lsrs	r2, r0, #5
 109 0008 00F01F00 		and	r0, r0, #31
 110 000c 03FA00F0 		lsl	r0, r3, r0
 111 0010 014B     		ldr	r3, .L13
 112 0012 43F82200 		str	r0, [r3, r2, lsl #2]
 113              	.L11:
 114 0016 7047     		bx	lr
 115              	.L14:
 116              		.align	2
 117              	.L13:
 118 0018 00E100E0 		.word	-536813312
 120              		.section	.text.HAL_NVIC_DisableIRQ,"ax",%progbits
ARM GAS  /tmp/ccTKlSzs.s 			page 3


 121              		.align	1
 122              		.global	HAL_NVIC_DisableIRQ
 123              		.syntax unified
 124              		.thumb
 125              		.thumb_func
 126              		.fpu softvfp
 128              	HAL_NVIC_DisableIRQ:
 129              		@ args = 0, pretend = 0, frame = 0
 130              		@ frame_needed = 0, uses_anonymous_args = 0
 131              		@ link register save eliminated.
 132 0000 0028     		cmp	r0, #0
 133 0002 0DDB     		blt	.L15
 134 0004 0122     		movs	r2, #1
 135 0006 4309     		lsrs	r3, r0, #5
 136 0008 00F01F00 		and	r0, r0, #31
 137 000c 02FA00F0 		lsl	r0, r2, r0
 138 0010 044A     		ldr	r2, .L17
 139 0012 2033     		adds	r3, r3, #32
 140 0014 42F82300 		str	r0, [r2, r3, lsl #2]
 141              		.syntax unified
 142              	@ 879 "./cmsis/inc/cmsis_gcc.h" 1
 143 0018 BFF34F8F 		dsb 0xF
 144              	@ 0 "" 2
 145              	@ 868 "./cmsis/inc/cmsis_gcc.h" 1
 146 001c BFF36F8F 		isb 0xF
 147              	@ 0 "" 2
 148              		.thumb
 149              		.syntax unified
 150              	.L15:
 151 0020 7047     		bx	lr
 152              	.L18:
 153 0022 00BF     		.align	2
 154              	.L17:
 155 0024 00E100E0 		.word	-536813312
 157              		.section	.text.HAL_NVIC_SystemReset,"ax",%progbits
 158              		.align	1
 159              		.global	HAL_NVIC_SystemReset
 160              		.syntax unified
 161              		.thumb
 162              		.thumb_func
 163              		.fpu softvfp
 165              	HAL_NVIC_SystemReset:
 166              		@ Volatile: function does not return.
 167              		@ args = 0, pretend = 0, frame = 0
 168              		@ frame_needed = 0, uses_anonymous_args = 0
 169              		@ link register save eliminated.
 170              		.syntax unified
 171              	@ 879 "./cmsis/inc/cmsis_gcc.h" 1
 172 0000 BFF34F8F 		dsb 0xF
 173              	@ 0 "" 2
 174              		.thumb
 175              		.syntax unified
 176 0004 0549     		ldr	r1, .L21
 177 0006 064B     		ldr	r3, .L21+4
 178 0008 CA68     		ldr	r2, [r1, #12]
 179 000a 02F4E062 		and	r2, r2, #1792
 180 000e 1343     		orrs	r3, r3, r2
ARM GAS  /tmp/ccTKlSzs.s 			page 4


 181 0010 CB60     		str	r3, [r1, #12]
 182              		.syntax unified
 183              	@ 879 "./cmsis/inc/cmsis_gcc.h" 1
 184 0012 BFF34F8F 		dsb 0xF
 185              	@ 0 "" 2
 186              		.thumb
 187              		.syntax unified
 188              	.L20:
 189              		.syntax unified
 190              	@ 1773 "./cmsis/inc/core_cm3.h" 1
 191 0016 00BF     		nop
 192              	@ 0 "" 2
 193              		.thumb
 194              		.syntax unified
 195 0018 FDE7     		b	.L20
 196              	.L22:
 197 001a 00BF     		.align	2
 198              	.L21:
 199 001c 00ED00E0 		.word	-536810240
 200 0020 0400FA05 		.word	100270084
 202              		.section	.text.HAL_SYSTICK_Config,"ax",%progbits
 203              		.align	1
 204              		.global	HAL_SYSTICK_Config
 205              		.syntax unified
 206              		.thumb
 207              		.thumb_func
 208              		.fpu softvfp
 210              	HAL_SYSTICK_Config:
 211              		@ args = 0, pretend = 0, frame = 0
 212              		@ frame_needed = 0, uses_anonymous_args = 0
 213              		@ link register save eliminated.
 214 0000 0138     		subs	r0, r0, #1
 215 0002 B0F1807F 		cmp	r0, #16777216
 216 0006 0AD2     		bcs	.L25
 217 0008 F021     		movs	r1, #240
 218 000a 064B     		ldr	r3, .L26
 219 000c 064A     		ldr	r2, .L26+4
 220 000e 5860     		str	r0, [r3, #4]
 221 0010 82F82310 		strb	r1, [r2, #35]
 222 0014 0020     		movs	r0, #0
 223 0016 0722     		movs	r2, #7
 224 0018 9860     		str	r0, [r3, #8]
 225 001a 1A60     		str	r2, [r3]
 226 001c 7047     		bx	lr
 227              	.L25:
 228 001e 0120     		movs	r0, #1
 229 0020 7047     		bx	lr
 230              	.L27:
 231 0022 00BF     		.align	2
 232              	.L26:
 233 0024 10E000E0 		.word	-536813552
 234 0028 00ED00E0 		.word	-536810240
 236              		.section	.text.HAL_NVIC_GetPriorityGrouping,"ax",%progbits
 237              		.align	1
 238              		.global	HAL_NVIC_GetPriorityGrouping
 239              		.syntax unified
 240              		.thumb
ARM GAS  /tmp/ccTKlSzs.s 			page 5


 241              		.thumb_func
 242              		.fpu softvfp
 244              	HAL_NVIC_GetPriorityGrouping:
 245              		@ args = 0, pretend = 0, frame = 0
 246              		@ frame_needed = 0, uses_anonymous_args = 0
 247              		@ link register save eliminated.
 248 0000 024B     		ldr	r3, .L29
 249 0002 D868     		ldr	r0, [r3, #12]
 250 0004 C0F30220 		ubfx	r0, r0, #8, #3
 251 0008 7047     		bx	lr
 252              	.L30:
 253 000a 00BF     		.align	2
 254              	.L29:
 255 000c 00ED00E0 		.word	-536810240
 257              		.section	.text.HAL_NVIC_GetPriority,"ax",%progbits
 258              		.align	1
 259              		.global	HAL_NVIC_GetPriority
 260              		.syntax unified
 261              		.thumb
 262              		.thumb_func
 263              		.fpu softvfp
 265              	HAL_NVIC_GetPriority:
 266              		@ args = 0, pretend = 0, frame = 0
 267              		@ frame_needed = 0, uses_anonymous_args = 0
 268 0000 70B5     		push	{r4, r5, r6, lr}
 269 0002 0028     		cmp	r0, #0
 270 0004 B8BF     		it	lt
 271 0006 154C     		ldrlt	r4, .L37
 272 0008 01F00701 		and	r1, r1, #7
 273 000c ADBF     		iteet	ge
 274 000e 00F16040 		addge	r0, r0, #-536870912
 275 0012 00F00F00 		andlt	r0, r0, #15
 276 0016 205C     		ldrblt	r0, [r4, r0]	@ zero_extendqisi2
 277 0018 00F56140 		addge	r0, r0, #57600
 278 001c C1F10704 		rsb	r4, r1, #7
 279 0020 01F10405 		add	r5, r1, #4
 280 0024 A8BF     		it	ge
 281 0026 90F80003 		ldrbge	r0, [r0, #768]	@ zero_extendqisi2
 282 002a 042C     		cmp	r4, #4
 283 002c 28BF     		it	cs
 284 002e 0424     		movcs	r4, #4
 285 0030 062D     		cmp	r5, #6
 286 0032 98BF     		it	ls
 287 0034 0021     		movls	r1, #0
 288 0036 4FF0FF35 		mov	r5, #-1
 289 003a 4FEA1010 		lsr	r0, r0, #4
 290 003e 88BF     		it	hi
 291 0040 0339     		subhi	r1, r1, #3
 292 0042 20FA01F6 		lsr	r6, r0, r1
 293 0046 05FA04F4 		lsl	r4, r5, r4
 294 004a 05FA01F1 		lsl	r1, r5, r1
 295 004e 26EA0404 		bic	r4, r6, r4
 296 0052 20EA0100 		bic	r0, r0, r1
 297 0056 1460     		str	r4, [r2]
 298 0058 1860     		str	r0, [r3]
 299 005a 70BD     		pop	{r4, r5, r6, pc}
 300              	.L38:
ARM GAS  /tmp/ccTKlSzs.s 			page 6


 301              		.align	2
 302              	.L37:
 303 005c 14ED00E0 		.word	-536810220
 305              		.section	.text.HAL_NVIC_SetPendingIRQ,"ax",%progbits
 306              		.align	1
 307              		.global	HAL_NVIC_SetPendingIRQ
 308              		.syntax unified
 309              		.thumb
 310              		.thumb_func
 311              		.fpu softvfp
 313              	HAL_NVIC_SetPendingIRQ:
 314              		@ args = 0, pretend = 0, frame = 0
 315              		@ frame_needed = 0, uses_anonymous_args = 0
 316              		@ link register save eliminated.
 317 0000 0028     		cmp	r0, #0
 318 0002 09DB     		blt	.L39
 319 0004 0122     		movs	r2, #1
 320 0006 4309     		lsrs	r3, r0, #5
 321 0008 00F01F00 		and	r0, r0, #31
 322 000c 02FA00F0 		lsl	r0, r2, r0
 323 0010 024A     		ldr	r2, .L41
 324 0012 4033     		adds	r3, r3, #64
 325 0014 42F82300 		str	r0, [r2, r3, lsl #2]
 326              	.L39:
 327 0018 7047     		bx	lr
 328              	.L42:
 329 001a 00BF     		.align	2
 330              	.L41:
 331 001c 00E100E0 		.word	-536813312
 333              		.section	.text.HAL_NVIC_GetPendingIRQ,"ax",%progbits
 334              		.align	1
 335              		.global	HAL_NVIC_GetPendingIRQ
 336              		.syntax unified
 337              		.thumb
 338              		.thumb_func
 339              		.fpu softvfp
 341              	HAL_NVIC_GetPendingIRQ:
 342              		@ args = 0, pretend = 0, frame = 0
 343              		@ frame_needed = 0, uses_anonymous_args = 0
 344              		@ link register save eliminated.
 345 0000 0028     		cmp	r0, #0
 346 0002 A1BF     		itttt	ge
 347 0004 4309     		lsrge	r3, r0, #5
 348 0006 064A     		ldrge	r2, .L46
 349 0008 4033     		addge	r3, r3, #64
 350 000a 52F82330 		ldrge	r3, [r2, r3, lsl #2]
 351 000e A3BF     		ittte	ge
 352 0010 00F01F00 		andge	r0, r0, #31
 353 0014 23FA00F0 		lsrge	r0, r3, r0
 354 0018 00F00100 		andge	r0, r0, #1
 355 001c 0020     		movlt	r0, #0
 356 001e 7047     		bx	lr
 357              	.L47:
 358              		.align	2
 359              	.L46:
 360 0020 00E100E0 		.word	-536813312
 362              		.section	.text.HAL_NVIC_ClearPendingIRQ,"ax",%progbits
ARM GAS  /tmp/ccTKlSzs.s 			page 7


 363              		.align	1
 364              		.global	HAL_NVIC_ClearPendingIRQ
 365              		.syntax unified
 366              		.thumb
 367              		.thumb_func
 368              		.fpu softvfp
 370              	HAL_NVIC_ClearPendingIRQ:
 371              		@ args = 0, pretend = 0, frame = 0
 372              		@ frame_needed = 0, uses_anonymous_args = 0
 373              		@ link register save eliminated.
 374 0000 0028     		cmp	r0, #0
 375 0002 09DB     		blt	.L48
 376 0004 0122     		movs	r2, #1
 377 0006 4309     		lsrs	r3, r0, #5
 378 0008 00F01F00 		and	r0, r0, #31
 379 000c 02FA00F0 		lsl	r0, r2, r0
 380 0010 024A     		ldr	r2, .L50
 381 0012 6033     		adds	r3, r3, #96
 382 0014 42F82300 		str	r0, [r2, r3, lsl #2]
 383              	.L48:
 384 0018 7047     		bx	lr
 385              	.L51:
 386 001a 00BF     		.align	2
 387              	.L50:
 388 001c 00E100E0 		.word	-536813312
 390              		.section	.text.HAL_NVIC_GetActive,"ax",%progbits
 391              		.align	1
 392              		.global	HAL_NVIC_GetActive
 393              		.syntax unified
 394              		.thumb
 395              		.thumb_func
 396              		.fpu softvfp
 398              	HAL_NVIC_GetActive:
 399              		@ args = 0, pretend = 0, frame = 0
 400              		@ frame_needed = 0, uses_anonymous_args = 0
 401              		@ link register save eliminated.
 402 0000 0028     		cmp	r0, #0
 403 0002 A1BF     		itttt	ge
 404 0004 4309     		lsrge	r3, r0, #5
 405 0006 064A     		ldrge	r2, .L55
 406 0008 8033     		addge	r3, r3, #128
 407 000a 52F82330 		ldrge	r3, [r2, r3, lsl #2]
 408 000e A3BF     		ittte	ge
 409 0010 00F01F00 		andge	r0, r0, #31
 410 0014 23FA00F0 		lsrge	r0, r3, r0
 411 0018 00F00100 		andge	r0, r0, #1
 412 001c 0020     		movlt	r0, #0
 413 001e 7047     		bx	lr
 414              	.L56:
 415              		.align	2
 416              	.L55:
 417 0020 00E100E0 		.word	-536813312
 419              		.section	.text.HAL_SYSTICK_CLKSourceConfig,"ax",%progbits
 420              		.align	1
 421              		.global	HAL_SYSTICK_CLKSourceConfig
 422              		.syntax unified
 423              		.thumb
ARM GAS  /tmp/ccTKlSzs.s 			page 8


 424              		.thumb_func
 425              		.fpu softvfp
 427              	HAL_SYSTICK_CLKSourceConfig:
 428              		@ args = 0, pretend = 0, frame = 0
 429              		@ frame_needed = 0, uses_anonymous_args = 0
 430              		@ link register save eliminated.
 431 0000 044B     		ldr	r3, .L61
 432 0002 0428     		cmp	r0, #4
 433 0004 1A68     		ldr	r2, [r3]
 434 0006 0CBF     		ite	eq
 435 0008 42F00402 		orreq	r2, r2, #4
 436 000c 22F00402 		bicne	r2, r2, #4
 437 0010 1A60     		str	r2, [r3]
 438 0012 7047     		bx	lr
 439              	.L62:
 440              		.align	2
 441              	.L61:
 442 0014 10E000E0 		.word	-536813552
 444              		.section	.text.HAL_SYSTICK_Callback,"ax",%progbits
 445              		.align	1
 446              		.weak	HAL_SYSTICK_Callback
 447              		.syntax unified
 448              		.thumb
 449              		.thumb_func
 450              		.fpu softvfp
 452              	HAL_SYSTICK_Callback:
 453              		@ args = 0, pretend = 0, frame = 0
 454              		@ frame_needed = 0, uses_anonymous_args = 0
 455              		@ link register save eliminated.
 456 0000 7047     		bx	lr
 458              		.section	.text.HAL_SYSTICK_IRQHandler,"ax",%progbits
 459              		.align	1
 460              		.global	HAL_SYSTICK_IRQHandler
 461              		.syntax unified
 462              		.thumb
 463              		.thumb_func
 464              		.fpu softvfp
 466              	HAL_SYSTICK_IRQHandler:
 467              		@ args = 0, pretend = 0, frame = 0
 468              		@ frame_needed = 0, uses_anonymous_args = 0
 469 0000 08B5     		push	{r3, lr}
 470 0002 FFF7FEFF 		bl	HAL_SYSTICK_Callback
 471 0006 08BD     		pop	{r3, pc}
 473              		.ident	"GCC: (GNU Tools for Arm Embedded Processors 9-2019-q4-major) 9.2.1 20191025 (release) [ARM
ARM GAS  /tmp/ccTKlSzs.s 			page 9

