ARM GAS  /tmp/ccYrA4o1.s 			page 1


   1              		.cpu cortex-m3
   2              		.eabi_attribute 20, 1
   3              		.eabi_attribute 21, 1
   4              		.eabi_attribute 23, 3
   5              		.eabi_attribute 24, 1
   6              		.eabi_attribute 25, 1
   7              		.eabi_attribute 26, 1
   8              		.eabi_attribute 30, 4
   9              		.eabi_attribute 34, 1
  10              		.eabi_attribute 18, 4
  11              		.file	"stm32f1xx_hal_spi.c"
  12              		.text
  13              		.section	.text.SPI_AbortRx_ISR,"ax",%progbits
  14              		.align	1
  15              		.arch armv7-m
  16              		.syntax unified
  17              		.thumb
  18              		.thumb_func
  19              		.fpu softvfp
  21              	SPI_AbortRx_ISR:
  22              		@ args = 0, pretend = 0, frame = 8
  23              		@ frame_needed = 0, uses_anonymous_args = 0
  24              		@ link register save eliminated.
  25 0000 45F6C052 		movw	r2, #24000
  26 0004 114B     		ldr	r3, .L7
  27 0006 82B0     		sub	sp, sp, #8
  28 0008 1B68     		ldr	r3, [r3]
  29 000a B3FBF2F2 		udiv	r2, r3, r2
  30 000e 6423     		movs	r3, #100
  31 0010 5343     		muls	r3, r2, r3
  32 0012 0193     		str	r3, [sp, #4]
  33 0014 0368     		ldr	r3, [r0]
  34              	.L4:
  35 0016 019A     		ldr	r2, [sp, #4]
  36 0018 8AB9     		cbnz	r2, .L2
  37 001a 426D     		ldr	r2, [r0, #84]
  38 001c 42F04002 		orr	r2, r2, #64
  39 0020 4265     		str	r2, [r0, #84]
  40              	.L3:
  41 0022 1A68     		ldr	r2, [r3]
  42 0024 22F04002 		bic	r2, r2, #64
  43 0028 1A60     		str	r2, [r3]
  44 002a 5A68     		ldr	r2, [r3, #4]
  45 002c 22F0E002 		bic	r2, r2, #224
  46 0030 5A60     		str	r2, [r3, #4]
  47 0032 DB68     		ldr	r3, [r3, #12]
  48 0034 0723     		movs	r3, #7
  49 0036 80F85130 		strb	r3, [r0, #81]
  50 003a 02B0     		add	sp, sp, #8
  51              		@ sp needed
  52 003c 7047     		bx	lr
  53              	.L2:
  54 003e 019A     		ldr	r2, [sp, #4]
  55 0040 013A     		subs	r2, r2, #1
  56 0042 0192     		str	r2, [sp, #4]
  57 0044 9A68     		ldr	r2, [r3, #8]
  58 0046 9207     		lsls	r2, r2, #30
ARM GAS  /tmp/ccYrA4o1.s 			page 2


  59 0048 E5D5     		bpl	.L4
  60 004a EAE7     		b	.L3
  61              	.L8:
  62              		.align	2
  63              	.L7:
  64 004c 00000000 		.word	SystemCoreClock
  66              		.section	.text.SPI_AbortTx_ISR,"ax",%progbits
  67              		.align	1
  68              		.syntax unified
  69              		.thumb
  70              		.thumb_func
  71              		.fpu softvfp
  73              	SPI_AbortTx_ISR:
  74              		@ args = 0, pretend = 0, frame = 0
  75              		@ frame_needed = 0, uses_anonymous_args = 0
  76              		@ link register save eliminated.
  77 0000 0368     		ldr	r3, [r0]
  78 0002 5A68     		ldr	r2, [r3, #4]
  79 0004 22F08002 		bic	r2, r2, #128
  80 0008 5A60     		str	r2, [r3, #4]
  81 000a 1A68     		ldr	r2, [r3]
  82 000c 22F04002 		bic	r2, r2, #64
  83 0010 1A60     		str	r2, [r3]
  84 0012 0723     		movs	r3, #7
  85 0014 80F85130 		strb	r3, [r0, #81]
  86 0018 7047     		bx	lr
  88              		.section	.text.SPI_WaitFlagStateUntilTimeout,"ax",%progbits
  89              		.align	1
  90              		.syntax unified
  91              		.thumb
  92              		.thumb_func
  93              		.fpu softvfp
  95              	SPI_WaitFlagStateUntilTimeout:
  96              		@ args = 4, pretend = 0, frame = 0
  97              		@ frame_needed = 0, uses_anonymous_args = 0
  98 0000 2DE9F041 		push	{r4, r5, r6, r7, r8, lr}
  99 0004 0446     		mov	r4, r0
 100 0006 8846     		mov	r8, r1
 101 0008 1646     		mov	r6, r2
 102 000a 1D46     		mov	r5, r3
 103 000c 069F     		ldr	r7, [sp, #24]
 104              	.L11:
 105 000e 2268     		ldr	r2, [r4]
 106              	.L12:
 107 0010 9368     		ldr	r3, [r2, #8]
 108 0012 38EA0303 		bics	r3, r8, r3
 109 0016 0CBF     		ite	eq
 110 0018 0123     		moveq	r3, #1
 111 001a 0023     		movne	r3, #0
 112 001c B342     		cmp	r3, r6
 113 001e 01D1     		bne	.L17
 114 0020 0020     		movs	r0, #0
 115 0022 2DE0     		b	.L16
 116              	.L17:
 117 0024 6B1C     		adds	r3, r5, #1
 118 0026 F3D0     		beq	.L12
 119 0028 FFF7FEFF 		bl	HAL_GetTick
ARM GAS  /tmp/ccYrA4o1.s 			page 3


 120 002c C01B     		subs	r0, r0, r7
 121 002e A842     		cmp	r0, r5
 122 0030 EDD3     		bcc	.L11
 123 0032 2368     		ldr	r3, [r4]
 124 0034 5A68     		ldr	r2, [r3, #4]
 125 0036 22F0E002 		bic	r2, r2, #224
 126 003a 5A60     		str	r2, [r3, #4]
 127 003c 6268     		ldr	r2, [r4, #4]
 128 003e B2F5827F 		cmp	r2, #260
 129 0042 0AD1     		bne	.L13
 130 0044 A268     		ldr	r2, [r4, #8]
 131 0046 B2F5004F 		cmp	r2, #32768
 132 004a 02D0     		beq	.L14
 133 004c B2F5806F 		cmp	r2, #1024
 134 0050 03D1     		bne	.L13
 135              	.L14:
 136 0052 1A68     		ldr	r2, [r3]
 137 0054 22F04002 		bic	r2, r2, #64
 138 0058 1A60     		str	r2, [r3]
 139              	.L13:
 140 005a A26A     		ldr	r2, [r4, #40]
 141 005c B2F5005F 		cmp	r2, #8192
 142 0060 07D1     		bne	.L15
 143 0062 1A68     		ldr	r2, [r3]
 144 0064 22F40052 		bic	r2, r2, #8192
 145 0068 1A60     		str	r2, [r3]
 146 006a 1A68     		ldr	r2, [r3]
 147 006c 42F40052 		orr	r2, r2, #8192
 148 0070 1A60     		str	r2, [r3]
 149              	.L15:
 150 0072 0123     		movs	r3, #1
 151 0074 84F85130 		strb	r3, [r4, #81]
 152 0078 0023     		movs	r3, #0
 153 007a 0320     		movs	r0, #3
 154 007c 84F85030 		strb	r3, [r4, #80]
 155              	.L16:
 156 0080 BDE8F081 		pop	{r4, r5, r6, r7, r8, pc}
 158              		.section	.text.SPI_EndRxTxTransaction,"ax",%progbits
 159              		.align	1
 160              		.syntax unified
 161              		.thumb
 162              		.thumb_func
 163              		.fpu softvfp
 165              	SPI_EndRxTxTransaction:
 166              		@ args = 0, pretend = 0, frame = 0
 167              		@ frame_needed = 0, uses_anonymous_args = 0
 168 0000 13B5     		push	{r0, r1, r4, lr}
 169 0002 0B46     		mov	r3, r1
 170 0004 0092     		str	r2, [sp]
 171 0006 8021     		movs	r1, #128
 172 0008 0022     		movs	r2, #0
 173 000a 0446     		mov	r4, r0
 174 000c FFF7FEFF 		bl	SPI_WaitFlagStateUntilTimeout
 175 0010 20B1     		cbz	r0, .L25
 176 0012 0320     		movs	r0, #3
 177 0014 636D     		ldr	r3, [r4, #84]
 178 0016 43F02003 		orr	r3, r3, #32
ARM GAS  /tmp/ccYrA4o1.s 			page 4


 179 001a 6365     		str	r3, [r4, #84]
 180              	.L25:
 181 001c 02B0     		add	sp, sp, #8
 182              		@ sp needed
 183 001e 10BD     		pop	{r4, pc}
 185              		.section	.text.SPI_EndRxTransaction,"ax",%progbits
 186              		.align	1
 187              		.syntax unified
 188              		.thumb
 189              		.thumb_func
 190              		.fpu softvfp
 192              	SPI_EndRxTransaction:
 193              		@ args = 0, pretend = 0, frame = 0
 194              		@ frame_needed = 0, uses_anonymous_args = 0
 195 0000 37B5     		push	{r0, r1, r2, r4, r5, lr}
 196 0002 0B46     		mov	r3, r1
 197 0004 4168     		ldr	r1, [r0, #4]
 198 0006 0446     		mov	r4, r0
 199 0008 B1F5827F 		cmp	r1, #260
 200 000c 18D1     		bne	.L30
 201 000e 8168     		ldr	r1, [r0, #8]
 202 0010 B1F5004F 		cmp	r1, #32768
 203 0014 02D0     		beq	.L31
 204 0016 B1F5806F 		cmp	r1, #1024
 205 001a 11D1     		bne	.L30
 206              	.L31:
 207 001c 2568     		ldr	r5, [r4]
 208 001e B1F5806F 		cmp	r1, #1024
 209 0022 2868     		ldr	r0, [r5]
 210 0024 20F04000 		bic	r0, r0, #64
 211 0028 2860     		str	r0, [r5]
 212 002a 09D1     		bne	.L30
 213 002c 0092     		str	r2, [sp]
 214 002e 0121     		movs	r1, #1
 215 0030 0022     		movs	r2, #0
 216              	.L42:
 217 0032 2046     		mov	r0, r4
 218 0034 FFF7FEFF 		bl	SPI_WaitFlagStateUntilTimeout
 219 0038 30B9     		cbnz	r0, .L41
 220 003a 0020     		movs	r0, #0
 221              	.L33:
 222 003c 03B0     		add	sp, sp, #12
 223              		@ sp needed
 224 003e 30BD     		pop	{r4, r5, pc}
 225              	.L30:
 226 0040 0092     		str	r2, [sp]
 227 0042 8021     		movs	r1, #128
 228 0044 0022     		movs	r2, #0
 229 0046 F4E7     		b	.L42
 230              	.L41:
 231 0048 636D     		ldr	r3, [r4, #84]
 232 004a 0320     		movs	r0, #3
 233 004c 43F02003 		orr	r3, r3, #32
 234 0050 6365     		str	r3, [r4, #84]
 235 0052 F3E7     		b	.L33
 237              		.section	.text.HAL_SPI_MspInit,"ax",%progbits
 238              		.align	1
ARM GAS  /tmp/ccYrA4o1.s 			page 5


 239              		.weak	HAL_SPI_MspInit
 240              		.syntax unified
 241              		.thumb
 242              		.thumb_func
 243              		.fpu softvfp
 245              	HAL_SPI_MspInit:
 246              		@ args = 0, pretend = 0, frame = 0
 247              		@ frame_needed = 0, uses_anonymous_args = 0
 248              		@ link register save eliminated.
 249 0000 7047     		bx	lr
 251              		.section	.text.HAL_SPI_Init,"ax",%progbits
 252              		.align	1
 253              		.global	HAL_SPI_Init
 254              		.syntax unified
 255              		.thumb
 256              		.thumb_func
 257              		.fpu softvfp
 259              	HAL_SPI_Init:
 260              		@ args = 0, pretend = 0, frame = 0
 261              		@ frame_needed = 0, uses_anonymous_args = 0
 262 0000 38B5     		push	{r3, r4, r5, lr}
 263 0002 0446     		mov	r4, r0
 264 0004 0028     		cmp	r0, #0
 265 0006 3FD0     		beq	.L48
 266 0008 90F85130 		ldrb	r3, [r0, #81]	@ zero_extendqisi2
 267 000c 03F0FF02 		and	r2, r3, #255
 268 0010 1BB9     		cbnz	r3, .L46
 269 0012 80F85020 		strb	r2, [r0, #80]
 270 0016 FFF7FEFF 		bl	HAL_SPI_MspInit
 271              	.L46:
 272 001a 0223     		movs	r3, #2
 273 001c 2268     		ldr	r2, [r4]
 274 001e 84F85130 		strb	r3, [r4, #81]
 275 0022 1368     		ldr	r3, [r2]
 276 0024 A06A     		ldr	r0, [r4, #40]
 277 0026 23F04003 		bic	r3, r3, #64
 278 002a 1360     		str	r3, [r2]
 279 002c D4E90135 		ldrd	r3, r5, [r4, #4]
 280 0030 2B43     		orrs	r3, r3, r5
 281 0032 E568     		ldr	r5, [r4, #12]
 282 0034 A169     		ldr	r1, [r4, #24]
 283 0036 2B43     		orrs	r3, r3, r5
 284 0038 2569     		ldr	r5, [r4, #16]
 285 003a B0F5005F 		cmp	r0, #8192
 286 003e 43EA0503 		orr	r3, r3, r5
 287 0042 6569     		ldr	r5, [r4, #20]
 288 0044 43EA0503 		orr	r3, r3, r5
 289 0048 E569     		ldr	r5, [r4, #28]
 290 004a 43EA0503 		orr	r3, r3, r5
 291 004e 256A     		ldr	r5, [r4, #32]
 292 0050 43EA0503 		orr	r3, r3, r5
 293 0054 43EA0003 		orr	r3, r3, r0
 294 0058 01F40075 		and	r5, r1, #512
 295 005c 43EA0503 		orr	r3, r3, r5
 296 0060 1360     		str	r3, [r2]
 297 0062 4FEA1141 		lsr	r1, r1, #16
 298 0066 08BF     		it	eq
ARM GAS  /tmp/ccYrA4o1.s 			page 6


 299 0068 E36A     		ldreq	r3, [r4, #44]
 300 006a 01F00401 		and	r1, r1, #4
 301 006e 5160     		str	r1, [r2, #4]
 302 0070 08BF     		it	eq
 303 0072 1361     		streq	r3, [r2, #16]
 304 0074 D369     		ldr	r3, [r2, #28]
 305 0076 0020     		movs	r0, #0
 306 0078 23F40063 		bic	r3, r3, #2048
 307 007c D361     		str	r3, [r2, #28]
 308 007e 0123     		movs	r3, #1
 309 0080 6065     		str	r0, [r4, #84]
 310 0082 84F85130 		strb	r3, [r4, #81]
 311              	.L45:
 312 0086 38BD     		pop	{r3, r4, r5, pc}
 313              	.L48:
 314 0088 0120     		movs	r0, #1
 315 008a FCE7     		b	.L45
 317              		.section	.text.HAL_SPI_MspDeInit,"ax",%progbits
 318              		.align	1
 319              		.weak	HAL_SPI_MspDeInit
 320              		.syntax unified
 321              		.thumb
 322              		.thumb_func
 323              		.fpu softvfp
 325              	HAL_SPI_MspDeInit:
 326              		@ args = 0, pretend = 0, frame = 0
 327              		@ frame_needed = 0, uses_anonymous_args = 0
 328              		@ link register save eliminated.
 329 0000 7047     		bx	lr
 331              		.section	.text.HAL_SPI_DeInit,"ax",%progbits
 332              		.align	1
 333              		.global	HAL_SPI_DeInit
 334              		.syntax unified
 335              		.thumb
 336              		.thumb_func
 337              		.fpu softvfp
 339              	HAL_SPI_DeInit:
 340              		@ args = 0, pretend = 0, frame = 0
 341              		@ frame_needed = 0, uses_anonymous_args = 0
 342 0000 10B5     		push	{r4, lr}
 343 0002 0446     		mov	r4, r0
 344 0004 80B1     		cbz	r0, .L52
 345 0006 0223     		movs	r3, #2
 346 0008 0268     		ldr	r2, [r0]
 347 000a 80F85130 		strb	r3, [r0, #81]
 348 000e 1368     		ldr	r3, [r2]
 349 0010 23F04003 		bic	r3, r3, #64
 350 0014 1360     		str	r3, [r2]
 351 0016 FFF7FEFF 		bl	HAL_SPI_MspDeInit
 352 001a 0020     		movs	r0, #0
 353 001c 6065     		str	r0, [r4, #84]
 354 001e 84F85000 		strb	r0, [r4, #80]
 355 0022 84F85100 		strb	r0, [r4, #81]
 356              	.L51:
 357 0026 10BD     		pop	{r4, pc}
 358              	.L52:
 359 0028 0120     		movs	r0, #1
ARM GAS  /tmp/ccYrA4o1.s 			page 7


 360 002a FCE7     		b	.L51
 362              		.section	.text.HAL_SPI_Transmit,"ax",%progbits
 363              		.align	1
 364              		.global	HAL_SPI_Transmit
 365              		.syntax unified
 366              		.thumb
 367              		.thumb_func
 368              		.fpu softvfp
 370              	HAL_SPI_Transmit:
 371              		@ args = 0, pretend = 0, frame = 8
 372              		@ frame_needed = 0, uses_anonymous_args = 0
 373 0000 2DE9F743 		push	{r0, r1, r2, r4, r5, r6, r7, r8, r9, lr}
 374 0004 1F46     		mov	r7, r3
 375 0006 90F85030 		ldrb	r3, [r0, #80]	@ zero_extendqisi2
 376 000a 0446     		mov	r4, r0
 377 000c 012B     		cmp	r3, #1
 378 000e 0E46     		mov	r6, r1
 379 0010 9046     		mov	r8, r2
 380 0012 00F0B180 		beq	.L78
 381 0016 0123     		movs	r3, #1
 382 0018 80F85030 		strb	r3, [r0, #80]
 383 001c FFF7FEFF 		bl	HAL_GetTick
 384 0020 94F85130 		ldrb	r3, [r4, #81]	@ zero_extendqisi2
 385 0024 8146     		mov	r9, r0
 386 0026 012B     		cmp	r3, #1
 387 0028 D8B2     		uxtb	r0, r3
 388 002a 40F0A380 		bne	.L79
 389 002e 002E     		cmp	r6, #0
 390 0030 75D0     		beq	.L55
 391 0032 B8F1000F 		cmp	r8, #0
 392 0036 72D0     		beq	.L55
 393 0038 0323     		movs	r3, #3
 394 003a 84F85130 		strb	r3, [r4, #81]
 395 003e 0023     		movs	r3, #0
 396 0040 6365     		str	r3, [r4, #84]
 397 0042 C4E91033 		strd	r3, r3, [r4, #64]
 398 0046 A4F83680 		strh	r8, [r4, #54]	@ movhi
 399 004a A363     		str	r3, [r4, #56]
 400 004c E387     		strh	r3, [r4, #62]	@ movhi
 401 004e A387     		strh	r3, [r4, #60]	@ movhi
 402 0050 A368     		ldr	r3, [r4, #8]
 403 0052 2568     		ldr	r5, [r4]
 404 0054 B3F5004F 		cmp	r3, #32768
 405 0058 08BF     		it	eq
 406 005a 2B68     		ldreq	r3, [r5]
 407 005c 2663     		str	r6, [r4, #48]
 408 005e 08BF     		it	eq
 409 0060 43F48043 		orreq	r3, r3, #16384
 410 0064 A4F83480 		strh	r8, [r4, #52]	@ movhi
 411 0068 08BF     		it	eq
 412 006a 2B60     		streq	r3, [r5]
 413 006c A36A     		ldr	r3, [r4, #40]
 414 006e B3F5005F 		cmp	r3, #8192
 415 0072 07D1     		bne	.L57
 416 0074 2B68     		ldr	r3, [r5]
 417 0076 23F40053 		bic	r3, r3, #8192
 418 007a 2B60     		str	r3, [r5]
ARM GAS  /tmp/ccYrA4o1.s 			page 8


 419 007c 2B68     		ldr	r3, [r5]
 420 007e 43F40053 		orr	r3, r3, #8192
 421 0082 2B60     		str	r3, [r5]
 422              	.L57:
 423 0084 2B68     		ldr	r3, [r5]
 424 0086 E268     		ldr	r2, [r4, #12]
 425 0088 5B06     		lsls	r3, r3, #25
 426 008a 5EBF     		ittt	pl
 427 008c 2B68     		ldrpl	r3, [r5]
 428 008e 43F04003 		orrpl	r3, r3, #64
 429 0092 2B60     		strpl	r3, [r5]
 430 0094 B2F5006F 		cmp	r2, #2048
 431 0098 6368     		ldr	r3, [r4, #4]
 432 009a 49D1     		bne	.L59
 433 009c 13B1     		cbz	r3, .L60
 434 009e B8F1010F 		cmp	r8, #1
 435 00a2 07D1     		bne	.L64
 436              	.L60:
 437 00a4 36F8023B 		ldrh	r3, [r6], #2
 438 00a8 EB60     		str	r3, [r5, #12]
 439 00aa 2663     		str	r6, [r4, #48]
 440              	.L98:
 441 00ac E38E     		ldrh	r3, [r4, #54]
 442 00ae 013B     		subs	r3, r3, #1
 443 00b0 9BB2     		uxth	r3, r3
 444 00b2 E386     		strh	r3, [r4, #54]	@ movhi
 445              	.L64:
 446 00b4 E38E     		ldrh	r3, [r4, #54]
 447 00b6 9BB2     		uxth	r3, r3
 448 00b8 F3B9     		cbnz	r3, .L65
 449              	.L75:
 450 00ba A36A     		ldr	r3, [r4, #40]
 451 00bc B3F5005F 		cmp	r3, #8192
 452 00c0 04D1     		bne	.L67
 453 00c2 2268     		ldr	r2, [r4]
 454 00c4 1368     		ldr	r3, [r2]
 455 00c6 43F48053 		orr	r3, r3, #4096
 456 00ca 1360     		str	r3, [r2]
 457              	.L67:
 458 00cc 4A46     		mov	r2, r9
 459 00ce 3946     		mov	r1, r7
 460 00d0 2046     		mov	r0, r4
 461 00d2 FFF7FEFF 		bl	SPI_EndRxTxTransaction
 462 00d6 08B1     		cbz	r0, .L76
 463 00d8 2023     		movs	r3, #32
 464 00da 6365     		str	r3, [r4, #84]
 465              	.L76:
 466 00dc A368     		ldr	r3, [r4, #8]
 467 00de 33B9     		cbnz	r3, .L77
 468 00e0 0193     		str	r3, [sp, #4]
 469 00e2 2368     		ldr	r3, [r4]
 470 00e4 DA68     		ldr	r2, [r3, #12]
 471 00e6 0192     		str	r2, [sp, #4]
 472 00e8 9B68     		ldr	r3, [r3, #8]
 473 00ea 0193     		str	r3, [sp, #4]
 474 00ec 019B     		ldr	r3, [sp, #4]
 475              	.L77:
ARM GAS  /tmp/ccYrA4o1.s 			page 9


 476 00ee 606D     		ldr	r0, [r4, #84]
 477 00f0 0038     		subs	r0, r0, #0
 478 00f2 18BF     		it	ne
 479 00f4 0120     		movne	r0, #1
 480 00f6 12E0     		b	.L55
 481              	.L65:
 482 00f8 2268     		ldr	r2, [r4]
 483 00fa 9368     		ldr	r3, [r2, #8]
 484 00fc 9807     		lsls	r0, r3, #30
 485 00fe 05D5     		bpl	.L62
 486 0100 236B     		ldr	r3, [r4, #48]
 487 0102 33F8021B 		ldrh	r1, [r3], #2
 488 0106 D160     		str	r1, [r2, #12]
 489 0108 2363     		str	r3, [r4, #48]
 490 010a CFE7     		b	.L98
 491              	.L62:
 492 010c FFF7FEFF 		bl	HAL_GetTick
 493 0110 A0EB0900 		sub	r0, r0, r9
 494 0114 B842     		cmp	r0, r7
 495 0116 CDD3     		bcc	.L64
 496 0118 791C     		adds	r1, r7, #1
 497 011a CBD0     		beq	.L64
 498              	.L72:
 499 011c 0320     		movs	r0, #3
 500              	.L55:
 501 011e 0123     		movs	r3, #1
 502 0120 84F85130 		strb	r3, [r4, #81]
 503 0124 0023     		movs	r3, #0
 504 0126 84F85030 		strb	r3, [r4, #80]
 505              	.L54:
 506 012a 03B0     		add	sp, sp, #12
 507              		@ sp needed
 508 012c BDE8F083 		pop	{r4, r5, r6, r7, r8, r9, pc}
 509              	.L59:
 510 0130 13B1     		cbz	r3, .L68
 511 0132 B8F1010F 		cmp	r8, #1
 512 0136 08D1     		bne	.L73
 513              	.L68:
 514 0138 3378     		ldrb	r3, [r6]	@ zero_extendqisi2
 515 013a 2B73     		strb	r3, [r5, #12]
 516              	.L99:
 517 013c 236B     		ldr	r3, [r4, #48]
 518 013e 0133     		adds	r3, r3, #1
 519 0140 2363     		str	r3, [r4, #48]
 520 0142 E38E     		ldrh	r3, [r4, #54]
 521 0144 013B     		subs	r3, r3, #1
 522 0146 9BB2     		uxth	r3, r3
 523 0148 E386     		strh	r3, [r4, #54]	@ movhi
 524              	.L73:
 525 014a E38E     		ldrh	r3, [r4, #54]
 526 014c 9BB2     		uxth	r3, r3
 527 014e 002B     		cmp	r3, #0
 528 0150 B3D0     		beq	.L75
 529 0152 2368     		ldr	r3, [r4]
 530 0154 9A68     		ldr	r2, [r3, #8]
 531 0156 9207     		lsls	r2, r2, #30
 532 0158 03D5     		bpl	.L70
ARM GAS  /tmp/ccYrA4o1.s 			page 10


 533 015a 226B     		ldr	r2, [r4, #48]
 534 015c 1278     		ldrb	r2, [r2]	@ zero_extendqisi2
 535 015e 1A73     		strb	r2, [r3, #12]
 536 0160 ECE7     		b	.L99
 537              	.L70:
 538 0162 FFF7FEFF 		bl	HAL_GetTick
 539 0166 A0EB0900 		sub	r0, r0, r9
 540 016a B842     		cmp	r0, r7
 541 016c EDD3     		bcc	.L73
 542 016e 7B1C     		adds	r3, r7, #1
 543 0170 EBD0     		beq	.L73
 544 0172 D3E7     		b	.L72
 545              	.L79:
 546 0174 0220     		movs	r0, #2
 547 0176 D2E7     		b	.L55
 548              	.L78:
 549 0178 0220     		movs	r0, #2
 550 017a D6E7     		b	.L54
 552              		.section	.text.HAL_SPI_TransmitReceive,"ax",%progbits
 553              		.align	1
 554              		.global	HAL_SPI_TransmitReceive
 555              		.syntax unified
 556              		.thumb
 557              		.thumb_func
 558              		.fpu softvfp
 560              	HAL_SPI_TransmitReceive:
 561              		@ args = 4, pretend = 0, frame = 8
 562              		@ frame_needed = 0, uses_anonymous_args = 0
 563 0000 2DE9F043 		push	{r4, r5, r6, r7, r8, r9, lr}
 564 0004 9846     		mov	r8, r3
 565 0006 90F85030 		ldrb	r3, [r0, #80]	@ zero_extendqisi2
 566 000a 85B0     		sub	sp, sp, #20
 567 000c 012B     		cmp	r3, #1
 568 000e 0446     		mov	r4, r0
 569 0010 0D46     		mov	r5, r1
 570 0012 9146     		mov	r9, r2
 571 0014 0C9E     		ldr	r6, [sp, #48]
 572 0016 00F03681 		beq	.L131
 573 001a 0123     		movs	r3, #1
 574 001c 80F85030 		strb	r3, [r0, #80]
 575 0020 FFF7FEFF 		bl	HAL_GetTick
 576 0024 94F85120 		ldrb	r2, [r4, #81]	@ zero_extendqisi2
 577 0028 0746     		mov	r7, r0
 578 002a 012A     		cmp	r2, #1
 579 002c 6368     		ldr	r3, [r4, #4]
 580 002e D1B2     		uxtb	r1, r2
 581 0030 0AD0     		beq	.L102
 582 0032 B3F5827F 		cmp	r3, #260
 583 0036 40F02481 		bne	.L134
 584 003a A268     		ldr	r2, [r4, #8]
 585 003c 002A     		cmp	r2, #0
 586 003e 40F02081 		bne	.L134
 587 0042 0429     		cmp	r1, #4
 588 0044 40F01D81 		bne	.L134
 589              	.L102:
 590 0048 002D     		cmp	r5, #0
 591 004a 00F00C81 		beq	.L137
ARM GAS  /tmp/ccYrA4o1.s 			page 11


 592 004e B9F1000F 		cmp	r9, #0
 593 0052 00F00881 		beq	.L137
 594 0056 B8F1000F 		cmp	r8, #0
 595 005a 00F00481 		beq	.L137
 596 005e 94F85120 		ldrb	r2, [r4, #81]	@ zero_extendqisi2
 597 0062 A16A     		ldr	r1, [r4, #40]
 598 0064 042A     		cmp	r2, #4
 599 0066 1CBF     		itt	ne
 600 0068 0522     		movne	r2, #5
 601 006a 84F85120 		strbne	r2, [r4, #81]
 602 006e 0022     		movs	r2, #0
 603 0070 B1F5005F 		cmp	r1, #8192
 604 0074 6265     		str	r2, [r4, #84]
 605 0076 C4E91022 		strd	r2, r2, [r4, #64]
 606 007a A4F83E80 		strh	r8, [r4, #62]	@ movhi
 607 007e 2268     		ldr	r2, [r4]
 608 0080 C4F83890 		str	r9, [r4, #56]
 609 0084 A4F83C80 		strh	r8, [r4, #60]	@ movhi
 610 0088 2563     		str	r5, [r4, #48]
 611 008a A4F83680 		strh	r8, [r4, #54]	@ movhi
 612 008e A4F83480 		strh	r8, [r4, #52]	@ movhi
 613 0092 07D1     		bne	.L105
 614 0094 1168     		ldr	r1, [r2]
 615 0096 21F40051 		bic	r1, r1, #8192
 616 009a 1160     		str	r1, [r2]
 617 009c 1168     		ldr	r1, [r2]
 618 009e 41F40051 		orr	r1, r1, #8192
 619 00a2 1160     		str	r1, [r2]
 620              	.L105:
 621 00a4 1168     		ldr	r1, [r2]
 622 00a6 4906     		lsls	r1, r1, #25
 623 00a8 5EBF     		ittt	pl
 624 00aa 1168     		ldrpl	r1, [r2]
 625 00ac 41F04001 		orrpl	r1, r1, #64
 626 00b0 1160     		strpl	r1, [r2]
 627 00b2 E168     		ldr	r1, [r4, #12]
 628 00b4 B1F5006F 		cmp	r1, #2048
 629 00b8 68D1     		bne	.L107
 630 00ba 13B1     		cbz	r3, .L108
 631 00bc B8F1010F 		cmp	r8, #1
 632 00c0 07D1     		bne	.L109
 633              	.L108:
 634 00c2 35F8023B 		ldrh	r3, [r5], #2
 635 00c6 D360     		str	r3, [r2, #12]
 636 00c8 E38E     		ldrh	r3, [r4, #54]
 637 00ca 2563     		str	r5, [r4, #48]
 638 00cc 013B     		subs	r3, r3, #1
 639 00ce 9BB2     		uxth	r3, r3
 640 00d0 E386     		strh	r3, [r4, #54]	@ movhi
 641              	.L109:
 642 00d2 0125     		movs	r5, #1
 643              	.L164:
 644 00d4 E38E     		ldrh	r3, [r4, #54]
 645 00d6 9BB2     		uxth	r3, r3
 646 00d8 B3B9     		cbnz	r3, .L115
 647 00da E38F     		ldrh	r3, [r4, #62]
 648 00dc 9BB2     		uxth	r3, r3
ARM GAS  /tmp/ccYrA4o1.s 			page 12


 649 00de 9BB9     		cbnz	r3, .L115
 650              	.L127:
 651 00e0 A36A     		ldr	r3, [r4, #40]
 652 00e2 B3F5005F 		cmp	r3, #8192
 653 00e6 40F0A480 		bne	.L117
 654 00ea 0122     		movs	r2, #1
 655 00ec 3346     		mov	r3, r6
 656 00ee 1146     		mov	r1, r2
 657 00f0 2046     		mov	r0, r4
 658 00f2 0097     		str	r7, [sp]
 659 00f4 FFF7FEFF 		bl	SPI_WaitFlagStateUntilTimeout
 660 00f8 0028     		cmp	r0, #0
 661 00fa 00F09880 		beq	.L128
 662 00fe 636D     		ldr	r3, [r4, #84]
 663 0100 43F00203 		orr	r3, r3, #2
 664 0104 6365     		str	r3, [r4, #84]
 665 0106 20E0     		b	.L179
 666              	.L115:
 667 0108 2268     		ldr	r2, [r4]
 668 010a 9368     		ldr	r3, [r2, #8]
 669 010c 9B07     		lsls	r3, r3, #30
 670 010e 04D5     		bpl	.L111
 671 0110 E38E     		ldrh	r3, [r4, #54]
 672 0112 9BB2     		uxth	r3, r3
 673 0114 0BB1     		cbz	r3, .L111
 674 0116 1DBB     		cbnz	r5, .L112
 675              	.L113:
 676 0118 0025     		movs	r5, #0
 677              	.L111:
 678 011a 9168     		ldr	r1, [r2, #8]
 679 011c 11F00101 		ands	r1, r1, #1
 680 0120 0CD0     		beq	.L114
 681 0122 E38F     		ldrh	r3, [r4, #62]
 682 0124 9BB2     		uxth	r3, r3
 683 0126 4BB1     		cbz	r3, .L114
 684 0128 0D46     		mov	r5, r1
 685 012a D268     		ldr	r2, [r2, #12]
 686 012c A36B     		ldr	r3, [r4, #56]
 687 012e 23F8022B 		strh	r2, [r3], #2	@ movhi
 688 0132 A363     		str	r3, [r4, #56]
 689 0134 E38F     		ldrh	r3, [r4, #62]
 690 0136 013B     		subs	r3, r3, #1
 691 0138 9BB2     		uxth	r3, r3
 692 013a E387     		strh	r3, [r4, #62]	@ movhi
 693              	.L114:
 694 013c FFF7FEFF 		bl	HAL_GetTick
 695 0140 C01B     		subs	r0, r0, r7
 696 0142 B042     		cmp	r0, r6
 697 0144 C6D3     		bcc	.L164
 698 0146 701C     		adds	r0, r6, #1
 699 0148 C4D0     		beq	.L164
 700              	.L179:
 701 014a 0325     		movs	r5, #3
 702              	.L103:
 703 014c 0123     		movs	r3, #1
 704 014e 84F85130 		strb	r3, [r4, #81]
 705 0152 0023     		movs	r3, #0
ARM GAS  /tmp/ccYrA4o1.s 			page 13


 706 0154 84F85030 		strb	r3, [r4, #80]
 707              	.L101:
 708 0158 2846     		mov	r0, r5
 709 015a 05B0     		add	sp, sp, #20
 710              		@ sp needed
 711 015c BDE8F083 		pop	{r4, r5, r6, r7, r8, r9, pc}
 712              	.L112:
 713 0160 236B     		ldr	r3, [r4, #48]
 714 0162 33F8021B 		ldrh	r1, [r3], #2
 715 0166 D160     		str	r1, [r2, #12]
 716 0168 2363     		str	r3, [r4, #48]
 717 016a E38E     		ldrh	r3, [r4, #54]
 718 016c 013B     		subs	r3, r3, #1
 719 016e 9BB2     		uxth	r3, r3
 720 0170 E386     		strh	r3, [r4, #54]	@ movhi
 721 0172 E58E     		ldrh	r5, [r4, #54]
 722 0174 ADB2     		uxth	r5, r5
 723 0176 002D     		cmp	r5, #0
 724 0178 CED1     		bne	.L113
 725 017a A36A     		ldr	r3, [r4, #40]
 726 017c B3F5005F 		cmp	r3, #8192
 727 0180 CAD1     		bne	.L113
 728 0182 1368     		ldr	r3, [r2]
 729 0184 43F48053 		orr	r3, r3, #4096
 730 0188 1360     		str	r3, [r2]
 731 018a C6E7     		b	.L111
 732              	.L107:
 733 018c 13B1     		cbz	r3, .L118
 734 018e B8F1010F 		cmp	r8, #1
 735 0192 08D1     		bne	.L119
 736              	.L118:
 737 0194 2B78     		ldrb	r3, [r5]	@ zero_extendqisi2
 738 0196 1373     		strb	r3, [r2, #12]
 739 0198 236B     		ldr	r3, [r4, #48]
 740 019a 0133     		adds	r3, r3, #1
 741 019c 2363     		str	r3, [r4, #48]
 742 019e E38E     		ldrh	r3, [r4, #54]
 743 01a0 013B     		subs	r3, r3, #1
 744 01a2 9BB2     		uxth	r3, r3
 745 01a4 E386     		strh	r3, [r4, #54]	@ movhi
 746              	.L119:
 747 01a6 0125     		movs	r5, #1
 748              	.L165:
 749 01a8 E38E     		ldrh	r3, [r4, #54]
 750 01aa 9BB2     		uxth	r3, r3
 751 01ac 1BB9     		cbnz	r3, .L126
 752 01ae E38F     		ldrh	r3, [r4, #62]
 753 01b0 9BB2     		uxth	r3, r3
 754 01b2 002B     		cmp	r3, #0
 755 01b4 94D0     		beq	.L127
 756              	.L126:
 757 01b6 2268     		ldr	r2, [r4]
 758 01b8 9368     		ldr	r3, [r2, #8]
 759 01ba 9907     		lsls	r1, r3, #30
 760 01bc 04D5     		bpl	.L121
 761 01be E38E     		ldrh	r3, [r4, #54]
 762 01c0 9BB2     		uxth	r3, r3
ARM GAS  /tmp/ccYrA4o1.s 			page 14


 763 01c2 0BB1     		cbz	r3, .L121
 764 01c4 DDB9     		cbnz	r5, .L122
 765              	.L123:
 766 01c6 0025     		movs	r5, #0
 767              	.L121:
 768 01c8 2268     		ldr	r2, [r4]
 769 01ca 9168     		ldr	r1, [r2, #8]
 770 01cc 11F00101 		ands	r1, r1, #1
 771 01d0 0DD0     		beq	.L124
 772 01d2 E38F     		ldrh	r3, [r4, #62]
 773 01d4 9BB2     		uxth	r3, r3
 774 01d6 53B1     		cbz	r3, .L124
 775 01d8 0D46     		mov	r5, r1
 776 01da D268     		ldr	r2, [r2, #12]
 777 01dc A36B     		ldr	r3, [r4, #56]
 778 01de 1A70     		strb	r2, [r3]
 779 01e0 A36B     		ldr	r3, [r4, #56]
 780 01e2 0133     		adds	r3, r3, #1
 781 01e4 A363     		str	r3, [r4, #56]
 782 01e6 E38F     		ldrh	r3, [r4, #62]
 783 01e8 013B     		subs	r3, r3, #1
 784 01ea 9BB2     		uxth	r3, r3
 785 01ec E387     		strh	r3, [r4, #62]	@ movhi
 786              	.L124:
 787 01ee FFF7FEFF 		bl	HAL_GetTick
 788 01f2 C01B     		subs	r0, r0, r7
 789 01f4 B042     		cmp	r0, r6
 790 01f6 D7D3     		bcc	.L165
 791 01f8 731C     		adds	r3, r6, #1
 792 01fa D5D0     		beq	.L165
 793 01fc A5E7     		b	.L179
 794              	.L122:
 795 01fe 236B     		ldr	r3, [r4, #48]
 796 0200 1B78     		ldrb	r3, [r3]	@ zero_extendqisi2
 797 0202 1373     		strb	r3, [r2, #12]
 798 0204 236B     		ldr	r3, [r4, #48]
 799 0206 0133     		adds	r3, r3, #1
 800 0208 2363     		str	r3, [r4, #48]
 801 020a E38E     		ldrh	r3, [r4, #54]
 802 020c 013B     		subs	r3, r3, #1
 803 020e 9BB2     		uxth	r3, r3
 804 0210 E386     		strh	r3, [r4, #54]	@ movhi
 805 0212 E58E     		ldrh	r5, [r4, #54]
 806 0214 ADB2     		uxth	r5, r5
 807 0216 002D     		cmp	r5, #0
 808 0218 D5D1     		bne	.L123
 809 021a A36A     		ldr	r3, [r4, #40]
 810 021c B3F5005F 		cmp	r3, #8192
 811 0220 D1D1     		bne	.L123
 812 0222 2268     		ldr	r2, [r4]
 813 0224 1368     		ldr	r3, [r2]
 814 0226 43F48053 		orr	r3, r3, #4096
 815 022a 1360     		str	r3, [r2]
 816 022c CCE7     		b	.L121
 817              	.L128:
 818 022e 2368     		ldr	r3, [r4]
 819 0230 DB68     		ldr	r3, [r3, #12]
ARM GAS  /tmp/ccYrA4o1.s 			page 15


 820              	.L117:
 821 0232 2368     		ldr	r3, [r4]
 822 0234 9D68     		ldr	r5, [r3, #8]
 823 0236 15F01005 		ands	r5, r5, #16
 824 023a 0CD0     		beq	.L129
 825 023c 0125     		movs	r5, #1
 826 023e 626D     		ldr	r2, [r4, #84]
 827 0240 42F00202 		orr	r2, r2, #2
 828 0244 6265     		str	r2, [r4, #84]
 829 0246 1A68     		ldr	r2, [r3]
 830 0248 22F40052 		bic	r2, r2, #8192
 831 024c 1A60     		str	r2, [r3]
 832 024e 1A68     		ldr	r2, [r3]
 833 0250 42F40052 		orr	r2, r2, #8192
 834 0254 1A60     		str	r2, [r3]
 835              	.L129:
 836 0256 3A46     		mov	r2, r7
 837 0258 3146     		mov	r1, r6
 838 025a 2046     		mov	r0, r4
 839 025c FFF7FEFF 		bl	SPI_EndRxTxTransaction
 840 0260 18B1     		cbz	r0, .L130
 841 0262 2023     		movs	r3, #32
 842 0264 6365     		str	r3, [r4, #84]
 843              	.L137:
 844 0266 0125     		movs	r5, #1
 845 0268 70E7     		b	.L103
 846              	.L130:
 847 026a A368     		ldr	r3, [r4, #8]
 848 026c 002B     		cmp	r3, #0
 849 026e 7FF46DAF 		bne	.L103
 850 0272 0393     		str	r3, [sp, #12]
 851 0274 2368     		ldr	r3, [r4]
 852 0276 DA68     		ldr	r2, [r3, #12]
 853 0278 0392     		str	r2, [sp, #12]
 854 027a 9B68     		ldr	r3, [r3, #8]
 855 027c 0393     		str	r3, [sp, #12]
 856 027e 039B     		ldr	r3, [sp, #12]
 857 0280 64E7     		b	.L103
 858              	.L134:
 859 0282 0225     		movs	r5, #2
 860 0284 62E7     		b	.L103
 861              	.L131:
 862 0286 0225     		movs	r5, #2
 863 0288 66E7     		b	.L101
 865              		.section	.text.HAL_SPI_Receive,"ax",%progbits
 866              		.align	1
 867              		.global	HAL_SPI_Receive
 868              		.syntax unified
 869              		.thumb
 870              		.thumb_func
 871              		.fpu softvfp
 873              	HAL_SPI_Receive:
 874              		@ args = 0, pretend = 0, frame = 0
 875              		@ frame_needed = 0, uses_anonymous_args = 0
 876 0000 2DE9F341 		push	{r0, r1, r4, r5, r6, r7, r8, lr}
 877 0004 1D46     		mov	r5, r3
 878 0006 4368     		ldr	r3, [r0, #4]
ARM GAS  /tmp/ccYrA4o1.s 			page 16


 879 0008 0446     		mov	r4, r0
 880 000a B3F5827F 		cmp	r3, #260
 881 000e 8846     		mov	r8, r1
 882 0010 1746     		mov	r7, r2
 883 0012 0CD1     		bne	.L181
 884 0014 8368     		ldr	r3, [r0, #8]
 885 0016 53B9     		cbnz	r3, .L181
 886 0018 0423     		movs	r3, #4
 887 001a 80F85130 		strb	r3, [r0, #81]
 888 001e 1346     		mov	r3, r2
 889 0020 0095     		str	r5, [sp]
 890 0022 0A46     		mov	r2, r1
 891 0024 FFF7FEFF 		bl	HAL_SPI_TransmitReceive
 892              	.L182:
 893 0028 02B0     		add	sp, sp, #8
 894              		@ sp needed
 895 002a BDE8F081 		pop	{r4, r5, r6, r7, r8, pc}
 896              	.L181:
 897 002e 94F85030 		ldrb	r3, [r4, #80]	@ zero_extendqisi2
 898 0032 012B     		cmp	r3, #1
 899 0034 00F0CE80 		beq	.L205
 900 0038 0123     		movs	r3, #1
 901 003a 84F85030 		strb	r3, [r4, #80]
 902 003e FFF7FEFF 		bl	HAL_GetTick
 903 0042 94F85130 		ldrb	r3, [r4, #81]	@ zero_extendqisi2
 904 0046 0646     		mov	r6, r0
 905 0048 012B     		cmp	r3, #1
 906 004a D8B2     		uxtb	r0, r3
 907 004c 40F0C080 		bne	.L206
 908 0050 B8F1000F 		cmp	r8, #0
 909 0054 7DD0     		beq	.L183
 910 0056 002F     		cmp	r7, #0
 911 0058 7BD0     		beq	.L183
 912 005a 0423     		movs	r3, #4
 913 005c 84F85130 		strb	r3, [r4, #81]
 914 0060 0023     		movs	r3, #0
 915 0062 A26A     		ldr	r2, [r4, #40]
 916 0064 6365     		str	r3, [r4, #84]
 917 0066 B2F5005F 		cmp	r2, #8192
 918 006a C4E91033 		strd	r3, r3, [r4, #64]
 919 006e E787     		strh	r7, [r4, #62]	@ movhi
 920 0070 2363     		str	r3, [r4, #48]
 921 0072 A386     		strh	r3, [r4, #52]	@ movhi
 922 0074 E386     		strh	r3, [r4, #54]	@ movhi
 923 0076 C4F83880 		str	r8, [r4, #56]
 924 007a 2368     		ldr	r3, [r4]
 925 007c A787     		strh	r7, [r4, #60]	@ movhi
 926 007e 0BD1     		bne	.L184
 927 0080 1A68     		ldr	r2, [r3]
 928 0082 22F40052 		bic	r2, r2, #8192
 929 0086 1A60     		str	r2, [r3]
 930 0088 1A68     		ldr	r2, [r3]
 931 008a 42F40052 		orr	r2, r2, #8192
 932 008e 1A60     		str	r2, [r3]
 933 0090 E28F     		ldrh	r2, [r4, #62]
 934 0092 013A     		subs	r2, r2, #1
 935 0094 92B2     		uxth	r2, r2
ARM GAS  /tmp/ccYrA4o1.s 			page 17


 936 0096 E287     		strh	r2, [r4, #62]	@ movhi
 937              	.L184:
 938 0098 A268     		ldr	r2, [r4, #8]
 939 009a B2F5004F 		cmp	r2, #32768
 940 009e 02BF     		ittt	eq
 941 00a0 1A68     		ldreq	r2, [r3]
 942 00a2 22F48042 		biceq	r2, r2, #16384
 943 00a6 1A60     		streq	r2, [r3]
 944 00a8 1A68     		ldr	r2, [r3]
 945 00aa 5106     		lsls	r1, r2, #25
 946 00ac 5EBF     		ittt	pl
 947 00ae 1A68     		ldrpl	r2, [r3]
 948 00b0 42F04002 		orrpl	r2, r2, #64
 949 00b4 1A60     		strpl	r2, [r3]
 950 00b6 E368     		ldr	r3, [r4, #12]
 951 00b8 F3B1     		cbz	r3, .L187
 952              	.L188:
 953 00ba E38F     		ldrh	r3, [r4, #62]
 954 00bc 9BB2     		uxth	r3, r3
 955 00be FBB1     		cbz	r3, .L198
 956 00c0 2368     		ldr	r3, [r4]
 957 00c2 9A68     		ldr	r2, [r3, #8]
 958 00c4 D707     		lsls	r7, r2, #31
 959 00c6 4BD5     		bpl	.L194
 960 00c8 DA68     		ldr	r2, [r3, #12]
 961 00ca A36B     		ldr	r3, [r4, #56]
 962 00cc 23F8022B 		strh	r2, [r3], #2	@ movhi
 963 00d0 A363     		str	r3, [r4, #56]
 964 00d2 E38F     		ldrh	r3, [r4, #62]
 965 00d4 013B     		subs	r3, r3, #1
 966 00d6 9BB2     		uxth	r3, r3
 967 00d8 E387     		strh	r3, [r4, #62]	@ movhi
 968 00da EEE7     		b	.L188
 969              	.L191:
 970 00dc 2368     		ldr	r3, [r4]
 971 00de 9A68     		ldr	r2, [r3, #8]
 972 00e0 D207     		lsls	r2, r2, #31
 973 00e2 2ED5     		bpl	.L189
 974 00e4 1B7B     		ldrb	r3, [r3, #12]	@ zero_extendqisi2
 975 00e6 A26B     		ldr	r2, [r4, #56]
 976 00e8 1370     		strb	r3, [r2]
 977 00ea A36B     		ldr	r3, [r4, #56]
 978 00ec 0133     		adds	r3, r3, #1
 979 00ee A363     		str	r3, [r4, #56]
 980 00f0 E38F     		ldrh	r3, [r4, #62]
 981 00f2 013B     		subs	r3, r3, #1
 982 00f4 9BB2     		uxth	r3, r3
 983 00f6 E387     		strh	r3, [r4, #62]	@ movhi
 984              	.L187:
 985 00f8 E38F     		ldrh	r3, [r4, #62]
 986 00fa 9BB2     		uxth	r3, r3
 987 00fc 002B     		cmp	r3, #0
 988 00fe EDD1     		bne	.L191
 989              	.L198:
 990 0100 A36A     		ldr	r3, [r4, #40]
 991 0102 B3F5005F 		cmp	r3, #8192
 992 0106 33D0     		beq	.L192
ARM GAS  /tmp/ccYrA4o1.s 			page 18


 993              	.L193:
 994 0108 3246     		mov	r2, r6
 995 010a 2946     		mov	r1, r5
 996 010c 2046     		mov	r0, r4
 997 010e FFF7FEFF 		bl	SPI_EndRxTransaction
 998 0112 08B1     		cbz	r0, .L203
 999 0114 2023     		movs	r3, #32
 1000 0116 6365     		str	r3, [r4, #84]
 1001              	.L203:
 1002 0118 2368     		ldr	r3, [r4]
 1003 011a 9A68     		ldr	r2, [r3, #8]
 1004 011c D206     		lsls	r2, r2, #27
 1005 011e 0BD5     		bpl	.L204
 1006 0120 626D     		ldr	r2, [r4, #84]
 1007 0122 42F00202 		orr	r2, r2, #2
 1008 0126 6265     		str	r2, [r4, #84]
 1009 0128 1A68     		ldr	r2, [r3]
 1010 012a 22F40052 		bic	r2, r2, #8192
 1011 012e 1A60     		str	r2, [r3]
 1012 0130 1A68     		ldr	r2, [r3]
 1013 0132 42F40052 		orr	r2, r2, #8192
 1014 0136 1A60     		str	r2, [r3]
 1015              	.L204:
 1016 0138 606D     		ldr	r0, [r4, #84]
 1017 013a 0038     		subs	r0, r0, #0
 1018 013c 18BF     		it	ne
 1019 013e 0120     		movne	r0, #1
 1020 0140 07E0     		b	.L183
 1021              	.L189:
 1022 0142 FFF7FEFF 		bl	HAL_GetTick
 1023 0146 801B     		subs	r0, r0, r6
 1024 0148 A842     		cmp	r0, r5
 1025 014a D5D3     		bcc	.L187
 1026 014c 6B1C     		adds	r3, r5, #1
 1027 014e D3D0     		beq	.L187
 1028              	.L227:
 1029 0150 0320     		movs	r0, #3
 1030              	.L183:
 1031 0152 0123     		movs	r3, #1
 1032 0154 84F85130 		strb	r3, [r4, #81]
 1033 0158 0023     		movs	r3, #0
 1034 015a 84F85030 		strb	r3, [r4, #80]
 1035 015e 63E7     		b	.L182
 1036              	.L194:
 1037 0160 FFF7FEFF 		bl	HAL_GetTick
 1038 0164 801B     		subs	r0, r0, r6
 1039 0166 A842     		cmp	r0, r5
 1040 0168 A7D3     		bcc	.L188
 1041 016a 681C     		adds	r0, r5, #1
 1042 016c A5D0     		beq	.L188
 1043 016e EFE7     		b	.L227
 1044              	.L192:
 1045 0170 2368     		ldr	r3, [r4]
 1046 0172 2046     		mov	r0, r4
 1047 0174 1A68     		ldr	r2, [r3]
 1048 0176 42F48052 		orr	r2, r2, #4096
 1049 017a 1A60     		str	r2, [r3]
ARM GAS  /tmp/ccYrA4o1.s 			page 19


 1050 017c 1A68     		ldr	r2, [r3]
 1051 017e D104     		lsls	r1, r2, #19
 1052 0180 42BF     		ittt	mi
 1053 0182 1A68     		ldrmi	r2, [r3]
 1054 0184 22F48052 		bicmi	r2, r2, #4096
 1055 0188 1A60     		strmi	r2, [r3]
 1056 018a 0122     		movs	r2, #1
 1057 018c 2B46     		mov	r3, r5
 1058 018e 1146     		mov	r1, r2
 1059 0190 0096     		str	r6, [sp]
 1060 0192 FFF7FEFF 		bl	SPI_WaitFlagStateUntilTimeout
 1061 0196 0028     		cmp	r0, #0
 1062 0198 DAD1     		bne	.L227
 1063 019a E168     		ldr	r1, [r4, #12]
 1064 019c 2268     		ldr	r2, [r4]
 1065 019e B1F5006F 		cmp	r1, #2048
 1066 01a2 0CBF     		ite	eq
 1067 01a4 D268     		ldreq	r2, [r2, #12]
 1068 01a6 127B     		ldrbne	r2, [r2, #12]	@ zero_extendqisi2
 1069 01a8 A36B     		ldr	r3, [r4, #56]
 1070 01aa 2046     		mov	r0, r4
 1071 01ac 0CBF     		ite	eq
 1072 01ae 1A80     		strheq	r2, [r3]	@ movhi
 1073 01b0 1A70     		strbne	r2, [r3]
 1074 01b2 0122     		movs	r2, #1
 1075 01b4 2B46     		mov	r3, r5
 1076 01b6 1146     		mov	r1, r2
 1077 01b8 0096     		str	r6, [sp]
 1078 01ba FFF7FEFF 		bl	SPI_WaitFlagStateUntilTimeout
 1079 01be 20B1     		cbz	r0, .L202
 1080 01c0 636D     		ldr	r3, [r4, #84]
 1081 01c2 43F00203 		orr	r3, r3, #2
 1082 01c6 6365     		str	r3, [r4, #84]
 1083 01c8 C2E7     		b	.L227
 1084              	.L202:
 1085 01ca 2368     		ldr	r3, [r4]
 1086 01cc DB68     		ldr	r3, [r3, #12]
 1087 01ce 9BE7     		b	.L193
 1088              	.L206:
 1089 01d0 0220     		movs	r0, #2
 1090 01d2 BEE7     		b	.L183
 1091              	.L205:
 1092 01d4 0220     		movs	r0, #2
 1093 01d6 27E7     		b	.L182
 1095              		.section	.text.HAL_SPI_Transmit_IT,"ax",%progbits
 1096              		.align	1
 1097              		.global	HAL_SPI_Transmit_IT
 1098              		.syntax unified
 1099              		.thumb
 1100              		.thumb_func
 1101              		.fpu softvfp
 1103              	HAL_SPI_Transmit_IT:
 1104              		@ args = 0, pretend = 0, frame = 0
 1105              		@ frame_needed = 0, uses_anonymous_args = 0
 1106              		@ link register save eliminated.
 1107 0000 0346     		mov	r3, r0
 1108 0002 90F85000 		ldrb	r0, [r0, #80]	@ zero_extendqisi2
ARM GAS  /tmp/ccYrA4o1.s 			page 20


 1109 0006 0128     		cmp	r0, #1
 1110 0008 46D0     		beq	.L234
 1111 000a 0120     		movs	r0, #1
 1112 000c 83F85000 		strb	r0, [r3, #80]
 1113 0010 0029     		cmp	r1, #0
 1114 0012 39D0     		beq	.L230
 1115 0014 002A     		cmp	r2, #0
 1116 0016 37D0     		beq	.L230
 1117 0018 93F85100 		ldrb	r0, [r3, #81]	@ zero_extendqisi2
 1118 001c 0128     		cmp	r0, #1
 1119 001e 37D1     		bne	.L237
 1120 0020 0320     		movs	r0, #3
 1121 0022 83F85100 		strb	r0, [r3, #81]
 1122 0026 0020     		movs	r0, #0
 1123 0028 1963     		str	r1, [r3, #48]
 1124 002a 5865     		str	r0, [r3, #84]
 1125 002c 1B49     		ldr	r1, .L240
 1126 002e DA86     		strh	r2, [r3, #54]	@ movhi
 1127 0030 9A86     		strh	r2, [r3, #52]	@ movhi
 1128 0032 D887     		strh	r0, [r3, #62]	@ movhi
 1129 0034 9863     		str	r0, [r3, #56]
 1130 0036 9887     		strh	r0, [r3, #60]	@ movhi
 1131 0038 1864     		str	r0, [r3, #64]
 1132 003a 194A     		ldr	r2, .L240+4
 1133 003c D868     		ldr	r0, [r3, #12]
 1134 003e 0028     		cmp	r0, #0
 1135 0040 08BF     		it	eq
 1136 0042 0A46     		moveq	r2, r1
 1137 0044 9968     		ldr	r1, [r3, #8]
 1138 0046 5A64     		str	r2, [r3, #68]
 1139 0048 1A68     		ldr	r2, [r3]
 1140 004a B1F5004F 		cmp	r1, #32768
 1141 004e 02BF     		ittt	eq
 1142 0050 1168     		ldreq	r1, [r2]
 1143 0052 41F48041 		orreq	r1, r1, #16384
 1144 0056 1160     		streq	r1, [r2]
 1145 0058 996A     		ldr	r1, [r3, #40]
 1146 005a B1F5005F 		cmp	r1, #8192
 1147 005e 07D1     		bne	.L233
 1148 0060 1168     		ldr	r1, [r2]
 1149 0062 21F40051 		bic	r1, r1, #8192
 1150 0066 1160     		str	r1, [r2]
 1151 0068 1168     		ldr	r1, [r2]
 1152 006a 41F40051 		orr	r1, r1, #8192
 1153 006e 1160     		str	r1, [r2]
 1154              	.L233:
 1155 0070 5168     		ldr	r1, [r2, #4]
 1156 0072 41F0A001 		orr	r1, r1, #160
 1157 0076 5160     		str	r1, [r2, #4]
 1158 0078 1068     		ldr	r0, [r2]
 1159 007a 10F04000 		ands	r0, r0, #64
 1160 007e 09D1     		bne	.L239
 1161 0080 1168     		ldr	r1, [r2]
 1162 0082 41F04001 		orr	r1, r1, #64
 1163 0086 1160     		str	r1, [r2]
 1164              	.L230:
 1165 0088 0022     		movs	r2, #0
ARM GAS  /tmp/ccYrA4o1.s 			page 21


 1166 008a 83F85020 		strb	r2, [r3, #80]
 1167 008e 7047     		bx	lr
 1168              	.L237:
 1169 0090 0220     		movs	r0, #2
 1170 0092 F9E7     		b	.L230
 1171              	.L239:
 1172 0094 0020     		movs	r0, #0
 1173 0096 F7E7     		b	.L230
 1174              	.L234:
 1175 0098 0220     		movs	r0, #2
 1176 009a 7047     		bx	lr
 1177              	.L241:
 1178              		.align	2
 1179              	.L240:
 1180 009c 00000000 		.word	SPI_TxISR_8BIT
 1181 00a0 00000000 		.word	SPI_TxISR_16BIT
 1183              		.section	.text.HAL_SPI_TransmitReceive_IT,"ax",%progbits
 1184              		.align	1
 1185              		.global	HAL_SPI_TransmitReceive_IT
 1186              		.syntax unified
 1187              		.thumb
 1188              		.thumb_func
 1189              		.fpu softvfp
 1191              	HAL_SPI_TransmitReceive_IT:
 1192              		@ args = 0, pretend = 0, frame = 0
 1193              		@ frame_needed = 0, uses_anonymous_args = 0
 1194 0000 30B5     		push	{r4, r5, lr}
 1195 0002 0446     		mov	r4, r0
 1196 0004 90F85000 		ldrb	r0, [r0, #80]	@ zero_extendqisi2
 1197 0008 0128     		cmp	r0, #1
 1198 000a 52D0     		beq	.L250
 1199 000c 0120     		movs	r0, #1
 1200 000e 84F85000 		strb	r0, [r4, #80]
 1201 0012 94F85100 		ldrb	r0, [r4, #81]	@ zero_extendqisi2
 1202 0016 0128     		cmp	r0, #1
 1203 0018 C5B2     		uxtb	r5, r0
 1204 001a 08D0     		beq	.L244
 1205 001c 6068     		ldr	r0, [r4, #4]
 1206 001e B0F5827F 		cmp	r0, #260
 1207 0022 40D1     		bne	.L253
 1208 0024 A068     		ldr	r0, [r4, #8]
 1209 0026 0028     		cmp	r0, #0
 1210 0028 3DD1     		bne	.L253
 1211 002a 042D     		cmp	r5, #4
 1212 002c 3BD1     		bne	.L253
 1213              	.L244:
 1214 002e 0029     		cmp	r1, #0
 1215 0030 3BD0     		beq	.L256
 1216 0032 002A     		cmp	r2, #0
 1217 0034 39D0     		beq	.L256
 1218 0036 002B     		cmp	r3, #0
 1219 0038 37D0     		beq	.L256
 1220 003a 94F85100 		ldrb	r0, [r4, #81]	@ zero_extendqisi2
 1221 003e A386     		strh	r3, [r4, #52]	@ movhi
 1222 0040 0428     		cmp	r0, #4
 1223 0042 1CBF     		itt	ne
 1224 0044 0520     		movne	r0, #5
ARM GAS  /tmp/ccYrA4o1.s 			page 22


 1225 0046 84F85100 		strbne	r0, [r4, #81]
 1226 004a 0020     		movs	r0, #0
 1227 004c A387     		strh	r3, [r4, #60]	@ movhi
 1228 004e 6065     		str	r0, [r4, #84]
 1229 0050 E386     		strh	r3, [r4, #54]	@ movhi
 1230 0052 E387     		strh	r3, [r4, #62]	@ movhi
 1231 0054 E368     		ldr	r3, [r4, #12]
 1232 0056 2163     		str	r1, [r4, #48]
 1233 0058 A263     		str	r2, [r4, #56]
 1234 005a 03B3     		cbz	r3, .L247
 1235 005c 164B     		ldr	r3, .L265
 1236 005e 2364     		str	r3, [r4, #64]
 1237 0060 164B     		ldr	r3, .L265+4
 1238              	.L264:
 1239 0062 A26A     		ldr	r2, [r4, #40]
 1240 0064 6364     		str	r3, [r4, #68]
 1241 0066 B2F5005F 		cmp	r2, #8192
 1242 006a 2368     		ldr	r3, [r4]
 1243 006c 07D1     		bne	.L249
 1244 006e 1A68     		ldr	r2, [r3]
 1245 0070 22F40052 		bic	r2, r2, #8192
 1246 0074 1A60     		str	r2, [r3]
 1247 0076 1A68     		ldr	r2, [r3]
 1248 0078 42F40052 		orr	r2, r2, #8192
 1249 007c 1A60     		str	r2, [r3]
 1250              	.L249:
 1251 007e 5A68     		ldr	r2, [r3, #4]
 1252 0080 42F0E002 		orr	r2, r2, #224
 1253 0084 5A60     		str	r2, [r3, #4]
 1254 0086 1868     		ldr	r0, [r3]
 1255 0088 10F04000 		ands	r0, r0, #64
 1256 008c 0FD1     		bne	.L257
 1257 008e 1A68     		ldr	r2, [r3]
 1258 0090 42F04002 		orr	r2, r2, #64
 1259 0094 1A60     		str	r2, [r3]
 1260              	.L245:
 1261 0096 0023     		movs	r3, #0
 1262 0098 84F85030 		strb	r3, [r4, #80]
 1263              	.L243:
 1264 009c 30BD     		pop	{r4, r5, pc}
 1265              	.L247:
 1266 009e 084B     		ldr	r3, .L265+8
 1267 00a0 2364     		str	r3, [r4, #64]
 1268 00a2 084B     		ldr	r3, .L265+12
 1269 00a4 DDE7     		b	.L264
 1270              	.L253:
 1271 00a6 0220     		movs	r0, #2
 1272 00a8 F5E7     		b	.L245
 1273              	.L256:
 1274 00aa 0120     		movs	r0, #1
 1275 00ac F3E7     		b	.L245
 1276              	.L257:
 1277 00ae 0020     		movs	r0, #0
 1278 00b0 F1E7     		b	.L245
 1279              	.L250:
 1280 00b2 0220     		movs	r0, #2
 1281 00b4 F2E7     		b	.L243
ARM GAS  /tmp/ccYrA4o1.s 			page 23


 1282              	.L266:
 1283 00b6 00BF     		.align	2
 1284              	.L265:
 1285 00b8 00000000 		.word	SPI_2linesRxISR_16BIT
 1286 00bc 00000000 		.word	SPI_2linesTxISR_16BIT
 1287 00c0 00000000 		.word	SPI_2linesRxISR_8BIT
 1288 00c4 00000000 		.word	SPI_2linesTxISR_8BIT
 1290              		.section	.text.HAL_SPI_Receive_IT,"ax",%progbits
 1291              		.align	1
 1292              		.global	HAL_SPI_Receive_IT
 1293              		.syntax unified
 1294              		.thumb
 1295              		.thumb_func
 1296              		.fpu softvfp
 1298              	HAL_SPI_Receive_IT:
 1299              		@ args = 0, pretend = 0, frame = 0
 1300              		@ frame_needed = 0, uses_anonymous_args = 0
 1301              		@ link register save eliminated.
 1302 0000 70B4     		push	{r4, r5, r6}
 1303 0002 8668     		ldr	r6, [r0, #8]
 1304 0004 0446     		mov	r4, r0
 1305 0006 0D46     		mov	r5, r1
 1306 0008 1346     		mov	r3, r2
 1307 000a 56B9     		cbnz	r6, .L268
 1308 000c 4268     		ldr	r2, [r0, #4]
 1309 000e B2F5827F 		cmp	r2, #260
 1310 0012 06D1     		bne	.L268
 1311 0014 0422     		movs	r2, #4
 1312 0016 80F85120 		strb	r2, [r0, #81]
 1313 001a 70BC     		pop	{r4, r5, r6}
 1314 001c 0A46     		mov	r2, r1
 1315 001e FFF7FEBF 		b	HAL_SPI_TransmitReceive_IT
 1316              	.L268:
 1317 0022 94F85020 		ldrb	r2, [r4, #80]	@ zero_extendqisi2
 1318 0026 012A     		cmp	r2, #1
 1319 0028 47D0     		beq	.L274
 1320 002a 0122     		movs	r2, #1
 1321 002c 84F85020 		strb	r2, [r4, #80]
 1322 0030 94F85120 		ldrb	r2, [r4, #81]	@ zero_extendqisi2
 1323 0034 012A     		cmp	r2, #1
 1324 0036 D0B2     		uxtb	r0, r2
 1325 0038 3BD1     		bne	.L275
 1326 003a 002D     		cmp	r5, #0
 1327 003c 34D0     		beq	.L270
 1328 003e 002B     		cmp	r3, #0
 1329 0040 32D0     		beq	.L270
 1330 0042 0422     		movs	r2, #4
 1331 0044 84F85120 		strb	r2, [r4, #81]
 1332 0048 0022     		movs	r2, #0
 1333 004a E168     		ldr	r1, [r4, #12]
 1334 004c 6265     		str	r2, [r4, #84]
 1335 004e A387     		strh	r3, [r4, #60]	@ movhi
 1336 0050 E387     		strh	r3, [r4, #62]	@ movhi
 1337 0052 2263     		str	r2, [r4, #48]
 1338 0054 E286     		strh	r2, [r4, #54]	@ movhi
 1339 0056 A286     		strh	r2, [r4, #52]	@ movhi
 1340 0058 6264     		str	r2, [r4, #68]
ARM GAS  /tmp/ccYrA4o1.s 			page 24


 1341 005a 194B     		ldr	r3, .L284
 1342 005c 194A     		ldr	r2, .L284+4
 1343 005e A563     		str	r5, [r4, #56]
 1344 0060 0029     		cmp	r1, #0
 1345 0062 08BF     		it	eq
 1346 0064 1346     		moveq	r3, r2
 1347 0066 2364     		str	r3, [r4, #64]
 1348 0068 2368     		ldr	r3, [r4]
 1349 006a B6F5004F 		cmp	r6, #32768
 1350 006e 02BF     		ittt	eq
 1351 0070 1A68     		ldreq	r2, [r3]
 1352 0072 22F48042 		biceq	r2, r2, #16384
 1353 0076 1A60     		streq	r2, [r3]
 1354 0078 A26A     		ldr	r2, [r4, #40]
 1355 007a B2F5005F 		cmp	r2, #8192
 1356 007e 07D1     		bne	.L273
 1357 0080 1A68     		ldr	r2, [r3]
 1358 0082 22F40052 		bic	r2, r2, #8192
 1359 0086 1A60     		str	r2, [r3]
 1360 0088 1A68     		ldr	r2, [r3]
 1361 008a 42F40052 		orr	r2, r2, #8192
 1362 008e 1A60     		str	r2, [r3]
 1363              	.L273:
 1364 0090 5A68     		ldr	r2, [r3, #4]
 1365 0092 42F06002 		orr	r2, r2, #96
 1366 0096 5A60     		str	r2, [r3, #4]
 1367 0098 1868     		ldr	r0, [r3]
 1368 009a 10F04000 		ands	r0, r0, #64
 1369 009e 0AD1     		bne	.L277
 1370 00a0 1A68     		ldr	r2, [r3]
 1371 00a2 42F04002 		orr	r2, r2, #64
 1372 00a6 1A60     		str	r2, [r3]
 1373              	.L270:
 1374 00a8 0023     		movs	r3, #0
 1375 00aa 84F85030 		strb	r3, [r4, #80]
 1376              	.L269:
 1377 00ae 70BC     		pop	{r4, r5, r6}
 1378 00b0 7047     		bx	lr
 1379              	.L275:
 1380 00b2 0220     		movs	r0, #2
 1381 00b4 F8E7     		b	.L270
 1382              	.L277:
 1383 00b6 0020     		movs	r0, #0
 1384 00b8 F6E7     		b	.L270
 1385              	.L274:
 1386 00ba 0220     		movs	r0, #2
 1387 00bc F7E7     		b	.L269
 1388              	.L285:
 1389 00be 00BF     		.align	2
 1390              	.L284:
 1391 00c0 00000000 		.word	SPI_RxISR_16BIT
 1392 00c4 00000000 		.word	SPI_RxISR_8BIT
 1394              		.section	.text.HAL_SPI_Transmit_DMA,"ax",%progbits
 1395              		.align	1
 1396              		.global	HAL_SPI_Transmit_DMA
 1397              		.syntax unified
 1398              		.thumb
ARM GAS  /tmp/ccYrA4o1.s 			page 25


 1399              		.thumb_func
 1400              		.fpu softvfp
 1402              	HAL_SPI_Transmit_DMA:
 1403              		@ args = 0, pretend = 0, frame = 0
 1404              		@ frame_needed = 0, uses_anonymous_args = 0
 1405 0000 38B5     		push	{r3, r4, r5, lr}
 1406 0002 90F85030 		ldrb	r3, [r0, #80]	@ zero_extendqisi2
 1407 0006 0446     		mov	r4, r0
 1408 0008 012B     		cmp	r3, #1
 1409 000a 5DD0     		beq	.L293
 1410 000c 0123     		movs	r3, #1
 1411 000e 80F85030 		strb	r3, [r0, #80]
 1412 0012 90F85130 		ldrb	r3, [r0, #81]	@ zero_extendqisi2
 1413 0016 012B     		cmp	r3, #1
 1414 0018 DDB2     		uxtb	r5, r3
 1415 001a 53D1     		bne	.L294
 1416 001c 0029     		cmp	r1, #0
 1417 001e 3AD0     		beq	.L288
 1418 0020 002A     		cmp	r2, #0
 1419 0022 38D0     		beq	.L288
 1420 0024 0323     		movs	r3, #3
 1421 0026 80F85130 		strb	r3, [r0, #81]
 1422 002a 0023     		movs	r3, #0
 1423 002c 4365     		str	r3, [r0, #84]
 1424 002e C0E91033 		strd	r3, r3, [r0, #64]
 1425 0032 C286     		strh	r2, [r0, #54]	@ movhi
 1426 0034 8363     		str	r3, [r0, #56]
 1427 0036 C387     		strh	r3, [r0, #62]	@ movhi
 1428 0038 8387     		strh	r3, [r0, #60]	@ movhi
 1429 003a 8368     		ldr	r3, [r0, #8]
 1430 003c 8286     		strh	r2, [r0, #52]	@ movhi
 1431 003e 0268     		ldr	r2, [r0]
 1432 0040 B3F5004F 		cmp	r3, #32768
 1433 0044 08BF     		it	eq
 1434 0046 1368     		ldreq	r3, [r2]
 1435 0048 0163     		str	r1, [r0, #48]
 1436 004a 04BF     		itt	eq
 1437 004c 43F48043 		orreq	r3, r3, #16384
 1438 0050 1360     		streq	r3, [r2]
 1439 0052 836A     		ldr	r3, [r0, #40]
 1440 0054 B3F5005F 		cmp	r3, #8192
 1441 0058 07D1     		bne	.L290
 1442 005a 1368     		ldr	r3, [r2]
 1443 005c 23F40053 		bic	r3, r3, #8192
 1444 0060 1360     		str	r3, [r2]
 1445 0062 1368     		ldr	r3, [r2]
 1446 0064 43F40053 		orr	r3, r3, #8192
 1447 0068 1360     		str	r3, [r2]
 1448              	.L290:
 1449 006a A06C     		ldr	r0, [r4, #72]
 1450 006c 174B     		ldr	r3, .L301
 1451 006e 0C32     		adds	r2, r2, #12
 1452 0070 C362     		str	r3, [r0, #44]
 1453 0072 174B     		ldr	r3, .L301+4
 1454 0074 8362     		str	r3, [r0, #40]
 1455 0076 174B     		ldr	r3, .L301+8
 1456 0078 0363     		str	r3, [r0, #48]
ARM GAS  /tmp/ccYrA4o1.s 			page 26


 1457 007a 0023     		movs	r3, #0
 1458 007c 4363     		str	r3, [r0, #52]
 1459 007e E38E     		ldrh	r3, [r4, #54]
 1460 0080 9BB2     		uxth	r3, r3
 1461 0082 FFF7FEFF 		bl	HAL_DMA_Start_IT
 1462 0086 58B1     		cbz	r0, .L291
 1463 0088 636D     		ldr	r3, [r4, #84]
 1464 008a 43F01003 		orr	r3, r3, #16
 1465 008e 6365     		str	r3, [r4, #84]
 1466 0090 0123     		movs	r3, #1
 1467 0092 84F85130 		strb	r3, [r4, #81]
 1468              	.L288:
 1469 0096 0023     		movs	r3, #0
 1470 0098 84F85030 		strb	r3, [r4, #80]
 1471              	.L287:
 1472 009c 2846     		mov	r0, r5
 1473 009e 38BD     		pop	{r3, r4, r5, pc}
 1474              	.L291:
 1475 00a0 2368     		ldr	r3, [r4]
 1476 00a2 0025     		movs	r5, #0
 1477 00a4 1A68     		ldr	r2, [r3]
 1478 00a6 5206     		lsls	r2, r2, #25
 1479 00a8 5EBF     		ittt	pl
 1480 00aa 1A68     		ldrpl	r2, [r3]
 1481 00ac 42F04002 		orrpl	r2, r2, #64
 1482 00b0 1A60     		strpl	r2, [r3]
 1483 00b2 5A68     		ldr	r2, [r3, #4]
 1484 00b4 42F02002 		orr	r2, r2, #32
 1485 00b8 5A60     		str	r2, [r3, #4]
 1486 00ba 5A68     		ldr	r2, [r3, #4]
 1487 00bc 42F00202 		orr	r2, r2, #2
 1488 00c0 5A60     		str	r2, [r3, #4]
 1489 00c2 E8E7     		b	.L288
 1490              	.L294:
 1491 00c4 0225     		movs	r5, #2
 1492 00c6 E6E7     		b	.L288
 1493              	.L293:
 1494 00c8 0225     		movs	r5, #2
 1495 00ca E7E7     		b	.L287
 1496              	.L302:
 1497              		.align	2
 1498              	.L301:
 1499 00cc 00000000 		.word	SPI_DMAHalfTransmitCplt
 1500 00d0 00000000 		.word	SPI_DMATransmitCplt
 1501 00d4 00000000 		.word	SPI_DMAError
 1503              		.section	.text.HAL_SPI_TransmitReceive_DMA,"ax",%progbits
 1504              		.align	1
 1505              		.global	HAL_SPI_TransmitReceive_DMA
 1506              		.syntax unified
 1507              		.thumb
 1508              		.thumb_func
 1509              		.fpu softvfp
 1511              	HAL_SPI_TransmitReceive_DMA:
 1512              		@ args = 0, pretend = 0, frame = 0
 1513              		@ frame_needed = 0, uses_anonymous_args = 0
 1514 0000 38B5     		push	{r3, r4, r5, lr}
 1515 0002 0446     		mov	r4, r0
ARM GAS  /tmp/ccYrA4o1.s 			page 27


 1516 0004 90F85000 		ldrb	r0, [r0, #80]	@ zero_extendqisi2
 1517 0008 0128     		cmp	r0, #1
 1518 000a 7FD0     		beq	.L314
 1519 000c 0120     		movs	r0, #1
 1520 000e 84F85000 		strb	r0, [r4, #80]
 1521 0012 94F85100 		ldrb	r0, [r4, #81]	@ zero_extendqisi2
 1522 0016 0128     		cmp	r0, #1
 1523 0018 C5B2     		uxtb	r5, r0
 1524 001a 08D0     		beq	.L305
 1525 001c 6068     		ldr	r0, [r4, #4]
 1526 001e B0F5827F 		cmp	r0, #260
 1527 0022 6FD1     		bne	.L317
 1528 0024 A068     		ldr	r0, [r4, #8]
 1529 0026 0028     		cmp	r0, #0
 1530 0028 6CD1     		bne	.L317
 1531 002a 042D     		cmp	r5, #4
 1532 002c 6AD1     		bne	.L317
 1533              	.L305:
 1534 002e 0029     		cmp	r1, #0
 1535 0030 6AD0     		beq	.L320
 1536 0032 002A     		cmp	r2, #0
 1537 0034 68D0     		beq	.L320
 1538 0036 002B     		cmp	r3, #0
 1539 0038 66D0     		beq	.L320
 1540 003a 94F85100 		ldrb	r0, [r4, #81]	@ zero_extendqisi2
 1541 003e A386     		strh	r3, [r4, #52]	@ movhi
 1542 0040 0428     		cmp	r0, #4
 1543 0042 1CBF     		itt	ne
 1544 0044 0520     		movne	r0, #5
 1545 0046 84F85100 		strbne	r0, [r4, #81]
 1546 004a 0020     		movs	r0, #0
 1547 004c A387     		strh	r3, [r4, #60]	@ movhi
 1548 004e 6065     		str	r0, [r4, #84]
 1549 0050 E386     		strh	r3, [r4, #54]	@ movhi
 1550 0052 E387     		strh	r3, [r4, #62]	@ movhi
 1551 0054 A36A     		ldr	r3, [r4, #40]
 1552 0056 2163     		str	r1, [r4, #48]
 1553 0058 B3F5005F 		cmp	r3, #8192
 1554 005c C4E91000 		strd	r0, r0, [r4, #64]
 1555 0060 2168     		ldr	r1, [r4]
 1556 0062 A263     		str	r2, [r4, #56]
 1557 0064 07D1     		bne	.L308
 1558 0066 0B68     		ldr	r3, [r1]
 1559 0068 23F40053 		bic	r3, r3, #8192
 1560 006c 0B60     		str	r3, [r1]
 1561 006e 0B68     		ldr	r3, [r1]
 1562 0070 43F40053 		orr	r3, r3, #8192
 1563 0074 0B60     		str	r3, [r1]
 1564              	.L308:
 1565 0076 94F85130 		ldrb	r3, [r4, #81]	@ zero_extendqisi2
 1566 007a E06C     		ldr	r0, [r4, #76]
 1567 007c 042B     		cmp	r3, #4
 1568 007e 0BBF     		itete	eq
 1569 0080 234B     		ldreq	r3, .L329
 1570 0082 244B     		ldrne	r3, .L329+4
 1571 0084 C362     		streq	r3, [r0, #44]
 1572 0086 C362     		strne	r3, [r0, #44]
ARM GAS  /tmp/ccYrA4o1.s 			page 28


 1573 0088 0CBF     		ite	eq
 1574 008a 234B     		ldreq	r3, .L329+8
 1575 008c 234B     		ldrne	r3, .L329+12
 1576 008e 0C31     		adds	r1, r1, #12
 1577 0090 8362     		str	r3, [r0, #40]
 1578 0092 234B     		ldr	r3, .L329+16
 1579 0094 0363     		str	r3, [r0, #48]
 1580 0096 0023     		movs	r3, #0
 1581 0098 4363     		str	r3, [r0, #52]
 1582 009a E38F     		ldrh	r3, [r4, #62]
 1583 009c 9BB2     		uxth	r3, r3
 1584 009e FFF7FEFF 		bl	HAL_DMA_Start_IT
 1585 00a2 0346     		mov	r3, r0
 1586 00a4 50B1     		cbz	r0, .L311
 1587              	.L328:
 1588 00a6 0120     		movs	r0, #1
 1589 00a8 636D     		ldr	r3, [r4, #84]
 1590 00aa 43F01003 		orr	r3, r3, #16
 1591 00ae 6365     		str	r3, [r4, #84]
 1592 00b0 84F85100 		strb	r0, [r4, #81]
 1593              	.L306:
 1594 00b4 0023     		movs	r3, #0
 1595 00b6 84F85030 		strb	r3, [r4, #80]
 1596              	.L304:
 1597 00ba 38BD     		pop	{r3, r4, r5, pc}
 1598              	.L311:
 1599 00bc 2268     		ldr	r2, [r4]
 1600 00be A06C     		ldr	r0, [r4, #72]
 1601 00c0 5168     		ldr	r1, [r2, #4]
 1602 00c2 0C32     		adds	r2, r2, #12
 1603 00c4 41F00101 		orr	r1, r1, #1
 1604 00c8 42F8081C 		str	r1, [r2, #-8]
 1605 00cc C0E90A33 		strd	r3, r3, [r0, #40]
 1606 00d0 C0E90C33 		strd	r3, r3, [r0, #48]
 1607 00d4 E38E     		ldrh	r3, [r4, #54]
 1608 00d6 216B     		ldr	r1, [r4, #48]
 1609 00d8 9BB2     		uxth	r3, r3
 1610 00da FFF7FEFF 		bl	HAL_DMA_Start_IT
 1611 00de 0028     		cmp	r0, #0
 1612 00e0 E1D1     		bne	.L328
 1613 00e2 2368     		ldr	r3, [r4]
 1614 00e4 1A68     		ldr	r2, [r3]
 1615 00e6 5206     		lsls	r2, r2, #25
 1616 00e8 5EBF     		ittt	pl
 1617 00ea 1A68     		ldrpl	r2, [r3]
 1618 00ec 42F04002 		orrpl	r2, r2, #64
 1619 00f0 1A60     		strpl	r2, [r3]
 1620 00f2 5A68     		ldr	r2, [r3, #4]
 1621 00f4 42F02002 		orr	r2, r2, #32
 1622 00f8 5A60     		str	r2, [r3, #4]
 1623 00fa 5A68     		ldr	r2, [r3, #4]
 1624 00fc 42F00202 		orr	r2, r2, #2
 1625 0100 5A60     		str	r2, [r3, #4]
 1626 0102 D7E7     		b	.L306
 1627              	.L317:
 1628 0104 0220     		movs	r0, #2
 1629 0106 D5E7     		b	.L306
ARM GAS  /tmp/ccYrA4o1.s 			page 29


 1630              	.L320:
 1631 0108 0120     		movs	r0, #1
 1632 010a D3E7     		b	.L306
 1633              	.L314:
 1634 010c 0220     		movs	r0, #2
 1635 010e D4E7     		b	.L304
 1636              	.L330:
 1637              		.align	2
 1638              	.L329:
 1639 0110 00000000 		.word	SPI_DMAHalfReceiveCplt
 1640 0114 00000000 		.word	SPI_DMAHalfTransmitReceiveCplt
 1641 0118 00000000 		.word	SPI_DMAReceiveCplt
 1642 011c 00000000 		.word	SPI_DMATransmitReceiveCplt
 1643 0120 00000000 		.word	SPI_DMAError
 1645              		.section	.text.HAL_SPI_Receive_DMA,"ax",%progbits
 1646              		.align	1
 1647              		.global	HAL_SPI_Receive_DMA
 1648              		.syntax unified
 1649              		.thumb
 1650              		.thumb_func
 1651              		.fpu softvfp
 1653              	HAL_SPI_Receive_DMA:
 1654              		@ args = 0, pretend = 0, frame = 0
 1655              		@ frame_needed = 0, uses_anonymous_args = 0
 1656 0000 2DE9F041 		push	{r4, r5, r6, r7, r8, lr}
 1657 0004 8768     		ldr	r7, [r0, #8]
 1658 0006 0446     		mov	r4, r0
 1659 0008 0D46     		mov	r5, r1
 1660 000a 1346     		mov	r3, r2
 1661 000c 5FB9     		cbnz	r7, .L332
 1662 000e 4268     		ldr	r2, [r0, #4]
 1663 0010 B2F5827F 		cmp	r2, #260
 1664 0014 07D1     		bne	.L332
 1665 0016 0422     		movs	r2, #4
 1666 0018 80F85120 		strb	r2, [r0, #81]
 1667 001c BDE8F041 		pop	{r4, r5, r6, r7, r8, lr}
 1668 0020 0A46     		mov	r2, r1
 1669 0022 FFF7FEBF 		b	HAL_SPI_TransmitReceive_DMA
 1670              	.L332:
 1671 0026 94F85020 		ldrb	r2, [r4, #80]	@ zero_extendqisi2
 1672 002a 012A     		cmp	r2, #1
 1673 002c 5ED0     		beq	.L339
 1674 002e 0122     		movs	r2, #1
 1675 0030 84F85020 		strb	r2, [r4, #80]
 1676 0034 94F85120 		ldrb	r2, [r4, #81]	@ zero_extendqisi2
 1677 0038 012A     		cmp	r2, #1
 1678 003a D6B2     		uxtb	r6, r2
 1679 003c 54D1     		bne	.L340
 1680 003e 002D     		cmp	r5, #0
 1681 0040 3AD0     		beq	.L334
 1682 0042 002B     		cmp	r3, #0
 1683 0044 38D0     		beq	.L334
 1684 0046 0422     		movs	r2, #4
 1685 0048 84F85120 		strb	r2, [r4, #81]
 1686 004c 0022     		movs	r2, #0
 1687 004e 2168     		ldr	r1, [r4]
 1688 0050 6265     		str	r2, [r4, #84]
ARM GAS  /tmp/ccYrA4o1.s 			page 30


 1689 0052 B7F5004F 		cmp	r7, #32768
 1690 0056 E387     		strh	r3, [r4, #62]	@ movhi
 1691 0058 E286     		strh	r2, [r4, #54]	@ movhi
 1692 005a A387     		strh	r3, [r4, #60]	@ movhi
 1693 005c 08BF     		it	eq
 1694 005e 0B68     		ldreq	r3, [r1]
 1695 0060 C4E91022 		strd	r2, r2, [r4, #64]
 1696 0064 08BF     		it	eq
 1697 0066 23F48043 		biceq	r3, r3, #16384
 1698 006a A563     		str	r5, [r4, #56]
 1699 006c A286     		strh	r2, [r4, #52]	@ movhi
 1700 006e 08BF     		it	eq
 1701 0070 0B60     		streq	r3, [r1]
 1702 0072 A36A     		ldr	r3, [r4, #40]
 1703 0074 B3F5005F 		cmp	r3, #8192
 1704 0078 07D1     		bne	.L336
 1705 007a 0B68     		ldr	r3, [r1]
 1706 007c 23F40053 		bic	r3, r3, #8192
 1707 0080 0B60     		str	r3, [r1]
 1708 0082 0B68     		ldr	r3, [r1]
 1709 0084 43F40053 		orr	r3, r3, #8192
 1710 0088 0B60     		str	r3, [r1]
 1711              	.L336:
 1712 008a E06C     		ldr	r0, [r4, #76]
 1713 008c 184B     		ldr	r3, .L347
 1714 008e 2A46     		mov	r2, r5
 1715 0090 C362     		str	r3, [r0, #44]
 1716 0092 184B     		ldr	r3, .L347+4
 1717 0094 0C31     		adds	r1, r1, #12
 1718 0096 8362     		str	r3, [r0, #40]
 1719 0098 174B     		ldr	r3, .L347+8
 1720 009a 0363     		str	r3, [r0, #48]
 1721 009c 0023     		movs	r3, #0
 1722 009e 4363     		str	r3, [r0, #52]
 1723 00a0 E38F     		ldrh	r3, [r4, #62]
 1724 00a2 9BB2     		uxth	r3, r3
 1725 00a4 FFF7FEFF 		bl	HAL_DMA_Start_IT
 1726 00a8 60B1     		cbz	r0, .L337
 1727 00aa 636D     		ldr	r3, [r4, #84]
 1728 00ac 43F01003 		orr	r3, r3, #16
 1729 00b0 6365     		str	r3, [r4, #84]
 1730 00b2 0123     		movs	r3, #1
 1731 00b4 84F85130 		strb	r3, [r4, #81]
 1732              	.L334:
 1733 00b8 0023     		movs	r3, #0
 1734 00ba 84F85030 		strb	r3, [r4, #80]
 1735              	.L333:
 1736 00be 3046     		mov	r0, r6
 1737 00c0 BDE8F081 		pop	{r4, r5, r6, r7, r8, pc}
 1738              	.L337:
 1739 00c4 2368     		ldr	r3, [r4]
 1740 00c6 0026     		movs	r6, #0
 1741 00c8 1A68     		ldr	r2, [r3]
 1742 00ca 5206     		lsls	r2, r2, #25
 1743 00cc 5EBF     		ittt	pl
 1744 00ce 1A68     		ldrpl	r2, [r3]
 1745 00d0 42F04002 		orrpl	r2, r2, #64
ARM GAS  /tmp/ccYrA4o1.s 			page 31


 1746 00d4 1A60     		strpl	r2, [r3]
 1747 00d6 5A68     		ldr	r2, [r3, #4]
 1748 00d8 42F02002 		orr	r2, r2, #32
 1749 00dc 5A60     		str	r2, [r3, #4]
 1750 00de 5A68     		ldr	r2, [r3, #4]
 1751 00e0 42F00102 		orr	r2, r2, #1
 1752 00e4 5A60     		str	r2, [r3, #4]
 1753 00e6 E7E7     		b	.L334
 1754              	.L340:
 1755 00e8 0226     		movs	r6, #2
 1756 00ea E5E7     		b	.L334
 1757              	.L339:
 1758 00ec 0226     		movs	r6, #2
 1759 00ee E6E7     		b	.L333
 1760              	.L348:
 1761              		.align	2
 1762              	.L347:
 1763 00f0 00000000 		.word	SPI_DMAHalfReceiveCplt
 1764 00f4 00000000 		.word	SPI_DMAReceiveCplt
 1765 00f8 00000000 		.word	SPI_DMAError
 1767              		.section	.text.HAL_SPI_Abort,"ax",%progbits
 1768              		.align	1
 1769              		.global	HAL_SPI_Abort
 1770              		.syntax unified
 1771              		.thumb
 1772              		.thumb_func
 1773              		.fpu softvfp
 1775              	HAL_SPI_Abort:
 1776              		@ args = 0, pretend = 0, frame = 16
 1777              		@ frame_needed = 0, uses_anonymous_args = 0
 1778 0000 1FB5     		push	{r0, r1, r2, r3, r4, lr}
 1779 0002 45F6C052 		movw	r2, #24000
 1780 0006 434B     		ldr	r3, .L395
 1781 0008 0446     		mov	r4, r0
 1782 000a 1B68     		ldr	r3, [r3]
 1783 000c B3FBF2F2 		udiv	r2, r3, r2
 1784 0010 6423     		movs	r3, #100
 1785 0012 5343     		muls	r3, r2, r3
 1786 0014 0293     		str	r3, [sp, #8]
 1787 0016 029B     		ldr	r3, [sp, #8]
 1788 0018 0193     		str	r3, [sp, #4]
 1789 001a 0368     		ldr	r3, [r0]
 1790 001c 5A68     		ldr	r2, [r3, #4]
 1791 001e 22F02002 		bic	r2, r2, #32
 1792 0022 5A60     		str	r2, [r3, #4]
 1793 0024 5A68     		ldr	r2, [r3, #4]
 1794 0026 1206     		lsls	r2, r2, #24
 1795 0028 0AD5     		bpl	.L350
 1796 002a 3B4A     		ldr	r2, .L395+4
 1797 002c 4264     		str	r2, [r0, #68]
 1798              	.L353:
 1799 002e 019A     		ldr	r2, [sp, #4]
 1800 0030 002A     		cmp	r2, #0
 1801 0032 57D1     		bne	.L351
 1802 0034 626D     		ldr	r2, [r4, #84]
 1803 0036 42F04002 		orr	r2, r2, #64
 1804 003a 6265     		str	r2, [r4, #84]
ARM GAS  /tmp/ccYrA4o1.s 			page 32


 1805              	.L352:
 1806 003c 029A     		ldr	r2, [sp, #8]
 1807 003e 0192     		str	r2, [sp, #4]
 1808              	.L350:
 1809 0040 5A68     		ldr	r2, [r3, #4]
 1810 0042 5006     		lsls	r0, r2, #25
 1811 0044 0AD5     		bpl	.L354
 1812 0046 354A     		ldr	r2, .L395+8
 1813 0048 2264     		str	r2, [r4, #64]
 1814              	.L357:
 1815 004a 019A     		ldr	r2, [sp, #4]
 1816 004c 002A     		cmp	r2, #0
 1817 004e 51D1     		bne	.L355
 1818 0050 626D     		ldr	r2, [r4, #84]
 1819 0052 42F04002 		orr	r2, r2, #64
 1820 0056 6265     		str	r2, [r4, #84]
 1821              	.L356:
 1822 0058 029A     		ldr	r2, [sp, #8]
 1823 005a 0192     		str	r2, [sp, #4]
 1824              	.L354:
 1825 005c 5B68     		ldr	r3, [r3, #4]
 1826 005e 9907     		lsls	r1, r3, #30
 1827 0060 14D5     		bpl	.L361
 1828 0062 A06C     		ldr	r0, [r4, #72]
 1829 0064 90B1     		cbz	r0, .L361
 1830 0066 0023     		movs	r3, #0
 1831 0068 4363     		str	r3, [r0, #52]
 1832 006a FFF7FEFF 		bl	HAL_DMA_Abort
 1833 006e 08B1     		cbz	r0, .L359
 1834 0070 4023     		movs	r3, #64
 1835 0072 6365     		str	r3, [r4, #84]
 1836              	.L359:
 1837 0074 2368     		ldr	r3, [r4]
 1838 0076 5A68     		ldr	r2, [r3, #4]
 1839 0078 22F00202 		bic	r2, r2, #2
 1840 007c 5A60     		str	r2, [r3, #4]
 1841              	.L362:
 1842 007e 019A     		ldr	r2, [sp, #4]
 1843 0080 002A     		cmp	r2, #0
 1844 0082 3FD1     		bne	.L360
 1845 0084 636D     		ldr	r3, [r4, #84]
 1846 0086 43F04003 		orr	r3, r3, #64
 1847 008a 6365     		str	r3, [r4, #84]
 1848              	.L361:
 1849 008c 2368     		ldr	r3, [r4]
 1850 008e 5B68     		ldr	r3, [r3, #4]
 1851 0090 DB07     		lsls	r3, r3, #31
 1852 0092 11D5     		bpl	.L363
 1853 0094 E06C     		ldr	r0, [r4, #76]
 1854 0096 78B1     		cbz	r0, .L363
 1855 0098 0023     		movs	r3, #0
 1856 009a 4363     		str	r3, [r0, #52]
 1857 009c FFF7FEFF 		bl	HAL_DMA_Abort
 1858 00a0 08B1     		cbz	r0, .L364
 1859 00a2 4023     		movs	r3, #64
 1860 00a4 6365     		str	r3, [r4, #84]
 1861              	.L364:
ARM GAS  /tmp/ccYrA4o1.s 			page 33


 1862 00a6 2368     		ldr	r3, [r4]
 1863 00a8 1A68     		ldr	r2, [r3]
 1864 00aa 22F04002 		bic	r2, r2, #64
 1865 00ae 1A60     		str	r2, [r3]
 1866 00b0 5A68     		ldr	r2, [r3, #4]
 1867 00b2 22F00102 		bic	r2, r2, #1
 1868 00b6 5A60     		str	r2, [r3, #4]
 1869              	.L363:
 1870 00b8 0023     		movs	r3, #0
 1871 00ba E387     		strh	r3, [r4, #62]	@ movhi
 1872 00bc E386     		strh	r3, [r4, #54]	@ movhi
 1873 00be 626D     		ldr	r2, [r4, #84]
 1874 00c0 402A     		cmp	r2, #64
 1875 00c2 1CBF     		itt	ne
 1876 00c4 6365     		strne	r3, [r4, #84]
 1877 00c6 1846     		movne	r0, r3
 1878 00c8 0393     		str	r3, [sp, #12]
 1879 00ca 2368     		ldr	r3, [r4]
 1880 00cc 08BF     		it	eq
 1881 00ce 0120     		moveq	r0, #1
 1882 00d0 DA68     		ldr	r2, [r3, #12]
 1883 00d2 0392     		str	r2, [sp, #12]
 1884 00d4 9B68     		ldr	r3, [r3, #8]
 1885 00d6 0393     		str	r3, [sp, #12]
 1886 00d8 039B     		ldr	r3, [sp, #12]
 1887 00da 0123     		movs	r3, #1
 1888 00dc 84F85130 		strb	r3, [r4, #81]
 1889 00e0 04B0     		add	sp, sp, #16
 1890              		@ sp needed
 1891 00e2 10BD     		pop	{r4, pc}
 1892              	.L351:
 1893 00e4 019A     		ldr	r2, [sp, #4]
 1894 00e6 013A     		subs	r2, r2, #1
 1895 00e8 0192     		str	r2, [sp, #4]
 1896 00ea 94F85120 		ldrb	r2, [r4, #81]	@ zero_extendqisi2
 1897 00ee 072A     		cmp	r2, #7
 1898 00f0 9DD1     		bne	.L353
 1899 00f2 A3E7     		b	.L352
 1900              	.L355:
 1901 00f4 019A     		ldr	r2, [sp, #4]
 1902 00f6 013A     		subs	r2, r2, #1
 1903 00f8 0192     		str	r2, [sp, #4]
 1904 00fa 94F85120 		ldrb	r2, [r4, #81]	@ zero_extendqisi2
 1905 00fe 072A     		cmp	r2, #7
 1906 0100 A3D1     		bne	.L357
 1907 0102 A9E7     		b	.L356
 1908              	.L360:
 1909 0104 019A     		ldr	r2, [sp, #4]
 1910 0106 013A     		subs	r2, r2, #1
 1911 0108 0192     		str	r2, [sp, #4]
 1912 010a 9A68     		ldr	r2, [r3, #8]
 1913 010c 9207     		lsls	r2, r2, #30
 1914 010e B6D5     		bpl	.L362
 1915 0110 BCE7     		b	.L361
 1916              	.L396:
 1917 0112 00BF     		.align	2
 1918              	.L395:
ARM GAS  /tmp/ccYrA4o1.s 			page 34


 1919 0114 00000000 		.word	SystemCoreClock
 1920 0118 00000000 		.word	SPI_AbortTx_ISR
 1921 011c 00000000 		.word	SPI_AbortRx_ISR
 1923              		.section	.text.HAL_SPI_DMAPause,"ax",%progbits
 1924              		.align	1
 1925              		.global	HAL_SPI_DMAPause
 1926              		.syntax unified
 1927              		.thumb
 1928              		.thumb_func
 1929              		.fpu softvfp
 1931              	HAL_SPI_DMAPause:
 1932              		@ args = 0, pretend = 0, frame = 0
 1933              		@ frame_needed = 0, uses_anonymous_args = 0
 1934              		@ link register save eliminated.
 1935 0000 90F85020 		ldrb	r2, [r0, #80]	@ zero_extendqisi2
 1936 0004 0346     		mov	r3, r0
 1937 0006 012A     		cmp	r2, #1
 1938 0008 1DBF     		ittte	ne
 1939 000a 0168     		ldrne	r1, [r0]
 1940 000c 0020     		movne	r0, #0
 1941 000e 4A68     		ldrne	r2, [r1, #4]
 1942 0010 0220     		moveq	r0, #2
 1943 0012 1EBF     		ittt	ne
 1944 0014 22F00302 		bicne	r2, r2, #3
 1945 0018 4A60     		strne	r2, [r1, #4]
 1946 001a 83F85000 		strbne	r0, [r3, #80]
 1947 001e 7047     		bx	lr
 1949              		.section	.text.HAL_SPI_DMAResume,"ax",%progbits
 1950              		.align	1
 1951              		.global	HAL_SPI_DMAResume
 1952              		.syntax unified
 1953              		.thumb
 1954              		.thumb_func
 1955              		.fpu softvfp
 1957              	HAL_SPI_DMAResume:
 1958              		@ args = 0, pretend = 0, frame = 0
 1959              		@ frame_needed = 0, uses_anonymous_args = 0
 1960              		@ link register save eliminated.
 1961 0000 90F85020 		ldrb	r2, [r0, #80]	@ zero_extendqisi2
 1962 0004 0346     		mov	r3, r0
 1963 0006 012A     		cmp	r2, #1
 1964 0008 1DBF     		ittte	ne
 1965 000a 0168     		ldrne	r1, [r0]
 1966 000c 0020     		movne	r0, #0
 1967 000e 4A68     		ldrne	r2, [r1, #4]
 1968 0010 0220     		moveq	r0, #2
 1969 0012 1EBF     		ittt	ne
 1970 0014 42F00302 		orrne	r2, r2, #3
 1971 0018 4A60     		strne	r2, [r1, #4]
 1972 001a 83F85000 		strbne	r0, [r3, #80]
 1973 001e 7047     		bx	lr
 1975              		.section	.text.HAL_SPI_DMAStop,"ax",%progbits
 1976              		.align	1
 1977              		.global	HAL_SPI_DMAStop
 1978              		.syntax unified
 1979              		.thumb
 1980              		.thumb_func
ARM GAS  /tmp/ccYrA4o1.s 			page 35


 1981              		.fpu softvfp
 1983              	HAL_SPI_DMAStop:
 1984              		@ args = 0, pretend = 0, frame = 0
 1985              		@ frame_needed = 0, uses_anonymous_args = 0
 1986 0000 38B5     		push	{r3, r4, r5, lr}
 1987 0002 0446     		mov	r4, r0
 1988 0004 806C     		ldr	r0, [r0, #72]
 1989 0006 A0B9     		cbnz	r0, .L404
 1990              	.L406:
 1991 0008 0025     		movs	r5, #0
 1992              	.L405:
 1993 000a E06C     		ldr	r0, [r4, #76]
 1994 000c 38B1     		cbz	r0, .L407
 1995 000e FFF7FEFF 		bl	HAL_DMA_Abort
 1996 0012 20B1     		cbz	r0, .L407
 1997 0014 0125     		movs	r5, #1
 1998 0016 636D     		ldr	r3, [r4, #84]
 1999 0018 43F01003 		orr	r3, r3, #16
 2000 001c 6365     		str	r3, [r4, #84]
 2001              	.L407:
 2002 001e 2268     		ldr	r2, [r4]
 2003 0020 2846     		mov	r0, r5
 2004 0022 5368     		ldr	r3, [r2, #4]
 2005 0024 23F00303 		bic	r3, r3, #3
 2006 0028 5360     		str	r3, [r2, #4]
 2007 002a 0123     		movs	r3, #1
 2008 002c 84F85130 		strb	r3, [r4, #81]
 2009 0030 38BD     		pop	{r3, r4, r5, pc}
 2010              	.L404:
 2011 0032 FFF7FEFF 		bl	HAL_DMA_Abort
 2012 0036 0028     		cmp	r0, #0
 2013 0038 E6D0     		beq	.L406
 2014 003a 636D     		ldr	r3, [r4, #84]
 2015 003c 0125     		movs	r5, #1
 2016 003e 43F01003 		orr	r3, r3, #16
 2017 0042 6365     		str	r3, [r4, #84]
 2018 0044 E1E7     		b	.L405
 2020              		.section	.text.HAL_SPI_TxCpltCallback,"ax",%progbits
 2021              		.align	1
 2022              		.weak	HAL_SPI_TxCpltCallback
 2023              		.syntax unified
 2024              		.thumb
 2025              		.thumb_func
 2026              		.fpu softvfp
 2028              	HAL_SPI_TxCpltCallback:
 2029              		@ args = 0, pretend = 0, frame = 0
 2030              		@ frame_needed = 0, uses_anonymous_args = 0
 2031              		@ link register save eliminated.
 2032 0000 7047     		bx	lr
 2034              		.section	.text.HAL_SPI_RxCpltCallback,"ax",%progbits
 2035              		.align	1
 2036              		.weak	HAL_SPI_RxCpltCallback
 2037              		.syntax unified
 2038              		.thumb
 2039              		.thumb_func
 2040              		.fpu softvfp
 2042              	HAL_SPI_RxCpltCallback:
ARM GAS  /tmp/ccYrA4o1.s 			page 36


 2043              		@ args = 0, pretend = 0, frame = 0
 2044              		@ frame_needed = 0, uses_anonymous_args = 0
 2045              		@ link register save eliminated.
 2046 0000 7047     		bx	lr
 2048              		.section	.text.HAL_SPI_TxRxCpltCallback,"ax",%progbits
 2049              		.align	1
 2050              		.weak	HAL_SPI_TxRxCpltCallback
 2051              		.syntax unified
 2052              		.thumb
 2053              		.thumb_func
 2054              		.fpu softvfp
 2056              	HAL_SPI_TxRxCpltCallback:
 2057              		@ args = 0, pretend = 0, frame = 0
 2058              		@ frame_needed = 0, uses_anonymous_args = 0
 2059              		@ link register save eliminated.
 2060 0000 7047     		bx	lr
 2062              		.section	.text.HAL_SPI_TxHalfCpltCallback,"ax",%progbits
 2063              		.align	1
 2064              		.weak	HAL_SPI_TxHalfCpltCallback
 2065              		.syntax unified
 2066              		.thumb
 2067              		.thumb_func
 2068              		.fpu softvfp
 2070              	HAL_SPI_TxHalfCpltCallback:
 2071              		@ args = 0, pretend = 0, frame = 0
 2072              		@ frame_needed = 0, uses_anonymous_args = 0
 2073              		@ link register save eliminated.
 2074 0000 7047     		bx	lr
 2076              		.section	.text.SPI_DMAHalfTransmitCplt,"ax",%progbits
 2077              		.align	1
 2078              		.syntax unified
 2079              		.thumb
 2080              		.thumb_func
 2081              		.fpu softvfp
 2083              	SPI_DMAHalfTransmitCplt:
 2084              		@ args = 0, pretend = 0, frame = 0
 2085              		@ frame_needed = 0, uses_anonymous_args = 0
 2086 0000 08B5     		push	{r3, lr}
 2087 0002 406A     		ldr	r0, [r0, #36]
 2088 0004 FFF7FEFF 		bl	HAL_SPI_TxHalfCpltCallback
 2089 0008 08BD     		pop	{r3, pc}
 2091              		.section	.text.HAL_SPI_RxHalfCpltCallback,"ax",%progbits
 2092              		.align	1
 2093              		.weak	HAL_SPI_RxHalfCpltCallback
 2094              		.syntax unified
 2095              		.thumb
 2096              		.thumb_func
 2097              		.fpu softvfp
 2099              	HAL_SPI_RxHalfCpltCallback:
 2100              		@ args = 0, pretend = 0, frame = 0
 2101              		@ frame_needed = 0, uses_anonymous_args = 0
 2102              		@ link register save eliminated.
 2103 0000 7047     		bx	lr
 2105              		.section	.text.SPI_DMAHalfReceiveCplt,"ax",%progbits
 2106              		.align	1
 2107              		.syntax unified
 2108              		.thumb
ARM GAS  /tmp/ccYrA4o1.s 			page 37


 2109              		.thumb_func
 2110              		.fpu softvfp
 2112              	SPI_DMAHalfReceiveCplt:
 2113              		@ args = 0, pretend = 0, frame = 0
 2114              		@ frame_needed = 0, uses_anonymous_args = 0
 2115 0000 08B5     		push	{r3, lr}
 2116 0002 406A     		ldr	r0, [r0, #36]
 2117 0004 FFF7FEFF 		bl	HAL_SPI_RxHalfCpltCallback
 2118 0008 08BD     		pop	{r3, pc}
 2120              		.section	.text.HAL_SPI_TxRxHalfCpltCallback,"ax",%progbits
 2121              		.align	1
 2122              		.weak	HAL_SPI_TxRxHalfCpltCallback
 2123              		.syntax unified
 2124              		.thumb
 2125              		.thumb_func
 2126              		.fpu softvfp
 2128              	HAL_SPI_TxRxHalfCpltCallback:
 2129              		@ args = 0, pretend = 0, frame = 0
 2130              		@ frame_needed = 0, uses_anonymous_args = 0
 2131              		@ link register save eliminated.
 2132 0000 7047     		bx	lr
 2134              		.section	.text.SPI_DMAHalfTransmitReceiveCplt,"ax",%progbits
 2135              		.align	1
 2136              		.syntax unified
 2137              		.thumb
 2138              		.thumb_func
 2139              		.fpu softvfp
 2141              	SPI_DMAHalfTransmitReceiveCplt:
 2142              		@ args = 0, pretend = 0, frame = 0
 2143              		@ frame_needed = 0, uses_anonymous_args = 0
 2144 0000 08B5     		push	{r3, lr}
 2145 0002 406A     		ldr	r0, [r0, #36]
 2146 0004 FFF7FEFF 		bl	HAL_SPI_TxRxHalfCpltCallback
 2147 0008 08BD     		pop	{r3, pc}
 2149              		.section	.text.HAL_SPI_ErrorCallback,"ax",%progbits
 2150              		.align	1
 2151              		.weak	HAL_SPI_ErrorCallback
 2152              		.syntax unified
 2153              		.thumb
 2154              		.thumb_func
 2155              		.fpu softvfp
 2157              	HAL_SPI_ErrorCallback:
 2158              		@ args = 0, pretend = 0, frame = 0
 2159              		@ frame_needed = 0, uses_anonymous_args = 0
 2160              		@ link register save eliminated.
 2161 0000 7047     		bx	lr
 2163              		.section	.text.SPI_CloseTx_ISR,"ax",%progbits
 2164              		.align	1
 2165              		.syntax unified
 2166              		.thumb
 2167              		.thumb_func
 2168              		.fpu softvfp
 2170              	SPI_CloseTx_ISR:
 2171              		@ args = 0, pretend = 0, frame = 8
 2172              		@ frame_needed = 0, uses_anonymous_args = 0
 2173 0000 45F6C052 		movw	r2, #24000
 2174 0004 1E4B     		ldr	r3, .L440
ARM GAS  /tmp/ccYrA4o1.s 			page 38


 2175 0006 13B5     		push	{r0, r1, r4, lr}
 2176 0008 1B68     		ldr	r3, [r3]
 2177 000a 0446     		mov	r4, r0
 2178 000c B3FBF2F2 		udiv	r2, r3, r2
 2179 0010 6423     		movs	r3, #100
 2180 0012 5343     		muls	r3, r2, r3
 2181 0014 0093     		str	r3, [sp]
 2182 0016 FFF7FEFF 		bl	HAL_GetTick
 2183 001a 0246     		mov	r2, r0
 2184 001c 2368     		ldr	r3, [r4]
 2185              	.L430:
 2186 001e 0099     		ldr	r1, [sp]
 2187 0020 19BB     		cbnz	r1, .L428
 2188 0022 616D     		ldr	r1, [r4, #84]
 2189 0024 41F02001 		orr	r1, r1, #32
 2190 0028 6165     		str	r1, [r4, #84]
 2191              	.L429:
 2192 002a 5968     		ldr	r1, [r3, #4]
 2193 002c 2046     		mov	r0, r4
 2194 002e 21F0A001 		bic	r1, r1, #160
 2195 0032 5960     		str	r1, [r3, #4]
 2196 0034 6421     		movs	r1, #100
 2197 0036 FFF7FEFF 		bl	SPI_EndRxTxTransaction
 2198 003a 18B1     		cbz	r0, .L431
 2199 003c 636D     		ldr	r3, [r4, #84]
 2200 003e 43F02003 		orr	r3, r3, #32
 2201 0042 6365     		str	r3, [r4, #84]
 2202              	.L431:
 2203 0044 A368     		ldr	r3, [r4, #8]
 2204 0046 33B9     		cbnz	r3, .L432
 2205 0048 0193     		str	r3, [sp, #4]
 2206 004a 2368     		ldr	r3, [r4]
 2207 004c DA68     		ldr	r2, [r3, #12]
 2208 004e 0192     		str	r2, [sp, #4]
 2209 0050 9B68     		ldr	r3, [r3, #8]
 2210 0052 0193     		str	r3, [sp, #4]
 2211 0054 019B     		ldr	r3, [sp, #4]
 2212              	.L432:
 2213 0056 0123     		movs	r3, #1
 2214 0058 84F85130 		strb	r3, [r4, #81]
 2215 005c 636D     		ldr	r3, [r4, #84]
 2216 005e 2046     		mov	r0, r4
 2217 0060 53B1     		cbz	r3, .L433
 2218 0062 FFF7FEFF 		bl	HAL_SPI_ErrorCallback
 2219              	.L427:
 2220 0066 02B0     		add	sp, sp, #8
 2221              		@ sp needed
 2222 0068 10BD     		pop	{r4, pc}
 2223              	.L428:
 2224 006a 0099     		ldr	r1, [sp]
 2225 006c 0139     		subs	r1, r1, #1
 2226 006e 0091     		str	r1, [sp]
 2227 0070 9968     		ldr	r1, [r3, #8]
 2228 0072 8907     		lsls	r1, r1, #30
 2229 0074 D3D5     		bpl	.L430
 2230 0076 D8E7     		b	.L429
 2231              	.L433:
ARM GAS  /tmp/ccYrA4o1.s 			page 39


 2232 0078 FFF7FEFF 		bl	HAL_SPI_TxCpltCallback
 2233 007c F3E7     		b	.L427
 2234              	.L441:
 2235 007e 00BF     		.align	2
 2236              	.L440:
 2237 0080 00000000 		.word	SystemCoreClock
 2239              		.section	.text.SPI_TxISR_8BIT,"ax",%progbits
 2240              		.align	1
 2241              		.syntax unified
 2242              		.thumb
 2243              		.thumb_func
 2244              		.fpu softvfp
 2246              	SPI_TxISR_8BIT:
 2247              		@ args = 0, pretend = 0, frame = 0
 2248              		@ frame_needed = 0, uses_anonymous_args = 0
 2249              		@ link register save eliminated.
 2250 0000 026B     		ldr	r2, [r0, #48]
 2251 0002 0368     		ldr	r3, [r0]
 2252 0004 1278     		ldrb	r2, [r2]	@ zero_extendqisi2
 2253 0006 1A73     		strb	r2, [r3, #12]
 2254 0008 036B     		ldr	r3, [r0, #48]
 2255 000a 0133     		adds	r3, r3, #1
 2256 000c 0363     		str	r3, [r0, #48]
 2257 000e C38E     		ldrh	r3, [r0, #54]
 2258 0010 013B     		subs	r3, r3, #1
 2259 0012 9BB2     		uxth	r3, r3
 2260 0014 C386     		strh	r3, [r0, #54]	@ movhi
 2261 0016 C38E     		ldrh	r3, [r0, #54]
 2262 0018 9BB2     		uxth	r3, r3
 2263 001a 53B9     		cbnz	r3, .L442
 2264 001c 836A     		ldr	r3, [r0, #40]
 2265 001e B3F5005F 		cmp	r3, #8192
 2266 0022 01BF     		itttt	eq
 2267 0024 0268     		ldreq	r2, [r0]
 2268 0026 1368     		ldreq	r3, [r2]
 2269 0028 43F48053 		orreq	r3, r3, #4096
 2270 002c 1360     		streq	r3, [r2]
 2271 002e FFF7FEBF 		b	SPI_CloseTx_ISR
 2272              	.L442:
 2273 0032 7047     		bx	lr
 2275              		.section	.text.SPI_TxISR_16BIT,"ax",%progbits
 2276              		.align	1
 2277              		.syntax unified
 2278              		.thumb
 2279              		.thumb_func
 2280              		.fpu softvfp
 2282              	SPI_TxISR_16BIT:
 2283              		@ args = 0, pretend = 0, frame = 0
 2284              		@ frame_needed = 0, uses_anonymous_args = 0
 2285              		@ link register save eliminated.
 2286 0000 036B     		ldr	r3, [r0, #48]
 2287 0002 0268     		ldr	r2, [r0]
 2288 0004 33F8021B 		ldrh	r1, [r3], #2
 2289 0008 D160     		str	r1, [r2, #12]
 2290 000a 0363     		str	r3, [r0, #48]
 2291 000c C38E     		ldrh	r3, [r0, #54]
 2292 000e 013B     		subs	r3, r3, #1
ARM GAS  /tmp/ccYrA4o1.s 			page 40


 2293 0010 9BB2     		uxth	r3, r3
 2294 0012 C386     		strh	r3, [r0, #54]	@ movhi
 2295 0014 C38E     		ldrh	r3, [r0, #54]
 2296 0016 9BB2     		uxth	r3, r3
 2297 0018 4BB9     		cbnz	r3, .L445
 2298 001a 836A     		ldr	r3, [r0, #40]
 2299 001c B3F5005F 		cmp	r3, #8192
 2300 0020 02BF     		ittt	eq
 2301 0022 1368     		ldreq	r3, [r2]
 2302 0024 43F48053 		orreq	r3, r3, #4096
 2303 0028 1360     		streq	r3, [r2]
 2304 002a FFF7FEBF 		b	SPI_CloseTx_ISR
 2305              	.L445:
 2306 002e 7047     		bx	lr
 2308              		.section	.text.SPI_DMAError,"ax",%progbits
 2309              		.align	1
 2310              		.syntax unified
 2311              		.thumb
 2312              		.thumb_func
 2313              		.fpu softvfp
 2315              	SPI_DMAError:
 2316              		@ args = 0, pretend = 0, frame = 0
 2317              		@ frame_needed = 0, uses_anonymous_args = 0
 2318 0000 406A     		ldr	r0, [r0, #36]
 2319 0002 08B5     		push	{r3, lr}
 2320 0004 0268     		ldr	r2, [r0]
 2321 0006 5368     		ldr	r3, [r2, #4]
 2322 0008 23F00303 		bic	r3, r3, #3
 2323 000c 5360     		str	r3, [r2, #4]
 2324 000e 436D     		ldr	r3, [r0, #84]
 2325 0010 43F01003 		orr	r3, r3, #16
 2326 0014 4365     		str	r3, [r0, #84]
 2327 0016 0123     		movs	r3, #1
 2328 0018 80F85130 		strb	r3, [r0, #81]
 2329 001c FFF7FEFF 		bl	HAL_SPI_ErrorCallback
 2330 0020 08BD     		pop	{r3, pc}
 2332              		.section	.text.SPI_DMATransmitCplt,"ax",%progbits
 2333              		.align	1
 2334              		.syntax unified
 2335              		.thumb
 2336              		.thumb_func
 2337              		.fpu softvfp
 2339              	SPI_DMATransmitCplt:
 2340              		@ args = 0, pretend = 0, frame = 8
 2341              		@ frame_needed = 0, uses_anonymous_args = 0
 2342 0000 37B5     		push	{r0, r1, r2, r4, r5, lr}
 2343 0002 0546     		mov	r5, r0
 2344 0004 446A     		ldr	r4, [r0, #36]
 2345 0006 FFF7FEFF 		bl	HAL_GetTick
 2346 000a 2B68     		ldr	r3, [r5]
 2347 000c 0246     		mov	r2, r0
 2348 000e 1B68     		ldr	r3, [r3]
 2349 0010 9B06     		lsls	r3, r3, #26
 2350 0012 26D4     		bmi	.L450
 2351 0014 2368     		ldr	r3, [r4]
 2352 0016 2046     		mov	r0, r4
 2353 0018 5968     		ldr	r1, [r3, #4]
ARM GAS  /tmp/ccYrA4o1.s 			page 41


 2354 001a 21F02001 		bic	r1, r1, #32
 2355 001e 5960     		str	r1, [r3, #4]
 2356 0020 5968     		ldr	r1, [r3, #4]
 2357 0022 21F00201 		bic	r1, r1, #2
 2358 0026 5960     		str	r1, [r3, #4]
 2359 0028 6421     		movs	r1, #100
 2360 002a FFF7FEFF 		bl	SPI_EndRxTxTransaction
 2361 002e 18B1     		cbz	r0, .L451
 2362 0030 636D     		ldr	r3, [r4, #84]
 2363 0032 43F02003 		orr	r3, r3, #32
 2364 0036 6365     		str	r3, [r4, #84]
 2365              	.L451:
 2366 0038 A368     		ldr	r3, [r4, #8]
 2367 003a 33B9     		cbnz	r3, .L452
 2368 003c 0193     		str	r3, [sp, #4]
 2369 003e 2368     		ldr	r3, [r4]
 2370 0040 DA68     		ldr	r2, [r3, #12]
 2371 0042 0192     		str	r2, [sp, #4]
 2372 0044 9B68     		ldr	r3, [r3, #8]
 2373 0046 0193     		str	r3, [sp, #4]
 2374 0048 019B     		ldr	r3, [sp, #4]
 2375              	.L452:
 2376 004a 0023     		movs	r3, #0
 2377 004c E386     		strh	r3, [r4, #54]	@ movhi
 2378 004e 0123     		movs	r3, #1
 2379 0050 84F85130 		strb	r3, [r4, #81]
 2380 0054 636D     		ldr	r3, [r4, #84]
 2381 0056 23B1     		cbz	r3, .L450
 2382 0058 2046     		mov	r0, r4
 2383 005a FFF7FEFF 		bl	HAL_SPI_ErrorCallback
 2384              	.L449:
 2385 005e 03B0     		add	sp, sp, #12
 2386              		@ sp needed
 2387 0060 30BD     		pop	{r4, r5, pc}
 2388              	.L450:
 2389 0062 2046     		mov	r0, r4
 2390 0064 FFF7FEFF 		bl	HAL_SPI_TxCpltCallback
 2391 0068 F9E7     		b	.L449
 2393              		.section	.text.HAL_SPI_IRQHandler,"ax",%progbits
 2394              		.align	1
 2395              		.global	HAL_SPI_IRQHandler
 2396              		.syntax unified
 2397              		.thumb
 2398              		.thumb_func
 2399              		.fpu softvfp
 2401              	HAL_SPI_IRQHandler:
 2402              		@ args = 0, pretend = 0, frame = 16
 2403              		@ frame_needed = 0, uses_anonymous_args = 0
 2404 0000 F0B5     		push	{r4, r5, r6, r7, lr}
 2405 0002 0368     		ldr	r3, [r0]
 2406 0004 0446     		mov	r4, r0
 2407 0006 5968     		ldr	r1, [r3, #4]
 2408 0008 9A68     		ldr	r2, [r3, #8]
 2409 000a 85B0     		sub	sp, sp, #20
 2410 000c 5606     		lsls	r6, r2, #25
 2411 000e 4FEA9215 		lsr	r5, r2, #6
 2412 0012 C2F38017 		ubfx	r7, r2, #6, #1
ARM GAS  /tmp/ccYrA4o1.s 			page 42


 2413 0016 08D4     		bmi	.L461
 2414 0018 D607     		lsls	r6, r2, #31
 2415 001a 06D5     		bpl	.L461
 2416 001c 4E06     		lsls	r6, r1, #25
 2417 001e 04D5     		bpl	.L461
 2418 0020 036C     		ldr	r3, [r0, #64]
 2419              	.L506:
 2420 0022 05B0     		add	sp, sp, #20
 2421              		@ sp needed
 2422 0024 BDE8F040 		pop	{r4, r5, r6, r7, lr}
 2423 0028 1847     		bx	r3	@ indirect register sibling call
 2424              	.L461:
 2425 002a 9607     		lsls	r6, r2, #30
 2426 002c 04D5     		bpl	.L462
 2427 002e 0806     		lsls	r0, r1, #24
 2428 0030 02D5     		bpl	.L462
 2429 0032 2046     		mov	r0, r4
 2430 0034 636C     		ldr	r3, [r4, #68]
 2431 0036 F4E7     		b	.L506
 2432              	.L462:
 2433 0038 5609     		lsrs	r6, r2, #5
 2434 003a 45EA5212 		orr	r2, r5, r2, lsr #5
 2435 003e D207     		lsls	r2, r2, #31
 2436 0040 4CD5     		bpl	.L460
 2437 0042 8D06     		lsls	r5, r1, #26
 2438 0044 4AD5     		bpl	.L460
 2439 0046 77B1     		cbz	r7, .L466
 2440 0048 94F85120 		ldrb	r2, [r4, #81]	@ zero_extendqisi2
 2441 004c 0020     		movs	r0, #0
 2442 004e 032A     		cmp	r2, #3
 2443 0050 3ED0     		beq	.L467
 2444 0052 626D     		ldr	r2, [r4, #84]
 2445 0054 42F00402 		orr	r2, r2, #4
 2446 0058 6265     		str	r2, [r4, #84]
 2447 005a 0190     		str	r0, [sp, #4]
 2448 005c DA68     		ldr	r2, [r3, #12]
 2449 005e 0192     		str	r2, [sp, #4]
 2450 0060 9A68     		ldr	r2, [r3, #8]
 2451 0062 0192     		str	r2, [sp, #4]
 2452 0064 019A     		ldr	r2, [sp, #4]
 2453              	.L466:
 2454 0066 F007     		lsls	r0, r6, #31
 2455 0068 0CD5     		bpl	.L468
 2456 006a 626D     		ldr	r2, [r4, #84]
 2457 006c 42F00102 		orr	r2, r2, #1
 2458 0070 6265     		str	r2, [r4, #84]
 2459 0072 0022     		movs	r2, #0
 2460 0074 0392     		str	r2, [sp, #12]
 2461 0076 9A68     		ldr	r2, [r3, #8]
 2462 0078 0392     		str	r2, [sp, #12]
 2463 007a 1A68     		ldr	r2, [r3]
 2464 007c 22F04002 		bic	r2, r2, #64
 2465 0080 1A60     		str	r2, [r3]
 2466 0082 039A     		ldr	r2, [sp, #12]
 2467              	.L468:
 2468 0084 626D     		ldr	r2, [r4, #84]
 2469 0086 4AB3     		cbz	r2, .L460
ARM GAS  /tmp/ccYrA4o1.s 			page 43


 2470 0088 5A68     		ldr	r2, [r3, #4]
 2471 008a 22F0E002 		bic	r2, r2, #224
 2472 008e 5A60     		str	r2, [r3, #4]
 2473 0090 0122     		movs	r2, #1
 2474 0092 84F85120 		strb	r2, [r4, #81]
 2475 0096 8A07     		lsls	r2, r1, #30
 2476 0098 22D0     		beq	.L469
 2477 009a 5A68     		ldr	r2, [r3, #4]
 2478 009c E06C     		ldr	r0, [r4, #76]
 2479 009e 22F00302 		bic	r2, r2, #3
 2480 00a2 5A60     		str	r2, [r3, #4]
 2481 00a4 40B1     		cbz	r0, .L471
 2482 00a6 104B     		ldr	r3, .L507
 2483 00a8 4363     		str	r3, [r0, #52]
 2484 00aa FFF7FEFF 		bl	HAL_DMA_Abort_IT
 2485 00ae 18B1     		cbz	r0, .L471
 2486 00b0 636D     		ldr	r3, [r4, #84]
 2487 00b2 43F04003 		orr	r3, r3, #64
 2488 00b6 6365     		str	r3, [r4, #84]
 2489              	.L471:
 2490 00b8 A06C     		ldr	r0, [r4, #72]
 2491 00ba 78B1     		cbz	r0, .L460
 2492 00bc 0A4B     		ldr	r3, .L507
 2493 00be 4363     		str	r3, [r0, #52]
 2494 00c0 FFF7FEFF 		bl	HAL_DMA_Abort_IT
 2495 00c4 50B1     		cbz	r0, .L460
 2496 00c6 636D     		ldr	r3, [r4, #84]
 2497 00c8 43F04003 		orr	r3, r3, #64
 2498 00cc 6365     		str	r3, [r4, #84]
 2499 00ce 05E0     		b	.L460
 2500              	.L467:
 2501 00d0 0290     		str	r0, [sp, #8]
 2502 00d2 DA68     		ldr	r2, [r3, #12]
 2503 00d4 0292     		str	r2, [sp, #8]
 2504 00d6 9B68     		ldr	r3, [r3, #8]
 2505 00d8 0293     		str	r3, [sp, #8]
 2506 00da 029B     		ldr	r3, [sp, #8]
 2507              	.L460:
 2508 00dc 05B0     		add	sp, sp, #20
 2509              		@ sp needed
 2510 00de F0BD     		pop	{r4, r5, r6, r7, pc}
 2511              	.L469:
 2512 00e0 2046     		mov	r0, r4
 2513 00e2 FFF7FEFF 		bl	HAL_SPI_ErrorCallback
 2514 00e6 F9E7     		b	.L460
 2515              	.L508:
 2516              		.align	2
 2517              	.L507:
 2518 00e8 00000000 		.word	SPI_DMAAbortOnError
 2520              		.section	.text.SPI_DMAAbortOnError,"ax",%progbits
 2521              		.align	1
 2522              		.syntax unified
 2523              		.thumb
 2524              		.thumb_func
 2525              		.fpu softvfp
 2527              	SPI_DMAAbortOnError:
 2528              		@ args = 0, pretend = 0, frame = 0
ARM GAS  /tmp/ccYrA4o1.s 			page 44


 2529              		@ frame_needed = 0, uses_anonymous_args = 0
 2530 0000 08B5     		push	{r3, lr}
 2531 0002 0023     		movs	r3, #0
 2532 0004 406A     		ldr	r0, [r0, #36]
 2533 0006 C387     		strh	r3, [r0, #62]	@ movhi
 2534 0008 C386     		strh	r3, [r0, #54]	@ movhi
 2535 000a FFF7FEFF 		bl	HAL_SPI_ErrorCallback
 2536 000e 08BD     		pop	{r3, pc}
 2538              		.section	.text.SPI_CloseRx_ISR,"ax",%progbits
 2539              		.align	1
 2540              		.syntax unified
 2541              		.thumb
 2542              		.thumb_func
 2543              		.fpu softvfp
 2545              	SPI_CloseRx_ISR:
 2546              		@ args = 0, pretend = 0, frame = 8
 2547              		@ frame_needed = 0, uses_anonymous_args = 0
 2548 0000 0268     		ldr	r2, [r0]
 2549 0002 13B5     		push	{r0, r1, r4, lr}
 2550 0004 5368     		ldr	r3, [r2, #4]
 2551 0006 0446     		mov	r4, r0
 2552 0008 23F06003 		bic	r3, r3, #96
 2553 000c 5360     		str	r3, [r2, #4]
 2554 000e FFF7FEFF 		bl	HAL_GetTick
 2555 0012 6421     		movs	r1, #100
 2556 0014 0246     		mov	r2, r0
 2557 0016 2046     		mov	r0, r4
 2558 0018 FFF7FEFF 		bl	SPI_EndRxTransaction
 2559 001c 18B1     		cbz	r0, .L511
 2560 001e 636D     		ldr	r3, [r4, #84]
 2561 0020 43F02003 		orr	r3, r3, #32
 2562 0024 6365     		str	r3, [r4, #84]
 2563              	.L511:
 2564 0026 A268     		ldr	r2, [r4, #8]
 2565 0028 2368     		ldr	r3, [r4]
 2566 002a 2AB9     		cbnz	r2, .L512
 2567 002c 0192     		str	r2, [sp, #4]
 2568 002e DA68     		ldr	r2, [r3, #12]
 2569 0030 0192     		str	r2, [sp, #4]
 2570 0032 9A68     		ldr	r2, [r3, #8]
 2571 0034 0192     		str	r2, [sp, #4]
 2572 0036 019A     		ldr	r2, [sp, #4]
 2573              	.L512:
 2574 0038 0122     		movs	r2, #1
 2575 003a 84F85120 		strb	r2, [r4, #81]
 2576 003e 9A68     		ldr	r2, [r3, #8]
 2577 0040 D206     		lsls	r2, r2, #27
 2578 0042 0FD5     		bpl	.L513
 2579 0044 2046     		mov	r0, r4
 2580 0046 626D     		ldr	r2, [r4, #84]
 2581 0048 42F00202 		orr	r2, r2, #2
 2582 004c 6265     		str	r2, [r4, #84]
 2583 004e 1A68     		ldr	r2, [r3]
 2584 0050 22F40052 		bic	r2, r2, #8192
 2585 0054 1A60     		str	r2, [r3]
 2586 0056 1A68     		ldr	r2, [r3]
 2587 0058 42F40052 		orr	r2, r2, #8192
ARM GAS  /tmp/ccYrA4o1.s 			page 45


 2588 005c 1A60     		str	r2, [r3]
 2589              	.L515:
 2590 005e FFF7FEFF 		bl	HAL_SPI_ErrorCallback
 2591 0062 05E0     		b	.L510
 2592              	.L513:
 2593 0064 636D     		ldr	r3, [r4, #84]
 2594 0066 2046     		mov	r0, r4
 2595 0068 002B     		cmp	r3, #0
 2596 006a F8D1     		bne	.L515
 2597 006c FFF7FEFF 		bl	HAL_SPI_RxCpltCallback
 2598              	.L510:
 2599 0070 02B0     		add	sp, sp, #8
 2600              		@ sp needed
 2601 0072 10BD     		pop	{r4, pc}
 2603              		.section	.text.SPI_RxISR_8BIT,"ax",%progbits
 2604              		.align	1
 2605              		.syntax unified
 2606              		.thumb
 2607              		.thumb_func
 2608              		.fpu softvfp
 2610              	SPI_RxISR_8BIT:
 2611              		@ args = 0, pretend = 0, frame = 0
 2612              		@ frame_needed = 0, uses_anonymous_args = 0
 2613              		@ link register save eliminated.
 2614 0000 0268     		ldr	r2, [r0]
 2615 0002 836B     		ldr	r3, [r0, #56]
 2616 0004 127B     		ldrb	r2, [r2, #12]	@ zero_extendqisi2
 2617 0006 1A70     		strb	r2, [r3]
 2618 0008 836B     		ldr	r3, [r0, #56]
 2619 000a 0133     		adds	r3, r3, #1
 2620 000c 8363     		str	r3, [r0, #56]
 2621 000e C38F     		ldrh	r3, [r0, #62]
 2622 0010 013B     		subs	r3, r3, #1
 2623 0012 9BB2     		uxth	r3, r3
 2624 0014 C387     		strh	r3, [r0, #62]	@ movhi
 2625 0016 C38F     		ldrh	r3, [r0, #62]
 2626 0018 9BB2     		uxth	r3, r3
 2627 001a 012B     		cmp	r3, #1
 2628 001c 0368     		ldr	r3, [r0]
 2629 001e 07D1     		bne	.L520
 2630 0020 826A     		ldr	r2, [r0, #40]
 2631 0022 B2F5005F 		cmp	r2, #8192
 2632 0026 02BF     		ittt	eq
 2633 0028 1A68     		ldreq	r2, [r3]
 2634 002a 42F48052 		orreq	r2, r2, #4096
 2635 002e 1A60     		streq	r2, [r3]
 2636              	.L520:
 2637 0030 1A68     		ldr	r2, [r3]
 2638 0032 D204     		lsls	r2, r2, #19
 2639 0034 42BF     		ittt	mi
 2640 0036 1A68     		ldrmi	r2, [r3]
 2641 0038 22F48052 		bicmi	r2, r2, #4096
 2642 003c 1A60     		strmi	r2, [r3]
 2643 003e C38F     		ldrh	r3, [r0, #62]
 2644 0040 9BB2     		uxth	r3, r3
 2645 0042 43B9     		cbnz	r3, .L519
 2646 0044 836A     		ldr	r3, [r0, #40]
ARM GAS  /tmp/ccYrA4o1.s 			page 46


 2647 0046 B3F5005F 		cmp	r3, #8192
 2648 004a 02D1     		bne	.L523
 2649 004c 024B     		ldr	r3, .L527
 2650 004e 0364     		str	r3, [r0, #64]
 2651 0050 7047     		bx	lr
 2652              	.L523:
 2653 0052 FFF7FEBF 		b	SPI_CloseRx_ISR
 2654              	.L519:
 2655 0056 7047     		bx	lr
 2656              	.L528:
 2657              		.align	2
 2658              	.L527:
 2659 0058 00000000 		.word	SPI_RxISR_8BITCRC
 2661              		.section	.text.SPI_RxISR_8BITCRC,"ax",%progbits
 2662              		.align	1
 2663              		.syntax unified
 2664              		.thumb
 2665              		.thumb_func
 2666              		.fpu softvfp
 2668              	SPI_RxISR_8BITCRC:
 2669              		@ args = 0, pretend = 0, frame = 0
 2670              		@ frame_needed = 0, uses_anonymous_args = 0
 2671              		@ link register save eliminated.
 2672 0000 0368     		ldr	r3, [r0]
 2673 0002 1B7B     		ldrb	r3, [r3, #12]	@ zero_extendqisi2
 2674 0004 FFF7FEBF 		b	SPI_CloseRx_ISR
 2676              		.section	.text.SPI_RxISR_16BIT,"ax",%progbits
 2677              		.align	1
 2678              		.syntax unified
 2679              		.thumb
 2680              		.thumb_func
 2681              		.fpu softvfp
 2683              	SPI_RxISR_16BIT:
 2684              		@ args = 0, pretend = 0, frame = 0
 2685              		@ frame_needed = 0, uses_anonymous_args = 0
 2686              		@ link register save eliminated.
 2687 0000 0368     		ldr	r3, [r0]
 2688 0002 826B     		ldr	r2, [r0, #56]
 2689 0004 D968     		ldr	r1, [r3, #12]
 2690 0006 22F8021B 		strh	r1, [r2], #2	@ movhi
 2691 000a 8263     		str	r2, [r0, #56]
 2692 000c C28F     		ldrh	r2, [r0, #62]
 2693 000e 013A     		subs	r2, r2, #1
 2694 0010 92B2     		uxth	r2, r2
 2695 0012 C287     		strh	r2, [r0, #62]	@ movhi
 2696 0014 C28F     		ldrh	r2, [r0, #62]
 2697 0016 92B2     		uxth	r2, r2
 2698 0018 012A     		cmp	r2, #1
 2699 001a 07D1     		bne	.L531
 2700 001c 826A     		ldr	r2, [r0, #40]
 2701 001e B2F5005F 		cmp	r2, #8192
 2702 0022 02BF     		ittt	eq
 2703 0024 1A68     		ldreq	r2, [r3]
 2704 0026 42F48052 		orreq	r2, r2, #4096
 2705 002a 1A60     		streq	r2, [r3]
 2706              	.L531:
 2707 002c 1A68     		ldr	r2, [r3]
ARM GAS  /tmp/ccYrA4o1.s 			page 47


 2708 002e D204     		lsls	r2, r2, #19
 2709 0030 42BF     		ittt	mi
 2710 0032 1A68     		ldrmi	r2, [r3]
 2711 0034 22F48052 		bicmi	r2, r2, #4096
 2712 0038 1A60     		strmi	r2, [r3]
 2713 003a C38F     		ldrh	r3, [r0, #62]
 2714 003c 9BB2     		uxth	r3, r3
 2715 003e 43B9     		cbnz	r3, .L530
 2716 0040 836A     		ldr	r3, [r0, #40]
 2717 0042 B3F5005F 		cmp	r3, #8192
 2718 0046 02D1     		bne	.L534
 2719 0048 024B     		ldr	r3, .L538
 2720 004a 0364     		str	r3, [r0, #64]
 2721 004c 7047     		bx	lr
 2722              	.L534:
 2723 004e FFF7FEBF 		b	SPI_CloseRx_ISR
 2724              	.L530:
 2725 0052 7047     		bx	lr
 2726              	.L539:
 2727              		.align	2
 2728              	.L538:
 2729 0054 00000000 		.word	SPI_RxISR_16BITCRC
 2731              		.section	.text.SPI_RxISR_16BITCRC,"ax",%progbits
 2732              		.align	1
 2733              		.syntax unified
 2734              		.thumb
 2735              		.thumb_func
 2736              		.fpu softvfp
 2738              	SPI_RxISR_16BITCRC:
 2739              		@ args = 0, pretend = 0, frame = 0
 2740              		@ frame_needed = 0, uses_anonymous_args = 0
 2741              		@ link register save eliminated.
 2742 0000 0368     		ldr	r3, [r0]
 2743 0002 DA68     		ldr	r2, [r3, #12]
 2744 0004 5A68     		ldr	r2, [r3, #4]
 2745 0006 22F06002 		bic	r2, r2, #96
 2746 000a 5A60     		str	r2, [r3, #4]
 2747 000c FFF7FEBF 		b	SPI_CloseRx_ISR
 2749              		.section	.text.SPI_CloseRxTx_ISR,"ax",%progbits
 2750              		.align	1
 2751              		.syntax unified
 2752              		.thumb
 2753              		.thumb_func
 2754              		.fpu softvfp
 2756              	SPI_CloseRxTx_ISR:
 2757              		@ args = 0, pretend = 0, frame = 8
 2758              		@ frame_needed = 0, uses_anonymous_args = 0
 2759 0000 45F6C052 		movw	r2, #24000
 2760 0004 2D4B     		ldr	r3, .L557
 2761 0006 13B5     		push	{r0, r1, r4, lr}
 2762 0008 1B68     		ldr	r3, [r3]
 2763 000a 0446     		mov	r4, r0
 2764 000c B3FBF2F2 		udiv	r2, r3, r2
 2765 0010 6423     		movs	r3, #100
 2766 0012 5343     		muls	r3, r2, r3
 2767 0014 0093     		str	r3, [sp]
 2768 0016 FFF7FEFF 		bl	HAL_GetTick
ARM GAS  /tmp/ccYrA4o1.s 			page 48


 2769 001a 0246     		mov	r2, r0
 2770 001c 2368     		ldr	r3, [r4]
 2771 001e 5968     		ldr	r1, [r3, #4]
 2772 0020 21F02001 		bic	r1, r1, #32
 2773 0024 5960     		str	r1, [r3, #4]
 2774              	.L544:
 2775 0026 0099     		ldr	r1, [sp]
 2776 0028 0029     		cmp	r1, #0
 2777 002a 2DD1     		bne	.L542
 2778 002c 636D     		ldr	r3, [r4, #84]
 2779 002e 43F02003 		orr	r3, r3, #32
 2780 0032 6365     		str	r3, [r4, #84]
 2781              	.L543:
 2782 0034 6421     		movs	r1, #100
 2783 0036 2046     		mov	r0, r4
 2784 0038 FFF7FEFF 		bl	SPI_EndRxTxTransaction
 2785 003c 18B1     		cbz	r0, .L545
 2786 003e 636D     		ldr	r3, [r4, #84]
 2787 0040 43F02003 		orr	r3, r3, #32
 2788 0044 6365     		str	r3, [r4, #84]
 2789              	.L545:
 2790 0046 A268     		ldr	r2, [r4, #8]
 2791 0048 2368     		ldr	r3, [r4]
 2792 004a 2AB9     		cbnz	r2, .L546
 2793 004c 0192     		str	r2, [sp, #4]
 2794 004e DA68     		ldr	r2, [r3, #12]
 2795 0050 0192     		str	r2, [sp, #4]
 2796 0052 9A68     		ldr	r2, [r3, #8]
 2797 0054 0192     		str	r2, [sp, #4]
 2798 0056 019A     		ldr	r2, [sp, #4]
 2799              	.L546:
 2800 0058 9A68     		ldr	r2, [r3, #8]
 2801 005a 12F0100F 		tst	r2, #16
 2802 005e 4FF00102 		mov	r2, #1
 2803 0062 18D0     		beq	.L547
 2804 0064 84F85120 		strb	r2, [r4, #81]
 2805 0068 626D     		ldr	r2, [r4, #84]
 2806 006a 42F00202 		orr	r2, r2, #2
 2807 006e 6265     		str	r2, [r4, #84]
 2808 0070 1A68     		ldr	r2, [r3]
 2809 0072 22F40052 		bic	r2, r2, #8192
 2810 0076 1A60     		str	r2, [r3]
 2811 0078 1A68     		ldr	r2, [r3]
 2812 007a 42F40052 		orr	r2, r2, #8192
 2813 007e 1A60     		str	r2, [r3]
 2814              	.L556:
 2815 0080 2046     		mov	r0, r4
 2816 0082 FFF7FEFF 		bl	HAL_SPI_ErrorCallback
 2817 0086 11E0     		b	.L541
 2818              	.L542:
 2819 0088 0099     		ldr	r1, [sp]
 2820 008a 0139     		subs	r1, r1, #1
 2821 008c 0091     		str	r1, [sp]
 2822 008e 9968     		ldr	r1, [r3, #8]
 2823 0090 8907     		lsls	r1, r1, #30
 2824 0092 C8D5     		bpl	.L544
 2825 0094 CEE7     		b	.L543
ARM GAS  /tmp/ccYrA4o1.s 			page 49


 2826              	.L547:
 2827 0096 636D     		ldr	r3, [r4, #84]
 2828 0098 6BB9     		cbnz	r3, .L549
 2829 009a 94F85130 		ldrb	r3, [r4, #81]	@ zero_extendqisi2
 2830 009e 2046     		mov	r0, r4
 2831 00a0 042B     		cmp	r3, #4
 2832 00a2 84F85120 		strb	r2, [r4, #81]
 2833 00a6 03D1     		bne	.L550
 2834 00a8 FFF7FEFF 		bl	HAL_SPI_RxCpltCallback
 2835              	.L541:
 2836 00ac 02B0     		add	sp, sp, #8
 2837              		@ sp needed
 2838 00ae 10BD     		pop	{r4, pc}
 2839              	.L550:
 2840 00b0 FFF7FEFF 		bl	HAL_SPI_TxRxCpltCallback
 2841 00b4 FAE7     		b	.L541
 2842              	.L549:
 2843 00b6 84F85120 		strb	r2, [r4, #81]
 2844 00ba E1E7     		b	.L556
 2845              	.L558:
 2846              		.align	2
 2847              	.L557:
 2848 00bc 00000000 		.word	SystemCoreClock
 2850              		.section	.text.SPI_2linesTxISR_8BIT,"ax",%progbits
 2851              		.align	1
 2852              		.syntax unified
 2853              		.thumb
 2854              		.thumb_func
 2855              		.fpu softvfp
 2857              	SPI_2linesTxISR_8BIT:
 2858              		@ args = 0, pretend = 0, frame = 0
 2859              		@ frame_needed = 0, uses_anonymous_args = 0
 2860              		@ link register save eliminated.
 2861 0000 016B     		ldr	r1, [r0, #48]
 2862 0002 0268     		ldr	r2, [r0]
 2863 0004 0978     		ldrb	r1, [r1]	@ zero_extendqisi2
 2864 0006 1173     		strb	r1, [r2, #12]
 2865 0008 026B     		ldr	r2, [r0, #48]
 2866 000a 0132     		adds	r2, r2, #1
 2867 000c 0263     		str	r2, [r0, #48]
 2868 000e C28E     		ldrh	r2, [r0, #54]
 2869 0010 013A     		subs	r2, r2, #1
 2870 0012 92B2     		uxth	r2, r2
 2871 0014 C286     		strh	r2, [r0, #54]	@ movhi
 2872 0016 C28E     		ldrh	r2, [r0, #54]
 2873 0018 92B2     		uxth	r2, r2
 2874 001a B2B9     		cbnz	r2, .L559
 2875 001c 816A     		ldr	r1, [r0, #40]
 2876 001e 0268     		ldr	r2, [r0]
 2877 0020 B1F5005F 		cmp	r1, #8192
 2878 0024 08D1     		bne	.L562
 2879 0026 1368     		ldr	r3, [r2]
 2880 0028 43F48053 		orr	r3, r3, #4096
 2881 002c 1360     		str	r3, [r2]
 2882 002e 5368     		ldr	r3, [r2, #4]
 2883 0030 23F08003 		bic	r3, r3, #128
 2884 0034 5360     		str	r3, [r2, #4]
ARM GAS  /tmp/ccYrA4o1.s 			page 50


 2885 0036 7047     		bx	lr
 2886              	.L562:
 2887 0038 5168     		ldr	r1, [r2, #4]
 2888 003a 21F08001 		bic	r1, r1, #128
 2889 003e 5160     		str	r1, [r2, #4]
 2890 0040 C38F     		ldrh	r3, [r0, #62]
 2891 0042 9BB2     		uxth	r3, r3
 2892 0044 0BB9     		cbnz	r3, .L559
 2893 0046 FFF7FEBF 		b	SPI_CloseRxTx_ISR
 2894              	.L559:
 2895 004a 7047     		bx	lr
 2897              		.section	.text.SPI_2linesRxISR_8BIT,"ax",%progbits
 2898              		.align	1
 2899              		.syntax unified
 2900              		.thumb
 2901              		.thumb_func
 2902              		.fpu softvfp
 2904              	SPI_2linesRxISR_8BIT:
 2905              		@ args = 0, pretend = 0, frame = 0
 2906              		@ frame_needed = 0, uses_anonymous_args = 0
 2907              		@ link register save eliminated.
 2908 0000 0168     		ldr	r1, [r0]
 2909 0002 826B     		ldr	r2, [r0, #56]
 2910 0004 097B     		ldrb	r1, [r1, #12]	@ zero_extendqisi2
 2911 0006 1170     		strb	r1, [r2]
 2912 0008 826B     		ldr	r2, [r0, #56]
 2913 000a 0132     		adds	r2, r2, #1
 2914 000c 8263     		str	r2, [r0, #56]
 2915 000e C28F     		ldrh	r2, [r0, #62]
 2916 0010 013A     		subs	r2, r2, #1
 2917 0012 92B2     		uxth	r2, r2
 2918 0014 C287     		strh	r2, [r0, #62]	@ movhi
 2919 0016 C28F     		ldrh	r2, [r0, #62]
 2920 0018 92B2     		uxth	r2, r2
 2921 001a 82B9     		cbnz	r2, .L564
 2922 001c 826A     		ldr	r2, [r0, #40]
 2923 001e B2F5005F 		cmp	r2, #8192
 2924 0022 02D1     		bne	.L567
 2925 0024 064A     		ldr	r2, .L569
 2926 0026 0264     		str	r2, [r0, #64]
 2927 0028 7047     		bx	lr
 2928              	.L567:
 2929 002a 0168     		ldr	r1, [r0]
 2930 002c 4A68     		ldr	r2, [r1, #4]
 2931 002e 22F06002 		bic	r2, r2, #96
 2932 0032 4A60     		str	r2, [r1, #4]
 2933 0034 C38E     		ldrh	r3, [r0, #54]
 2934 0036 9BB2     		uxth	r3, r3
 2935 0038 0BB9     		cbnz	r3, .L564
 2936 003a FFF7FEBF 		b	SPI_CloseRxTx_ISR
 2937              	.L564:
 2938 003e 7047     		bx	lr
 2939              	.L570:
 2940              		.align	2
 2941              	.L569:
 2942 0040 00000000 		.word	SPI_2linesRxISR_8BITCRC
 2944              		.section	.text.SPI_2linesRxISR_8BITCRC,"ax",%progbits
ARM GAS  /tmp/ccYrA4o1.s 			page 51


 2945              		.align	1
 2946              		.syntax unified
 2947              		.thumb
 2948              		.thumb_func
 2949              		.fpu softvfp
 2951              	SPI_2linesRxISR_8BITCRC:
 2952              		@ args = 0, pretend = 0, frame = 0
 2953              		@ frame_needed = 0, uses_anonymous_args = 0
 2954              		@ link register save eliminated.
 2955 0000 0268     		ldr	r2, [r0]
 2956 0002 117B     		ldrb	r1, [r2, #12]	@ zero_extendqisi2
 2957 0004 5168     		ldr	r1, [r2, #4]
 2958 0006 21F06001 		bic	r1, r1, #96
 2959 000a 5160     		str	r1, [r2, #4]
 2960 000c C38E     		ldrh	r3, [r0, #54]
 2961 000e 9BB2     		uxth	r3, r3
 2962 0010 0BB9     		cbnz	r3, .L571
 2963 0012 FFF7FEBF 		b	SPI_CloseRxTx_ISR
 2964              	.L571:
 2965 0016 7047     		bx	lr
 2967              		.section	.text.SPI_2linesTxISR_16BIT,"ax",%progbits
 2968              		.align	1
 2969              		.syntax unified
 2970              		.thumb
 2971              		.thumb_func
 2972              		.fpu softvfp
 2974              	SPI_2linesTxISR_16BIT:
 2975              		@ args = 0, pretend = 0, frame = 0
 2976              		@ frame_needed = 0, uses_anonymous_args = 0
 2977              		@ link register save eliminated.
 2978 0000 016B     		ldr	r1, [r0, #48]
 2979 0002 10B4     		push	{r4}
 2980 0004 0268     		ldr	r2, [r0]
 2981 0006 31F8024B 		ldrh	r4, [r1], #2
 2982 000a D460     		str	r4, [r2, #12]
 2983 000c 0163     		str	r1, [r0, #48]
 2984 000e C18E     		ldrh	r1, [r0, #54]
 2985 0010 0139     		subs	r1, r1, #1
 2986 0012 89B2     		uxth	r1, r1
 2987 0014 C186     		strh	r1, [r0, #54]	@ movhi
 2988 0016 C18E     		ldrh	r1, [r0, #54]
 2989 0018 89B2     		uxth	r1, r1
 2990 001a 59B9     		cbnz	r1, .L573
 2991 001c 816A     		ldr	r1, [r0, #40]
 2992 001e B1F5005F 		cmp	r1, #8192
 2993 0022 09D1     		bne	.L576
 2994 0024 1368     		ldr	r3, [r2]
 2995 0026 43F48053 		orr	r3, r3, #4096
 2996 002a 1360     		str	r3, [r2]
 2997 002c 5368     		ldr	r3, [r2, #4]
 2998 002e 23F08003 		bic	r3, r3, #128
 2999 0032 5360     		str	r3, [r2, #4]
 3000              	.L573:
 3001 0034 10BC     		pop	{r4}
 3002 0036 7047     		bx	lr
 3003              	.L576:
 3004 0038 5168     		ldr	r1, [r2, #4]
ARM GAS  /tmp/ccYrA4o1.s 			page 52


 3005 003a 21F08001 		bic	r1, r1, #128
 3006 003e 5160     		str	r1, [r2, #4]
 3007 0040 C38F     		ldrh	r3, [r0, #62]
 3008 0042 9BB2     		uxth	r3, r3
 3009 0044 002B     		cmp	r3, #0
 3010 0046 F5D1     		bne	.L573
 3011 0048 10BC     		pop	{r4}
 3012 004a FFF7FEBF 		b	SPI_CloseRxTx_ISR
 3014              		.section	.text.SPI_2linesRxISR_16BIT,"ax",%progbits
 3015              		.align	1
 3016              		.syntax unified
 3017              		.thumb
 3018              		.thumb_func
 3019              		.fpu softvfp
 3021              	SPI_2linesRxISR_16BIT:
 3022              		@ args = 0, pretend = 0, frame = 0
 3023              		@ frame_needed = 0, uses_anonymous_args = 0
 3024              		@ link register save eliminated.
 3025 0000 0168     		ldr	r1, [r0]
 3026 0002 826B     		ldr	r2, [r0, #56]
 3027 0004 10B4     		push	{r4}
 3028 0006 CC68     		ldr	r4, [r1, #12]
 3029 0008 22F8024B 		strh	r4, [r2], #2	@ movhi
 3030 000c 8263     		str	r2, [r0, #56]
 3031 000e C28F     		ldrh	r2, [r0, #62]
 3032 0010 013A     		subs	r2, r2, #1
 3033 0012 92B2     		uxth	r2, r2
 3034 0014 C287     		strh	r2, [r0, #62]	@ movhi
 3035 0016 C28F     		ldrh	r2, [r0, #62]
 3036 0018 92B2     		uxth	r2, r2
 3037 001a 2AB9     		cbnz	r2, .L578
 3038 001c 826A     		ldr	r2, [r0, #40]
 3039 001e B2F5005F 		cmp	r2, #8192
 3040 0022 03D1     		bne	.L581
 3041 0024 074A     		ldr	r2, .L583
 3042 0026 0264     		str	r2, [r0, #64]
 3043              	.L578:
 3044 0028 10BC     		pop	{r4}
 3045 002a 7047     		bx	lr
 3046              	.L581:
 3047 002c 4A68     		ldr	r2, [r1, #4]
 3048 002e 22F04002 		bic	r2, r2, #64
 3049 0032 4A60     		str	r2, [r1, #4]
 3050 0034 C38E     		ldrh	r3, [r0, #54]
 3051 0036 9BB2     		uxth	r3, r3
 3052 0038 002B     		cmp	r3, #0
 3053 003a F5D1     		bne	.L578
 3054 003c 10BC     		pop	{r4}
 3055 003e FFF7FEBF 		b	SPI_CloseRxTx_ISR
 3056              	.L584:
 3057 0042 00BF     		.align	2
 3058              	.L583:
 3059 0044 00000000 		.word	SPI_2linesRxISR_16BITCRC
 3061              		.section	.text.SPI_2linesRxISR_16BITCRC,"ax",%progbits
 3062              		.align	1
 3063              		.syntax unified
 3064              		.thumb
ARM GAS  /tmp/ccYrA4o1.s 			page 53


 3065              		.thumb_func
 3066              		.fpu softvfp
 3068              	SPI_2linesRxISR_16BITCRC:
 3069              		@ args = 0, pretend = 0, frame = 0
 3070              		@ frame_needed = 0, uses_anonymous_args = 0
 3071              		@ link register save eliminated.
 3072 0000 0368     		ldr	r3, [r0]
 3073 0002 DA68     		ldr	r2, [r3, #12]
 3074 0004 5A68     		ldr	r2, [r3, #4]
 3075 0006 22F04002 		bic	r2, r2, #64
 3076 000a 5A60     		str	r2, [r3, #4]
 3077 000c FFF7FEBF 		b	SPI_CloseRxTx_ISR
 3079              		.section	.text.SPI_DMAReceiveCplt,"ax",%progbits
 3080              		.align	1
 3081              		.syntax unified
 3082              		.thumb
 3083              		.thumb_func
 3084              		.fpu softvfp
 3086              	SPI_DMAReceiveCplt:
 3087              		@ args = 0, pretend = 0, frame = 0
 3088              		@ frame_needed = 0, uses_anonymous_args = 0
 3089 0000 73B5     		push	{r0, r1, r4, r5, r6, lr}
 3090 0002 0646     		mov	r6, r0
 3091 0004 446A     		ldr	r4, [r0, #36]
 3092 0006 FFF7FEFF 		bl	HAL_GetTick
 3093 000a 3368     		ldr	r3, [r6]
 3094 000c 0546     		mov	r5, r0
 3095 000e 1B68     		ldr	r3, [r3]
 3096 0010 9906     		lsls	r1, r3, #26
 3097 0012 3FD4     		bmi	.L587
 3098 0014 2268     		ldr	r2, [r4]
 3099 0016 5368     		ldr	r3, [r2, #4]
 3100 0018 23F02003 		bic	r3, r3, #32
 3101 001c 5360     		str	r3, [r2, #4]
 3102 001e A36A     		ldr	r3, [r4, #40]
 3103 0020 B3F5005F 		cmp	r3, #8192
 3104 0024 0DD1     		bne	.L588
 3105 0026 0122     		movs	r2, #1
 3106 0028 0090     		str	r0, [sp]
 3107 002a 6423     		movs	r3, #100
 3108 002c 1146     		mov	r1, r2
 3109 002e 2046     		mov	r0, r4
 3110 0030 FFF7FEFF 		bl	SPI_WaitFlagStateUntilTimeout
 3111 0034 18B1     		cbz	r0, .L589
 3112 0036 636D     		ldr	r3, [r4, #84]
 3113 0038 43F00203 		orr	r3, r3, #2
 3114 003c 6365     		str	r3, [r4, #84]
 3115              	.L589:
 3116 003e 2368     		ldr	r3, [r4]
 3117 0040 DB68     		ldr	r3, [r3, #12]
 3118              	.L588:
 3119 0042 2268     		ldr	r2, [r4]
 3120 0044 6421     		movs	r1, #100
 3121 0046 5368     		ldr	r3, [r2, #4]
 3122 0048 2046     		mov	r0, r4
 3123 004a 23F00303 		bic	r3, r3, #3
 3124 004e 5360     		str	r3, [r2, #4]
ARM GAS  /tmp/ccYrA4o1.s 			page 54


 3125 0050 2A46     		mov	r2, r5
 3126 0052 FFF7FEFF 		bl	SPI_EndRxTransaction
 3127 0056 08B1     		cbz	r0, .L590
 3128 0058 2023     		movs	r3, #32
 3129 005a 6365     		str	r3, [r4, #84]
 3130              	.L590:
 3131 005c 0023     		movs	r3, #0
 3132 005e E387     		strh	r3, [r4, #62]	@ movhi
 3133 0060 0123     		movs	r3, #1
 3134 0062 84F85130 		strb	r3, [r4, #81]
 3135 0066 2368     		ldr	r3, [r4]
 3136 0068 9A68     		ldr	r2, [r3, #8]
 3137 006a D206     		lsls	r2, r2, #27
 3138 006c 0BD5     		bpl	.L591
 3139 006e 626D     		ldr	r2, [r4, #84]
 3140 0070 42F00202 		orr	r2, r2, #2
 3141 0074 6265     		str	r2, [r4, #84]
 3142 0076 1A68     		ldr	r2, [r3]
 3143 0078 22F40052 		bic	r2, r2, #8192
 3144 007c 1A60     		str	r2, [r3]
 3145 007e 1A68     		ldr	r2, [r3]
 3146 0080 42F40052 		orr	r2, r2, #8192
 3147 0084 1A60     		str	r2, [r3]
 3148              	.L591:
 3149 0086 636D     		ldr	r3, [r4, #84]
 3150 0088 23B1     		cbz	r3, .L587
 3151 008a 2046     		mov	r0, r4
 3152 008c FFF7FEFF 		bl	HAL_SPI_ErrorCallback
 3153              	.L586:
 3154 0090 02B0     		add	sp, sp, #8
 3155              		@ sp needed
 3156 0092 70BD     		pop	{r4, r5, r6, pc}
 3157              	.L587:
 3158 0094 2046     		mov	r0, r4
 3159 0096 FFF7FEFF 		bl	HAL_SPI_RxCpltCallback
 3160 009a F9E7     		b	.L586
 3162              		.section	.text.SPI_DMATransmitReceiveCplt,"ax",%progbits
 3163              		.align	1
 3164              		.syntax unified
 3165              		.thumb
 3166              		.thumb_func
 3167              		.fpu softvfp
 3169              	SPI_DMATransmitReceiveCplt:
 3170              		@ args = 0, pretend = 0, frame = 0
 3171              		@ frame_needed = 0, uses_anonymous_args = 0
 3172 0000 73B5     		push	{r0, r1, r4, r5, r6, lr}
 3173 0002 0646     		mov	r6, r0
 3174 0004 446A     		ldr	r4, [r0, #36]
 3175 0006 FFF7FEFF 		bl	HAL_GetTick
 3176 000a 3368     		ldr	r3, [r6]
 3177 000c 0546     		mov	r5, r0
 3178 000e 1B68     		ldr	r3, [r3]
 3179 0010 9906     		lsls	r1, r3, #26
 3180 0012 41D4     		bmi	.L606
 3181 0014 2268     		ldr	r2, [r4]
 3182 0016 5368     		ldr	r3, [r2, #4]
 3183 0018 23F02003 		bic	r3, r3, #32
ARM GAS  /tmp/ccYrA4o1.s 			page 55


 3184 001c 5360     		str	r3, [r2, #4]
 3185 001e A36A     		ldr	r3, [r4, #40]
 3186 0020 B3F5005F 		cmp	r3, #8192
 3187 0024 0DD1     		bne	.L607
 3188 0026 0122     		movs	r2, #1
 3189 0028 0090     		str	r0, [sp]
 3190 002a 6423     		movs	r3, #100
 3191 002c 1146     		mov	r1, r2
 3192 002e 2046     		mov	r0, r4
 3193 0030 FFF7FEFF 		bl	SPI_WaitFlagStateUntilTimeout
 3194 0034 18B1     		cbz	r0, .L608
 3195 0036 636D     		ldr	r3, [r4, #84]
 3196 0038 43F00203 		orr	r3, r3, #2
 3197 003c 6365     		str	r3, [r4, #84]
 3198              	.L608:
 3199 003e 2368     		ldr	r3, [r4]
 3200 0040 DB68     		ldr	r3, [r3, #12]
 3201              	.L607:
 3202 0042 2A46     		mov	r2, r5
 3203 0044 6421     		movs	r1, #100
 3204 0046 2046     		mov	r0, r4
 3205 0048 FFF7FEFF 		bl	SPI_EndRxTxTransaction
 3206 004c 18B1     		cbz	r0, .L609
 3207 004e 636D     		ldr	r3, [r4, #84]
 3208 0050 43F02003 		orr	r3, r3, #32
 3209 0054 6365     		str	r3, [r4, #84]
 3210              	.L609:
 3211 0056 2368     		ldr	r3, [r4]
 3212 0058 5A68     		ldr	r2, [r3, #4]
 3213 005a 22F00302 		bic	r2, r2, #3
 3214 005e 5A60     		str	r2, [r3, #4]
 3215 0060 0022     		movs	r2, #0
 3216 0062 E286     		strh	r2, [r4, #54]	@ movhi
 3217 0064 E287     		strh	r2, [r4, #62]	@ movhi
 3218 0066 0122     		movs	r2, #1
 3219 0068 84F85120 		strb	r2, [r4, #81]
 3220 006c 9A68     		ldr	r2, [r3, #8]
 3221 006e D206     		lsls	r2, r2, #27
 3222 0070 0BD5     		bpl	.L610
 3223 0072 626D     		ldr	r2, [r4, #84]
 3224 0074 42F00202 		orr	r2, r2, #2
 3225 0078 6265     		str	r2, [r4, #84]
 3226 007a 1A68     		ldr	r2, [r3]
 3227 007c 22F40052 		bic	r2, r2, #8192
 3228 0080 1A60     		str	r2, [r3]
 3229 0082 1A68     		ldr	r2, [r3]
 3230 0084 42F40052 		orr	r2, r2, #8192
 3231 0088 1A60     		str	r2, [r3]
 3232              	.L610:
 3233 008a 636D     		ldr	r3, [r4, #84]
 3234 008c 23B1     		cbz	r3, .L606
 3235 008e 2046     		mov	r0, r4
 3236 0090 FFF7FEFF 		bl	HAL_SPI_ErrorCallback
 3237              	.L605:
 3238 0094 02B0     		add	sp, sp, #8
 3239              		@ sp needed
 3240 0096 70BD     		pop	{r4, r5, r6, pc}
ARM GAS  /tmp/ccYrA4o1.s 			page 56


 3241              	.L606:
 3242 0098 2046     		mov	r0, r4
 3243 009a FFF7FEFF 		bl	HAL_SPI_TxRxCpltCallback
 3244 009e F9E7     		b	.L605
 3246              		.section	.text.HAL_SPI_AbortCpltCallback,"ax",%progbits
 3247              		.align	1
 3248              		.weak	HAL_SPI_AbortCpltCallback
 3249              		.syntax unified
 3250              		.thumb
 3251              		.thumb_func
 3252              		.fpu softvfp
 3254              	HAL_SPI_AbortCpltCallback:
 3255              		@ args = 0, pretend = 0, frame = 0
 3256              		@ frame_needed = 0, uses_anonymous_args = 0
 3257              		@ link register save eliminated.
 3258 0000 7047     		bx	lr
 3260              		.section	.text.HAL_SPI_Abort_IT,"ax",%progbits
 3261              		.align	1
 3262              		.global	HAL_SPI_Abort_IT
 3263              		.syntax unified
 3264              		.thumb
 3265              		.thumb_func
 3266              		.fpu softvfp
 3268              	HAL_SPI_Abort_IT:
 3269              		@ args = 0, pretend = 0, frame = 16
 3270              		@ frame_needed = 0, uses_anonymous_args = 0
 3271 0000 45F6C052 		movw	r2, #24000
 3272 0004 424B     		ldr	r3, .L668
 3273 0006 30B5     		push	{r4, r5, lr}
 3274 0008 1B68     		ldr	r3, [r3]
 3275 000a 85B0     		sub	sp, sp, #20
 3276 000c B3FBF2F2 		udiv	r2, r3, r2
 3277 0010 6423     		movs	r3, #100
 3278 0012 5343     		muls	r3, r2, r3
 3279 0014 0293     		str	r3, [sp, #8]
 3280 0016 029B     		ldr	r3, [sp, #8]
 3281 0018 0446     		mov	r4, r0
 3282 001a 0193     		str	r3, [sp, #4]
 3283 001c 0368     		ldr	r3, [r0]
 3284 001e 5A68     		ldr	r2, [r3, #4]
 3285 0020 22F02002 		bic	r2, r2, #32
 3286 0024 5A60     		str	r2, [r3, #4]
 3287 0026 5A68     		ldr	r2, [r3, #4]
 3288 0028 1006     		lsls	r0, r2, #24
 3289 002a 0AD5     		bpl	.L626
 3290 002c 394A     		ldr	r2, .L668+4
 3291 002e 6264     		str	r2, [r4, #68]
 3292              	.L629:
 3293 0030 019A     		ldr	r2, [sp, #4]
 3294 0032 002A     		cmp	r2, #0
 3295 0034 3ED1     		bne	.L627
 3296 0036 626D     		ldr	r2, [r4, #84]
 3297 0038 42F04002 		orr	r2, r2, #64
 3298 003c 6265     		str	r2, [r4, #84]
 3299              	.L628:
 3300 003e 029A     		ldr	r2, [sp, #8]
 3301 0040 0192     		str	r2, [sp, #4]
ARM GAS  /tmp/ccYrA4o1.s 			page 57


 3302              	.L626:
 3303 0042 5A68     		ldr	r2, [r3, #4]
 3304 0044 5106     		lsls	r1, r2, #25
 3305 0046 0AD5     		bpl	.L630
 3306 0048 334A     		ldr	r2, .L668+8
 3307 004a 2264     		str	r2, [r4, #64]
 3308              	.L633:
 3309 004c 019A     		ldr	r2, [sp, #4]
 3310 004e 002A     		cmp	r2, #0
 3311 0050 38D1     		bne	.L631
 3312 0052 626D     		ldr	r2, [r4, #84]
 3313 0054 42F04002 		orr	r2, r2, #64
 3314 0058 6265     		str	r2, [r4, #84]
 3315              	.L632:
 3316 005a 029A     		ldr	r2, [sp, #8]
 3317 005c 0192     		str	r2, [sp, #4]
 3318              	.L630:
 3319 005e A06C     		ldr	r0, [r4, #72]
 3320 0060 28B1     		cbz	r0, .L634
 3321 0062 5A68     		ldr	r2, [r3, #4]
 3322 0064 12F00202 		ands	r2, r2, #2
 3323 0068 18BF     		it	ne
 3324 006a 2C4A     		ldrne	r2, .L668+12
 3325 006c 4263     		str	r2, [r0, #52]
 3326              	.L634:
 3327 006e E16C     		ldr	r1, [r4, #76]
 3328 0070 29B1     		cbz	r1, .L636
 3329 0072 5A68     		ldr	r2, [r3, #4]
 3330 0074 12F00102 		ands	r2, r2, #1
 3331 0078 18BF     		it	ne
 3332 007a 294A     		ldrne	r2, .L668+16
 3333 007c 4A63     		str	r2, [r1, #52]
 3334              	.L636:
 3335 007e 5B68     		ldr	r3, [r3, #4]
 3336 0080 9A07     		lsls	r2, r3, #30
 3337 0082 09D5     		bpl	.L645
 3338 0084 40B1     		cbz	r0, .L645
 3339 0086 FFF7FEFF 		bl	HAL_DMA_Abort_IT
 3340 008a 0546     		mov	r5, r0
 3341 008c 28B1     		cbz	r0, .L638
 3342 008e 0022     		movs	r2, #0
 3343 0090 A36C     		ldr	r3, [r4, #72]
 3344 0092 5A63     		str	r2, [r3, #52]
 3345 0094 4023     		movs	r3, #64
 3346 0096 6365     		str	r3, [r4, #84]
 3347              	.L645:
 3348 0098 0125     		movs	r5, #1
 3349              	.L638:
 3350 009a 2368     		ldr	r3, [r4]
 3351 009c 5B68     		ldr	r3, [r3, #4]
 3352 009e DB07     		lsls	r3, r3, #31
 3353 00a0 1DD5     		bpl	.L639
 3354 00a2 E06C     		ldr	r0, [r4, #76]
 3355 00a4 D8B1     		cbz	r0, .L639
 3356 00a6 FFF7FEFF 		bl	HAL_DMA_Abort_IT
 3357 00aa 98B9     		cbnz	r0, .L640
 3358              	.L642:
ARM GAS  /tmp/ccYrA4o1.s 			page 58


 3359 00ac 0025     		movs	r5, #0
 3360              	.L641:
 3361 00ae 2846     		mov	r0, r5
 3362 00b0 05B0     		add	sp, sp, #20
 3363              		@ sp needed
 3364 00b2 30BD     		pop	{r4, r5, pc}
 3365              	.L627:
 3366 00b4 019A     		ldr	r2, [sp, #4]
 3367 00b6 013A     		subs	r2, r2, #1
 3368 00b8 0192     		str	r2, [sp, #4]
 3369 00ba 94F85120 		ldrb	r2, [r4, #81]	@ zero_extendqisi2
 3370 00be 072A     		cmp	r2, #7
 3371 00c0 B6D1     		bne	.L629
 3372 00c2 BCE7     		b	.L628
 3373              	.L631:
 3374 00c4 019A     		ldr	r2, [sp, #4]
 3375 00c6 013A     		subs	r2, r2, #1
 3376 00c8 0192     		str	r2, [sp, #4]
 3377 00ca 94F85120 		ldrb	r2, [r4, #81]	@ zero_extendqisi2
 3378 00ce 072A     		cmp	r2, #7
 3379 00d0 BCD1     		bne	.L633
 3380 00d2 C2E7     		b	.L632
 3381              	.L640:
 3382 00d4 0022     		movs	r2, #0
 3383 00d6 E36C     		ldr	r3, [r4, #76]
 3384 00d8 5A63     		str	r2, [r3, #52]
 3385 00da 4023     		movs	r3, #64
 3386 00dc 6365     		str	r3, [r4, #84]
 3387              	.L639:
 3388 00de 002D     		cmp	r5, #0
 3389 00e0 E4D0     		beq	.L642
 3390 00e2 0023     		movs	r3, #0
 3391 00e4 E387     		strh	r3, [r4, #62]	@ movhi
 3392 00e6 E386     		strh	r3, [r4, #54]	@ movhi
 3393 00e8 626D     		ldr	r2, [r4, #84]
 3394 00ea 2046     		mov	r0, r4
 3395 00ec 402A     		cmp	r2, #64
 3396 00ee 1CBF     		itt	ne
 3397 00f0 6365     		strne	r3, [r4, #84]
 3398 00f2 1D46     		movne	r5, r3
 3399 00f4 0393     		str	r3, [sp, #12]
 3400 00f6 2368     		ldr	r3, [r4]
 3401 00f8 DA68     		ldr	r2, [r3, #12]
 3402 00fa 0392     		str	r2, [sp, #12]
 3403 00fc 9B68     		ldr	r3, [r3, #8]
 3404 00fe 0393     		str	r3, [sp, #12]
 3405 0100 039B     		ldr	r3, [sp, #12]
 3406 0102 0123     		movs	r3, #1
 3407 0104 84F85130 		strb	r3, [r4, #81]
 3408 0108 FFF7FEFF 		bl	HAL_SPI_AbortCpltCallback
 3409 010c CFE7     		b	.L641
 3410              	.L669:
 3411 010e 00BF     		.align	2
 3412              	.L668:
 3413 0110 00000000 		.word	SystemCoreClock
 3414 0114 00000000 		.word	SPI_AbortTx_ISR
 3415 0118 00000000 		.word	SPI_AbortRx_ISR
ARM GAS  /tmp/ccYrA4o1.s 			page 59


 3416 011c 00000000 		.word	SPI_DMATxAbortCallback
 3417 0120 00000000 		.word	SPI_DMARxAbortCallback
 3419              		.section	.text.SPI_DMARxAbortCallback,"ax",%progbits
 3420              		.align	1
 3421              		.syntax unified
 3422              		.thumb
 3423              		.thumb_func
 3424              		.fpu softvfp
 3426              	SPI_DMARxAbortCallback:
 3427              		@ args = 0, pretend = 0, frame = 8
 3428              		@ frame_needed = 0, uses_anonymous_args = 0
 3429 0000 13B5     		push	{r0, r1, r4, lr}
 3430 0002 0021     		movs	r1, #0
 3431 0004 446A     		ldr	r4, [r0, #36]
 3432 0006 2368     		ldr	r3, [r4]
 3433 0008 1A68     		ldr	r2, [r3]
 3434 000a 22F04002 		bic	r2, r2, #64
 3435 000e 1A60     		str	r2, [r3]
 3436 0010 E26C     		ldr	r2, [r4, #76]
 3437 0012 5163     		str	r1, [r2, #52]
 3438 0014 5A68     		ldr	r2, [r3, #4]
 3439 0016 22F00102 		bic	r2, r2, #1
 3440 001a 5A60     		str	r2, [r3, #4]
 3441 001c FFF7FEFF 		bl	HAL_GetTick
 3442 0020 6421     		movs	r1, #100
 3443 0022 0246     		mov	r2, r0
 3444 0024 2046     		mov	r0, r4
 3445 0026 FFF7FEFF 		bl	SPI_EndRxTxTransaction
 3446 002a 18B1     		cbz	r0, .L671
 3447 002c 636D     		ldr	r3, [r4, #84]
 3448 002e 43F04003 		orr	r3, r3, #64
 3449 0032 6365     		str	r3, [r4, #84]
 3450              	.L671:
 3451 0034 A36C     		ldr	r3, [r4, #72]
 3452 0036 0BB1     		cbz	r3, .L672
 3453 0038 5B6B     		ldr	r3, [r3, #52]
 3454 003a 9BB9     		cbnz	r3, .L670
 3455              	.L672:
 3456 003c 0023     		movs	r3, #0
 3457 003e E387     		strh	r3, [r4, #62]	@ movhi
 3458 0040 E386     		strh	r3, [r4, #54]	@ movhi
 3459 0042 626D     		ldr	r2, [r4, #84]
 3460 0044 2046     		mov	r0, r4
 3461 0046 402A     		cmp	r2, #64
 3462 0048 18BF     		it	ne
 3463 004a 6365     		strne	r3, [r4, #84]
 3464 004c 0193     		str	r3, [sp, #4]
 3465 004e 2368     		ldr	r3, [r4]
 3466 0050 DA68     		ldr	r2, [r3, #12]
 3467 0052 0192     		str	r2, [sp, #4]
 3468 0054 9B68     		ldr	r3, [r3, #8]
 3469 0056 0193     		str	r3, [sp, #4]
 3470 0058 019B     		ldr	r3, [sp, #4]
 3471 005a 0123     		movs	r3, #1
 3472 005c 84F85130 		strb	r3, [r4, #81]
 3473 0060 FFF7FEFF 		bl	HAL_SPI_AbortCpltCallback
 3474              	.L670:
ARM GAS  /tmp/ccYrA4o1.s 			page 60


 3475 0064 02B0     		add	sp, sp, #8
 3476              		@ sp needed
 3477 0066 10BD     		pop	{r4, pc}
 3479              		.section	.text.SPI_DMATxAbortCallback,"ax",%progbits
 3480              		.align	1
 3481              		.syntax unified
 3482              		.thumb
 3483              		.thumb_func
 3484              		.fpu softvfp
 3486              	SPI_DMATxAbortCallback:
 3487              		@ args = 0, pretend = 0, frame = 8
 3488              		@ frame_needed = 0, uses_anonymous_args = 0
 3489 0000 07B5     		push	{r0, r1, r2, lr}
 3490 0002 0022     		movs	r2, #0
 3491 0004 406A     		ldr	r0, [r0, #36]
 3492 0006 836C     		ldr	r3, [r0, #72]
 3493 0008 5A63     		str	r2, [r3, #52]
 3494 000a 45F6C052 		movw	r2, #24000
 3495 000e 194B     		ldr	r3, .L699
 3496 0010 1B68     		ldr	r3, [r3]
 3497 0012 B3FBF2F2 		udiv	r2, r3, r2
 3498 0016 6423     		movs	r3, #100
 3499 0018 5343     		muls	r3, r2, r3
 3500 001a 0268     		ldr	r2, [r0]
 3501 001c 0093     		str	r3, [sp]
 3502 001e 5368     		ldr	r3, [r2, #4]
 3503 0020 23F00203 		bic	r3, r3, #2
 3504 0024 5360     		str	r3, [r2, #4]
 3505              	.L687:
 3506 0026 009B     		ldr	r3, [sp]
 3507 0028 E3B9     		cbnz	r3, .L685
 3508 002a 436D     		ldr	r3, [r0, #84]
 3509 002c 43F04003 		orr	r3, r3, #64
 3510 0030 4365     		str	r3, [r0, #84]
 3511              	.L686:
 3512 0032 C36C     		ldr	r3, [r0, #76]
 3513 0034 0BB1     		cbz	r3, .L688
 3514 0036 5B6B     		ldr	r3, [r3, #52]
 3515 0038 8BB9     		cbnz	r3, .L684
 3516              	.L688:
 3517 003a 0023     		movs	r3, #0
 3518 003c C387     		strh	r3, [r0, #62]	@ movhi
 3519 003e C386     		strh	r3, [r0, #54]	@ movhi
 3520 0040 416D     		ldr	r1, [r0, #84]
 3521 0042 4029     		cmp	r1, #64
 3522 0044 18BF     		it	ne
 3523 0046 4365     		strne	r3, [r0, #84]
 3524 0048 0193     		str	r3, [sp, #4]
 3525 004a D368     		ldr	r3, [r2, #12]
 3526 004c 0193     		str	r3, [sp, #4]
 3527 004e 9368     		ldr	r3, [r2, #8]
 3528 0050 0193     		str	r3, [sp, #4]
 3529 0052 019B     		ldr	r3, [sp, #4]
 3530 0054 0123     		movs	r3, #1
 3531 0056 80F85130 		strb	r3, [r0, #81]
 3532 005a FFF7FEFF 		bl	HAL_SPI_AbortCpltCallback
 3533              	.L684:
ARM GAS  /tmp/ccYrA4o1.s 			page 61


 3534 005e 03B0     		add	sp, sp, #12
 3535              		@ sp needed
 3536 0060 5DF804FB 		ldr	pc, [sp], #4
 3537              	.L685:
 3538 0064 009B     		ldr	r3, [sp]
 3539 0066 013B     		subs	r3, r3, #1
 3540 0068 0093     		str	r3, [sp]
 3541 006a 9368     		ldr	r3, [r2, #8]
 3542 006c 9B07     		lsls	r3, r3, #30
 3543 006e DAD5     		bpl	.L687
 3544 0070 DFE7     		b	.L686
 3545              	.L700:
 3546 0072 00BF     		.align	2
 3547              	.L699:
 3548 0074 00000000 		.word	SystemCoreClock
 3550              		.section	.text.HAL_SPI_GetState,"ax",%progbits
 3551              		.align	1
 3552              		.global	HAL_SPI_GetState
 3553              		.syntax unified
 3554              		.thumb
 3555              		.thumb_func
 3556              		.fpu softvfp
 3558              	HAL_SPI_GetState:
 3559              		@ args = 0, pretend = 0, frame = 0
 3560              		@ frame_needed = 0, uses_anonymous_args = 0
 3561              		@ link register save eliminated.
 3562 0000 90F85100 		ldrb	r0, [r0, #81]	@ zero_extendqisi2
 3563 0004 7047     		bx	lr
 3565              		.section	.text.HAL_SPI_GetError,"ax",%progbits
 3566              		.align	1
 3567              		.global	HAL_SPI_GetError
 3568              		.syntax unified
 3569              		.thumb
 3570              		.thumb_func
 3571              		.fpu softvfp
 3573              	HAL_SPI_GetError:
 3574              		@ args = 0, pretend = 0, frame = 0
 3575              		@ frame_needed = 0, uses_anonymous_args = 0
 3576              		@ link register save eliminated.
 3577 0000 406D     		ldr	r0, [r0, #84]
 3578 0002 7047     		bx	lr
 3580              		.section	.text.SPI_ISCRCErrorValid,"ax",%progbits
 3581              		.align	1
 3582              		.global	SPI_ISCRCErrorValid
 3583              		.syntax unified
 3584              		.thumb
 3585              		.thumb_func
 3586              		.fpu softvfp
 3588              	SPI_ISCRCErrorValid:
 3589              		@ args = 0, pretend = 0, frame = 0
 3590              		@ frame_needed = 0, uses_anonymous_args = 0
 3591              		@ link register save eliminated.
 3592 0000 0120     		movs	r0, #1
 3593 0002 7047     		bx	lr
 3595              		.ident	"GCC: (GNU Tools for Arm Embedded Processors 9-2019-q4-major) 9.2.1 20191025 (release) [ARM
ARM GAS  /tmp/ccYrA4o1.s 			page 62

