ARM GAS  /tmp/ccqL1RRp.s 			page 1


   1              		.cpu cortex-m3
   2              		.eabi_attribute 20, 1
   3              		.eabi_attribute 21, 1
   4              		.eabi_attribute 23, 3
   5              		.eabi_attribute 24, 1
   6              		.eabi_attribute 25, 1
   7              		.eabi_attribute 26, 1
   8              		.eabi_attribute 30, 4
   9              		.eabi_attribute 34, 1
  10              		.eabi_attribute 18, 4
  11              		.file	"stm32f1xx_hal_tim.c"
  12              		.section	.text.HAL_TIM_ErrorCallback,"ax",%progbits
  13              		.align	1
  14              		.weak	HAL_TIM_ErrorCallback
  15              		.syntax unified
  16              		.thumb
  17              		.thumb_func
  18              		.fpu softvfp
  20              	HAL_TIM_ErrorCallback:
  21              		@ args = 0, pretend = 0, frame = 0
  22              		@ frame_needed = 0, uses_anonymous_args = 0
  23              		@ link register save eliminated.
  24 0000 7047     		bx	lr
  26              		.section	.text.TIM_DMAError,"ax",%progbits
  27              		.align	1
  28              		.global	TIM_DMAError
  29              		.syntax unified
  30              		.thumb
  31              		.thumb_func
  32              		.fpu softvfp
  34              	TIM_DMAError:
  35              		@ args = 0, pretend = 0, frame = 0
  36              		@ frame_needed = 0, uses_anonymous_args = 0
  37              		@ link register save eliminated.
  38 0000 0123     		movs	r3, #1
  39 0002 406A     		ldr	r0, [r0, #36]
  40 0004 80F83D30 		strb	r3, [r0, #61]
  41 0008 D0F89C30 		ldr	r3, [r0, #156]
  42 000c 1847     		bx	r3	@ indirect register sibling call
  44              		.section	.text.TIM_DMADelayPulseCplt,"ax",%progbits
  45              		.align	1
  46              		.global	TIM_DMADelayPulseCplt
  47              		.syntax unified
  48              		.thumb
  49              		.thumb_func
  50              		.fpu softvfp
  52              	TIM_DMADelayPulseCplt:
  53              		@ args = 0, pretend = 0, frame = 0
  54              		@ frame_needed = 0, uses_anonymous_args = 0
  55 0000 0123     		movs	r3, #1
  56 0002 10B5     		push	{r4, lr}
  57 0004 446A     		ldr	r4, [r0, #36]
  58 0006 626A     		ldr	r2, [r4, #36]
  59 0008 84F83D30 		strb	r3, [r4, #61]
  60 000c 9042     		cmp	r0, r2
  61 000e 07D1     		bne	.L4
  62              	.L8:
ARM GAS  /tmp/ccqL1RRp.s 			page 2


  63 0010 2377     		strb	r3, [r4, #28]
  64              	.L5:
  65 0012 D4F89430 		ldr	r3, [r4, #148]
  66 0016 2046     		mov	r0, r4
  67 0018 9847     		blx	r3
  68 001a 0023     		movs	r3, #0
  69 001c 2377     		strb	r3, [r4, #28]
  70 001e 10BD     		pop	{r4, pc}
  71              	.L4:
  72 0020 A36A     		ldr	r3, [r4, #40]
  73 0022 9842     		cmp	r0, r3
  74 0024 01D1     		bne	.L6
  75 0026 0223     		movs	r3, #2
  76 0028 F2E7     		b	.L8
  77              	.L6:
  78 002a E36A     		ldr	r3, [r4, #44]
  79 002c 9842     		cmp	r0, r3
  80 002e 01D1     		bne	.L7
  81 0030 0423     		movs	r3, #4
  82 0032 EDE7     		b	.L8
  83              	.L7:
  84 0034 236B     		ldr	r3, [r4, #48]
  85 0036 9842     		cmp	r0, r3
  86 0038 EBD1     		bne	.L5
  87 003a 0823     		movs	r3, #8
  88 003c E8E7     		b	.L8
  90              		.section	.text.TIM_DMADelayPulseHalfCplt,"ax",%progbits
  91              		.align	1
  92              		.global	TIM_DMADelayPulseHalfCplt
  93              		.syntax unified
  94              		.thumb
  95              		.thumb_func
  96              		.fpu softvfp
  98              	TIM_DMADelayPulseHalfCplt:
  99              		@ args = 0, pretend = 0, frame = 0
 100              		@ frame_needed = 0, uses_anonymous_args = 0
 101 0000 0123     		movs	r3, #1
 102 0002 10B5     		push	{r4, lr}
 103 0004 446A     		ldr	r4, [r0, #36]
 104 0006 626A     		ldr	r2, [r4, #36]
 105 0008 84F83D30 		strb	r3, [r4, #61]
 106 000c 9042     		cmp	r0, r2
 107 000e 07D1     		bne	.L10
 108              	.L14:
 109 0010 2377     		strb	r3, [r4, #28]
 110              	.L11:
 111 0012 D4F89830 		ldr	r3, [r4, #152]
 112 0016 2046     		mov	r0, r4
 113 0018 9847     		blx	r3
 114 001a 0023     		movs	r3, #0
 115 001c 2377     		strb	r3, [r4, #28]
 116 001e 10BD     		pop	{r4, pc}
 117              	.L10:
 118 0020 A36A     		ldr	r3, [r4, #40]
 119 0022 9842     		cmp	r0, r3
 120 0024 01D1     		bne	.L12
 121 0026 0223     		movs	r3, #2
ARM GAS  /tmp/ccqL1RRp.s 			page 3


 122 0028 F2E7     		b	.L14
 123              	.L12:
 124 002a E36A     		ldr	r3, [r4, #44]
 125 002c 9842     		cmp	r0, r3
 126 002e 01D1     		bne	.L13
 127 0030 0423     		movs	r3, #4
 128 0032 EDE7     		b	.L14
 129              	.L13:
 130 0034 236B     		ldr	r3, [r4, #48]
 131 0036 9842     		cmp	r0, r3
 132 0038 EBD1     		bne	.L11
 133 003a 0823     		movs	r3, #8
 134 003c E8E7     		b	.L14
 136              		.section	.text.TIM_DMACaptureCplt,"ax",%progbits
 137              		.align	1
 138              		.global	TIM_DMACaptureCplt
 139              		.syntax unified
 140              		.thumb
 141              		.thumb_func
 142              		.fpu softvfp
 144              	TIM_DMACaptureCplt:
 145              		@ args = 0, pretend = 0, frame = 0
 146              		@ frame_needed = 0, uses_anonymous_args = 0
 147 0000 0123     		movs	r3, #1
 148 0002 10B5     		push	{r4, lr}
 149 0004 446A     		ldr	r4, [r0, #36]
 150 0006 626A     		ldr	r2, [r4, #36]
 151 0008 84F83D30 		strb	r3, [r4, #61]
 152 000c 9042     		cmp	r0, r2
 153 000e 07D1     		bne	.L16
 154              	.L20:
 155 0010 2377     		strb	r3, [r4, #28]
 156              	.L17:
 157 0012 D4F88830 		ldr	r3, [r4, #136]
 158 0016 2046     		mov	r0, r4
 159 0018 9847     		blx	r3
 160 001a 0023     		movs	r3, #0
 161 001c 2377     		strb	r3, [r4, #28]
 162 001e 10BD     		pop	{r4, pc}
 163              	.L16:
 164 0020 A36A     		ldr	r3, [r4, #40]
 165 0022 9842     		cmp	r0, r3
 166 0024 01D1     		bne	.L18
 167 0026 0223     		movs	r3, #2
 168 0028 F2E7     		b	.L20
 169              	.L18:
 170 002a E36A     		ldr	r3, [r4, #44]
 171 002c 9842     		cmp	r0, r3
 172 002e 01D1     		bne	.L19
 173 0030 0423     		movs	r3, #4
 174 0032 EDE7     		b	.L20
 175              	.L19:
 176 0034 236B     		ldr	r3, [r4, #48]
 177 0036 9842     		cmp	r0, r3
 178 0038 EBD1     		bne	.L17
 179 003a 0823     		movs	r3, #8
 180 003c E8E7     		b	.L20
ARM GAS  /tmp/ccqL1RRp.s 			page 4


 182              		.section	.text.TIM_DMACaptureHalfCplt,"ax",%progbits
 183              		.align	1
 184              		.global	TIM_DMACaptureHalfCplt
 185              		.syntax unified
 186              		.thumb
 187              		.thumb_func
 188              		.fpu softvfp
 190              	TIM_DMACaptureHalfCplt:
 191              		@ args = 0, pretend = 0, frame = 0
 192              		@ frame_needed = 0, uses_anonymous_args = 0
 193 0000 0123     		movs	r3, #1
 194 0002 10B5     		push	{r4, lr}
 195 0004 446A     		ldr	r4, [r0, #36]
 196 0006 626A     		ldr	r2, [r4, #36]
 197 0008 84F83D30 		strb	r3, [r4, #61]
 198 000c 9042     		cmp	r0, r2
 199 000e 07D1     		bne	.L22
 200              	.L26:
 201 0010 2377     		strb	r3, [r4, #28]
 202              	.L23:
 203 0012 D4F88C30 		ldr	r3, [r4, #140]
 204 0016 2046     		mov	r0, r4
 205 0018 9847     		blx	r3
 206 001a 0023     		movs	r3, #0
 207 001c 2377     		strb	r3, [r4, #28]
 208 001e 10BD     		pop	{r4, pc}
 209              	.L22:
 210 0020 A36A     		ldr	r3, [r4, #40]
 211 0022 9842     		cmp	r0, r3
 212 0024 01D1     		bne	.L24
 213 0026 0223     		movs	r3, #2
 214 0028 F2E7     		b	.L26
 215              	.L24:
 216 002a E36A     		ldr	r3, [r4, #44]
 217 002c 9842     		cmp	r0, r3
 218 002e 01D1     		bne	.L25
 219 0030 0423     		movs	r3, #4
 220 0032 EDE7     		b	.L26
 221              	.L25:
 222 0034 236B     		ldr	r3, [r4, #48]
 223 0036 9842     		cmp	r0, r3
 224 0038 EBD1     		bne	.L23
 225 003a 0823     		movs	r3, #8
 226 003c E8E7     		b	.L26
 228              		.section	.text.TIM_DMAPeriodElapsedCplt,"ax",%progbits
 229              		.align	1
 230              		.syntax unified
 231              		.thumb
 232              		.thumb_func
 233              		.fpu softvfp
 235              	TIM_DMAPeriodElapsedCplt:
 236              		@ args = 0, pretend = 0, frame = 0
 237              		@ frame_needed = 0, uses_anonymous_args = 0
 238              		@ link register save eliminated.
 239 0000 0123     		movs	r3, #1
 240 0002 406A     		ldr	r0, [r0, #36]
 241 0004 80F83D30 		strb	r3, [r0, #61]
ARM GAS  /tmp/ccqL1RRp.s 			page 5


 242 0008 836F     		ldr	r3, [r0, #120]
 243 000a 1847     		bx	r3	@ indirect register sibling call
 245              		.section	.text.TIM_DMAPeriodElapsedHalfCplt,"ax",%progbits
 246              		.align	1
 247              		.syntax unified
 248              		.thumb
 249              		.thumb_func
 250              		.fpu softvfp
 252              	TIM_DMAPeriodElapsedHalfCplt:
 253              		@ args = 0, pretend = 0, frame = 0
 254              		@ frame_needed = 0, uses_anonymous_args = 0
 255              		@ link register save eliminated.
 256 0000 0123     		movs	r3, #1
 257 0002 406A     		ldr	r0, [r0, #36]
 258 0004 80F83D30 		strb	r3, [r0, #61]
 259 0008 C36F     		ldr	r3, [r0, #124]
 260 000a 1847     		bx	r3	@ indirect register sibling call
 262              		.section	.text.TIM_DMATriggerCplt,"ax",%progbits
 263              		.align	1
 264              		.syntax unified
 265              		.thumb
 266              		.thumb_func
 267              		.fpu softvfp
 269              	TIM_DMATriggerCplt:
 270              		@ args = 0, pretend = 0, frame = 0
 271              		@ frame_needed = 0, uses_anonymous_args = 0
 272              		@ link register save eliminated.
 273 0000 0123     		movs	r3, #1
 274 0002 406A     		ldr	r0, [r0, #36]
 275 0004 80F83D30 		strb	r3, [r0, #61]
 276 0008 D0F88030 		ldr	r3, [r0, #128]
 277 000c 1847     		bx	r3	@ indirect register sibling call
 279              		.section	.text.TIM_DMATriggerHalfCplt,"ax",%progbits
 280              		.align	1
 281              		.syntax unified
 282              		.thumb
 283              		.thumb_func
 284              		.fpu softvfp
 286              	TIM_DMATriggerHalfCplt:
 287              		@ args = 0, pretend = 0, frame = 0
 288              		@ frame_needed = 0, uses_anonymous_args = 0
 289              		@ link register save eliminated.
 290 0000 0123     		movs	r3, #1
 291 0002 406A     		ldr	r0, [r0, #36]
 292 0004 80F83D30 		strb	r3, [r0, #61]
 293 0008 D0F88430 		ldr	r3, [r0, #132]
 294 000c 1847     		bx	r3	@ indirect register sibling call
 296              		.section	.text.TIM_OC1_SetConfig,"ax",%progbits
 297              		.align	1
 298              		.syntax unified
 299              		.thumb
 300              		.thumb_func
 301              		.fpu softvfp
 303              	TIM_OC1_SetConfig:
 304              		@ args = 0, pretend = 0, frame = 0
 305              		@ frame_needed = 0, uses_anonymous_args = 0
 306 0000 036A     		ldr	r3, [r0, #32]
ARM GAS  /tmp/ccqL1RRp.s 			page 6


 307 0002 70B5     		push	{r4, r5, r6, lr}
 308 0004 23F00103 		bic	r3, r3, #1
 309 0008 0362     		str	r3, [r0, #32]
 310 000a 036A     		ldr	r3, [r0, #32]
 311 000c 4468     		ldr	r4, [r0, #4]
 312 000e 8269     		ldr	r2, [r0, #24]
 313 0010 0D68     		ldr	r5, [r1]
 314 0012 22F07302 		bic	r2, r2, #115
 315 0016 2A43     		orrs	r2, r2, r5
 316 0018 8D68     		ldr	r5, [r1, #8]
 317 001a 23F00203 		bic	r3, r3, #2
 318 001e 2B43     		orrs	r3, r3, r5
 319 0020 0E4D     		ldr	r5, .L35
 320 0022 A842     		cmp	r0, r5
 321 0024 02D0     		beq	.L32
 322 0026 0E4E     		ldr	r6, .L35+4
 323 0028 B042     		cmp	r0, r6
 324 002a 10D1     		bne	.L33
 325              	.L32:
 326 002c CE68     		ldr	r6, [r1, #12]
 327 002e 23F00803 		bic	r3, r3, #8
 328 0032 3343     		orrs	r3, r3, r6
 329 0034 A842     		cmp	r0, r5
 330 0036 23F00403 		bic	r3, r3, #4
 331 003a 02D0     		beq	.L34
 332 003c 084D     		ldr	r5, .L35+4
 333 003e A842     		cmp	r0, r5
 334 0040 05D1     		bne	.L33
 335              	.L34:
 336 0042 4D69     		ldr	r5, [r1, #20]
 337 0044 8E69     		ldr	r6, [r1, #24]
 338 0046 24F44074 		bic	r4, r4, #768
 339 004a 3543     		orrs	r5, r5, r6
 340 004c 2C43     		orrs	r4, r4, r5
 341              	.L33:
 342 004e 4460     		str	r4, [r0, #4]
 343 0050 8261     		str	r2, [r0, #24]
 344 0052 4A68     		ldr	r2, [r1, #4]
 345 0054 4263     		str	r2, [r0, #52]
 346 0056 0362     		str	r3, [r0, #32]
 347 0058 70BD     		pop	{r4, r5, r6, pc}
 348              	.L36:
 349 005a 00BF     		.align	2
 350              	.L35:
 351 005c 002C0140 		.word	1073818624
 352 0060 00340140 		.word	1073820672
 354              		.section	.text.TIM_OC3_SetConfig,"ax",%progbits
 355              		.align	1
 356              		.syntax unified
 357              		.thumb
 358              		.thumb_func
 359              		.fpu softvfp
 361              	TIM_OC3_SetConfig:
 362              		@ args = 0, pretend = 0, frame = 0
 363              		@ frame_needed = 0, uses_anonymous_args = 0
 364 0000 036A     		ldr	r3, [r0, #32]
 365 0002 70B5     		push	{r4, r5, r6, lr}
ARM GAS  /tmp/ccqL1RRp.s 			page 7


 366 0004 23F48073 		bic	r3, r3, #256
 367 0008 0362     		str	r3, [r0, #32]
 368 000a 036A     		ldr	r3, [r0, #32]
 369 000c 4468     		ldr	r4, [r0, #4]
 370 000e C269     		ldr	r2, [r0, #28]
 371 0010 0D68     		ldr	r5, [r1]
 372 0012 22F07302 		bic	r2, r2, #115
 373 0016 2A43     		orrs	r2, r2, r5
 374 0018 8D68     		ldr	r5, [r1, #8]
 375 001a 23F40073 		bic	r3, r3, #512
 376 001e 43EA0523 		orr	r3, r3, r5, lsl #8
 377 0022 114D     		ldr	r5, .L41
 378 0024 A842     		cmp	r0, r5
 379 0026 03D0     		beq	.L38
 380 0028 05F50065 		add	r5, r5, #2048
 381 002c A842     		cmp	r0, r5
 382 002e 14D1     		bne	.L39
 383              	.L38:
 384 0030 CD68     		ldr	r5, [r1, #12]
 385 0032 23F40063 		bic	r3, r3, #2048
 386 0036 43EA0523 		orr	r3, r3, r5, lsl #8
 387 003a 0B4D     		ldr	r5, .L41
 388 003c 23F48063 		bic	r3, r3, #1024
 389 0040 A842     		cmp	r0, r5
 390 0042 03D0     		beq	.L40
 391 0044 05F50065 		add	r5, r5, #2048
 392 0048 A842     		cmp	r0, r5
 393 004a 06D1     		bne	.L39
 394              	.L40:
 395 004c 4D69     		ldr	r5, [r1, #20]
 396 004e 8E69     		ldr	r6, [r1, #24]
 397 0050 24F44054 		bic	r4, r4, #12288
 398 0054 3543     		orrs	r5, r5, r6
 399 0056 44EA0514 		orr	r4, r4, r5, lsl #4
 400              	.L39:
 401 005a 4460     		str	r4, [r0, #4]
 402 005c C261     		str	r2, [r0, #28]
 403 005e 4A68     		ldr	r2, [r1, #4]
 404 0060 C263     		str	r2, [r0, #60]
 405 0062 0362     		str	r3, [r0, #32]
 406 0064 70BD     		pop	{r4, r5, r6, pc}
 407              	.L42:
 408 0066 00BF     		.align	2
 409              	.L41:
 410 0068 002C0140 		.word	1073818624
 412              		.section	.text.TIM_OC4_SetConfig,"ax",%progbits
 413              		.align	1
 414              		.syntax unified
 415              		.thumb
 416              		.thumb_func
 417              		.fpu softvfp
 419              	TIM_OC4_SetConfig:
 420              		@ args = 0, pretend = 0, frame = 0
 421              		@ frame_needed = 0, uses_anonymous_args = 0
 422 0000 036A     		ldr	r3, [r0, #32]
 423 0002 30B5     		push	{r4, r5, lr}
 424 0004 23F48053 		bic	r3, r3, #4096
ARM GAS  /tmp/ccqL1RRp.s 			page 8


 425 0008 0362     		str	r3, [r0, #32]
 426 000a 036A     		ldr	r3, [r0, #32]
 427 000c 4468     		ldr	r4, [r0, #4]
 428 000e C269     		ldr	r2, [r0, #28]
 429 0010 0D68     		ldr	r5, [r1]
 430 0012 22F4E642 		bic	r2, r2, #29440
 431 0016 42EA0522 		orr	r2, r2, r5, lsl #8
 432 001a 8D68     		ldr	r5, [r1, #8]
 433 001c 23F40053 		bic	r3, r3, #8192
 434 0020 43EA0533 		orr	r3, r3, r5, lsl #12
 435 0024 084D     		ldr	r5, .L46
 436 0026 A842     		cmp	r0, r5
 437 0028 03D0     		beq	.L44
 438 002a 05F50065 		add	r5, r5, #2048
 439 002e A842     		cmp	r0, r5
 440 0030 04D1     		bne	.L45
 441              	.L44:
 442 0032 4D69     		ldr	r5, [r1, #20]
 443 0034 24F48044 		bic	r4, r4, #16384
 444 0038 44EA8514 		orr	r4, r4, r5, lsl #6
 445              	.L45:
 446 003c 4460     		str	r4, [r0, #4]
 447 003e C261     		str	r2, [r0, #28]
 448 0040 4A68     		ldr	r2, [r1, #4]
 449 0042 0264     		str	r2, [r0, #64]
 450 0044 0362     		str	r3, [r0, #32]
 451 0046 30BD     		pop	{r4, r5, pc}
 452              	.L47:
 453              		.align	2
 454              	.L46:
 455 0048 002C0140 		.word	1073818624
 457              		.section	.text.HAL_TIM_Base_MspInit,"ax",%progbits
 458              		.align	1
 459              		.weak	HAL_TIM_Base_MspInit
 460              		.syntax unified
 461              		.thumb
 462              		.thumb_func
 463              		.fpu softvfp
 465              	HAL_TIM_Base_MspInit:
 466              		@ args = 0, pretend = 0, frame = 0
 467              		@ frame_needed = 0, uses_anonymous_args = 0
 468              		@ link register save eliminated.
 469 0000 7047     		bx	lr
 471              		.section	.text.HAL_TIM_Base_MspDeInit,"ax",%progbits
 472              		.align	1
 473              		.weak	HAL_TIM_Base_MspDeInit
 474              		.syntax unified
 475              		.thumb
 476              		.thumb_func
 477              		.fpu softvfp
 479              	HAL_TIM_Base_MspDeInit:
 480              		@ args = 0, pretend = 0, frame = 0
 481              		@ frame_needed = 0, uses_anonymous_args = 0
 482              		@ link register save eliminated.
 483 0000 7047     		bx	lr
 485              		.section	.text.HAL_TIM_OC_MspInit,"ax",%progbits
 486              		.align	1
ARM GAS  /tmp/ccqL1RRp.s 			page 9


 487              		.weak	HAL_TIM_OC_MspInit
 488              		.syntax unified
 489              		.thumb
 490              		.thumb_func
 491              		.fpu softvfp
 493              	HAL_TIM_OC_MspInit:
 494              		@ args = 0, pretend = 0, frame = 0
 495              		@ frame_needed = 0, uses_anonymous_args = 0
 496              		@ link register save eliminated.
 497 0000 7047     		bx	lr
 499              		.section	.text.HAL_TIM_OC_MspDeInit,"ax",%progbits
 500              		.align	1
 501              		.weak	HAL_TIM_OC_MspDeInit
 502              		.syntax unified
 503              		.thumb
 504              		.thumb_func
 505              		.fpu softvfp
 507              	HAL_TIM_OC_MspDeInit:
 508              		@ args = 0, pretend = 0, frame = 0
 509              		@ frame_needed = 0, uses_anonymous_args = 0
 510              		@ link register save eliminated.
 511 0000 7047     		bx	lr
 513              		.section	.text.HAL_TIM_PWM_MspInit,"ax",%progbits
 514              		.align	1
 515              		.weak	HAL_TIM_PWM_MspInit
 516              		.syntax unified
 517              		.thumb
 518              		.thumb_func
 519              		.fpu softvfp
 521              	HAL_TIM_PWM_MspInit:
 522              		@ args = 0, pretend = 0, frame = 0
 523              		@ frame_needed = 0, uses_anonymous_args = 0
 524              		@ link register save eliminated.
 525 0000 7047     		bx	lr
 527              		.section	.text.HAL_TIM_PWM_MspDeInit,"ax",%progbits
 528              		.align	1
 529              		.weak	HAL_TIM_PWM_MspDeInit
 530              		.syntax unified
 531              		.thumb
 532              		.thumb_func
 533              		.fpu softvfp
 535              	HAL_TIM_PWM_MspDeInit:
 536              		@ args = 0, pretend = 0, frame = 0
 537              		@ frame_needed = 0, uses_anonymous_args = 0
 538              		@ link register save eliminated.
 539 0000 7047     		bx	lr
 541              		.section	.text.HAL_TIM_IC_MspInit,"ax",%progbits
 542              		.align	1
 543              		.weak	HAL_TIM_IC_MspInit
 544              		.syntax unified
 545              		.thumb
 546              		.thumb_func
 547              		.fpu softvfp
 549              	HAL_TIM_IC_MspInit:
 550              		@ args = 0, pretend = 0, frame = 0
 551              		@ frame_needed = 0, uses_anonymous_args = 0
 552              		@ link register save eliminated.
ARM GAS  /tmp/ccqL1RRp.s 			page 10


 553 0000 7047     		bx	lr
 555              		.section	.text.HAL_TIM_IC_MspDeInit,"ax",%progbits
 556              		.align	1
 557              		.weak	HAL_TIM_IC_MspDeInit
 558              		.syntax unified
 559              		.thumb
 560              		.thumb_func
 561              		.fpu softvfp
 563              	HAL_TIM_IC_MspDeInit:
 564              		@ args = 0, pretend = 0, frame = 0
 565              		@ frame_needed = 0, uses_anonymous_args = 0
 566              		@ link register save eliminated.
 567 0000 7047     		bx	lr
 569              		.section	.text.HAL_TIM_OnePulse_MspInit,"ax",%progbits
 570              		.align	1
 571              		.weak	HAL_TIM_OnePulse_MspInit
 572              		.syntax unified
 573              		.thumb
 574              		.thumb_func
 575              		.fpu softvfp
 577              	HAL_TIM_OnePulse_MspInit:
 578              		@ args = 0, pretend = 0, frame = 0
 579              		@ frame_needed = 0, uses_anonymous_args = 0
 580              		@ link register save eliminated.
 581 0000 7047     		bx	lr
 583              		.section	.text.HAL_TIM_OnePulse_MspDeInit,"ax",%progbits
 584              		.align	1
 585              		.weak	HAL_TIM_OnePulse_MspDeInit
 586              		.syntax unified
 587              		.thumb
 588              		.thumb_func
 589              		.fpu softvfp
 591              	HAL_TIM_OnePulse_MspDeInit:
 592              		@ args = 0, pretend = 0, frame = 0
 593              		@ frame_needed = 0, uses_anonymous_args = 0
 594              		@ link register save eliminated.
 595 0000 7047     		bx	lr
 597              		.section	.text.HAL_TIM_Encoder_MspInit,"ax",%progbits
 598              		.align	1
 599              		.weak	HAL_TIM_Encoder_MspInit
 600              		.syntax unified
 601              		.thumb
 602              		.thumb_func
 603              		.fpu softvfp
 605              	HAL_TIM_Encoder_MspInit:
 606              		@ args = 0, pretend = 0, frame = 0
 607              		@ frame_needed = 0, uses_anonymous_args = 0
 608              		@ link register save eliminated.
 609 0000 7047     		bx	lr
 611              		.section	.text.HAL_TIM_Encoder_MspDeInit,"ax",%progbits
 612              		.align	1
 613              		.weak	HAL_TIM_Encoder_MspDeInit
 614              		.syntax unified
 615              		.thumb
 616              		.thumb_func
 617              		.fpu softvfp
 619              	HAL_TIM_Encoder_MspDeInit:
ARM GAS  /tmp/ccqL1RRp.s 			page 11


 620              		@ args = 0, pretend = 0, frame = 0
 621              		@ frame_needed = 0, uses_anonymous_args = 0
 622              		@ link register save eliminated.
 623 0000 7047     		bx	lr
 625              		.section	.text.HAL_TIM_PeriodElapsedCallback,"ax",%progbits
 626              		.align	1
 627              		.weak	HAL_TIM_PeriodElapsedCallback
 628              		.syntax unified
 629              		.thumb
 630              		.thumb_func
 631              		.fpu softvfp
 633              	HAL_TIM_PeriodElapsedCallback:
 634              		@ args = 0, pretend = 0, frame = 0
 635              		@ frame_needed = 0, uses_anonymous_args = 0
 636              		@ link register save eliminated.
 637 0000 7047     		bx	lr
 639              		.section	.text.HAL_TIM_PeriodElapsedHalfCpltCallback,"ax",%progbits
 640              		.align	1
 641              		.weak	HAL_TIM_PeriodElapsedHalfCpltCallback
 642              		.syntax unified
 643              		.thumb
 644              		.thumb_func
 645              		.fpu softvfp
 647              	HAL_TIM_PeriodElapsedHalfCpltCallback:
 648              		@ args = 0, pretend = 0, frame = 0
 649              		@ frame_needed = 0, uses_anonymous_args = 0
 650              		@ link register save eliminated.
 651 0000 7047     		bx	lr
 653              		.section	.text.HAL_TIM_OC_DelayElapsedCallback,"ax",%progbits
 654              		.align	1
 655              		.weak	HAL_TIM_OC_DelayElapsedCallback
 656              		.syntax unified
 657              		.thumb
 658              		.thumb_func
 659              		.fpu softvfp
 661              	HAL_TIM_OC_DelayElapsedCallback:
 662              		@ args = 0, pretend = 0, frame = 0
 663              		@ frame_needed = 0, uses_anonymous_args = 0
 664              		@ link register save eliminated.
 665 0000 7047     		bx	lr
 667              		.section	.text.HAL_TIM_IC_CaptureCallback,"ax",%progbits
 668              		.align	1
 669              		.weak	HAL_TIM_IC_CaptureCallback
 670              		.syntax unified
 671              		.thumb
 672              		.thumb_func
 673              		.fpu softvfp
 675              	HAL_TIM_IC_CaptureCallback:
 676              		@ args = 0, pretend = 0, frame = 0
 677              		@ frame_needed = 0, uses_anonymous_args = 0
 678              		@ link register save eliminated.
 679 0000 7047     		bx	lr
 681              		.section	.text.HAL_TIM_IC_CaptureHalfCpltCallback,"ax",%progbits
 682              		.align	1
 683              		.weak	HAL_TIM_IC_CaptureHalfCpltCallback
 684              		.syntax unified
 685              		.thumb
ARM GAS  /tmp/ccqL1RRp.s 			page 12


 686              		.thumb_func
 687              		.fpu softvfp
 689              	HAL_TIM_IC_CaptureHalfCpltCallback:
 690              		@ args = 0, pretend = 0, frame = 0
 691              		@ frame_needed = 0, uses_anonymous_args = 0
 692              		@ link register save eliminated.
 693 0000 7047     		bx	lr
 695              		.section	.text.HAL_TIM_PWM_PulseFinishedCallback,"ax",%progbits
 696              		.align	1
 697              		.weak	HAL_TIM_PWM_PulseFinishedCallback
 698              		.syntax unified
 699              		.thumb
 700              		.thumb_func
 701              		.fpu softvfp
 703              	HAL_TIM_PWM_PulseFinishedCallback:
 704              		@ args = 0, pretend = 0, frame = 0
 705              		@ frame_needed = 0, uses_anonymous_args = 0
 706              		@ link register save eliminated.
 707 0000 7047     		bx	lr
 709              		.section	.text.HAL_TIM_PWM_PulseFinishedHalfCpltCallback,"ax",%progbits
 710              		.align	1
 711              		.weak	HAL_TIM_PWM_PulseFinishedHalfCpltCallback
 712              		.syntax unified
 713              		.thumb
 714              		.thumb_func
 715              		.fpu softvfp
 717              	HAL_TIM_PWM_PulseFinishedHalfCpltCallback:
 718              		@ args = 0, pretend = 0, frame = 0
 719              		@ frame_needed = 0, uses_anonymous_args = 0
 720              		@ link register save eliminated.
 721 0000 7047     		bx	lr
 723              		.section	.text.HAL_TIM_TriggerCallback,"ax",%progbits
 724              		.align	1
 725              		.weak	HAL_TIM_TriggerCallback
 726              		.syntax unified
 727              		.thumb
 728              		.thumb_func
 729              		.fpu softvfp
 731              	HAL_TIM_TriggerCallback:
 732              		@ args = 0, pretend = 0, frame = 0
 733              		@ frame_needed = 0, uses_anonymous_args = 0
 734              		@ link register save eliminated.
 735 0000 7047     		bx	lr
 737              		.section	.text.HAL_TIM_TriggerHalfCpltCallback,"ax",%progbits
 738              		.align	1
 739              		.weak	HAL_TIM_TriggerHalfCpltCallback
 740              		.syntax unified
 741              		.thumb
 742              		.thumb_func
 743              		.fpu softvfp
 745              	HAL_TIM_TriggerHalfCpltCallback:
 746              		@ args = 0, pretend = 0, frame = 0
 747              		@ frame_needed = 0, uses_anonymous_args = 0
 748              		@ link register save eliminated.
 749 0000 7047     		bx	lr
 751              		.section	.text.HAL_TIM_Base_DeInit,"ax",%progbits
 752              		.align	1
ARM GAS  /tmp/ccqL1RRp.s 			page 13


 753              		.global	HAL_TIM_Base_DeInit
 754              		.syntax unified
 755              		.thumb
 756              		.thumb_func
 757              		.fpu softvfp
 759              	HAL_TIM_Base_DeInit:
 760              		@ args = 0, pretend = 0, frame = 0
 761              		@ frame_needed = 0, uses_anonymous_args = 0
 762 0000 0223     		movs	r3, #2
 763 0002 41F21112 		movw	r2, #4369
 764 0006 10B5     		push	{r4, lr}
 765 0008 80F83D30 		strb	r3, [r0, #61]
 766 000c 0368     		ldr	r3, [r0]
 767 000e 0446     		mov	r4, r0
 768 0010 196A     		ldr	r1, [r3, #32]
 769 0012 1142     		tst	r1, r2
 770 0014 08D1     		bne	.L70
 771 0016 40F24442 		movw	r2, #1092
 772 001a 196A     		ldr	r1, [r3, #32]
 773 001c 1142     		tst	r1, r2
 774 001e 02BF     		ittt	eq
 775 0020 1A68     		ldreq	r2, [r3]
 776 0022 22F00102 		biceq	r2, r2, #1
 777 0026 1A60     		streq	r2, [r3]
 778              	.L70:
 779 0028 636C     		ldr	r3, [r4, #68]
 780 002a 0BB9     		cbnz	r3, .L71
 781 002c 054B     		ldr	r3, .L72
 782 002e 6364     		str	r3, [r4, #68]
 783              	.L71:
 784 0030 2046     		mov	r0, r4
 785 0032 636C     		ldr	r3, [r4, #68]
 786 0034 9847     		blx	r3
 787 0036 0020     		movs	r0, #0
 788 0038 84F83D00 		strb	r0, [r4, #61]
 789 003c 84F83C00 		strb	r0, [r4, #60]
 790 0040 10BD     		pop	{r4, pc}
 791              	.L73:
 792 0042 00BF     		.align	2
 793              	.L72:
 794 0044 00000000 		.word	HAL_TIM_Base_MspDeInit
 796              		.section	.text.HAL_TIM_Base_Start,"ax",%progbits
 797              		.align	1
 798              		.global	HAL_TIM_Base_Start
 799              		.syntax unified
 800              		.thumb
 801              		.thumb_func
 802              		.fpu softvfp
 804              	HAL_TIM_Base_Start:
 805              		@ args = 0, pretend = 0, frame = 0
 806              		@ frame_needed = 0, uses_anonymous_args = 0
 807              		@ link register save eliminated.
 808 0000 0223     		movs	r3, #2
 809 0002 80F83D30 		strb	r3, [r0, #61]
 810 0006 0368     		ldr	r3, [r0]
 811 0008 9A68     		ldr	r2, [r3, #8]
 812 000a 02F00702 		and	r2, r2, #7
ARM GAS  /tmp/ccqL1RRp.s 			page 14


 813 000e 062A     		cmp	r2, #6
 814 0010 1EBF     		ittt	ne
 815 0012 1A68     		ldrne	r2, [r3]
 816 0014 42F00102 		orrne	r2, r2, #1
 817 0018 1A60     		strne	r2, [r3]
 818 001a 0123     		movs	r3, #1
 819 001c 80F83D30 		strb	r3, [r0, #61]
 820 0020 0020     		movs	r0, #0
 821 0022 7047     		bx	lr
 823              		.section	.text.HAL_TIM_Base_Stop,"ax",%progbits
 824              		.align	1
 825              		.global	HAL_TIM_Base_Stop
 826              		.syntax unified
 827              		.thumb
 828              		.thumb_func
 829              		.fpu softvfp
 831              	HAL_TIM_Base_Stop:
 832              		@ args = 0, pretend = 0, frame = 0
 833              		@ frame_needed = 0, uses_anonymous_args = 0
 834              		@ link register save eliminated.
 835 0000 0223     		movs	r3, #2
 836 0002 41F21112 		movw	r2, #4369
 837 0006 80F83D30 		strb	r3, [r0, #61]
 838 000a 0368     		ldr	r3, [r0]
 839 000c 196A     		ldr	r1, [r3, #32]
 840 000e 1142     		tst	r1, r2
 841 0010 08D1     		bne	.L80
 842 0012 40F24442 		movw	r2, #1092
 843 0016 196A     		ldr	r1, [r3, #32]
 844 0018 1142     		tst	r1, r2
 845 001a 02BF     		ittt	eq
 846 001c 1A68     		ldreq	r2, [r3]
 847 001e 22F00102 		biceq	r2, r2, #1
 848 0022 1A60     		streq	r2, [r3]
 849              	.L80:
 850 0024 0123     		movs	r3, #1
 851 0026 80F83D30 		strb	r3, [r0, #61]
 852 002a 0020     		movs	r0, #0
 853 002c 7047     		bx	lr
 855              		.section	.text.HAL_TIM_Base_Start_IT,"ax",%progbits
 856              		.align	1
 857              		.global	HAL_TIM_Base_Start_IT
 858              		.syntax unified
 859              		.thumb
 860              		.thumb_func
 861              		.fpu softvfp
 863              	HAL_TIM_Base_Start_IT:
 864              		@ args = 0, pretend = 0, frame = 0
 865              		@ frame_needed = 0, uses_anonymous_args = 0
 866              		@ link register save eliminated.
 867 0000 0368     		ldr	r3, [r0]
 868 0002 0020     		movs	r0, #0
 869 0004 DA68     		ldr	r2, [r3, #12]
 870 0006 42F00102 		orr	r2, r2, #1
 871 000a DA60     		str	r2, [r3, #12]
 872 000c 9A68     		ldr	r2, [r3, #8]
 873 000e 02F00702 		and	r2, r2, #7
ARM GAS  /tmp/ccqL1RRp.s 			page 15


 874 0012 062A     		cmp	r2, #6
 875 0014 1EBF     		ittt	ne
 876 0016 1A68     		ldrne	r2, [r3]
 877 0018 42F00102 		orrne	r2, r2, #1
 878 001c 1A60     		strne	r2, [r3]
 879 001e 7047     		bx	lr
 881              		.section	.text.HAL_TIM_Base_Stop_IT,"ax",%progbits
 882              		.align	1
 883              		.global	HAL_TIM_Base_Stop_IT
 884              		.syntax unified
 885              		.thumb
 886              		.thumb_func
 887              		.fpu softvfp
 889              	HAL_TIM_Base_Stop_IT:
 890              		@ args = 0, pretend = 0, frame = 0
 891              		@ frame_needed = 0, uses_anonymous_args = 0
 892              		@ link register save eliminated.
 893 0000 0368     		ldr	r3, [r0]
 894 0002 DA68     		ldr	r2, [r3, #12]
 895 0004 22F00102 		bic	r2, r2, #1
 896 0008 DA60     		str	r2, [r3, #12]
 897 000a 41F21112 		movw	r2, #4369
 898 000e 196A     		ldr	r1, [r3, #32]
 899 0010 1142     		tst	r1, r2
 900 0012 08D1     		bne	.L87
 901 0014 40F24442 		movw	r2, #1092
 902 0018 196A     		ldr	r1, [r3, #32]
 903 001a 1142     		tst	r1, r2
 904 001c 02BF     		ittt	eq
 905 001e 1A68     		ldreq	r2, [r3]
 906 0020 22F00102 		biceq	r2, r2, #1
 907 0024 1A60     		streq	r2, [r3]
 908              	.L87:
 909 0026 0020     		movs	r0, #0
 910 0028 7047     		bx	lr
 912              		.section	.text.HAL_TIM_Base_Start_DMA,"ax",%progbits
 913              		.align	1
 914              		.global	HAL_TIM_Base_Start_DMA
 915              		.syntax unified
 916              		.thumb
 917              		.thumb_func
 918              		.fpu softvfp
 920              	HAL_TIM_Base_Start_DMA:
 921              		@ args = 0, pretend = 0, frame = 0
 922              		@ frame_needed = 0, uses_anonymous_args = 0
 923 0000 10B5     		push	{r4, lr}
 924 0002 0446     		mov	r4, r0
 925 0004 90F83D00 		ldrb	r0, [r0, #61]	@ zero_extendqisi2
 926 0008 1346     		mov	r3, r2
 927 000a C0B2     		uxtb	r0, r0
 928 000c 0228     		cmp	r0, #2
 929 000e 25D0     		beq	.L89
 930 0010 94F83D20 		ldrb	r2, [r4, #61]	@ zero_extendqisi2
 931 0014 012A     		cmp	r2, #1
 932 0016 06D1     		bne	.L90
 933 0018 11B9     		cbnz	r1, .L91
 934 001a 0BB1     		cbz	r3, .L91
ARM GAS  /tmp/ccqL1RRp.s 			page 16


 935              	.L92:
 936 001c 0120     		movs	r0, #1
 937 001e 10BD     		pop	{r4, pc}
 938              	.L91:
 939 0020 0222     		movs	r2, #2
 940 0022 84F83D20 		strb	r2, [r4, #61]
 941              	.L90:
 942 0026 206A     		ldr	r0, [r4, #32]
 943 0028 0D4A     		ldr	r2, .L100
 944 002a 8262     		str	r2, [r0, #40]
 945 002c 0D4A     		ldr	r2, .L100+4
 946 002e C262     		str	r2, [r0, #44]
 947 0030 0D4A     		ldr	r2, .L100+8
 948 0032 0263     		str	r2, [r0, #48]
 949 0034 2268     		ldr	r2, [r4]
 950 0036 2C32     		adds	r2, r2, #44
 951 0038 FFF7FEFF 		bl	HAL_DMA_Start_IT
 952 003c 0028     		cmp	r0, #0
 953 003e EDD1     		bne	.L92
 954 0040 2368     		ldr	r3, [r4]
 955 0042 DA68     		ldr	r2, [r3, #12]
 956 0044 42F48072 		orr	r2, r2, #256
 957 0048 DA60     		str	r2, [r3, #12]
 958 004a 9A68     		ldr	r2, [r3, #8]
 959 004c 02F00702 		and	r2, r2, #7
 960 0050 062A     		cmp	r2, #6
 961 0052 1EBF     		ittt	ne
 962 0054 1A68     		ldrne	r2, [r3]
 963 0056 42F00102 		orrne	r2, r2, #1
 964 005a 1A60     		strne	r2, [r3]
 965              	.L89:
 966 005c 10BD     		pop	{r4, pc}
 967              	.L101:
 968 005e 00BF     		.align	2
 969              	.L100:
 970 0060 00000000 		.word	TIM_DMAPeriodElapsedCplt
 971 0064 00000000 		.word	TIM_DMAPeriodElapsedHalfCplt
 972 0068 00000000 		.word	TIM_DMAError
 974              		.section	.text.HAL_TIM_Base_Stop_DMA,"ax",%progbits
 975              		.align	1
 976              		.global	HAL_TIM_Base_Stop_DMA
 977              		.syntax unified
 978              		.thumb
 979              		.thumb_func
 980              		.fpu softvfp
 982              	HAL_TIM_Base_Stop_DMA:
 983              		@ args = 0, pretend = 0, frame = 0
 984              		@ frame_needed = 0, uses_anonymous_args = 0
 985 0000 0268     		ldr	r2, [r0]
 986 0002 10B5     		push	{r4, lr}
 987 0004 D368     		ldr	r3, [r2, #12]
 988 0006 0446     		mov	r4, r0
 989 0008 23F48073 		bic	r3, r3, #256
 990 000c D360     		str	r3, [r2, #12]
 991 000e 006A     		ldr	r0, [r0, #32]
 992 0010 FFF7FEFF 		bl	HAL_DMA_Abort_IT
 993 0014 41F21112 		movw	r2, #4369
ARM GAS  /tmp/ccqL1RRp.s 			page 17


 994 0018 2368     		ldr	r3, [r4]
 995 001a 196A     		ldr	r1, [r3, #32]
 996 001c 1142     		tst	r1, r2
 997 001e 08D1     		bne	.L103
 998 0020 40F24442 		movw	r2, #1092
 999 0024 196A     		ldr	r1, [r3, #32]
 1000 0026 1142     		tst	r1, r2
 1001 0028 02BF     		ittt	eq
 1002 002a 1A68     		ldreq	r2, [r3]
 1003 002c 22F00102 		biceq	r2, r2, #1
 1004 0030 1A60     		streq	r2, [r3]
 1005              	.L103:
 1006 0032 0123     		movs	r3, #1
 1007 0034 0020     		movs	r0, #0
 1008 0036 84F83D30 		strb	r3, [r4, #61]
 1009 003a 10BD     		pop	{r4, pc}
 1011              		.section	.text.HAL_TIM_OC_DeInit,"ax",%progbits
 1012              		.align	1
 1013              		.global	HAL_TIM_OC_DeInit
 1014              		.syntax unified
 1015              		.thumb
 1016              		.thumb_func
 1017              		.fpu softvfp
 1019              	HAL_TIM_OC_DeInit:
 1020              		@ args = 0, pretend = 0, frame = 0
 1021              		@ frame_needed = 0, uses_anonymous_args = 0
 1022 0000 0223     		movs	r3, #2
 1023 0002 41F21112 		movw	r2, #4369
 1024 0006 10B5     		push	{r4, lr}
 1025 0008 80F83D30 		strb	r3, [r0, #61]
 1026 000c 0368     		ldr	r3, [r0]
 1027 000e 0446     		mov	r4, r0
 1028 0010 196A     		ldr	r1, [r3, #32]
 1029 0012 1142     		tst	r1, r2
 1030 0014 08D1     		bne	.L105
 1031 0016 40F24442 		movw	r2, #1092
 1032 001a 196A     		ldr	r1, [r3, #32]
 1033 001c 1142     		tst	r1, r2
 1034 001e 02BF     		ittt	eq
 1035 0020 1A68     		ldreq	r2, [r3]
 1036 0022 22F00102 		biceq	r2, r2, #1
 1037 0026 1A60     		streq	r2, [r3]
 1038              	.L105:
 1039 0028 636D     		ldr	r3, [r4, #84]
 1040 002a 0BB9     		cbnz	r3, .L106
 1041 002c 054B     		ldr	r3, .L107
 1042 002e 6365     		str	r3, [r4, #84]
 1043              	.L106:
 1044 0030 2046     		mov	r0, r4
 1045 0032 636D     		ldr	r3, [r4, #84]
 1046 0034 9847     		blx	r3
 1047 0036 0020     		movs	r0, #0
 1048 0038 84F83D00 		strb	r0, [r4, #61]
 1049 003c 84F83C00 		strb	r0, [r4, #60]
 1050 0040 10BD     		pop	{r4, pc}
 1051              	.L108:
 1052 0042 00BF     		.align	2
ARM GAS  /tmp/ccqL1RRp.s 			page 18


 1053              	.L107:
 1054 0044 00000000 		.word	HAL_TIM_OC_MspDeInit
 1056              		.section	.text.HAL_TIM_PWM_DeInit,"ax",%progbits
 1057              		.align	1
 1058              		.global	HAL_TIM_PWM_DeInit
 1059              		.syntax unified
 1060              		.thumb
 1061              		.thumb_func
 1062              		.fpu softvfp
 1064              	HAL_TIM_PWM_DeInit:
 1065              		@ args = 0, pretend = 0, frame = 0
 1066              		@ frame_needed = 0, uses_anonymous_args = 0
 1067 0000 0223     		movs	r3, #2
 1068 0002 41F21112 		movw	r2, #4369
 1069 0006 10B5     		push	{r4, lr}
 1070 0008 80F83D30 		strb	r3, [r0, #61]
 1071 000c 0368     		ldr	r3, [r0]
 1072 000e 0446     		mov	r4, r0
 1073 0010 196A     		ldr	r1, [r3, #32]
 1074 0012 1142     		tst	r1, r2
 1075 0014 08D1     		bne	.L110
 1076 0016 40F24442 		movw	r2, #1092
 1077 001a 196A     		ldr	r1, [r3, #32]
 1078 001c 1142     		tst	r1, r2
 1079 001e 02BF     		ittt	eq
 1080 0020 1A68     		ldreq	r2, [r3]
 1081 0022 22F00102 		biceq	r2, r2, #1
 1082 0026 1A60     		streq	r2, [r3]
 1083              	.L110:
 1084 0028 E36D     		ldr	r3, [r4, #92]
 1085 002a 0BB9     		cbnz	r3, .L111
 1086 002c 054B     		ldr	r3, .L112
 1087 002e E365     		str	r3, [r4, #92]
 1088              	.L111:
 1089 0030 2046     		mov	r0, r4
 1090 0032 E36D     		ldr	r3, [r4, #92]
 1091 0034 9847     		blx	r3
 1092 0036 0020     		movs	r0, #0
 1093 0038 84F83D00 		strb	r0, [r4, #61]
 1094 003c 84F83C00 		strb	r0, [r4, #60]
 1095 0040 10BD     		pop	{r4, pc}
 1096              	.L113:
 1097 0042 00BF     		.align	2
 1098              	.L112:
 1099 0044 00000000 		.word	HAL_TIM_PWM_MspDeInit
 1101              		.section	.text.HAL_TIM_IC_DeInit,"ax",%progbits
 1102              		.align	1
 1103              		.global	HAL_TIM_IC_DeInit
 1104              		.syntax unified
 1105              		.thumb
 1106              		.thumb_func
 1107              		.fpu softvfp
 1109              	HAL_TIM_IC_DeInit:
 1110              		@ args = 0, pretend = 0, frame = 0
 1111              		@ frame_needed = 0, uses_anonymous_args = 0
 1112 0000 0223     		movs	r3, #2
 1113 0002 41F21112 		movw	r2, #4369
ARM GAS  /tmp/ccqL1RRp.s 			page 19


 1114 0006 10B5     		push	{r4, lr}
 1115 0008 80F83D30 		strb	r3, [r0, #61]
 1116 000c 0368     		ldr	r3, [r0]
 1117 000e 0446     		mov	r4, r0
 1118 0010 196A     		ldr	r1, [r3, #32]
 1119 0012 1142     		tst	r1, r2
 1120 0014 08D1     		bne	.L115
 1121 0016 40F24442 		movw	r2, #1092
 1122 001a 196A     		ldr	r1, [r3, #32]
 1123 001c 1142     		tst	r1, r2
 1124 001e 02BF     		ittt	eq
 1125 0020 1A68     		ldreq	r2, [r3]
 1126 0022 22F00102 		biceq	r2, r2, #1
 1127 0026 1A60     		streq	r2, [r3]
 1128              	.L115:
 1129 0028 E36C     		ldr	r3, [r4, #76]
 1130 002a 0BB9     		cbnz	r3, .L116
 1131 002c 054B     		ldr	r3, .L117
 1132 002e E364     		str	r3, [r4, #76]
 1133              	.L116:
 1134 0030 2046     		mov	r0, r4
 1135 0032 E36C     		ldr	r3, [r4, #76]
 1136 0034 9847     		blx	r3
 1137 0036 0020     		movs	r0, #0
 1138 0038 84F83D00 		strb	r0, [r4, #61]
 1139 003c 84F83C00 		strb	r0, [r4, #60]
 1140 0040 10BD     		pop	{r4, pc}
 1141              	.L118:
 1142 0042 00BF     		.align	2
 1143              	.L117:
 1144 0044 00000000 		.word	HAL_TIM_IC_MspDeInit
 1146              		.section	.text.HAL_TIM_OnePulse_DeInit,"ax",%progbits
 1147              		.align	1
 1148              		.global	HAL_TIM_OnePulse_DeInit
 1149              		.syntax unified
 1150              		.thumb
 1151              		.thumb_func
 1152              		.fpu softvfp
 1154              	HAL_TIM_OnePulse_DeInit:
 1155              		@ args = 0, pretend = 0, frame = 0
 1156              		@ frame_needed = 0, uses_anonymous_args = 0
 1157 0000 0223     		movs	r3, #2
 1158 0002 41F21112 		movw	r2, #4369
 1159 0006 10B5     		push	{r4, lr}
 1160 0008 80F83D30 		strb	r3, [r0, #61]
 1161 000c 0368     		ldr	r3, [r0]
 1162 000e 0446     		mov	r4, r0
 1163 0010 196A     		ldr	r1, [r3, #32]
 1164 0012 1142     		tst	r1, r2
 1165 0014 08D1     		bne	.L120
 1166 0016 40F24442 		movw	r2, #1092
 1167 001a 196A     		ldr	r1, [r3, #32]
 1168 001c 1142     		tst	r1, r2
 1169 001e 02BF     		ittt	eq
 1170 0020 1A68     		ldreq	r2, [r3]
 1171 0022 22F00102 		biceq	r2, r2, #1
 1172 0026 1A60     		streq	r2, [r3]
ARM GAS  /tmp/ccqL1RRp.s 			page 20


 1173              	.L120:
 1174 0028 636E     		ldr	r3, [r4, #100]
 1175 002a 0BB9     		cbnz	r3, .L121
 1176 002c 054B     		ldr	r3, .L122
 1177 002e 6366     		str	r3, [r4, #100]
 1178              	.L121:
 1179 0030 2046     		mov	r0, r4
 1180 0032 636E     		ldr	r3, [r4, #100]
 1181 0034 9847     		blx	r3
 1182 0036 0020     		movs	r0, #0
 1183 0038 84F83D00 		strb	r0, [r4, #61]
 1184 003c 84F83C00 		strb	r0, [r4, #60]
 1185 0040 10BD     		pop	{r4, pc}
 1186              	.L123:
 1187 0042 00BF     		.align	2
 1188              	.L122:
 1189 0044 00000000 		.word	HAL_TIM_OnePulse_MspDeInit
 1191              		.section	.text.HAL_TIM_OnePulse_Start,"ax",%progbits
 1192              		.align	1
 1193              		.global	HAL_TIM_OnePulse_Start
 1194              		.syntax unified
 1195              		.thumb
 1196              		.thumb_func
 1197              		.fpu softvfp
 1199              	HAL_TIM_OnePulse_Start:
 1200              		@ args = 0, pretend = 0, frame = 0
 1201              		@ frame_needed = 0, uses_anonymous_args = 0
 1202              		@ link register save eliminated.
 1203 0000 0368     		ldr	r3, [r0]
 1204 0002 1A6A     		ldr	r2, [r3, #32]
 1205 0004 22F00102 		bic	r2, r2, #1
 1206 0008 1A62     		str	r2, [r3, #32]
 1207 000a 1A6A     		ldr	r2, [r3, #32]
 1208 000c 42F00102 		orr	r2, r2, #1
 1209 0010 1A62     		str	r2, [r3, #32]
 1210 0012 1A6A     		ldr	r2, [r3, #32]
 1211 0014 22F01002 		bic	r2, r2, #16
 1212 0018 1A62     		str	r2, [r3, #32]
 1213 001a 1A6A     		ldr	r2, [r3, #32]
 1214 001c 42F01002 		orr	r2, r2, #16
 1215 0020 1A62     		str	r2, [r3, #32]
 1216 0022 064A     		ldr	r2, .L128
 1217 0024 9342     		cmp	r3, r2
 1218 0026 03D0     		beq	.L125
 1219 0028 02F50062 		add	r2, r2, #2048
 1220 002c 9342     		cmp	r3, r2
 1221 002e 03D1     		bne	.L127
 1222              	.L125:
 1223 0030 5A6C     		ldr	r2, [r3, #68]
 1224 0032 42F40042 		orr	r2, r2, #32768
 1225 0036 5A64     		str	r2, [r3, #68]
 1226              	.L127:
 1227 0038 0020     		movs	r0, #0
 1228 003a 7047     		bx	lr
 1229              	.L129:
 1230              		.align	2
 1231              	.L128:
ARM GAS  /tmp/ccqL1RRp.s 			page 21


 1232 003c 002C0140 		.word	1073818624
 1234              		.section	.text.HAL_TIM_OnePulse_Stop,"ax",%progbits
 1235              		.align	1
 1236              		.global	HAL_TIM_OnePulse_Stop
 1237              		.syntax unified
 1238              		.thumb
 1239              		.thumb_func
 1240              		.fpu softvfp
 1242              	HAL_TIM_OnePulse_Stop:
 1243              		@ args = 0, pretend = 0, frame = 0
 1244              		@ frame_needed = 0, uses_anonymous_args = 0
 1245              		@ link register save eliminated.
 1246 0000 0368     		ldr	r3, [r0]
 1247 0002 1A6A     		ldr	r2, [r3, #32]
 1248 0004 22F00102 		bic	r2, r2, #1
 1249 0008 1A62     		str	r2, [r3, #32]
 1250 000a 1A6A     		ldr	r2, [r3, #32]
 1251 000c 1A62     		str	r2, [r3, #32]
 1252 000e 1A6A     		ldr	r2, [r3, #32]
 1253 0010 22F01002 		bic	r2, r2, #16
 1254 0014 1A62     		str	r2, [r3, #32]
 1255 0016 1A6A     		ldr	r2, [r3, #32]
 1256 0018 1A62     		str	r2, [r3, #32]
 1257 001a 124A     		ldr	r2, .L136
 1258 001c 9342     		cmp	r3, r2
 1259 001e 03D0     		beq	.L131
 1260 0020 02F50062 		add	r2, r2, #2048
 1261 0024 9342     		cmp	r3, r2
 1262 0026 0DD1     		bne	.L132
 1263              	.L131:
 1264 0028 41F21112 		movw	r2, #4369
 1265 002c 196A     		ldr	r1, [r3, #32]
 1266 002e 1142     		tst	r1, r2
 1267 0030 08D1     		bne	.L132
 1268 0032 40F24442 		movw	r2, #1092
 1269 0036 196A     		ldr	r1, [r3, #32]
 1270 0038 1142     		tst	r1, r2
 1271 003a 02BF     		ittt	eq
 1272 003c 5A6C     		ldreq	r2, [r3, #68]
 1273 003e 22F40042 		biceq	r2, r2, #32768
 1274 0042 5A64     		streq	r2, [r3, #68]
 1275              	.L132:
 1276 0044 41F21112 		movw	r2, #4369
 1277 0048 196A     		ldr	r1, [r3, #32]
 1278 004a 1142     		tst	r1, r2
 1279 004c 08D1     		bne	.L135
 1280 004e 40F24442 		movw	r2, #1092
 1281 0052 196A     		ldr	r1, [r3, #32]
 1282 0054 1142     		tst	r1, r2
 1283 0056 03D1     		bne	.L135
 1284 0058 1A68     		ldr	r2, [r3]
 1285 005a 22F00102 		bic	r2, r2, #1
 1286 005e 1A60     		str	r2, [r3]
 1287              	.L135:
 1288 0060 0020     		movs	r0, #0
 1289 0062 7047     		bx	lr
 1290              	.L137:
ARM GAS  /tmp/ccqL1RRp.s 			page 22


 1291              		.align	2
 1292              	.L136:
 1293 0064 002C0140 		.word	1073818624
 1295              		.section	.text.HAL_TIM_OnePulse_Start_IT,"ax",%progbits
 1296              		.align	1
 1297              		.global	HAL_TIM_OnePulse_Start_IT
 1298              		.syntax unified
 1299              		.thumb
 1300              		.thumb_func
 1301              		.fpu softvfp
 1303              	HAL_TIM_OnePulse_Start_IT:
 1304              		@ args = 0, pretend = 0, frame = 0
 1305              		@ frame_needed = 0, uses_anonymous_args = 0
 1306              		@ link register save eliminated.
 1307 0000 0368     		ldr	r3, [r0]
 1308 0002 DA68     		ldr	r2, [r3, #12]
 1309 0004 42F00202 		orr	r2, r2, #2
 1310 0008 DA60     		str	r2, [r3, #12]
 1311 000a DA68     		ldr	r2, [r3, #12]
 1312 000c 42F00402 		orr	r2, r2, #4
 1313 0010 DA60     		str	r2, [r3, #12]
 1314 0012 1A6A     		ldr	r2, [r3, #32]
 1315 0014 22F00102 		bic	r2, r2, #1
 1316 0018 1A62     		str	r2, [r3, #32]
 1317 001a 1A6A     		ldr	r2, [r3, #32]
 1318 001c 42F00102 		orr	r2, r2, #1
 1319 0020 1A62     		str	r2, [r3, #32]
 1320 0022 1A6A     		ldr	r2, [r3, #32]
 1321 0024 22F01002 		bic	r2, r2, #16
 1322 0028 1A62     		str	r2, [r3, #32]
 1323 002a 1A6A     		ldr	r2, [r3, #32]
 1324 002c 42F01002 		orr	r2, r2, #16
 1325 0030 1A62     		str	r2, [r3, #32]
 1326 0032 064A     		ldr	r2, .L142
 1327 0034 9342     		cmp	r3, r2
 1328 0036 03D0     		beq	.L139
 1329 0038 02F50062 		add	r2, r2, #2048
 1330 003c 9342     		cmp	r3, r2
 1331 003e 03D1     		bne	.L141
 1332              	.L139:
 1333 0040 5A6C     		ldr	r2, [r3, #68]
 1334 0042 42F40042 		orr	r2, r2, #32768
 1335 0046 5A64     		str	r2, [r3, #68]
 1336              	.L141:
 1337 0048 0020     		movs	r0, #0
 1338 004a 7047     		bx	lr
 1339              	.L143:
 1340              		.align	2
 1341              	.L142:
 1342 004c 002C0140 		.word	1073818624
 1344              		.section	.text.HAL_TIM_OnePulse_Stop_IT,"ax",%progbits
 1345              		.align	1
 1346              		.global	HAL_TIM_OnePulse_Stop_IT
 1347              		.syntax unified
 1348              		.thumb
 1349              		.thumb_func
 1350              		.fpu softvfp
ARM GAS  /tmp/ccqL1RRp.s 			page 23


 1352              	HAL_TIM_OnePulse_Stop_IT:
 1353              		@ args = 0, pretend = 0, frame = 0
 1354              		@ frame_needed = 0, uses_anonymous_args = 0
 1355              		@ link register save eliminated.
 1356 0000 0368     		ldr	r3, [r0]
 1357 0002 DA68     		ldr	r2, [r3, #12]
 1358 0004 22F00202 		bic	r2, r2, #2
 1359 0008 DA60     		str	r2, [r3, #12]
 1360 000a DA68     		ldr	r2, [r3, #12]
 1361 000c 22F00402 		bic	r2, r2, #4
 1362 0010 DA60     		str	r2, [r3, #12]
 1363 0012 1A6A     		ldr	r2, [r3, #32]
 1364 0014 22F00102 		bic	r2, r2, #1
 1365 0018 1A62     		str	r2, [r3, #32]
 1366 001a 1A6A     		ldr	r2, [r3, #32]
 1367 001c 1A62     		str	r2, [r3, #32]
 1368 001e 1A6A     		ldr	r2, [r3, #32]
 1369 0020 22F01002 		bic	r2, r2, #16
 1370 0024 1A62     		str	r2, [r3, #32]
 1371 0026 1A6A     		ldr	r2, [r3, #32]
 1372 0028 1A62     		str	r2, [r3, #32]
 1373 002a 124A     		ldr	r2, .L150
 1374 002c 9342     		cmp	r3, r2
 1375 002e 03D0     		beq	.L145
 1376 0030 02F50062 		add	r2, r2, #2048
 1377 0034 9342     		cmp	r3, r2
 1378 0036 0DD1     		bne	.L146
 1379              	.L145:
 1380 0038 41F21112 		movw	r2, #4369
 1381 003c 196A     		ldr	r1, [r3, #32]
 1382 003e 1142     		tst	r1, r2
 1383 0040 08D1     		bne	.L146
 1384 0042 40F24442 		movw	r2, #1092
 1385 0046 196A     		ldr	r1, [r3, #32]
 1386 0048 1142     		tst	r1, r2
 1387 004a 02BF     		ittt	eq
 1388 004c 5A6C     		ldreq	r2, [r3, #68]
 1389 004e 22F40042 		biceq	r2, r2, #32768
 1390 0052 5A64     		streq	r2, [r3, #68]
 1391              	.L146:
 1392 0054 41F21112 		movw	r2, #4369
 1393 0058 196A     		ldr	r1, [r3, #32]
 1394 005a 1142     		tst	r1, r2
 1395 005c 08D1     		bne	.L149
 1396 005e 40F24442 		movw	r2, #1092
 1397 0062 196A     		ldr	r1, [r3, #32]
 1398 0064 1142     		tst	r1, r2
 1399 0066 03D1     		bne	.L149
 1400 0068 1A68     		ldr	r2, [r3]
 1401 006a 22F00102 		bic	r2, r2, #1
 1402 006e 1A60     		str	r2, [r3]
 1403              	.L149:
 1404 0070 0020     		movs	r0, #0
 1405 0072 7047     		bx	lr
 1406              	.L151:
 1407              		.align	2
 1408              	.L150:
ARM GAS  /tmp/ccqL1RRp.s 			page 24


 1409 0074 002C0140 		.word	1073818624
 1411              		.section	.text.HAL_TIM_Encoder_DeInit,"ax",%progbits
 1412              		.align	1
 1413              		.global	HAL_TIM_Encoder_DeInit
 1414              		.syntax unified
 1415              		.thumb
 1416              		.thumb_func
 1417              		.fpu softvfp
 1419              	HAL_TIM_Encoder_DeInit:
 1420              		@ args = 0, pretend = 0, frame = 0
 1421              		@ frame_needed = 0, uses_anonymous_args = 0
 1422 0000 0223     		movs	r3, #2
 1423 0002 41F21112 		movw	r2, #4369
 1424 0006 10B5     		push	{r4, lr}
 1425 0008 80F83D30 		strb	r3, [r0, #61]
 1426 000c 0368     		ldr	r3, [r0]
 1427 000e 0446     		mov	r4, r0
 1428 0010 196A     		ldr	r1, [r3, #32]
 1429 0012 1142     		tst	r1, r2
 1430 0014 08D1     		bne	.L153
 1431 0016 40F24442 		movw	r2, #1092
 1432 001a 196A     		ldr	r1, [r3, #32]
 1433 001c 1142     		tst	r1, r2
 1434 001e 02BF     		ittt	eq
 1435 0020 1A68     		ldreq	r2, [r3]
 1436 0022 22F00102 		biceq	r2, r2, #1
 1437 0026 1A60     		streq	r2, [r3]
 1438              	.L153:
 1439 0028 E36E     		ldr	r3, [r4, #108]
 1440 002a 0BB9     		cbnz	r3, .L154
 1441 002c 054B     		ldr	r3, .L155
 1442 002e E366     		str	r3, [r4, #108]
 1443              	.L154:
 1444 0030 2046     		mov	r0, r4
 1445 0032 E36E     		ldr	r3, [r4, #108]
 1446 0034 9847     		blx	r3
 1447 0036 0020     		movs	r0, #0
 1448 0038 84F83D00 		strb	r0, [r4, #61]
 1449 003c 84F83C00 		strb	r0, [r4, #60]
 1450 0040 10BD     		pop	{r4, pc}
 1451              	.L156:
 1452 0042 00BF     		.align	2
 1453              	.L155:
 1454 0044 00000000 		.word	HAL_TIM_Encoder_MspDeInit
 1456              		.section	.text.HAL_TIM_Encoder_Start,"ax",%progbits
 1457              		.align	1
 1458              		.global	HAL_TIM_Encoder_Start
 1459              		.syntax unified
 1460              		.thumb
 1461              		.thumb_func
 1462              		.fpu softvfp
 1464              	HAL_TIM_Encoder_Start:
 1465              		@ args = 0, pretend = 0, frame = 0
 1466              		@ frame_needed = 0, uses_anonymous_args = 0
 1467              		@ link register save eliminated.
 1468 0000 0368     		ldr	r3, [r0]
 1469 0002 89B1     		cbz	r1, .L159
ARM GAS  /tmp/ccqL1RRp.s 			page 25


 1470 0004 0429     		cmp	r1, #4
 1471 0006 07D0     		beq	.L164
 1472 0008 1A6A     		ldr	r2, [r3, #32]
 1473 000a 22F00102 		bic	r2, r2, #1
 1474 000e 1A62     		str	r2, [r3, #32]
 1475 0010 1A6A     		ldr	r2, [r3, #32]
 1476 0012 42F00102 		orr	r2, r2, #1
 1477 0016 1A62     		str	r2, [r3, #32]
 1478              	.L164:
 1479 0018 1A6A     		ldr	r2, [r3, #32]
 1480 001a 22F01002 		bic	r2, r2, #16
 1481 001e 1A62     		str	r2, [r3, #32]
 1482 0020 1A6A     		ldr	r2, [r3, #32]
 1483 0022 42F01002 		orr	r2, r2, #16
 1484 0026 06E0     		b	.L163
 1485              	.L159:
 1486 0028 1A6A     		ldr	r2, [r3, #32]
 1487 002a 22F00102 		bic	r2, r2, #1
 1488 002e 1A62     		str	r2, [r3, #32]
 1489 0030 1A6A     		ldr	r2, [r3, #32]
 1490 0032 42F00102 		orr	r2, r2, #1
 1491              	.L163:
 1492 0036 1A62     		str	r2, [r3, #32]
 1493 0038 1A68     		ldr	r2, [r3]
 1494 003a 0020     		movs	r0, #0
 1495 003c 42F00102 		orr	r2, r2, #1
 1496 0040 1A60     		str	r2, [r3]
 1497 0042 7047     		bx	lr
 1499              		.section	.text.HAL_TIM_Encoder_Stop,"ax",%progbits
 1500              		.align	1
 1501              		.global	HAL_TIM_Encoder_Stop
 1502              		.syntax unified
 1503              		.thumb
 1504              		.thumb_func
 1505              		.fpu softvfp
 1507              	HAL_TIM_Encoder_Stop:
 1508              		@ args = 0, pretend = 0, frame = 0
 1509              		@ frame_needed = 0, uses_anonymous_args = 0
 1510              		@ link register save eliminated.
 1511 0000 0368     		ldr	r3, [r0]
 1512 0002 59B1     		cbz	r1, .L167
 1513 0004 0429     		cmp	r1, #4
 1514 0006 05D0     		beq	.L173
 1515 0008 1A6A     		ldr	r2, [r3, #32]
 1516 000a 22F00102 		bic	r2, r2, #1
 1517 000e 1A62     		str	r2, [r3, #32]
 1518 0010 1A6A     		ldr	r2, [r3, #32]
 1519 0012 1A62     		str	r2, [r3, #32]
 1520              	.L173:
 1521 0014 1A6A     		ldr	r2, [r3, #32]
 1522 0016 22F01002 		bic	r2, r2, #16
 1523 001a 02E0     		b	.L172
 1524              	.L167:
 1525 001c 1A6A     		ldr	r2, [r3, #32]
 1526 001e 22F00102 		bic	r2, r2, #1
 1527              	.L172:
 1528 0022 1A62     		str	r2, [r3, #32]
ARM GAS  /tmp/ccqL1RRp.s 			page 26


 1529 0024 1A6A     		ldr	r2, [r3, #32]
 1530 0026 1A62     		str	r2, [r3, #32]
 1531 0028 41F21112 		movw	r2, #4369
 1532 002c 196A     		ldr	r1, [r3, #32]
 1533 002e 1142     		tst	r1, r2
 1534 0030 08D1     		bne	.L170
 1535 0032 40F24442 		movw	r2, #1092
 1536 0036 196A     		ldr	r1, [r3, #32]
 1537 0038 1142     		tst	r1, r2
 1538 003a 02BF     		ittt	eq
 1539 003c 1A68     		ldreq	r2, [r3]
 1540 003e 22F00102 		biceq	r2, r2, #1
 1541 0042 1A60     		streq	r2, [r3]
 1542              	.L170:
 1543 0044 0020     		movs	r0, #0
 1544 0046 7047     		bx	lr
 1546              		.section	.text.HAL_TIM_Encoder_Start_IT,"ax",%progbits
 1547              		.align	1
 1548              		.global	HAL_TIM_Encoder_Start_IT
 1549              		.syntax unified
 1550              		.thumb
 1551              		.thumb_func
 1552              		.fpu softvfp
 1554              	HAL_TIM_Encoder_Start_IT:
 1555              		@ args = 0, pretend = 0, frame = 0
 1556              		@ frame_needed = 0, uses_anonymous_args = 0
 1557              		@ link register save eliminated.
 1558 0000 0368     		ldr	r3, [r0]
 1559 0002 B1B1     		cbz	r1, .L176
 1560 0004 0429     		cmp	r1, #4
 1561 0006 26D0     		beq	.L177
 1562 0008 1A6A     		ldr	r2, [r3, #32]
 1563 000a 22F00102 		bic	r2, r2, #1
 1564 000e 1A62     		str	r2, [r3, #32]
 1565 0010 1A6A     		ldr	r2, [r3, #32]
 1566 0012 42F00102 		orr	r2, r2, #1
 1567 0016 1A62     		str	r2, [r3, #32]
 1568 0018 1A6A     		ldr	r2, [r3, #32]
 1569 001a 22F01002 		bic	r2, r2, #16
 1570 001e 1A62     		str	r2, [r3, #32]
 1571 0020 1A6A     		ldr	r2, [r3, #32]
 1572 0022 42F01002 		orr	r2, r2, #16
 1573 0026 1A62     		str	r2, [r3, #32]
 1574 0028 DA68     		ldr	r2, [r3, #12]
 1575 002a 42F00202 		orr	r2, r2, #2
 1576 002e DA60     		str	r2, [r3, #12]
 1577 0030 19E0     		b	.L181
 1578              	.L176:
 1579 0032 1A6A     		ldr	r2, [r3, #32]
 1580 0034 22F00102 		bic	r2, r2, #1
 1581 0038 1A62     		str	r2, [r3, #32]
 1582 003a 1A6A     		ldr	r2, [r3, #32]
 1583 003c 42F00102 		orr	r2, r2, #1
 1584 0040 1A62     		str	r2, [r3, #32]
 1585 0042 DA68     		ldr	r2, [r3, #12]
 1586 0044 42F00202 		orr	r2, r2, #2
 1587              	.L180:
ARM GAS  /tmp/ccqL1RRp.s 			page 27


 1588 0048 DA60     		str	r2, [r3, #12]
 1589 004a 1A68     		ldr	r2, [r3]
 1590 004c 0020     		movs	r0, #0
 1591 004e 42F00102 		orr	r2, r2, #1
 1592 0052 1A60     		str	r2, [r3]
 1593 0054 7047     		bx	lr
 1594              	.L177:
 1595 0056 1A6A     		ldr	r2, [r3, #32]
 1596 0058 22F01002 		bic	r2, r2, #16
 1597 005c 1A62     		str	r2, [r3, #32]
 1598 005e 1A6A     		ldr	r2, [r3, #32]
 1599 0060 42F01002 		orr	r2, r2, #16
 1600 0064 1A62     		str	r2, [r3, #32]
 1601              	.L181:
 1602 0066 DA68     		ldr	r2, [r3, #12]
 1603 0068 42F00402 		orr	r2, r2, #4
 1604 006c ECE7     		b	.L180
 1606              		.section	.text.HAL_TIM_Encoder_Stop_IT,"ax",%progbits
 1607              		.align	1
 1608              		.global	HAL_TIM_Encoder_Stop_IT
 1609              		.syntax unified
 1610              		.thumb
 1611              		.thumb_func
 1612              		.fpu softvfp
 1614              	HAL_TIM_Encoder_Stop_IT:
 1615              		@ args = 0, pretend = 0, frame = 0
 1616              		@ frame_needed = 0, uses_anonymous_args = 0
 1617              		@ link register save eliminated.
 1618 0000 0368     		ldr	r3, [r0]
 1619 0002 1A6A     		ldr	r2, [r3, #32]
 1620 0004 D9B9     		cbnz	r1, .L183
 1621 0006 22F00102 		bic	r2, r2, #1
 1622 000a 1A62     		str	r2, [r3, #32]
 1623 000c 1A6A     		ldr	r2, [r3, #32]
 1624 000e 1A62     		str	r2, [r3, #32]
 1625 0010 DA68     		ldr	r2, [r3, #12]
 1626 0012 22F00202 		bic	r2, r2, #2
 1627              	.L187:
 1628 0016 DA60     		str	r2, [r3, #12]
 1629 0018 41F21112 		movw	r2, #4369
 1630 001c 196A     		ldr	r1, [r3, #32]
 1631 001e 1142     		tst	r1, r2
 1632 0020 08D1     		bne	.L186
 1633 0022 40F24442 		movw	r2, #1092
 1634 0026 196A     		ldr	r1, [r3, #32]
 1635 0028 1142     		tst	r1, r2
 1636 002a 02BF     		ittt	eq
 1637 002c 1A68     		ldreq	r2, [r3]
 1638 002e 22F00102 		biceq	r2, r2, #1
 1639 0032 1A60     		streq	r2, [r3]
 1640              	.L186:
 1641 0034 0123     		movs	r3, #1
 1642 0036 80F83D30 		strb	r3, [r0, #61]
 1643 003a 0020     		movs	r0, #0
 1644 003c 7047     		bx	lr
 1645              	.L183:
 1646 003e 0429     		cmp	r1, #4
ARM GAS  /tmp/ccqL1RRp.s 			page 28


 1647 0040 08D1     		bne	.L185
 1648 0042 22F01002 		bic	r2, r2, #16
 1649 0046 1A62     		str	r2, [r3, #32]
 1650 0048 1A6A     		ldr	r2, [r3, #32]
 1651 004a 1A62     		str	r2, [r3, #32]
 1652              	.L188:
 1653 004c DA68     		ldr	r2, [r3, #12]
 1654 004e 22F00402 		bic	r2, r2, #4
 1655 0052 E0E7     		b	.L187
 1656              	.L185:
 1657 0054 22F00102 		bic	r2, r2, #1
 1658 0058 1A62     		str	r2, [r3, #32]
 1659 005a 1A6A     		ldr	r2, [r3, #32]
 1660 005c 1A62     		str	r2, [r3, #32]
 1661 005e 1A6A     		ldr	r2, [r3, #32]
 1662 0060 22F01002 		bic	r2, r2, #16
 1663 0064 1A62     		str	r2, [r3, #32]
 1664 0066 1A6A     		ldr	r2, [r3, #32]
 1665 0068 1A62     		str	r2, [r3, #32]
 1666 006a DA68     		ldr	r2, [r3, #12]
 1667 006c 22F00202 		bic	r2, r2, #2
 1668 0070 DA60     		str	r2, [r3, #12]
 1669 0072 EBE7     		b	.L188
 1671              		.section	.text.HAL_TIM_Encoder_Start_DMA,"ax",%progbits
 1672              		.align	1
 1673              		.global	HAL_TIM_Encoder_Start_DMA
 1674              		.syntax unified
 1675              		.thumb
 1676              		.thumb_func
 1677              		.fpu softvfp
 1679              	HAL_TIM_Encoder_Start_DMA:
 1680              		@ args = 4, pretend = 0, frame = 0
 1681              		@ frame_needed = 0, uses_anonymous_args = 0
 1682 0000 2DE9F843 		push	{r3, r4, r5, r6, r7, r8, r9, lr}
 1683 0004 0546     		mov	r5, r0
 1684 0006 90F83D00 		ldrb	r0, [r0, #61]	@ zero_extendqisi2
 1685 000a 1E46     		mov	r6, r3
 1686 000c C0B2     		uxtb	r0, r0
 1687 000e 0228     		cmp	r0, #2
 1688 0010 BDF82040 		ldrh	r4, [sp, #32]
 1689 0014 00F09480 		beq	.L190
 1690 0018 95F83D30 		ldrb	r3, [r5, #61]	@ zero_extendqisi2
 1691 001c 012B     		cmp	r3, #1
 1692 001e 08D1     		bne	.L191
 1693 0020 02B1     		cbz	r2, .L192
 1694 0022 1EB9     		cbnz	r6, .L193
 1695              	.L192:
 1696 0024 14B1     		cbz	r4, .L193
 1697              	.L197:
 1698 0026 0120     		movs	r0, #1
 1699 0028 BDE8F883 		pop	{r3, r4, r5, r6, r7, r8, r9, pc}
 1700              	.L193:
 1701 002c 0223     		movs	r3, #2
 1702 002e 85F83D30 		strb	r3, [r5, #61]
 1703              	.L191:
 1704 0032 0429     		cmp	r1, #4
 1705 0034 24D0     		beq	.L194
ARM GAS  /tmp/ccqL1RRp.s 			page 29


 1706 0036 3C29     		cmp	r1, #60
 1707 0038 42D0     		beq	.L195
 1708 003a 0029     		cmp	r1, #0
 1709 003c 7FD1     		bne	.L206
 1710 003e 686A     		ldr	r0, [r5, #36]
 1711 0040 404B     		ldr	r3, .L208
 1712 0042 2968     		ldr	r1, [r5]
 1713 0044 8362     		str	r3, [r0, #40]
 1714 0046 404B     		ldr	r3, .L208+4
 1715 0048 3431     		adds	r1, r1, #52
 1716 004a C362     		str	r3, [r0, #44]
 1717 004c 3F4B     		ldr	r3, .L208+8
 1718 004e 0363     		str	r3, [r0, #48]
 1719 0050 2346     		mov	r3, r4
 1720 0052 FFF7FEFF 		bl	HAL_DMA_Start_IT
 1721 0056 0028     		cmp	r0, #0
 1722 0058 E5D1     		bne	.L197
 1723 005a 2B68     		ldr	r3, [r5]
 1724 005c DA68     		ldr	r2, [r3, #12]
 1725 005e 42F40072 		orr	r2, r2, #512
 1726 0062 DA60     		str	r2, [r3, #12]
 1727 0064 1A68     		ldr	r2, [r3]
 1728 0066 42F00102 		orr	r2, r2, #1
 1729 006a 1A60     		str	r2, [r3]
 1730 006c 1A6A     		ldr	r2, [r3, #32]
 1731 006e 22F00102 		bic	r2, r2, #1
 1732 0072 1A62     		str	r2, [r3, #32]
 1733 0074 1A6A     		ldr	r2, [r3, #32]
 1734 0076 42F00102 		orr	r2, r2, #1
 1735              	.L207:
 1736 007a 1A62     		str	r2, [r3, #32]
 1737 007c BDE8F883 		pop	{r3, r4, r5, r6, r7, r8, r9, pc}
 1738              	.L194:
 1739 0080 A86A     		ldr	r0, [r5, #40]
 1740 0082 304B     		ldr	r3, .L208
 1741 0084 2968     		ldr	r1, [r5]
 1742 0086 8362     		str	r3, [r0, #40]
 1743 0088 2F4B     		ldr	r3, .L208+4
 1744 008a 3246     		mov	r2, r6
 1745 008c C362     		str	r3, [r0, #44]
 1746 008e 2F4B     		ldr	r3, .L208+8
 1747 0090 3831     		adds	r1, r1, #56
 1748 0092 0363     		str	r3, [r0, #48]
 1749 0094 2346     		mov	r3, r4
 1750 0096 FFF7FEFF 		bl	HAL_DMA_Start_IT
 1751 009a 0028     		cmp	r0, #0
 1752 009c C3D1     		bne	.L197
 1753 009e 2B68     		ldr	r3, [r5]
 1754 00a0 DA68     		ldr	r2, [r3, #12]
 1755 00a2 42F48062 		orr	r2, r2, #1024
 1756 00a6 DA60     		str	r2, [r3, #12]
 1757 00a8 1A68     		ldr	r2, [r3]
 1758 00aa 42F00102 		orr	r2, r2, #1
 1759 00ae 1A60     		str	r2, [r3]
 1760 00b0 1A6A     		ldr	r2, [r3, #32]
 1761 00b2 22F01002 		bic	r2, r2, #16
 1762 00b6 1A62     		str	r2, [r3, #32]
ARM GAS  /tmp/ccqL1RRp.s 			page 30


 1763 00b8 1A6A     		ldr	r2, [r3, #32]
 1764 00ba 42F01002 		orr	r2, r2, #16
 1765 00be DCE7     		b	.L207
 1766              	.L195:
 1767 00c0 686A     		ldr	r0, [r5, #36]
 1768 00c2 DFF88090 		ldr	r9, .L208
 1769 00c6 DFF88080 		ldr	r8, .L208+4
 1770 00ca 204F     		ldr	r7, .L208+8
 1771 00cc 2968     		ldr	r1, [r5]
 1772 00ce C0F82890 		str	r9, [r0, #40]
 1773 00d2 C0F82C80 		str	r8, [r0, #44]
 1774 00d6 0763     		str	r7, [r0, #48]
 1775 00d8 2346     		mov	r3, r4
 1776 00da 3431     		adds	r1, r1, #52
 1777 00dc FFF7FEFF 		bl	HAL_DMA_Start_IT
 1778 00e0 0028     		cmp	r0, #0
 1779 00e2 A0D1     		bne	.L197
 1780 00e4 A86A     		ldr	r0, [r5, #40]
 1781 00e6 2968     		ldr	r1, [r5]
 1782 00e8 C0F82890 		str	r9, [r0, #40]
 1783 00ec C0F82C80 		str	r8, [r0, #44]
 1784 00f0 0763     		str	r7, [r0, #48]
 1785 00f2 2346     		mov	r3, r4
 1786 00f4 3246     		mov	r2, r6
 1787 00f6 3831     		adds	r1, r1, #56
 1788 00f8 FFF7FEFF 		bl	HAL_DMA_Start_IT
 1789 00fc 0028     		cmp	r0, #0
 1790 00fe 92D1     		bne	.L197
 1791 0100 2B68     		ldr	r3, [r5]
 1792 0102 1A68     		ldr	r2, [r3]
 1793 0104 42F00102 		orr	r2, r2, #1
 1794 0108 1A60     		str	r2, [r3]
 1795 010a 1A6A     		ldr	r2, [r3, #32]
 1796 010c 22F00102 		bic	r2, r2, #1
 1797 0110 1A62     		str	r2, [r3, #32]
 1798 0112 1A6A     		ldr	r2, [r3, #32]
 1799 0114 42F00102 		orr	r2, r2, #1
 1800 0118 1A62     		str	r2, [r3, #32]
 1801 011a 1A6A     		ldr	r2, [r3, #32]
 1802 011c 22F01002 		bic	r2, r2, #16
 1803 0120 1A62     		str	r2, [r3, #32]
 1804 0122 1A6A     		ldr	r2, [r3, #32]
 1805 0124 42F01002 		orr	r2, r2, #16
 1806 0128 1A62     		str	r2, [r3, #32]
 1807 012a DA68     		ldr	r2, [r3, #12]
 1808 012c 42F40072 		orr	r2, r2, #512
 1809 0130 DA60     		str	r2, [r3, #12]
 1810 0132 DA68     		ldr	r2, [r3, #12]
 1811 0134 42F48062 		orr	r2, r2, #1024
 1812 0138 DA60     		str	r2, [r3, #12]
 1813 013a BDE8F883 		pop	{r3, r4, r5, r6, r7, r8, r9, pc}
 1814              	.L206:
 1815 013e 0020     		movs	r0, #0
 1816              	.L190:
 1817 0140 BDE8F883 		pop	{r3, r4, r5, r6, r7, r8, r9, pc}
 1818              	.L209:
 1819              		.align	2
ARM GAS  /tmp/ccqL1RRp.s 			page 31


 1820              	.L208:
 1821 0144 00000000 		.word	TIM_DMACaptureCplt
 1822 0148 00000000 		.word	TIM_DMACaptureHalfCplt
 1823 014c 00000000 		.word	TIM_DMAError
 1825              		.section	.text.HAL_TIM_Encoder_Stop_DMA,"ax",%progbits
 1826              		.align	1
 1827              		.global	HAL_TIM_Encoder_Stop_DMA
 1828              		.syntax unified
 1829              		.thumb
 1830              		.thumb_func
 1831              		.fpu softvfp
 1833              	HAL_TIM_Encoder_Stop_DMA:
 1834              		@ args = 0, pretend = 0, frame = 0
 1835              		@ frame_needed = 0, uses_anonymous_args = 0
 1836 0000 0368     		ldr	r3, [r0]
 1837 0002 10B5     		push	{r4, lr}
 1838 0004 1A6A     		ldr	r2, [r3, #32]
 1839 0006 0446     		mov	r4, r0
 1840 0008 F9B9     		cbnz	r1, .L211
 1841 000a 22F00102 		bic	r2, r2, #1
 1842 000e 1A62     		str	r2, [r3, #32]
 1843 0010 1A6A     		ldr	r2, [r3, #32]
 1844 0012 406A     		ldr	r0, [r0, #36]
 1845 0014 1A62     		str	r2, [r3, #32]
 1846 0016 DA68     		ldr	r2, [r3, #12]
 1847 0018 22F40072 		bic	r2, r2, #512
 1848 001c DA60     		str	r2, [r3, #12]
 1849              	.L215:
 1850 001e FFF7FEFF 		bl	HAL_DMA_Abort_IT
 1851 0022 41F21112 		movw	r2, #4369
 1852 0026 2368     		ldr	r3, [r4]
 1853 0028 196A     		ldr	r1, [r3, #32]
 1854 002a 1142     		tst	r1, r2
 1855 002c 08D1     		bne	.L214
 1856 002e 40F24442 		movw	r2, #1092
 1857 0032 196A     		ldr	r1, [r3, #32]
 1858 0034 1142     		tst	r1, r2
 1859 0036 02BF     		ittt	eq
 1860 0038 1A68     		ldreq	r2, [r3]
 1861 003a 22F00102 		biceq	r2, r2, #1
 1862 003e 1A60     		streq	r2, [r3]
 1863              	.L214:
 1864 0040 0123     		movs	r3, #1
 1865 0042 0020     		movs	r0, #0
 1866 0044 84F83D30 		strb	r3, [r4, #61]
 1867 0048 10BD     		pop	{r4, pc}
 1868              	.L211:
 1869 004a 0429     		cmp	r1, #4
 1870 004c 0AD1     		bne	.L213
 1871 004e 22F01002 		bic	r2, r2, #16
 1872 0052 1A62     		str	r2, [r3, #32]
 1873 0054 1A6A     		ldr	r2, [r3, #32]
 1874 0056 1A62     		str	r2, [r3, #32]
 1875 0058 DA68     		ldr	r2, [r3, #12]
 1876 005a 22F48062 		bic	r2, r2, #1024
 1877 005e DA60     		str	r2, [r3, #12]
 1878              	.L216:
ARM GAS  /tmp/ccqL1RRp.s 			page 32


 1879 0060 A06A     		ldr	r0, [r4, #40]
 1880 0062 DCE7     		b	.L215
 1881              	.L213:
 1882 0064 22F00102 		bic	r2, r2, #1
 1883 0068 1A62     		str	r2, [r3, #32]
 1884 006a 1A6A     		ldr	r2, [r3, #32]
 1885 006c 406A     		ldr	r0, [r0, #36]
 1886 006e 1A62     		str	r2, [r3, #32]
 1887 0070 1A6A     		ldr	r2, [r3, #32]
 1888 0072 22F01002 		bic	r2, r2, #16
 1889 0076 1A62     		str	r2, [r3, #32]
 1890 0078 1A6A     		ldr	r2, [r3, #32]
 1891 007a 1A62     		str	r2, [r3, #32]
 1892 007c DA68     		ldr	r2, [r3, #12]
 1893 007e 22F40072 		bic	r2, r2, #512
 1894 0082 DA60     		str	r2, [r3, #12]
 1895 0084 DA68     		ldr	r2, [r3, #12]
 1896 0086 22F48062 		bic	r2, r2, #1024
 1897 008a DA60     		str	r2, [r3, #12]
 1898 008c FFF7FEFF 		bl	HAL_DMA_Abort_IT
 1899 0090 E6E7     		b	.L216
 1901              		.section	.text.HAL_TIM_IRQHandler,"ax",%progbits
 1902              		.align	1
 1903              		.global	HAL_TIM_IRQHandler
 1904              		.syntax unified
 1905              		.thumb
 1906              		.thumb_func
 1907              		.fpu softvfp
 1909              	HAL_TIM_IRQHandler:
 1910              		@ args = 0, pretend = 0, frame = 0
 1911              		@ frame_needed = 0, uses_anonymous_args = 0
 1912 0000 0368     		ldr	r3, [r0]
 1913 0002 10B5     		push	{r4, lr}
 1914 0004 1A69     		ldr	r2, [r3, #16]
 1915 0006 0446     		mov	r4, r0
 1916 0008 9107     		lsls	r1, r2, #30
 1917 000a 0FD5     		bpl	.L218
 1918 000c DA68     		ldr	r2, [r3, #12]
 1919 000e 9207     		lsls	r2, r2, #30
 1920 0010 0CD5     		bpl	.L218
 1921 0012 6FF00202 		mvn	r2, #2
 1922 0016 1A61     		str	r2, [r3, #16]
 1923 0018 0122     		movs	r2, #1
 1924 001a 9B69     		ldr	r3, [r3, #24]
 1925 001c 0277     		strb	r2, [r0, #28]
 1926 001e 9B07     		lsls	r3, r3, #30
 1927 0020 7ED0     		beq	.L219
 1928 0022 D0F88830 		ldr	r3, [r0, #136]
 1929              	.L282:
 1930 0026 9847     		blx	r3
 1931 0028 0023     		movs	r3, #0
 1932 002a 2377     		strb	r3, [r4, #28]
 1933              	.L218:
 1934 002c 2368     		ldr	r3, [r4]
 1935 002e 1A69     		ldr	r2, [r3, #16]
 1936 0030 5007     		lsls	r0, r2, #29
 1937 0032 11D5     		bpl	.L221
ARM GAS  /tmp/ccqL1RRp.s 			page 33


 1938 0034 DA68     		ldr	r2, [r3, #12]
 1939 0036 5107     		lsls	r1, r2, #29
 1940 0038 0ED5     		bpl	.L221
 1941 003a 6FF00402 		mvn	r2, #4
 1942 003e 1A61     		str	r2, [r3, #16]
 1943 0040 0222     		movs	r2, #2
 1944 0042 9B69     		ldr	r3, [r3, #24]
 1945 0044 2277     		strb	r2, [r4, #28]
 1946 0046 13F4407F 		tst	r3, #768
 1947 004a 70D0     		beq	.L222
 1948 004c D4F88830 		ldr	r3, [r4, #136]
 1949              	.L283:
 1950 0050 2046     		mov	r0, r4
 1951 0052 9847     		blx	r3
 1952 0054 0023     		movs	r3, #0
 1953 0056 2377     		strb	r3, [r4, #28]
 1954              	.L221:
 1955 0058 2368     		ldr	r3, [r4]
 1956 005a 1A69     		ldr	r2, [r3, #16]
 1957 005c 1207     		lsls	r2, r2, #28
 1958 005e 10D5     		bpl	.L224
 1959 0060 DA68     		ldr	r2, [r3, #12]
 1960 0062 1007     		lsls	r0, r2, #28
 1961 0064 0DD5     		bpl	.L224
 1962 0066 6FF00802 		mvn	r2, #8
 1963 006a 1A61     		str	r2, [r3, #16]
 1964 006c 0422     		movs	r2, #4
 1965 006e DB69     		ldr	r3, [r3, #28]
 1966 0070 2277     		strb	r2, [r4, #28]
 1967 0072 9907     		lsls	r1, r3, #30
 1968 0074 62D0     		beq	.L225
 1969 0076 D4F88830 		ldr	r3, [r4, #136]
 1970              	.L284:
 1971 007a 2046     		mov	r0, r4
 1972 007c 9847     		blx	r3
 1973 007e 0023     		movs	r3, #0
 1974 0080 2377     		strb	r3, [r4, #28]
 1975              	.L224:
 1976 0082 2368     		ldr	r3, [r4]
 1977 0084 1A69     		ldr	r2, [r3, #16]
 1978 0086 D206     		lsls	r2, r2, #27
 1979 0088 11D5     		bpl	.L227
 1980 008a DA68     		ldr	r2, [r3, #12]
 1981 008c D006     		lsls	r0, r2, #27
 1982 008e 0ED5     		bpl	.L227
 1983 0090 6FF01002 		mvn	r2, #16
 1984 0094 1A61     		str	r2, [r3, #16]
 1985 0096 0822     		movs	r2, #8
 1986 0098 DB69     		ldr	r3, [r3, #28]
 1987 009a 2277     		strb	r2, [r4, #28]
 1988 009c 13F4407F 		tst	r3, #768
 1989 00a0 53D0     		beq	.L228
 1990 00a2 D4F88830 		ldr	r3, [r4, #136]
 1991              	.L285:
 1992 00a6 2046     		mov	r0, r4
 1993 00a8 9847     		blx	r3
 1994 00aa 0023     		movs	r3, #0
ARM GAS  /tmp/ccqL1RRp.s 			page 34


 1995 00ac 2377     		strb	r3, [r4, #28]
 1996              	.L227:
 1997 00ae 2368     		ldr	r3, [r4]
 1998 00b0 1A69     		ldr	r2, [r3, #16]
 1999 00b2 D107     		lsls	r1, r2, #31
 2000 00b4 08D5     		bpl	.L230
 2001 00b6 DA68     		ldr	r2, [r3, #12]
 2002 00b8 D207     		lsls	r2, r2, #31
 2003 00ba 05D5     		bpl	.L230
 2004 00bc 6FF00102 		mvn	r2, #1
 2005 00c0 2046     		mov	r0, r4
 2006 00c2 1A61     		str	r2, [r3, #16]
 2007 00c4 A36F     		ldr	r3, [r4, #120]
 2008 00c6 9847     		blx	r3
 2009              	.L230:
 2010 00c8 2368     		ldr	r3, [r4]
 2011 00ca 1A69     		ldr	r2, [r3, #16]
 2012 00cc 1006     		lsls	r0, r2, #24
 2013 00ce 09D5     		bpl	.L231
 2014 00d0 DA68     		ldr	r2, [r3, #12]
 2015 00d2 1106     		lsls	r1, r2, #24
 2016 00d4 06D5     		bpl	.L231
 2017 00d6 6FF08002 		mvn	r2, #128
 2018 00da 2046     		mov	r0, r4
 2019 00dc 1A61     		str	r2, [r3, #16]
 2020 00de D4F8A830 		ldr	r3, [r4, #168]
 2021 00e2 9847     		blx	r3
 2022              	.L231:
 2023 00e4 2368     		ldr	r3, [r4]
 2024 00e6 1A69     		ldr	r2, [r3, #16]
 2025 00e8 5206     		lsls	r2, r2, #25
 2026 00ea 09D5     		bpl	.L232
 2027 00ec DA68     		ldr	r2, [r3, #12]
 2028 00ee 5006     		lsls	r0, r2, #25
 2029 00f0 06D5     		bpl	.L232
 2030 00f2 6FF04002 		mvn	r2, #64
 2031 00f6 2046     		mov	r0, r4
 2032 00f8 1A61     		str	r2, [r3, #16]
 2033 00fa D4F88030 		ldr	r3, [r4, #128]
 2034 00fe 9847     		blx	r3
 2035              	.L232:
 2036 0100 2368     		ldr	r3, [r4]
 2037 0102 1A69     		ldr	r2, [r3, #16]
 2038 0104 9106     		lsls	r1, r2, #26
 2039 0106 27D5     		bpl	.L217
 2040 0108 DA68     		ldr	r2, [r3, #12]
 2041 010a 9206     		lsls	r2, r2, #26
 2042 010c 24D5     		bpl	.L217
 2043 010e 6FF02002 		mvn	r2, #32
 2044 0112 2046     		mov	r0, r4
 2045 0114 1A61     		str	r2, [r3, #16]
 2046 0116 D4F8A030 		ldr	r3, [r4, #160]
 2047 011a BDE81040 		pop	{r4, lr}
 2048 011e 1847     		bx	r3	@ indirect register sibling call
 2049              	.L219:
 2050 0120 D0F89030 		ldr	r3, [r0, #144]
 2051 0124 9847     		blx	r3
ARM GAS  /tmp/ccqL1RRp.s 			page 35


 2052 0126 D4F89430 		ldr	r3, [r4, #148]
 2053 012a 2046     		mov	r0, r4
 2054 012c 7BE7     		b	.L282
 2055              	.L222:
 2056 012e D4F89030 		ldr	r3, [r4, #144]
 2057 0132 2046     		mov	r0, r4
 2058 0134 9847     		blx	r3
 2059 0136 D4F89430 		ldr	r3, [r4, #148]
 2060 013a 89E7     		b	.L283
 2061              	.L225:
 2062 013c D4F89030 		ldr	r3, [r4, #144]
 2063 0140 2046     		mov	r0, r4
 2064 0142 9847     		blx	r3
 2065 0144 D4F89430 		ldr	r3, [r4, #148]
 2066 0148 97E7     		b	.L284
 2067              	.L228:
 2068 014a D4F89030 		ldr	r3, [r4, #144]
 2069 014e 2046     		mov	r0, r4
 2070 0150 9847     		blx	r3
 2071 0152 D4F89430 		ldr	r3, [r4, #148]
 2072 0156 A6E7     		b	.L285
 2073              	.L217:
 2074 0158 10BD     		pop	{r4, pc}
 2076              		.section	.text.HAL_TIM_DMABurst_WriteStart,"ax",%progbits
 2077              		.align	1
 2078              		.global	HAL_TIM_DMABurst_WriteStart
 2079              		.syntax unified
 2080              		.thumb
 2081              		.thumb_func
 2082              		.fpu softvfp
 2084              	HAL_TIM_DMABurst_WriteStart:
 2085              		@ args = 4, pretend = 0, frame = 0
 2086              		@ frame_needed = 0, uses_anonymous_args = 0
 2087 0000 F8B5     		push	{r3, r4, r5, r6, r7, lr}
 2088 0002 0446     		mov	r4, r0
 2089 0004 90F83D00 		ldrb	r0, [r0, #61]	@ zero_extendqisi2
 2090 0008 0F46     		mov	r7, r1
 2091 000a C0B2     		uxtb	r0, r0
 2092 000c 0228     		cmp	r0, #2
 2093 000e 1646     		mov	r6, r2
 2094 0010 1946     		mov	r1, r3
 2095 0012 069D     		ldr	r5, [sp, #24]
 2096 0014 30D0     		beq	.L287
 2097 0016 94F83D30 		ldrb	r3, [r4, #61]	@ zero_extendqisi2
 2098 001a 012B     		cmp	r3, #1
 2099 001c 06D1     		bne	.L288
 2100 001e 11B9     		cbnz	r1, .L289
 2101 0020 0DB1     		cbz	r5, .L289
 2102              	.L299:
 2103 0022 0120     		movs	r0, #1
 2104 0024 F8BD     		pop	{r3, r4, r5, r6, r7, pc}
 2105              	.L289:
 2106 0026 0223     		movs	r3, #2
 2107 0028 84F83D30 		strb	r3, [r4, #61]
 2108              	.L288:
 2109 002c B6F5006F 		cmp	r6, #2048
 2110 0030 2268     		ldr	r2, [r4]
ARM GAS  /tmp/ccqL1RRp.s 			page 36


 2111 0032 34D0     		beq	.L291
 2112 0034 21D8     		bhi	.L292
 2113 0036 B6F5007F 		cmp	r6, #512
 2114 003a 29D0     		beq	.L293
 2115 003c B6F5806F 		cmp	r6, #1024
 2116 0040 2BD0     		beq	.L294
 2117 0042 B6F5807F 		cmp	r6, #256
 2118 0046 0DD1     		bne	.L290
 2119 0048 1B4B     		ldr	r3, .L313
 2120 004a 206A     		ldr	r0, [r4, #32]
 2121 004c 8362     		str	r3, [r0, #40]
 2122 004e 1B4B     		ldr	r3, .L313+4
 2123              	.L306:
 2124 0050 C362     		str	r3, [r0, #44]
 2125 0052 1B4B     		ldr	r3, .L313+8
 2126 0054 4C32     		adds	r2, r2, #76
 2127 0056 0363     		str	r3, [r0, #48]
 2128 0058 2B0A     		lsrs	r3, r5, #8
 2129 005a 0133     		adds	r3, r3, #1
 2130 005c FFF7FEFF 		bl	HAL_DMA_Start_IT
 2131 0060 0028     		cmp	r0, #0
 2132 0062 DED1     		bne	.L299
 2133              	.L290:
 2134 0064 2368     		ldr	r3, [r4]
 2135 0066 3D43     		orrs	r5, r5, r7
 2136 0068 9D64     		str	r5, [r3, #72]
 2137 006a DA68     		ldr	r2, [r3, #12]
 2138 006c 0020     		movs	r0, #0
 2139 006e 1643     		orrs	r6, r6, r2
 2140 0070 DE60     		str	r6, [r3, #12]
 2141 0072 0123     		movs	r3, #1
 2142 0074 84F83D30 		strb	r3, [r4, #61]
 2143              	.L287:
 2144 0078 F8BD     		pop	{r3, r4, r5, r6, r7, pc}
 2145              	.L292:
 2146 007a B6F5005F 		cmp	r6, #8192
 2147 007e 10D0     		beq	.L296
 2148 0080 B6F5804F 		cmp	r6, #16384
 2149 0084 12D0     		beq	.L297
 2150 0086 B6F5805F 		cmp	r6, #4096
 2151 008a EBD1     		bne	.L290
 2152 008c 206B     		ldr	r0, [r4, #48]
 2153 008e 00E0     		b	.L312
 2154              	.L293:
 2155 0090 606A     		ldr	r0, [r4, #36]
 2156              	.L312:
 2157 0092 0C4B     		ldr	r3, .L313+12
 2158 0094 8362     		str	r3, [r0, #40]
 2159 0096 0C4B     		ldr	r3, .L313+16
 2160 0098 DAE7     		b	.L306
 2161              	.L294:
 2162 009a A06A     		ldr	r0, [r4, #40]
 2163 009c F9E7     		b	.L312
 2164              	.L291:
 2165 009e E06A     		ldr	r0, [r4, #44]
 2166 00a0 F7E7     		b	.L312
 2167              	.L296:
ARM GAS  /tmp/ccqL1RRp.s 			page 37


 2168 00a2 0A4B     		ldr	r3, .L313+20
 2169 00a4 606B     		ldr	r0, [r4, #52]
 2170 00a6 8362     		str	r3, [r0, #40]
 2171 00a8 094B     		ldr	r3, .L313+24
 2172 00aa D1E7     		b	.L306
 2173              	.L297:
 2174 00ac 094B     		ldr	r3, .L313+28
 2175 00ae A06B     		ldr	r0, [r4, #56]
 2176 00b0 8362     		str	r3, [r0, #40]
 2177 00b2 094B     		ldr	r3, .L313+32
 2178 00b4 CCE7     		b	.L306
 2179              	.L314:
 2180 00b6 00BF     		.align	2
 2181              	.L313:
 2182 00b8 00000000 		.word	TIM_DMAPeriodElapsedCplt
 2183 00bc 00000000 		.word	TIM_DMAPeriodElapsedHalfCplt
 2184 00c0 00000000 		.word	TIM_DMAError
 2185 00c4 00000000 		.word	TIM_DMADelayPulseCplt
 2186 00c8 00000000 		.word	TIM_DMADelayPulseHalfCplt
 2187 00cc 00000000 		.word	TIMEx_DMACommutationCplt
 2188 00d0 00000000 		.word	TIMEx_DMACommutationHalfCplt
 2189 00d4 00000000 		.word	TIM_DMATriggerCplt
 2190 00d8 00000000 		.word	TIM_DMATriggerHalfCplt
 2192              		.section	.text.HAL_TIM_DMABurst_ReadStart,"ax",%progbits
 2193              		.align	1
 2194              		.global	HAL_TIM_DMABurst_ReadStart
 2195              		.syntax unified
 2196              		.thumb
 2197              		.thumb_func
 2198              		.fpu softvfp
 2200              	HAL_TIM_DMABurst_ReadStart:
 2201              		@ args = 4, pretend = 0, frame = 0
 2202              		@ frame_needed = 0, uses_anonymous_args = 0
 2203 0000 F8B5     		push	{r3, r4, r5, r6, r7, lr}
 2204 0002 0446     		mov	r4, r0
 2205 0004 90F83D00 		ldrb	r0, [r0, #61]	@ zero_extendqisi2
 2206 0008 1646     		mov	r6, r2
 2207 000a C0B2     		uxtb	r0, r0
 2208 000c 0228     		cmp	r0, #2
 2209 000e 0F46     		mov	r7, r1
 2210 0010 1A46     		mov	r2, r3
 2211 0012 069D     		ldr	r5, [sp, #24]
 2212 0014 30D0     		beq	.L316
 2213 0016 94F83D30 		ldrb	r3, [r4, #61]	@ zero_extendqisi2
 2214 001a 012B     		cmp	r3, #1
 2215 001c 06D1     		bne	.L317
 2216 001e 12B9     		cbnz	r2, .L318
 2217 0020 0DB1     		cbz	r5, .L318
 2218              	.L328:
 2219 0022 0120     		movs	r0, #1
 2220 0024 F8BD     		pop	{r3, r4, r5, r6, r7, pc}
 2221              	.L318:
 2222 0026 0223     		movs	r3, #2
 2223 0028 84F83D30 		strb	r3, [r4, #61]
 2224              	.L317:
 2225 002c B6F5006F 		cmp	r6, #2048
 2226 0030 2168     		ldr	r1, [r4]
ARM GAS  /tmp/ccqL1RRp.s 			page 38


 2227 0032 34D0     		beq	.L320
 2228 0034 21D8     		bhi	.L321
 2229 0036 B6F5007F 		cmp	r6, #512
 2230 003a 29D0     		beq	.L322
 2231 003c B6F5806F 		cmp	r6, #1024
 2232 0040 2BD0     		beq	.L323
 2233 0042 B6F5807F 		cmp	r6, #256
 2234 0046 0DD1     		bne	.L319
 2235 0048 1B4B     		ldr	r3, .L342
 2236 004a 206A     		ldr	r0, [r4, #32]
 2237 004c 8362     		str	r3, [r0, #40]
 2238 004e 1B4B     		ldr	r3, .L342+4
 2239              	.L335:
 2240 0050 C362     		str	r3, [r0, #44]
 2241 0052 1B4B     		ldr	r3, .L342+8
 2242 0054 4C31     		adds	r1, r1, #76
 2243 0056 0363     		str	r3, [r0, #48]
 2244 0058 2B0A     		lsrs	r3, r5, #8
 2245 005a 0133     		adds	r3, r3, #1
 2246 005c FFF7FEFF 		bl	HAL_DMA_Start_IT
 2247 0060 0028     		cmp	r0, #0
 2248 0062 DED1     		bne	.L328
 2249              	.L319:
 2250 0064 2368     		ldr	r3, [r4]
 2251 0066 3D43     		orrs	r5, r5, r7
 2252 0068 9D64     		str	r5, [r3, #72]
 2253 006a DA68     		ldr	r2, [r3, #12]
 2254 006c 0020     		movs	r0, #0
 2255 006e 1643     		orrs	r6, r6, r2
 2256 0070 DE60     		str	r6, [r3, #12]
 2257 0072 0123     		movs	r3, #1
 2258 0074 84F83D30 		strb	r3, [r4, #61]
 2259              	.L316:
 2260 0078 F8BD     		pop	{r3, r4, r5, r6, r7, pc}
 2261              	.L321:
 2262 007a B6F5005F 		cmp	r6, #8192
 2263 007e 10D0     		beq	.L325
 2264 0080 B6F5804F 		cmp	r6, #16384
 2265 0084 12D0     		beq	.L326
 2266 0086 B6F5805F 		cmp	r6, #4096
 2267 008a EBD1     		bne	.L319
 2268 008c 206B     		ldr	r0, [r4, #48]
 2269 008e 00E0     		b	.L341
 2270              	.L322:
 2271 0090 606A     		ldr	r0, [r4, #36]
 2272              	.L341:
 2273 0092 0C4B     		ldr	r3, .L342+12
 2274 0094 8362     		str	r3, [r0, #40]
 2275 0096 0C4B     		ldr	r3, .L342+16
 2276 0098 DAE7     		b	.L335
 2277              	.L323:
 2278 009a A06A     		ldr	r0, [r4, #40]
 2279 009c F9E7     		b	.L341
 2280              	.L320:
 2281 009e E06A     		ldr	r0, [r4, #44]
 2282 00a0 F7E7     		b	.L341
 2283              	.L325:
ARM GAS  /tmp/ccqL1RRp.s 			page 39


 2284 00a2 0A4B     		ldr	r3, .L342+20
 2285 00a4 606B     		ldr	r0, [r4, #52]
 2286 00a6 8362     		str	r3, [r0, #40]
 2287 00a8 094B     		ldr	r3, .L342+24
 2288 00aa D1E7     		b	.L335
 2289              	.L326:
 2290 00ac 094B     		ldr	r3, .L342+28
 2291 00ae A06B     		ldr	r0, [r4, #56]
 2292 00b0 8362     		str	r3, [r0, #40]
 2293 00b2 094B     		ldr	r3, .L342+32
 2294 00b4 CCE7     		b	.L335
 2295              	.L343:
 2296 00b6 00BF     		.align	2
 2297              	.L342:
 2298 00b8 00000000 		.word	TIM_DMAPeriodElapsedCplt
 2299 00bc 00000000 		.word	TIM_DMAPeriodElapsedHalfCplt
 2300 00c0 00000000 		.word	TIM_DMAError
 2301 00c4 00000000 		.word	TIM_DMACaptureCplt
 2302 00c8 00000000 		.word	TIM_DMACaptureHalfCplt
 2303 00cc 00000000 		.word	TIMEx_DMACommutationCplt
 2304 00d0 00000000 		.word	TIMEx_DMACommutationHalfCplt
 2305 00d4 00000000 		.word	TIM_DMATriggerCplt
 2306 00d8 00000000 		.word	TIM_DMATriggerHalfCplt
 2308              		.section	.text.HAL_TIM_DMABurst_ReadStop,"ax",%progbits
 2309              		.align	1
 2310              		.global	HAL_TIM_DMABurst_ReadStop
 2311              		.syntax unified
 2312              		.thumb
 2313              		.thumb_func
 2314              		.fpu softvfp
 2316              	HAL_TIM_DMABurst_ReadStop:
 2317              		@ args = 0, pretend = 0, frame = 0
 2318              		@ frame_needed = 0, uses_anonymous_args = 0
 2319 0000 B1F5006F 		cmp	r1, #2048
 2320 0004 38B5     		push	{r3, r4, r5, lr}
 2321 0006 0546     		mov	r5, r0
 2322 0008 0C46     		mov	r4, r1
 2323 000a 23D0     		beq	.L346
 2324 000c 13D8     		bhi	.L347
 2325 000e B1F5007F 		cmp	r1, #512
 2326 0012 1BD0     		beq	.L348
 2327 0014 B1F5806F 		cmp	r1, #1024
 2328 0018 1AD0     		beq	.L349
 2329 001a B1F5807F 		cmp	r1, #256
 2330 001e 03D1     		bne	.L345
 2331 0020 006A     		ldr	r0, [r0, #32]
 2332              	.L356:
 2333 0022 FFF7FEFF 		bl	HAL_DMA_Abort_IT
 2334 0026 28B9     		cbnz	r0, .L355
 2335              	.L345:
 2336 0028 0020     		movs	r0, #0
 2337 002a 2A68     		ldr	r2, [r5]
 2338 002c D368     		ldr	r3, [r2, #12]
 2339 002e 23EA0404 		bic	r4, r3, r4
 2340 0032 D460     		str	r4, [r2, #12]
 2341              	.L355:
 2342 0034 38BD     		pop	{r3, r4, r5, pc}
ARM GAS  /tmp/ccqL1RRp.s 			page 40


 2343              	.L347:
 2344 0036 B1F5005F 		cmp	r1, #8192
 2345 003a 0DD0     		beq	.L351
 2346 003c B1F5804F 		cmp	r1, #16384
 2347 0040 0CD0     		beq	.L352
 2348 0042 B1F5805F 		cmp	r1, #4096
 2349 0046 EFD1     		bne	.L345
 2350 0048 006B     		ldr	r0, [r0, #48]
 2351 004a EAE7     		b	.L356
 2352              	.L348:
 2353 004c 406A     		ldr	r0, [r0, #36]
 2354 004e E8E7     		b	.L356
 2355              	.L349:
 2356 0050 806A     		ldr	r0, [r0, #40]
 2357 0052 E6E7     		b	.L356
 2358              	.L346:
 2359 0054 C06A     		ldr	r0, [r0, #44]
 2360 0056 E4E7     		b	.L356
 2361              	.L351:
 2362 0058 406B     		ldr	r0, [r0, #52]
 2363 005a E2E7     		b	.L356
 2364              	.L352:
 2365 005c 806B     		ldr	r0, [r0, #56]
 2366 005e E0E7     		b	.L356
 2368              		.section	.text.HAL_TIM_DMABurst_WriteStop,"ax",%progbits
 2369              		.align	1
 2370              		.global	HAL_TIM_DMABurst_WriteStop
 2371              		.syntax unified
 2372              		.thumb
 2373              		.thumb_func
 2374              		.fpu softvfp
 2376              	HAL_TIM_DMABurst_WriteStop:
 2377              		@ args = 0, pretend = 0, frame = 0
 2378              		@ frame_needed = 0, uses_anonymous_args = 0
 2379              		@ link register save eliminated.
 2380 0000 FFF7FEBF 		b	HAL_TIM_DMABurst_ReadStop
 2382              		.section	.text.HAL_TIM_GenerateEvent,"ax",%progbits
 2383              		.align	1
 2384              		.global	HAL_TIM_GenerateEvent
 2385              		.syntax unified
 2386              		.thumb
 2387              		.thumb_func
 2388              		.fpu softvfp
 2390              	HAL_TIM_GenerateEvent:
 2391              		@ args = 0, pretend = 0, frame = 0
 2392              		@ frame_needed = 0, uses_anonymous_args = 0
 2393              		@ link register save eliminated.
 2394 0000 90F83C30 		ldrb	r3, [r0, #60]	@ zero_extendqisi2
 2395 0004 012B     		cmp	r3, #1
 2396 0006 4FF00203 		mov	r3, #2
 2397 000a 09D0     		beq	.L360
 2398 000c 80F83D30 		strb	r3, [r0, #61]
 2399 0010 0368     		ldr	r3, [r0]
 2400 0012 5961     		str	r1, [r3, #20]
 2401 0014 0123     		movs	r3, #1
 2402 0016 80F83D30 		strb	r3, [r0, #61]
 2403 001a 0023     		movs	r3, #0
ARM GAS  /tmp/ccqL1RRp.s 			page 41


 2404 001c 80F83C30 		strb	r3, [r0, #60]
 2405              	.L360:
 2406 0020 1846     		mov	r0, r3
 2407 0022 7047     		bx	lr
 2409              		.section	.text.HAL_TIM_ConfigTI1Input,"ax",%progbits
 2410              		.align	1
 2411              		.global	HAL_TIM_ConfigTI1Input
 2412              		.syntax unified
 2413              		.thumb
 2414              		.thumb_func
 2415              		.fpu softvfp
 2417              	HAL_TIM_ConfigTI1Input:
 2418              		@ args = 0, pretend = 0, frame = 0
 2419              		@ frame_needed = 0, uses_anonymous_args = 0
 2420              		@ link register save eliminated.
 2421 0000 0268     		ldr	r2, [r0]
 2422 0002 0020     		movs	r0, #0
 2423 0004 5368     		ldr	r3, [r2, #4]
 2424 0006 23F08003 		bic	r3, r3, #128
 2425 000a 1943     		orrs	r1, r1, r3
 2426 000c 5160     		str	r1, [r2, #4]
 2427 000e 7047     		bx	lr
 2429              		.section	.text.HAL_TIM_ReadCapturedValue,"ax",%progbits
 2430              		.align	1
 2431              		.global	HAL_TIM_ReadCapturedValue
 2432              		.syntax unified
 2433              		.thumb
 2434              		.thumb_func
 2435              		.fpu softvfp
 2437              	HAL_TIM_ReadCapturedValue:
 2438              		@ args = 0, pretend = 0, frame = 0
 2439              		@ frame_needed = 0, uses_anonymous_args = 0
 2440              		@ link register save eliminated.
 2441 0000 0C29     		cmp	r1, #12
 2442 0002 14D8     		bhi	.L369
 2443 0004 DFE801F0 		tbb	[pc, r1]
 2444              	.L365:
 2445 0008 07       		.byte	(.L364-.L365)/2
 2446 0009 13       		.byte	(.L369-.L365)/2
 2447 000a 13       		.byte	(.L369-.L365)/2
 2448 000b 13       		.byte	(.L369-.L365)/2
 2449 000c 0A       		.byte	(.L366-.L365)/2
 2450 000d 13       		.byte	(.L369-.L365)/2
 2451 000e 13       		.byte	(.L369-.L365)/2
 2452 000f 13       		.byte	(.L369-.L365)/2
 2453 0010 0D       		.byte	(.L367-.L365)/2
 2454 0011 13       		.byte	(.L369-.L365)/2
 2455 0012 13       		.byte	(.L369-.L365)/2
 2456 0013 13       		.byte	(.L369-.L365)/2
 2457 0014 10       		.byte	(.L368-.L365)/2
 2458 0015 00       		.p2align 1
 2459              	.L364:
 2460 0016 0368     		ldr	r3, [r0]
 2461 0018 586B     		ldr	r0, [r3, #52]
 2462 001a 7047     		bx	lr
 2463              	.L366:
 2464 001c 0368     		ldr	r3, [r0]
ARM GAS  /tmp/ccqL1RRp.s 			page 42


 2465 001e 986B     		ldr	r0, [r3, #56]
 2466 0020 7047     		bx	lr
 2467              	.L367:
 2468 0022 0368     		ldr	r3, [r0]
 2469 0024 D86B     		ldr	r0, [r3, #60]
 2470 0026 7047     		bx	lr
 2471              	.L368:
 2472 0028 0368     		ldr	r3, [r0]
 2473 002a 186C     		ldr	r0, [r3, #64]
 2474 002c 7047     		bx	lr
 2475              	.L369:
 2476 002e 0020     		movs	r0, #0
 2477 0030 7047     		bx	lr
 2479              		.section	.text.HAL_TIM_RegisterCallback,"ax",%progbits
 2480              		.align	1
 2481              		.global	HAL_TIM_RegisterCallback
 2482              		.syntax unified
 2483              		.thumb
 2484              		.thumb_func
 2485              		.fpu softvfp
 2487              	HAL_TIM_RegisterCallback:
 2488              		@ args = 0, pretend = 0, frame = 0
 2489              		@ frame_needed = 0, uses_anonymous_args = 0
 2490 0000 10B5     		push	{r4, lr}
 2491 0002 0446     		mov	r4, r0
 2492 0004 002A     		cmp	r2, #0
 2493 0006 71D0     		beq	.L417
 2494 0008 90F83C30 		ldrb	r3, [r0, #60]	@ zero_extendqisi2
 2495 000c 012B     		cmp	r3, #1
 2496 000e 6FD0     		beq	.L418
 2497 0010 0123     		movs	r3, #1
 2498 0012 80F83C30 		strb	r3, [r0, #60]
 2499 0016 90F83D00 		ldrb	r0, [r0, #61]	@ zero_extendqisi2
 2500 001a 9842     		cmp	r0, r3
 2501 001c 3AD1     		bne	.L372
 2502 001e 1A29     		cmp	r1, #26
 2503 0020 62D8     		bhi	.L421
 2504 0022 DFE801F0 		tbb	[pc, r1]
 2505              	.L375:
 2506 0026 45       		.byte	(.L402-.L375)/2
 2507 0027 47       		.byte	(.L404-.L375)/2
 2508 0028 49       		.byte	(.L405-.L375)/2
 2509 0029 4B       		.byte	(.L406-.L375)/2
 2510 002a 4D       		.byte	(.L407-.L375)/2
 2511 002b 4F       		.byte	(.L408-.L375)/2
 2512 002c 51       		.byte	(.L409-.L375)/2
 2513 002d 53       		.byte	(.L410-.L375)/2
 2514 002e 55       		.byte	(.L411-.L375)/2
 2515 002f 57       		.byte	(.L412-.L375)/2
 2516 0030 59       		.byte	(.L413-.L375)/2
 2517 0031 5B       		.byte	(.L414-.L375)/2
 2518 0032 5D       		.byte	(.L415-.L375)/2
 2519 0033 5F       		.byte	(.L416-.L375)/2
 2520 0034 0E       		.byte	(.L389-.L375)/2
 2521 0035 14       		.byte	(.L390-.L375)/2
 2522 0036 16       		.byte	(.L391-.L375)/2
 2523 0037 19       		.byte	(.L392-.L375)/2
ARM GAS  /tmp/ccqL1RRp.s 			page 43


 2524 0038 1C       		.byte	(.L393-.L375)/2
 2525 0039 1F       		.byte	(.L394-.L375)/2
 2526 003a 22       		.byte	(.L395-.L375)/2
 2527 003b 25       		.byte	(.L396-.L375)/2
 2528 003c 28       		.byte	(.L397-.L375)/2
 2529 003d 2B       		.byte	(.L398-.L375)/2
 2530 003e 2E       		.byte	(.L399-.L375)/2
 2531 003f 31       		.byte	(.L400-.L375)/2
 2532 0040 34       		.byte	(.L401-.L375)/2
 2533 0041 00       		.p2align 1
 2534              	.L389:
 2535 0042 A267     		str	r2, [r4, #120]
 2536              	.L422:
 2537 0044 0020     		movs	r0, #0
 2538              	.L373:
 2539 0046 0023     		movs	r3, #0
 2540 0048 84F83C30 		strb	r3, [r4, #60]
 2541 004c 10BD     		pop	{r4, pc}
 2542              	.L390:
 2543 004e E267     		str	r2, [r4, #124]
 2544 0050 F8E7     		b	.L422
 2545              	.L391:
 2546 0052 C4F88020 		str	r2, [r4, #128]
 2547 0056 F5E7     		b	.L422
 2548              	.L392:
 2549 0058 C4F88420 		str	r2, [r4, #132]
 2550 005c F2E7     		b	.L422
 2551              	.L393:
 2552 005e C4F88820 		str	r2, [r4, #136]
 2553 0062 EFE7     		b	.L422
 2554              	.L394:
 2555 0064 C4F88C20 		str	r2, [r4, #140]
 2556 0068 ECE7     		b	.L422
 2557              	.L395:
 2558 006a C4F89020 		str	r2, [r4, #144]
 2559 006e E9E7     		b	.L422
 2560              	.L396:
 2561 0070 C4F89420 		str	r2, [r4, #148]
 2562 0074 E6E7     		b	.L422
 2563              	.L397:
 2564 0076 C4F89820 		str	r2, [r4, #152]
 2565 007a E3E7     		b	.L422
 2566              	.L398:
 2567 007c C4F89C20 		str	r2, [r4, #156]
 2568 0080 E0E7     		b	.L422
 2569              	.L399:
 2570 0082 C4F8A020 		str	r2, [r4, #160]
 2571 0086 DDE7     		b	.L422
 2572              	.L400:
 2573 0088 C4F8A420 		str	r2, [r4, #164]
 2574 008c DAE7     		b	.L422
 2575              	.L401:
 2576 008e C4F8A820 		str	r2, [r4, #168]
 2577 0092 D7E7     		b	.L422
 2578              	.L372:
 2579 0094 94F83D00 		ldrb	r0, [r4, #61]	@ zero_extendqisi2
 2580 0098 30BB     		cbnz	r0, .L421
ARM GAS  /tmp/ccqL1RRp.s 			page 44


 2581 009a 0D29     		cmp	r1, #13
 2582 009c 24D8     		bhi	.L421
 2583 009e DFE801F0 		tbb	[pc, r1]
 2584              	.L403:
 2585 00a2 07       		.byte	(.L402-.L403)/2
 2586 00a3 09       		.byte	(.L404-.L403)/2
 2587 00a4 0B       		.byte	(.L405-.L403)/2
 2588 00a5 0D       		.byte	(.L406-.L403)/2
 2589 00a6 0F       		.byte	(.L407-.L403)/2
 2590 00a7 11       		.byte	(.L408-.L403)/2
 2591 00a8 13       		.byte	(.L409-.L403)/2
 2592 00a9 15       		.byte	(.L410-.L403)/2
 2593 00aa 17       		.byte	(.L411-.L403)/2
 2594 00ab 19       		.byte	(.L412-.L403)/2
 2595 00ac 1B       		.byte	(.L413-.L403)/2
 2596 00ad 1D       		.byte	(.L414-.L403)/2
 2597 00ae 1F       		.byte	(.L415-.L403)/2
 2598 00af 21       		.byte	(.L416-.L403)/2
 2599              		.p2align 1
 2600              	.L402:
 2601 00b0 2264     		str	r2, [r4, #64]
 2602 00b2 C7E7     		b	.L422
 2603              	.L404:
 2604 00b4 6264     		str	r2, [r4, #68]
 2605 00b6 C5E7     		b	.L422
 2606              	.L405:
 2607 00b8 A264     		str	r2, [r4, #72]
 2608 00ba C3E7     		b	.L422
 2609              	.L406:
 2610 00bc E264     		str	r2, [r4, #76]
 2611 00be C1E7     		b	.L422
 2612              	.L407:
 2613 00c0 2265     		str	r2, [r4, #80]
 2614 00c2 BFE7     		b	.L422
 2615              	.L408:
 2616 00c4 6265     		str	r2, [r4, #84]
 2617 00c6 BDE7     		b	.L422
 2618              	.L409:
 2619 00c8 A265     		str	r2, [r4, #88]
 2620 00ca BBE7     		b	.L422
 2621              	.L410:
 2622 00cc E265     		str	r2, [r4, #92]
 2623 00ce B9E7     		b	.L422
 2624              	.L411:
 2625 00d0 2266     		str	r2, [r4, #96]
 2626 00d2 B7E7     		b	.L422
 2627              	.L412:
 2628 00d4 6266     		str	r2, [r4, #100]
 2629 00d6 B5E7     		b	.L422
 2630              	.L413:
 2631 00d8 A266     		str	r2, [r4, #104]
 2632 00da B3E7     		b	.L422
 2633              	.L414:
 2634 00dc E266     		str	r2, [r4, #108]
 2635 00de B1E7     		b	.L422
 2636              	.L415:
 2637 00e0 2267     		str	r2, [r4, #112]
ARM GAS  /tmp/ccqL1RRp.s 			page 45


 2638 00e2 AFE7     		b	.L422
 2639              	.L416:
 2640 00e4 6267     		str	r2, [r4, #116]
 2641 00e6 ADE7     		b	.L422
 2642              	.L421:
 2643 00e8 0120     		movs	r0, #1
 2644 00ea ACE7     		b	.L373
 2645              	.L417:
 2646 00ec 0120     		movs	r0, #1
 2647 00ee 10BD     		pop	{r4, pc}
 2648              	.L418:
 2649 00f0 0220     		movs	r0, #2
 2650 00f2 10BD     		pop	{r4, pc}
 2652              		.section	.text.HAL_TIM_UnRegisterCallback,"ax",%progbits
 2653              		.align	1
 2654              		.global	HAL_TIM_UnRegisterCallback
 2655              		.syntax unified
 2656              		.thumb
 2657              		.thumb_func
 2658              		.fpu softvfp
 2660              	HAL_TIM_UnRegisterCallback:
 2661              		@ args = 0, pretend = 0, frame = 0
 2662              		@ frame_needed = 0, uses_anonymous_args = 0
 2663              		@ link register save eliminated.
 2664 0000 90F83C30 		ldrb	r3, [r0, #60]	@ zero_extendqisi2
 2665 0004 0246     		mov	r2, r0
 2666 0006 012B     		cmp	r3, #1
 2667 0008 00F08A80 		beq	.L470
 2668 000c 0123     		movs	r3, #1
 2669 000e 80F83C30 		strb	r3, [r0, #60]
 2670 0012 90F83D00 		ldrb	r0, [r0, #61]	@ zero_extendqisi2
 2671 0016 9842     		cmp	r0, r3
 2672 0018 47D1     		bne	.L425
 2673 001a 1A29     		cmp	r1, #26
 2674 001c 7ED8     		bhi	.L473
 2675 001e DFE801F0 		tbb	[pc, r1]
 2676              	.L428:
 2677 0022 53       		.byte	(.L455-.L428)/2
 2678 0023 56       		.byte	(.L457-.L428)/2
 2679 0024 59       		.byte	(.L458-.L428)/2
 2680 0025 5C       		.byte	(.L459-.L428)/2
 2681 0026 5F       		.byte	(.L460-.L428)/2
 2682 0027 62       		.byte	(.L461-.L428)/2
 2683 0028 65       		.byte	(.L462-.L428)/2
 2684 0029 68       		.byte	(.L463-.L428)/2
 2685 002a 6B       		.byte	(.L464-.L428)/2
 2686 002b 6E       		.byte	(.L465-.L428)/2
 2687 002c 71       		.byte	(.L466-.L428)/2
 2688 002d 74       		.byte	(.L467-.L428)/2
 2689 002e 77       		.byte	(.L468-.L428)/2
 2690 002f 7A       		.byte	(.L469-.L428)/2
 2691 0030 0E       		.byte	(.L442-.L428)/2
 2692 0031 15       		.byte	(.L443-.L428)/2
 2693 0032 18       		.byte	(.L444-.L428)/2
 2694 0033 1C       		.byte	(.L445-.L428)/2
 2695 0034 20       		.byte	(.L446-.L428)/2
 2696 0035 24       		.byte	(.L447-.L428)/2
ARM GAS  /tmp/ccqL1RRp.s 			page 46


 2697 0036 28       		.byte	(.L448-.L428)/2
 2698 0037 2C       		.byte	(.L449-.L428)/2
 2699 0038 30       		.byte	(.L450-.L428)/2
 2700 0039 34       		.byte	(.L451-.L428)/2
 2701 003a 38       		.byte	(.L452-.L428)/2
 2702 003b 3C       		.byte	(.L453-.L428)/2
 2703 003c 40       		.byte	(.L454-.L428)/2
 2704 003d 00       		.p2align 1
 2705              	.L442:
 2706 003e 394B     		ldr	r3, .L475
 2707 0040 9367     		str	r3, [r2, #120]
 2708              	.L474:
 2709 0042 0020     		movs	r0, #0
 2710              	.L426:
 2711 0044 0023     		movs	r3, #0
 2712 0046 82F83C30 		strb	r3, [r2, #60]
 2713 004a 7047     		bx	lr
 2714              	.L443:
 2715 004c 364B     		ldr	r3, .L475+4
 2716 004e D367     		str	r3, [r2, #124]
 2717 0050 F7E7     		b	.L474
 2718              	.L444:
 2719 0052 364B     		ldr	r3, .L475+8
 2720 0054 C2F88030 		str	r3, [r2, #128]
 2721 0058 F3E7     		b	.L474
 2722              	.L445:
 2723 005a 354B     		ldr	r3, .L475+12
 2724 005c C2F88430 		str	r3, [r2, #132]
 2725 0060 EFE7     		b	.L474
 2726              	.L446:
 2727 0062 344B     		ldr	r3, .L475+16
 2728 0064 C2F88830 		str	r3, [r2, #136]
 2729 0068 EBE7     		b	.L474
 2730              	.L447:
 2731 006a 334B     		ldr	r3, .L475+20
 2732 006c C2F88C30 		str	r3, [r2, #140]
 2733 0070 E7E7     		b	.L474
 2734              	.L448:
 2735 0072 324B     		ldr	r3, .L475+24
 2736 0074 C2F89030 		str	r3, [r2, #144]
 2737 0078 E3E7     		b	.L474
 2738              	.L449:
 2739 007a 314B     		ldr	r3, .L475+28
 2740 007c C2F89430 		str	r3, [r2, #148]
 2741 0080 DFE7     		b	.L474
 2742              	.L450:
 2743 0082 304B     		ldr	r3, .L475+32
 2744 0084 C2F89830 		str	r3, [r2, #152]
 2745 0088 DBE7     		b	.L474
 2746              	.L451:
 2747 008a 2F4B     		ldr	r3, .L475+36
 2748 008c C2F89C30 		str	r3, [r2, #156]
 2749 0090 D7E7     		b	.L474
 2750              	.L452:
 2751 0092 2E4B     		ldr	r3, .L475+40
 2752 0094 C2F8A030 		str	r3, [r2, #160]
 2753 0098 D3E7     		b	.L474
ARM GAS  /tmp/ccqL1RRp.s 			page 47


 2754              	.L453:
 2755 009a 2D4B     		ldr	r3, .L475+44
 2756 009c C2F8A430 		str	r3, [r2, #164]
 2757 00a0 CFE7     		b	.L474
 2758              	.L454:
 2759 00a2 2C4B     		ldr	r3, .L475+48
 2760 00a4 C2F8A830 		str	r3, [r2, #168]
 2761 00a8 CBE7     		b	.L474
 2762              	.L425:
 2763 00aa 92F83D00 		ldrb	r0, [r2, #61]	@ zero_extendqisi2
 2764 00ae 0028     		cmp	r0, #0
 2765 00b0 34D1     		bne	.L473
 2766 00b2 0D29     		cmp	r1, #13
 2767 00b4 32D8     		bhi	.L473
 2768 00b6 DFE801F0 		tbb	[pc, r1]
 2769              	.L456:
 2770 00ba 07       		.byte	(.L455-.L456)/2
 2771 00bb 0A       		.byte	(.L457-.L456)/2
 2772 00bc 0D       		.byte	(.L458-.L456)/2
 2773 00bd 10       		.byte	(.L459-.L456)/2
 2774 00be 13       		.byte	(.L460-.L456)/2
 2775 00bf 16       		.byte	(.L461-.L456)/2
 2776 00c0 19       		.byte	(.L462-.L456)/2
 2777 00c1 1C       		.byte	(.L463-.L456)/2
 2778 00c2 1F       		.byte	(.L464-.L456)/2
 2779 00c3 22       		.byte	(.L465-.L456)/2
 2780 00c4 25       		.byte	(.L466-.L456)/2
 2781 00c5 28       		.byte	(.L467-.L456)/2
 2782 00c6 2B       		.byte	(.L468-.L456)/2
 2783 00c7 2E       		.byte	(.L469-.L456)/2
 2784              		.p2align 1
 2785              	.L455:
 2786 00c8 234B     		ldr	r3, .L475+52
 2787 00ca 1364     		str	r3, [r2, #64]
 2788 00cc B9E7     		b	.L474
 2789              	.L457:
 2790 00ce 234B     		ldr	r3, .L475+56
 2791 00d0 5364     		str	r3, [r2, #68]
 2792 00d2 B6E7     		b	.L474
 2793              	.L458:
 2794 00d4 224B     		ldr	r3, .L475+60
 2795 00d6 9364     		str	r3, [r2, #72]
 2796 00d8 B3E7     		b	.L474
 2797              	.L459:
 2798 00da 224B     		ldr	r3, .L475+64
 2799 00dc D364     		str	r3, [r2, #76]
 2800 00de B0E7     		b	.L474
 2801              	.L460:
 2802 00e0 214B     		ldr	r3, .L475+68
 2803 00e2 1365     		str	r3, [r2, #80]
 2804 00e4 ADE7     		b	.L474
 2805              	.L461:
 2806 00e6 214B     		ldr	r3, .L475+72
 2807 00e8 5365     		str	r3, [r2, #84]
 2808 00ea AAE7     		b	.L474
 2809              	.L462:
 2810 00ec 204B     		ldr	r3, .L475+76
ARM GAS  /tmp/ccqL1RRp.s 			page 48


 2811 00ee 9365     		str	r3, [r2, #88]
 2812 00f0 A7E7     		b	.L474
 2813              	.L463:
 2814 00f2 204B     		ldr	r3, .L475+80
 2815 00f4 D365     		str	r3, [r2, #92]
 2816 00f6 A4E7     		b	.L474
 2817              	.L464:
 2818 00f8 1F4B     		ldr	r3, .L475+84
 2819 00fa 1366     		str	r3, [r2, #96]
 2820 00fc A1E7     		b	.L474
 2821              	.L465:
 2822 00fe 1F4B     		ldr	r3, .L475+88
 2823 0100 5366     		str	r3, [r2, #100]
 2824 0102 9EE7     		b	.L474
 2825              	.L466:
 2826 0104 1E4B     		ldr	r3, .L475+92
 2827 0106 9366     		str	r3, [r2, #104]
 2828 0108 9BE7     		b	.L474
 2829              	.L467:
 2830 010a 1E4B     		ldr	r3, .L475+96
 2831 010c D366     		str	r3, [r2, #108]
 2832 010e 98E7     		b	.L474
 2833              	.L468:
 2834 0110 1D4B     		ldr	r3, .L475+100
 2835 0112 1367     		str	r3, [r2, #112]
 2836 0114 95E7     		b	.L474
 2837              	.L469:
 2838 0116 1D4B     		ldr	r3, .L475+104
 2839 0118 5367     		str	r3, [r2, #116]
 2840 011a 92E7     		b	.L474
 2841              	.L473:
 2842 011c 0120     		movs	r0, #1
 2843 011e 91E7     		b	.L426
 2844              	.L470:
 2845 0120 0220     		movs	r0, #2
 2846 0122 7047     		bx	lr
 2847              	.L476:
 2848              		.align	2
 2849              	.L475:
 2850 0124 00000000 		.word	HAL_TIM_PeriodElapsedCallback
 2851 0128 00000000 		.word	HAL_TIM_PeriodElapsedHalfCpltCallback
 2852 012c 00000000 		.word	HAL_TIM_TriggerCallback
 2853 0130 00000000 		.word	HAL_TIM_TriggerHalfCpltCallback
 2854 0134 00000000 		.word	HAL_TIM_IC_CaptureCallback
 2855 0138 00000000 		.word	HAL_TIM_IC_CaptureHalfCpltCallback
 2856 013c 00000000 		.word	HAL_TIM_OC_DelayElapsedCallback
 2857 0140 00000000 		.word	HAL_TIM_PWM_PulseFinishedCallback
 2858 0144 00000000 		.word	HAL_TIM_PWM_PulseFinishedHalfCpltCallback
 2859 0148 00000000 		.word	HAL_TIM_ErrorCallback
 2860 014c 00000000 		.word	HAL_TIMEx_CommutCallback
 2861 0150 00000000 		.word	HAL_TIMEx_CommutHalfCpltCallback
 2862 0154 00000000 		.word	HAL_TIMEx_BreakCallback
 2863 0158 00000000 		.word	HAL_TIM_Base_MspInit
 2864 015c 00000000 		.word	HAL_TIM_Base_MspDeInit
 2865 0160 00000000 		.word	HAL_TIM_IC_MspInit
 2866 0164 00000000 		.word	HAL_TIM_IC_MspDeInit
 2867 0168 00000000 		.word	HAL_TIM_OC_MspInit
ARM GAS  /tmp/ccqL1RRp.s 			page 49


 2868 016c 00000000 		.word	HAL_TIM_OC_MspDeInit
 2869 0170 00000000 		.word	HAL_TIM_PWM_MspInit
 2870 0174 00000000 		.word	HAL_TIM_PWM_MspDeInit
 2871 0178 00000000 		.word	HAL_TIM_OnePulse_MspInit
 2872 017c 00000000 		.word	HAL_TIM_OnePulse_MspDeInit
 2873 0180 00000000 		.word	HAL_TIM_Encoder_MspInit
 2874 0184 00000000 		.word	HAL_TIM_Encoder_MspDeInit
 2875 0188 00000000 		.word	HAL_TIMEx_HallSensor_MspInit
 2876 018c 00000000 		.word	HAL_TIMEx_HallSensor_MspDeInit
 2878              		.section	.text.HAL_TIM_Base_GetState,"ax",%progbits
 2879              		.align	1
 2880              		.global	HAL_TIM_Base_GetState
 2881              		.syntax unified
 2882              		.thumb
 2883              		.thumb_func
 2884              		.fpu softvfp
 2886              	HAL_TIM_Base_GetState:
 2887              		@ args = 0, pretend = 0, frame = 0
 2888              		@ frame_needed = 0, uses_anonymous_args = 0
 2889              		@ link register save eliminated.
 2890 0000 90F83D00 		ldrb	r0, [r0, #61]	@ zero_extendqisi2
 2891 0004 7047     		bx	lr
 2893              		.section	.text.HAL_TIM_OC_GetState,"ax",%progbits
 2894              		.align	1
 2895              		.global	HAL_TIM_OC_GetState
 2896              		.syntax unified
 2897              		.thumb
 2898              		.thumb_func
 2899              		.fpu softvfp
 2901              	HAL_TIM_OC_GetState:
 2902              		@ args = 0, pretend = 0, frame = 0
 2903              		@ frame_needed = 0, uses_anonymous_args = 0
 2904              		@ link register save eliminated.
 2905 0000 90F83D00 		ldrb	r0, [r0, #61]	@ zero_extendqisi2
 2906 0004 7047     		bx	lr
 2908              		.section	.text.HAL_TIM_PWM_GetState,"ax",%progbits
 2909              		.align	1
 2910              		.global	HAL_TIM_PWM_GetState
 2911              		.syntax unified
 2912              		.thumb
 2913              		.thumb_func
 2914              		.fpu softvfp
 2916              	HAL_TIM_PWM_GetState:
 2917              		@ args = 0, pretend = 0, frame = 0
 2918              		@ frame_needed = 0, uses_anonymous_args = 0
 2919              		@ link register save eliminated.
 2920 0000 90F83D00 		ldrb	r0, [r0, #61]	@ zero_extendqisi2
 2921 0004 7047     		bx	lr
 2923              		.section	.text.HAL_TIM_IC_GetState,"ax",%progbits
 2924              		.align	1
 2925              		.global	HAL_TIM_IC_GetState
 2926              		.syntax unified
 2927              		.thumb
 2928              		.thumb_func
 2929              		.fpu softvfp
 2931              	HAL_TIM_IC_GetState:
 2932              		@ args = 0, pretend = 0, frame = 0
ARM GAS  /tmp/ccqL1RRp.s 			page 50


 2933              		@ frame_needed = 0, uses_anonymous_args = 0
 2934              		@ link register save eliminated.
 2935 0000 90F83D00 		ldrb	r0, [r0, #61]	@ zero_extendqisi2
 2936 0004 7047     		bx	lr
 2938              		.section	.text.HAL_TIM_OnePulse_GetState,"ax",%progbits
 2939              		.align	1
 2940              		.global	HAL_TIM_OnePulse_GetState
 2941              		.syntax unified
 2942              		.thumb
 2943              		.thumb_func
 2944              		.fpu softvfp
 2946              	HAL_TIM_OnePulse_GetState:
 2947              		@ args = 0, pretend = 0, frame = 0
 2948              		@ frame_needed = 0, uses_anonymous_args = 0
 2949              		@ link register save eliminated.
 2950 0000 90F83D00 		ldrb	r0, [r0, #61]	@ zero_extendqisi2
 2951 0004 7047     		bx	lr
 2953              		.section	.text.HAL_TIM_Encoder_GetState,"ax",%progbits
 2954              		.align	1
 2955              		.global	HAL_TIM_Encoder_GetState
 2956              		.syntax unified
 2957              		.thumb
 2958              		.thumb_func
 2959              		.fpu softvfp
 2961              	HAL_TIM_Encoder_GetState:
 2962              		@ args = 0, pretend = 0, frame = 0
 2963              		@ frame_needed = 0, uses_anonymous_args = 0
 2964              		@ link register save eliminated.
 2965 0000 90F83D00 		ldrb	r0, [r0, #61]	@ zero_extendqisi2
 2966 0004 7047     		bx	lr
 2968              		.section	.text.TIM_Base_SetConfig,"ax",%progbits
 2969              		.align	1
 2970              		.global	TIM_Base_SetConfig
 2971              		.syntax unified
 2972              		.thumb
 2973              		.thumb_func
 2974              		.fpu softvfp
 2976              	TIM_Base_SetConfig:
 2977              		@ args = 0, pretend = 0, frame = 0
 2978              		@ frame_needed = 0, uses_anonymous_args = 0
 2979              		@ link register save eliminated.
 2980 0000 244A     		ldr	r2, .L495
 2981 0002 0368     		ldr	r3, [r0]
 2982 0004 9042     		cmp	r0, r2
 2983 0006 12D0     		beq	.L484
 2984 0008 02F50062 		add	r2, r2, #2048
 2985 000c 9042     		cmp	r0, r2
 2986 000e 0ED0     		beq	.L484
 2987 0010 B0F1804F 		cmp	r0, #1073741824
 2988 0014 0BD0     		beq	.L484
 2989 0016 A2F59832 		sub	r2, r2, #77824
 2990 001a 9042     		cmp	r0, r2
 2991 001c 07D0     		beq	.L484
 2992 001e 02F58062 		add	r2, r2, #1024
 2993 0022 9042     		cmp	r0, r2
 2994 0024 03D0     		beq	.L484
 2995 0026 02F58062 		add	r2, r2, #1024
ARM GAS  /tmp/ccqL1RRp.s 			page 51


 2996 002a 9042     		cmp	r0, r2
 2997 002c 1DD1     		bne	.L485
 2998              	.L484:
 2999 002e 4A68     		ldr	r2, [r1, #4]
 3000 0030 23F07003 		bic	r3, r3, #112
 3001 0034 1343     		orrs	r3, r3, r2
 3002 0036 174A     		ldr	r2, .L495
 3003 0038 9042     		cmp	r0, r2
 3004 003a 12D0     		beq	.L486
 3005 003c 02F50062 		add	r2, r2, #2048
 3006 0040 9042     		cmp	r0, r2
 3007 0042 0ED0     		beq	.L486
 3008 0044 B0F1804F 		cmp	r0, #1073741824
 3009 0048 0BD0     		beq	.L486
 3010 004a A2F59832 		sub	r2, r2, #77824
 3011 004e 9042     		cmp	r0, r2
 3012 0050 07D0     		beq	.L486
 3013 0052 02F58062 		add	r2, r2, #1024
 3014 0056 9042     		cmp	r0, r2
 3015 0058 03D0     		beq	.L486
 3016 005a 02F58062 		add	r2, r2, #1024
 3017 005e 9042     		cmp	r0, r2
 3018 0060 03D1     		bne	.L485
 3019              	.L486:
 3020 0062 CA68     		ldr	r2, [r1, #12]
 3021 0064 23F44073 		bic	r3, r3, #768
 3022 0068 1343     		orrs	r3, r3, r2
 3023              	.L485:
 3024 006a 4A69     		ldr	r2, [r1, #20]
 3025 006c 23F08003 		bic	r3, r3, #128
 3026 0070 1343     		orrs	r3, r3, r2
 3027 0072 0360     		str	r3, [r0]
 3028 0074 8B68     		ldr	r3, [r1, #8]
 3029 0076 C362     		str	r3, [r0, #44]
 3030 0078 0B68     		ldr	r3, [r1]
 3031 007a 8362     		str	r3, [r0, #40]
 3032 007c 054B     		ldr	r3, .L495
 3033 007e 9842     		cmp	r0, r3
 3034 0080 03D0     		beq	.L487
 3035 0082 03F50063 		add	r3, r3, #2048
 3036 0086 9842     		cmp	r0, r3
 3037 0088 01D1     		bne	.L488
 3038              	.L487:
 3039 008a 0B69     		ldr	r3, [r1, #16]
 3040 008c 0363     		str	r3, [r0, #48]
 3041              	.L488:
 3042 008e 0123     		movs	r3, #1
 3043 0090 4361     		str	r3, [r0, #20]
 3044 0092 7047     		bx	lr
 3045              	.L496:
 3046              		.align	2
 3047              	.L495:
 3048 0094 002C0140 		.word	1073818624
 3050              		.section	.text.TIM_OC2_SetConfig,"ax",%progbits
 3051              		.align	1
 3052              		.global	TIM_OC2_SetConfig
 3053              		.syntax unified
ARM GAS  /tmp/ccqL1RRp.s 			page 52


 3054              		.thumb
 3055              		.thumb_func
 3056              		.fpu softvfp
 3058              	TIM_OC2_SetConfig:
 3059              		@ args = 0, pretend = 0, frame = 0
 3060              		@ frame_needed = 0, uses_anonymous_args = 0
 3061 0000 036A     		ldr	r3, [r0, #32]
 3062 0002 70B5     		push	{r4, r5, r6, lr}
 3063 0004 23F01003 		bic	r3, r3, #16
 3064 0008 0362     		str	r3, [r0, #32]
 3065 000a 036A     		ldr	r3, [r0, #32]
 3066 000c 4468     		ldr	r4, [r0, #4]
 3067 000e 8269     		ldr	r2, [r0, #24]
 3068 0010 0D68     		ldr	r5, [r1]
 3069 0012 22F4E642 		bic	r2, r2, #29440
 3070 0016 42EA0522 		orr	r2, r2, r5, lsl #8
 3071 001a 8D68     		ldr	r5, [r1, #8]
 3072 001c 23F02003 		bic	r3, r3, #32
 3073 0020 43EA0513 		orr	r3, r3, r5, lsl #4
 3074 0024 104D     		ldr	r5, .L501
 3075 0026 A842     		cmp	r0, r5
 3076 0028 03D0     		beq	.L498
 3077 002a 05F50065 		add	r5, r5, #2048
 3078 002e A842     		cmp	r0, r5
 3079 0030 14D1     		bne	.L499
 3080              	.L498:
 3081 0032 CD68     		ldr	r5, [r1, #12]
 3082 0034 23F08003 		bic	r3, r3, #128
 3083 0038 43EA0513 		orr	r3, r3, r5, lsl #4
 3084 003c 0A4D     		ldr	r5, .L501
 3085 003e 23F04003 		bic	r3, r3, #64
 3086 0042 A842     		cmp	r0, r5
 3087 0044 03D0     		beq	.L500
 3088 0046 05F50065 		add	r5, r5, #2048
 3089 004a A842     		cmp	r0, r5
 3090 004c 06D1     		bne	.L499
 3091              	.L500:
 3092 004e 4D69     		ldr	r5, [r1, #20]
 3093 0050 8E69     		ldr	r6, [r1, #24]
 3094 0052 24F44064 		bic	r4, r4, #3072
 3095 0056 3543     		orrs	r5, r5, r6
 3096 0058 44EA8504 		orr	r4, r4, r5, lsl #2
 3097              	.L499:
 3098 005c 4460     		str	r4, [r0, #4]
 3099 005e 8261     		str	r2, [r0, #24]
 3100 0060 4A68     		ldr	r2, [r1, #4]
 3101 0062 8263     		str	r2, [r0, #56]
 3102 0064 0362     		str	r3, [r0, #32]
 3103 0066 70BD     		pop	{r4, r5, r6, pc}
 3104              	.L502:
 3105              		.align	2
 3106              	.L501:
 3107 0068 002C0140 		.word	1073818624
 3109              		.section	.text.HAL_TIM_OC_ConfigChannel,"ax",%progbits
 3110              		.align	1
 3111              		.global	HAL_TIM_OC_ConfigChannel
 3112              		.syntax unified
ARM GAS  /tmp/ccqL1RRp.s 			page 53


 3113              		.thumb
 3114              		.thumb_func
 3115              		.fpu softvfp
 3117              	HAL_TIM_OC_ConfigChannel:
 3118              		@ args = 0, pretend = 0, frame = 0
 3119              		@ frame_needed = 0, uses_anonymous_args = 0
 3120 0000 38B5     		push	{r3, r4, r5, lr}
 3121 0002 90F83C30 		ldrb	r3, [r0, #60]	@ zero_extendqisi2
 3122 0006 0446     		mov	r4, r0
 3123 0008 012B     		cmp	r3, #1
 3124 000a 4FF00200 		mov	r0, #2
 3125 000e 18D0     		beq	.L504
 3126 0010 0123     		movs	r3, #1
 3127 0012 84F83D00 		strb	r0, [r4, #61]
 3128 0016 84F83C30 		strb	r3, [r4, #60]
 3129 001a 1D46     		mov	r5, r3
 3130 001c 0C2A     		cmp	r2, #12
 3131 001e 0BD8     		bhi	.L505
 3132 0020 DFE802F0 		tbb	[pc, r2]
 3133              	.L507:
 3134 0024 07       		.byte	(.L506-.L507)/2
 3135 0025 0A       		.byte	(.L505-.L507)/2
 3136 0026 0A       		.byte	(.L505-.L507)/2
 3137 0027 0A       		.byte	(.L505-.L507)/2
 3138 0028 10       		.byte	(.L508-.L507)/2
 3139 0029 0A       		.byte	(.L505-.L507)/2
 3140 002a 0A       		.byte	(.L505-.L507)/2
 3141 002b 0A       		.byte	(.L505-.L507)/2
 3142 002c 14       		.byte	(.L509-.L507)/2
 3143 002d 0A       		.byte	(.L505-.L507)/2
 3144 002e 0A       		.byte	(.L505-.L507)/2
 3145 002f 0A       		.byte	(.L505-.L507)/2
 3146 0030 18       		.byte	(.L510-.L507)/2
 3147 0031 00       		.p2align 1
 3148              	.L506:
 3149 0032 2068     		ldr	r0, [r4]
 3150 0034 FFF7FEFF 		bl	TIM_OC1_SetConfig
 3151              	.L505:
 3152 0038 0020     		movs	r0, #0
 3153 003a 84F83D50 		strb	r5, [r4, #61]
 3154 003e 84F83C00 		strb	r0, [r4, #60]
 3155              	.L504:
 3156 0042 38BD     		pop	{r3, r4, r5, pc}
 3157              	.L508:
 3158 0044 2068     		ldr	r0, [r4]
 3159 0046 FFF7FEFF 		bl	TIM_OC2_SetConfig
 3160 004a F5E7     		b	.L505
 3161              	.L509:
 3162 004c 2068     		ldr	r0, [r4]
 3163 004e FFF7FEFF 		bl	TIM_OC3_SetConfig
 3164 0052 F1E7     		b	.L505
 3165              	.L510:
 3166 0054 2068     		ldr	r0, [r4]
 3167 0056 FFF7FEFF 		bl	TIM_OC4_SetConfig
 3168 005a EDE7     		b	.L505
 3170              		.section	.text.HAL_TIM_PWM_ConfigChannel,"ax",%progbits
 3171              		.align	1
ARM GAS  /tmp/ccqL1RRp.s 			page 54


 3172              		.global	HAL_TIM_PWM_ConfigChannel
 3173              		.syntax unified
 3174              		.thumb
 3175              		.thumb_func
 3176              		.fpu softvfp
 3178              	HAL_TIM_PWM_ConfigChannel:
 3179              		@ args = 0, pretend = 0, frame = 0
 3180              		@ frame_needed = 0, uses_anonymous_args = 0
 3181 0000 38B5     		push	{r3, r4, r5, lr}
 3182 0002 90F83C30 		ldrb	r3, [r0, #60]	@ zero_extendqisi2
 3183 0006 0446     		mov	r4, r0
 3184 0008 012B     		cmp	r3, #1
 3185 000a 4FF00200 		mov	r0, #2
 3186 000e 25D0     		beq	.L513
 3187 0010 0123     		movs	r3, #1
 3188 0012 84F83D00 		strb	r0, [r4, #61]
 3189 0016 84F83C30 		strb	r3, [r4, #60]
 3190 001a 0C2A     		cmp	r2, #12
 3191 001c 18D8     		bhi	.L514
 3192 001e DFE802F0 		tbb	[pc, r2]
 3193              	.L516:
 3194 0022 07       		.byte	(.L515-.L516)/2
 3195 0023 17       		.byte	(.L514-.L516)/2
 3196 0024 17       		.byte	(.L514-.L516)/2
 3197 0025 17       		.byte	(.L514-.L516)/2
 3198 0026 1E       		.byte	(.L517-.L516)/2
 3199 0027 17       		.byte	(.L514-.L516)/2
 3200 0028 17       		.byte	(.L514-.L516)/2
 3201 0029 17       		.byte	(.L514-.L516)/2
 3202 002a 2F       		.byte	(.L518-.L516)/2
 3203 002b 17       		.byte	(.L514-.L516)/2
 3204 002c 17       		.byte	(.L514-.L516)/2
 3205 002d 17       		.byte	(.L514-.L516)/2
 3206 002e 40       		.byte	(.L519-.L516)/2
 3207 002f 00       		.p2align 1
 3208              	.L515:
 3209 0030 2068     		ldr	r0, [r4]
 3210 0032 FFF7FEFF 		bl	TIM_OC1_SetConfig
 3211 0036 2368     		ldr	r3, [r4]
 3212 0038 0969     		ldr	r1, [r1, #16]
 3213 003a 9A69     		ldr	r2, [r3, #24]
 3214 003c 42F00802 		orr	r2, r2, #8
 3215 0040 9A61     		str	r2, [r3, #24]
 3216 0042 9A69     		ldr	r2, [r3, #24]
 3217 0044 22F00402 		bic	r2, r2, #4
 3218 0048 9A61     		str	r2, [r3, #24]
 3219 004a 9A69     		ldr	r2, [r3, #24]
 3220 004c 0A43     		orrs	r2, r2, r1
 3221              	.L521:
 3222 004e 9A61     		str	r2, [r3, #24]
 3223              	.L514:
 3224 0050 0123     		movs	r3, #1
 3225 0052 0020     		movs	r0, #0
 3226 0054 84F83D30 		strb	r3, [r4, #61]
 3227 0058 84F83C00 		strb	r0, [r4, #60]
 3228              	.L513:
 3229 005c 38BD     		pop	{r3, r4, r5, pc}
ARM GAS  /tmp/ccqL1RRp.s 			page 55


 3230              	.L517:
 3231 005e 2068     		ldr	r0, [r4]
 3232 0060 FFF7FEFF 		bl	TIM_OC2_SetConfig
 3233 0064 2368     		ldr	r3, [r4]
 3234 0066 0969     		ldr	r1, [r1, #16]
 3235 0068 9A69     		ldr	r2, [r3, #24]
 3236 006a 42F40062 		orr	r2, r2, #2048
 3237 006e 9A61     		str	r2, [r3, #24]
 3238 0070 9A69     		ldr	r2, [r3, #24]
 3239 0072 22F48062 		bic	r2, r2, #1024
 3240 0076 9A61     		str	r2, [r3, #24]
 3241 0078 9A69     		ldr	r2, [r3, #24]
 3242 007a 42EA0122 		orr	r2, r2, r1, lsl #8
 3243 007e E6E7     		b	.L521
 3244              	.L518:
 3245 0080 2068     		ldr	r0, [r4]
 3246 0082 FFF7FEFF 		bl	TIM_OC3_SetConfig
 3247 0086 2368     		ldr	r3, [r4]
 3248 0088 0969     		ldr	r1, [r1, #16]
 3249 008a DA69     		ldr	r2, [r3, #28]
 3250 008c 42F00802 		orr	r2, r2, #8
 3251 0090 DA61     		str	r2, [r3, #28]
 3252 0092 DA69     		ldr	r2, [r3, #28]
 3253 0094 22F00402 		bic	r2, r2, #4
 3254 0098 DA61     		str	r2, [r3, #28]
 3255 009a DA69     		ldr	r2, [r3, #28]
 3256 009c 0A43     		orrs	r2, r2, r1
 3257              	.L522:
 3258 009e DA61     		str	r2, [r3, #28]
 3259 00a0 D6E7     		b	.L514
 3260              	.L519:
 3261 00a2 2068     		ldr	r0, [r4]
 3262 00a4 FFF7FEFF 		bl	TIM_OC4_SetConfig
 3263 00a8 2368     		ldr	r3, [r4]
 3264 00aa 0969     		ldr	r1, [r1, #16]
 3265 00ac DA69     		ldr	r2, [r3, #28]
 3266 00ae 42F40062 		orr	r2, r2, #2048
 3267 00b2 DA61     		str	r2, [r3, #28]
 3268 00b4 DA69     		ldr	r2, [r3, #28]
 3269 00b6 22F48062 		bic	r2, r2, #1024
 3270 00ba DA61     		str	r2, [r3, #28]
 3271 00bc DA69     		ldr	r2, [r3, #28]
 3272 00be 42EA0122 		orr	r2, r2, r1, lsl #8
 3273 00c2 ECE7     		b	.L522
 3275              		.section	.text.TIM_TI1_SetConfig,"ax",%progbits
 3276              		.align	1
 3277              		.global	TIM_TI1_SetConfig
 3278              		.syntax unified
 3279              		.thumb
 3280              		.thumb_func
 3281              		.fpu softvfp
 3283              	TIM_TI1_SetConfig:
 3284              		@ args = 0, pretend = 0, frame = 0
 3285              		@ frame_needed = 0, uses_anonymous_args = 0
 3286 0000 70B5     		push	{r4, r5, r6, lr}
 3287 0002 046A     		ldr	r4, [r0, #32]
 3288 0004 164E     		ldr	r6, .L532
ARM GAS  /tmp/ccqL1RRp.s 			page 56


 3289 0006 24F00104 		bic	r4, r4, #1
 3290 000a 0462     		str	r4, [r0, #32]
 3291 000c B042     		cmp	r0, r6
 3292 000e 8469     		ldr	r4, [r0, #24]
 3293 0010 056A     		ldr	r5, [r0, #32]
 3294 0012 12D0     		beq	.L524
 3295 0014 06F50066 		add	r6, r6, #2048
 3296 0018 B042     		cmp	r0, r6
 3297 001a 0ED0     		beq	.L524
 3298 001c B0F1804F 		cmp	r0, #1073741824
 3299 0020 0BD0     		beq	.L524
 3300 0022 A6F59836 		sub	r6, r6, #77824
 3301 0026 B042     		cmp	r0, r6
 3302 0028 07D0     		beq	.L524
 3303 002a 06F58066 		add	r6, r6, #1024
 3304 002e B042     		cmp	r0, r6
 3305 0030 03D0     		beq	.L524
 3306 0032 06F58066 		add	r6, r6, #1024
 3307 0036 B042     		cmp	r0, r6
 3308 0038 0FD1     		bne	.L530
 3309              	.L524:
 3310 003a 24F00304 		bic	r4, r4, #3
 3311 003e 2243     		orrs	r2, r2, r4
 3312              	.L526:
 3313 0040 1B01     		lsls	r3, r3, #4
 3314 0042 22F0F002 		bic	r2, r2, #240
 3315 0046 DBB2     		uxtb	r3, r3
 3316 0048 25F00A05 		bic	r5, r5, #10
 3317 004c 01F00A01 		and	r1, r1, #10
 3318 0050 1A43     		orrs	r2, r2, r3
 3319 0052 2943     		orrs	r1, r1, r5
 3320 0054 8261     		str	r2, [r0, #24]
 3321 0056 0162     		str	r1, [r0, #32]
 3322 0058 70BD     		pop	{r4, r5, r6, pc}
 3323              	.L530:
 3324 005a 44F00102 		orr	r2, r4, #1
 3325 005e EFE7     		b	.L526
 3326              	.L533:
 3327              		.align	2
 3328              	.L532:
 3329 0060 002C0140 		.word	1073818624
 3331              		.section	.text.HAL_TIM_IC_ConfigChannel,"ax",%progbits
 3332              		.align	1
 3333              		.global	HAL_TIM_IC_ConfigChannel
 3334              		.syntax unified
 3335              		.thumb
 3336              		.thumb_func
 3337              		.fpu softvfp
 3339              	HAL_TIM_IC_ConfigChannel:
 3340              		@ args = 0, pretend = 0, frame = 0
 3341              		@ frame_needed = 0, uses_anonymous_args = 0
 3342 0000 F8B5     		push	{r3, r4, r5, r6, r7, lr}
 3343 0002 90F83C30 		ldrb	r3, [r0, #60]	@ zero_extendqisi2
 3344 0006 0446     		mov	r4, r0
 3345 0008 012B     		cmp	r3, #1
 3346 000a 0D46     		mov	r5, r1
 3347 000c 4FF00200 		mov	r0, #2
ARM GAS  /tmp/ccqL1RRp.s 			page 57


 3348 0010 19D0     		beq	.L535
 3349 0012 0123     		movs	r3, #1
 3350 0014 84F83D00 		strb	r0, [r4, #61]
 3351 0018 84F83C30 		strb	r3, [r4, #60]
 3352 001c A2B9     		cbnz	r2, .L536
 3353 001e CB68     		ldr	r3, [r1, #12]
 3354 0020 2068     		ldr	r0, [r4]
 3355 0022 06C9     		ldm	r1, {r1, r2}
 3356 0024 FFF7FEFF 		bl	TIM_TI1_SetConfig
 3357 0028 2368     		ldr	r3, [r4]
 3358 002a A968     		ldr	r1, [r5, #8]
 3359 002c 9A69     		ldr	r2, [r3, #24]
 3360 002e 22F00C02 		bic	r2, r2, #12
 3361 0032 9A61     		str	r2, [r3, #24]
 3362 0034 9A69     		ldr	r2, [r3, #24]
 3363 0036 0A43     		orrs	r2, r2, r1
 3364 0038 9A61     		str	r2, [r3, #24]
 3365              	.L537:
 3366 003a 0123     		movs	r3, #1
 3367 003c 0020     		movs	r0, #0
 3368 003e 84F83D30 		strb	r3, [r4, #61]
 3369 0042 84F83C00 		strb	r0, [r4, #60]
 3370              	.L535:
 3371 0046 F8BD     		pop	{r3, r4, r5, r6, r7, pc}
 3372              	.L536:
 3373 0048 042A     		cmp	r2, #4
 3374 004a 8E68     		ldr	r6, [r1, #8]
 3375 004c 2368     		ldr	r3, [r4]
 3376 004e 82C9     		ldm	r1, {r1, r7}
 3377 0050 E868     		ldr	r0, [r5, #12]
 3378 0052 1FD1     		bne	.L538
 3379 0054 1A6A     		ldr	r2, [r3, #32]
 3380 0056 0003     		lsls	r0, r0, #12
 3381 0058 22F01002 		bic	r2, r2, #16
 3382 005c 1A62     		str	r2, [r3, #32]
 3383 005e 9A69     		ldr	r2, [r3, #24]
 3384 0060 1D6A     		ldr	r5, [r3, #32]
 3385 0062 22F44072 		bic	r2, r2, #768
 3386 0066 42EA0722 		orr	r2, r2, r7, lsl #8
 3387 006a 80B2     		uxth	r0, r0
 3388 006c 22F47042 		bic	r2, r2, #61440
 3389 0070 0901     		lsls	r1, r1, #4
 3390 0072 0243     		orrs	r2, r2, r0
 3391 0074 01F0A001 		and	r1, r1, #160
 3392 0078 25F0A000 		bic	r0, r5, #160
 3393 007c 0143     		orrs	r1, r1, r0
 3394 007e 9A61     		str	r2, [r3, #24]
 3395 0080 1962     		str	r1, [r3, #32]
 3396 0082 9A69     		ldr	r2, [r3, #24]
 3397 0084 22F44062 		bic	r2, r2, #3072
 3398 0088 9A61     		str	r2, [r3, #24]
 3399 008a 9A69     		ldr	r2, [r3, #24]
 3400 008c 42EA0626 		orr	r6, r2, r6, lsl #8
 3401 0090 9E61     		str	r6, [r3, #24]
 3402 0092 D2E7     		b	.L537
 3403              	.L538:
 3404 0094 082A     		cmp	r2, #8
ARM GAS  /tmp/ccqL1RRp.s 			page 58


 3405 0096 1A6A     		ldr	r2, [r3, #32]
 3406 0098 1CD1     		bne	.L539
 3407 009a 22F48072 		bic	r2, r2, #256
 3408 009e 1A62     		str	r2, [r3, #32]
 3409 00a0 DA69     		ldr	r2, [r3, #28]
 3410 00a2 0001     		lsls	r0, r0, #4
 3411 00a4 22F00302 		bic	r2, r2, #3
 3412 00a8 1D6A     		ldr	r5, [r3, #32]
 3413 00aa 3A43     		orrs	r2, r2, r7
 3414 00ac C0B2     		uxtb	r0, r0
 3415 00ae 22F0F002 		bic	r2, r2, #240
 3416 00b2 0902     		lsls	r1, r1, #8
 3417 00b4 0243     		orrs	r2, r2, r0
 3418 00b6 01F40071 		and	r1, r1, #512
 3419 00ba 25F40070 		bic	r0, r5, #512
 3420 00be 0143     		orrs	r1, r1, r0
 3421 00c0 DA61     		str	r2, [r3, #28]
 3422 00c2 1962     		str	r1, [r3, #32]
 3423 00c4 DA69     		ldr	r2, [r3, #28]
 3424 00c6 22F00C02 		bic	r2, r2, #12
 3425 00ca DA61     		str	r2, [r3, #28]
 3426 00cc DA69     		ldr	r2, [r3, #28]
 3427 00ce 1643     		orrs	r6, r6, r2
 3428              	.L541:
 3429 00d0 DE61     		str	r6, [r3, #28]
 3430 00d2 B2E7     		b	.L537
 3431              	.L539:
 3432 00d4 22F48052 		bic	r2, r2, #4096
 3433 00d8 1A62     		str	r2, [r3, #32]
 3434 00da DA69     		ldr	r2, [r3, #28]
 3435 00dc 0003     		lsls	r0, r0, #12
 3436 00de 22F44072 		bic	r2, r2, #768
 3437 00e2 1D6A     		ldr	r5, [r3, #32]
 3438 00e4 42EA0722 		orr	r2, r2, r7, lsl #8
 3439 00e8 22F47042 		bic	r2, r2, #61440
 3440 00ec 80B2     		uxth	r0, r0
 3441 00ee 0903     		lsls	r1, r1, #12
 3442 00f0 1043     		orrs	r0, r0, r2
 3443 00f2 01F40051 		and	r1, r1, #8192
 3444 00f6 25F40052 		bic	r2, r5, #8192
 3445 00fa 1143     		orrs	r1, r1, r2
 3446 00fc D861     		str	r0, [r3, #28]
 3447 00fe 1962     		str	r1, [r3, #32]
 3448 0100 DA69     		ldr	r2, [r3, #28]
 3449 0102 22F44062 		bic	r2, r2, #3072
 3450 0106 DA61     		str	r2, [r3, #28]
 3451 0108 DA69     		ldr	r2, [r3, #28]
 3452 010a 42EA0626 		orr	r6, r2, r6, lsl #8
 3453 010e DFE7     		b	.L541
 3455              		.section	.text.HAL_TIM_OnePulse_ConfigChannel,"ax",%progbits
 3456              		.align	1
 3457              		.global	HAL_TIM_OnePulse_ConfigChannel
 3458              		.syntax unified
 3459              		.thumb
 3460              		.thumb_func
 3461              		.fpu softvfp
 3463              	HAL_TIM_OnePulse_ConfigChannel:
ARM GAS  /tmp/ccqL1RRp.s 			page 59


 3464              		@ args = 0, pretend = 0, frame = 32
 3465              		@ frame_needed = 0, uses_anonymous_args = 0
 3466 0000 70B5     		push	{r4, r5, r6, lr}
 3467 0002 9A42     		cmp	r2, r3
 3468 0004 88B0     		sub	sp, sp, #32
 3469 0006 0546     		mov	r5, r0
 3470 0008 0C46     		mov	r4, r1
 3471 000a 1E46     		mov	r6, r3
 3472 000c 70D0     		beq	.L550
 3473 000e 90F83C30 		ldrb	r3, [r0, #60]	@ zero_extendqisi2
 3474 0012 0220     		movs	r0, #2
 3475 0014 012B     		cmp	r3, #1
 3476 0016 1CD0     		beq	.L543
 3477 0018 0123     		movs	r3, #1
 3478 001a 85F83C30 		strb	r3, [r5, #60]
 3479 001e 0B68     		ldr	r3, [r1]
 3480 0020 85F83D00 		strb	r0, [r5, #61]
 3481 0024 0193     		str	r3, [sp, #4]
 3482 0026 4B68     		ldr	r3, [r1, #4]
 3483 0028 0293     		str	r3, [sp, #8]
 3484 002a 8B68     		ldr	r3, [r1, #8]
 3485 002c 0393     		str	r3, [sp, #12]
 3486 002e CB68     		ldr	r3, [r1, #12]
 3487 0030 0493     		str	r3, [sp, #16]
 3488 0032 0B69     		ldr	r3, [r1, #16]
 3489 0034 0693     		str	r3, [sp, #24]
 3490 0036 4B69     		ldr	r3, [r1, #20]
 3491 0038 0793     		str	r3, [sp, #28]
 3492 003a 62B1     		cbz	r2, .L545
 3493 003c 042A     		cmp	r2, #4
 3494 003e 0FD0     		beq	.L546
 3495              	.L544:
 3496 0040 9EB1     		cbz	r6, .L548
 3497 0042 042E     		cmp	r6, #4
 3498 0044 2DD0     		beq	.L549
 3499              	.L547:
 3500 0046 0123     		movs	r3, #1
 3501 0048 0020     		movs	r0, #0
 3502 004a 85F83D30 		strb	r3, [r5, #61]
 3503 004e 85F83C00 		strb	r0, [r5, #60]
 3504              	.L543:
 3505 0052 08B0     		add	sp, sp, #32
 3506              		@ sp needed
 3507 0054 70BD     		pop	{r4, r5, r6, pc}
 3508              	.L545:
 3509 0056 01A9     		add	r1, sp, #4
 3510 0058 2868     		ldr	r0, [r5]
 3511 005a FFF7FEFF 		bl	TIM_OC1_SetConfig
 3512 005e EFE7     		b	.L544
 3513              	.L546:
 3514 0060 01A9     		add	r1, sp, #4
 3515 0062 2868     		ldr	r0, [r5]
 3516 0064 FFF7FEFF 		bl	TIM_OC2_SetConfig
 3517 0068 EAE7     		b	.L544
 3518              	.L548:
 3519 006a 04F11801 		add	r1, r4, #24
 3520 006e 0EC9     		ldm	r1, {r1, r2, r3}
ARM GAS  /tmp/ccqL1RRp.s 			page 60


 3521 0070 2868     		ldr	r0, [r5]
 3522 0072 FFF7FEFF 		bl	TIM_TI1_SetConfig
 3523 0076 2B68     		ldr	r3, [r5]
 3524 0078 9A69     		ldr	r2, [r3, #24]
 3525 007a 22F00C02 		bic	r2, r2, #12
 3526 007e 9A61     		str	r2, [r3, #24]
 3527 0080 9A68     		ldr	r2, [r3, #8]
 3528 0082 22F07002 		bic	r2, r2, #112
 3529 0086 9A60     		str	r2, [r3, #8]
 3530 0088 9A68     		ldr	r2, [r3, #8]
 3531 008a 42F05002 		orr	r2, r2, #80
 3532              	.L552:
 3533 008e 9A60     		str	r2, [r3, #8]
 3534 0090 9A68     		ldr	r2, [r3, #8]
 3535 0092 22F00702 		bic	r2, r2, #7
 3536 0096 9A60     		str	r2, [r3, #8]
 3537 0098 9A68     		ldr	r2, [r3, #8]
 3538 009a 42F00602 		orr	r2, r2, #6
 3539 009e 9A60     		str	r2, [r3, #8]
 3540 00a0 D1E7     		b	.L547
 3541              	.L549:
 3542 00a2 2B68     		ldr	r3, [r5]
 3543 00a4 A269     		ldr	r2, [r4, #24]
 3544 00a6 E669     		ldr	r6, [r4, #28]
 3545 00a8 216A     		ldr	r1, [r4, #32]
 3546 00aa 1C6A     		ldr	r4, [r3, #32]
 3547 00ac 0903     		lsls	r1, r1, #12
 3548 00ae 24F01004 		bic	r4, r4, #16
 3549 00b2 1C62     		str	r4, [r3, #32]
 3550 00b4 9869     		ldr	r0, [r3, #24]
 3551 00b6 1C6A     		ldr	r4, [r3, #32]
 3552 00b8 20F44070 		bic	r0, r0, #768
 3553 00bc 40EA0620 		orr	r0, r0, r6, lsl #8
 3554 00c0 20F47040 		bic	r0, r0, #61440
 3555 00c4 89B2     		uxth	r1, r1
 3556 00c6 1201     		lsls	r2, r2, #4
 3557 00c8 0143     		orrs	r1, r1, r0
 3558 00ca 02F0A002 		and	r2, r2, #160
 3559 00ce 24F0A000 		bic	r0, r4, #160
 3560 00d2 0243     		orrs	r2, r2, r0
 3561 00d4 9961     		str	r1, [r3, #24]
 3562 00d6 1A62     		str	r2, [r3, #32]
 3563 00d8 9A69     		ldr	r2, [r3, #24]
 3564 00da 22F44062 		bic	r2, r2, #3072
 3565 00de 9A61     		str	r2, [r3, #24]
 3566 00e0 9A68     		ldr	r2, [r3, #8]
 3567 00e2 22F07002 		bic	r2, r2, #112
 3568 00e6 9A60     		str	r2, [r3, #8]
 3569 00e8 9A68     		ldr	r2, [r3, #8]
 3570 00ea 42F06002 		orr	r2, r2, #96
 3571 00ee CEE7     		b	.L552
 3572              	.L550:
 3573 00f0 0120     		movs	r0, #1
 3574 00f2 AEE7     		b	.L543
 3576              		.section	.text.TIM_ETR_SetConfig,"ax",%progbits
 3577              		.align	1
 3578              		.global	TIM_ETR_SetConfig
ARM GAS  /tmp/ccqL1RRp.s 			page 61


 3579              		.syntax unified
 3580              		.thumb
 3581              		.thumb_func
 3582              		.fpu softvfp
 3584              	TIM_ETR_SetConfig:
 3585              		@ args = 0, pretend = 0, frame = 0
 3586              		@ frame_needed = 0, uses_anonymous_args = 0
 3587 0000 10B5     		push	{r4, lr}
 3588 0002 8468     		ldr	r4, [r0, #8]
 3589 0004 0A43     		orrs	r2, r2, r1
 3590 0006 24F47F44 		bic	r4, r4, #65280
 3591 000a 42EA0323 		orr	r3, r2, r3, lsl #8
 3592 000e 2343     		orrs	r3, r3, r4
 3593 0010 8360     		str	r3, [r0, #8]
 3594 0012 10BD     		pop	{r4, pc}
 3596              		.section	.text.HAL_TIM_ConfigOCrefClear,"ax",%progbits
 3597              		.align	1
 3598              		.global	HAL_TIM_ConfigOCrefClear
 3599              		.syntax unified
 3600              		.thumb
 3601              		.thumb_func
 3602              		.fpu softvfp
 3604              	HAL_TIM_ConfigOCrefClear:
 3605              		@ args = 0, pretend = 0, frame = 0
 3606              		@ frame_needed = 0, uses_anonymous_args = 0
 3607 0000 90F83C30 		ldrb	r3, [r0, #60]	@ zero_extendqisi2
 3608 0004 70B5     		push	{r4, r5, r6, lr}
 3609 0006 012B     		cmp	r3, #1
 3610 0008 0446     		mov	r4, r0
 3611 000a 0D46     		mov	r5, r1
 3612 000c 1646     		mov	r6, r2
 3613 000e 4FF00200 		mov	r0, #2
 3614 0012 34D0     		beq	.L555
 3615 0014 0123     		movs	r3, #1
 3616 0016 84F83D00 		strb	r0, [r4, #61]
 3617 001a 4868     		ldr	r0, [r1, #4]
 3618 001c 84F83C30 		strb	r3, [r4, #60]
 3619 0020 60B1     		cbz	r0, .L557
 3620 0022 9842     		cmp	r0, r3
 3621 0024 10D0     		beq	.L558
 3622              	.L556:
 3623 0026 0C2E     		cmp	r6, #12
 3624 0028 23D8     		bhi	.L560
 3625 002a DFE806F0 		tbb	[pc, r6]
 3626              	.L562:
 3627 002e 1B       		.byte	(.L561-.L562)/2
 3628 002f 22       		.byte	(.L560-.L562)/2
 3629 0030 22       		.byte	(.L560-.L562)/2
 3630 0031 22       		.byte	(.L560-.L562)/2
 3631 0032 2D       		.byte	(.L563-.L562)/2
 3632 0033 22       		.byte	(.L560-.L562)/2
 3633 0034 22       		.byte	(.L560-.L562)/2
 3634 0035 22       		.byte	(.L560-.L562)/2
 3635 0036 38       		.byte	(.L564-.L562)/2
 3636 0037 22       		.byte	(.L560-.L562)/2
 3637 0038 22       		.byte	(.L560-.L562)/2
 3638 0039 22       		.byte	(.L560-.L562)/2
ARM GAS  /tmp/ccqL1RRp.s 			page 62


 3639 003a 44       		.byte	(.L565-.L562)/2
 3640 003b 00       		.p2align 1
 3641              	.L557:
 3642 003c 2268     		ldr	r2, [r4]
 3643 003e 9368     		ldr	r3, [r2, #8]
 3644 0040 23F47F43 		bic	r3, r3, #65280
 3645 0044 9360     		str	r3, [r2, #8]
 3646 0046 EEE7     		b	.L556
 3647              	.L558:
 3648 0048 C968     		ldr	r1, [r1, #12]
 3649 004a 29B1     		cbz	r1, .L559
 3650 004c 0023     		movs	r3, #0
 3651 004e 84F83D00 		strb	r0, [r4, #61]
 3652 0052 84F83C30 		strb	r3, [r4, #60]
 3653 0056 70BD     		pop	{r4, r5, r6, pc}
 3654              	.L559:
 3655 0058 2B69     		ldr	r3, [r5, #16]
 3656 005a AA68     		ldr	r2, [r5, #8]
 3657 005c 2068     		ldr	r0, [r4]
 3658 005e FFF7FEFF 		bl	TIM_ETR_SetConfig
 3659 0062 E0E7     		b	.L556
 3660              	.L561:
 3661 0064 2A68     		ldr	r2, [r5]
 3662 0066 2368     		ldr	r3, [r4]
 3663 0068 52B1     		cbz	r2, .L566
 3664 006a 9A69     		ldr	r2, [r3, #24]
 3665 006c 42F08002 		orr	r2, r2, #128
 3666              	.L571:
 3667 0070 9A61     		str	r2, [r3, #24]
 3668              	.L560:
 3669 0072 0123     		movs	r3, #1
 3670 0074 0020     		movs	r0, #0
 3671 0076 84F83D30 		strb	r3, [r4, #61]
 3672 007a 84F83C00 		strb	r0, [r4, #60]
 3673              	.L555:
 3674 007e 70BD     		pop	{r4, r5, r6, pc}
 3675              	.L566:
 3676 0080 9A69     		ldr	r2, [r3, #24]
 3677 0082 22F08002 		bic	r2, r2, #128
 3678 0086 F3E7     		b	.L571
 3679              	.L563:
 3680 0088 2A68     		ldr	r2, [r5]
 3681 008a 2368     		ldr	r3, [r4]
 3682 008c 1AB1     		cbz	r2, .L567
 3683 008e 9A69     		ldr	r2, [r3, #24]
 3684 0090 42F40042 		orr	r2, r2, #32768
 3685 0094 ECE7     		b	.L571
 3686              	.L567:
 3687 0096 9A69     		ldr	r2, [r3, #24]
 3688 0098 22F40042 		bic	r2, r2, #32768
 3689 009c E8E7     		b	.L571
 3690              	.L564:
 3691 009e 2A68     		ldr	r2, [r5]
 3692 00a0 2368     		ldr	r3, [r4]
 3693 00a2 22B1     		cbz	r2, .L568
 3694 00a4 DA69     		ldr	r2, [r3, #28]
 3695 00a6 42F08002 		orr	r2, r2, #128
ARM GAS  /tmp/ccqL1RRp.s 			page 63


 3696              	.L572:
 3697 00aa DA61     		str	r2, [r3, #28]
 3698 00ac E1E7     		b	.L560
 3699              	.L568:
 3700 00ae DA69     		ldr	r2, [r3, #28]
 3701 00b0 22F08002 		bic	r2, r2, #128
 3702 00b4 F9E7     		b	.L572
 3703              	.L565:
 3704 00b6 2A68     		ldr	r2, [r5]
 3705 00b8 2368     		ldr	r3, [r4]
 3706 00ba 1AB1     		cbz	r2, .L569
 3707 00bc DA69     		ldr	r2, [r3, #28]
 3708 00be 42F40042 		orr	r2, r2, #32768
 3709 00c2 F2E7     		b	.L572
 3710              	.L569:
 3711 00c4 DA69     		ldr	r2, [r3, #28]
 3712 00c6 22F40042 		bic	r2, r2, #32768
 3713 00ca EEE7     		b	.L572
 3715              		.section	.text.HAL_TIM_ConfigClockSource,"ax",%progbits
 3716              		.align	1
 3717              		.global	HAL_TIM_ConfigClockSource
 3718              		.syntax unified
 3719              		.thumb
 3720              		.thumb_func
 3721              		.fpu softvfp
 3723              	HAL_TIM_ConfigClockSource:
 3724              		@ args = 0, pretend = 0, frame = 0
 3725              		@ frame_needed = 0, uses_anonymous_args = 0
 3726 0000 90F83C30 		ldrb	r3, [r0, #60]	@ zero_extendqisi2
 3727 0004 70B5     		push	{r4, r5, r6, lr}
 3728 0006 012B     		cmp	r3, #1
 3729 0008 0446     		mov	r4, r0
 3730 000a 4FF00200 		mov	r0, #2
 3731 000e 19D0     		beq	.L574
 3732 0010 0123     		movs	r3, #1
 3733 0012 84F83D00 		strb	r0, [r4, #61]
 3734 0016 2068     		ldr	r0, [r4]
 3735 0018 84F83C30 		strb	r3, [r4, #60]
 3736 001c 8368     		ldr	r3, [r0, #8]
 3737 001e 23F47F43 		bic	r3, r3, #65280
 3738 0022 23F07703 		bic	r3, r3, #119
 3739 0026 8360     		str	r3, [r0, #8]
 3740 0028 0B68     		ldr	r3, [r1]
 3741 002a 402B     		cmp	r3, #64
 3742 002c 65D0     		beq	.L576
 3743 002e 15D8     		bhi	.L577
 3744 0030 102B     		cmp	r3, #16
 3745 0032 0CD0     		beq	.L578
 3746 0034 07D8     		bhi	.L579
 3747 0036 53B1     		cbz	r3, .L578
 3748              	.L575:
 3749 0038 0123     		movs	r3, #1
 3750 003a 0020     		movs	r0, #0
 3751 003c 84F83D30 		strb	r3, [r4, #61]
 3752 0040 84F83C00 		strb	r0, [r4, #60]
 3753              	.L574:
 3754 0044 70BD     		pop	{r4, r5, r6, pc}
ARM GAS  /tmp/ccqL1RRp.s 			page 64


 3755              	.L579:
 3756 0046 202B     		cmp	r3, #32
 3757 0048 01D0     		beq	.L578
 3758 004a 302B     		cmp	r3, #48
 3759 004c F4D1     		bne	.L575
 3760              	.L578:
 3761 004e 8268     		ldr	r2, [r0, #8]
 3762 0050 43F00703 		orr	r3, r3, #7
 3763 0054 22F07002 		bic	r2, r2, #112
 3764 0058 1343     		orrs	r3, r3, r2
 3765 005a 1AE0     		b	.L599
 3766              	.L577:
 3767 005c 602B     		cmp	r3, #96
 3768 005e 34D0     		beq	.L580
 3769 0060 19D8     		bhi	.L581
 3770 0062 502B     		cmp	r3, #80
 3771 0064 E8D1     		bne	.L575
 3772 0066 4A68     		ldr	r2, [r1, #4]
 3773 0068 CE68     		ldr	r6, [r1, #12]
 3774 006a 016A     		ldr	r1, [r0, #32]
 3775 006c 056A     		ldr	r5, [r0, #32]
 3776 006e 21F00A01 		bic	r1, r1, #10
 3777 0072 25F00105 		bic	r5, r5, #1
 3778 0076 0562     		str	r5, [r0, #32]
 3779 0078 8369     		ldr	r3, [r0, #24]
 3780 007a 0A43     		orrs	r2, r2, r1
 3781 007c 23F0F003 		bic	r3, r3, #240
 3782 0080 43EA0613 		orr	r3, r3, r6, lsl #4
 3783 0084 8361     		str	r3, [r0, #24]
 3784 0086 0262     		str	r2, [r0, #32]
 3785 0088 8368     		ldr	r3, [r0, #8]
 3786 008a 23F07003 		bic	r3, r3, #112
 3787 008e 43F05703 		orr	r3, r3, #87
 3788              	.L599:
 3789 0092 8360     		str	r3, [r0, #8]
 3790 0094 D0E7     		b	.L575
 3791              	.L581:
 3792 0096 702B     		cmp	r3, #112
 3793 0098 0CD0     		beq	.L583
 3794 009a B3F5005F 		cmp	r3, #8192
 3795 009e CBD1     		bne	.L575
 3796 00a0 CB68     		ldr	r3, [r1, #12]
 3797 00a2 4A68     		ldr	r2, [r1, #4]
 3798 00a4 8968     		ldr	r1, [r1, #8]
 3799 00a6 FFF7FEFF 		bl	TIM_ETR_SetConfig
 3800 00aa 2268     		ldr	r2, [r4]
 3801 00ac 9368     		ldr	r3, [r2, #8]
 3802 00ae 43F48043 		orr	r3, r3, #16384
 3803 00b2 08E0     		b	.L598
 3804              	.L583:
 3805 00b4 CB68     		ldr	r3, [r1, #12]
 3806 00b6 4A68     		ldr	r2, [r1, #4]
 3807 00b8 8968     		ldr	r1, [r1, #8]
 3808 00ba FFF7FEFF 		bl	TIM_ETR_SetConfig
 3809 00be 2268     		ldr	r2, [r4]
 3810 00c0 9368     		ldr	r3, [r2, #8]
 3811 00c2 43F07703 		orr	r3, r3, #119
ARM GAS  /tmp/ccqL1RRp.s 			page 65


 3812              	.L598:
 3813 00c6 9360     		str	r3, [r2, #8]
 3814 00c8 B6E7     		b	.L575
 3815              	.L580:
 3816 00ca 4D68     		ldr	r5, [r1, #4]
 3817 00cc CE68     		ldr	r6, [r1, #12]
 3818 00ce 016A     		ldr	r1, [r0, #32]
 3819 00d0 21F01001 		bic	r1, r1, #16
 3820 00d4 0162     		str	r1, [r0, #32]
 3821 00d6 8269     		ldr	r2, [r0, #24]
 3822 00d8 036A     		ldr	r3, [r0, #32]
 3823 00da 22F47042 		bic	r2, r2, #61440
 3824 00de 23F0A003 		bic	r3, r3, #160
 3825 00e2 43EA0513 		orr	r3, r3, r5, lsl #4
 3826 00e6 42EA0632 		orr	r2, r2, r6, lsl #12
 3827 00ea 8261     		str	r2, [r0, #24]
 3828 00ec 0362     		str	r3, [r0, #32]
 3829 00ee 8368     		ldr	r3, [r0, #8]
 3830 00f0 23F07003 		bic	r3, r3, #112
 3831 00f4 43F06703 		orr	r3, r3, #103
 3832 00f8 CBE7     		b	.L599
 3833              	.L576:
 3834 00fa 4A68     		ldr	r2, [r1, #4]
 3835 00fc CE68     		ldr	r6, [r1, #12]
 3836 00fe 016A     		ldr	r1, [r0, #32]
 3837 0100 056A     		ldr	r5, [r0, #32]
 3838 0102 21F00A01 		bic	r1, r1, #10
 3839 0106 25F00105 		bic	r5, r5, #1
 3840 010a 0562     		str	r5, [r0, #32]
 3841 010c 8369     		ldr	r3, [r0, #24]
 3842 010e 0A43     		orrs	r2, r2, r1
 3843 0110 23F0F003 		bic	r3, r3, #240
 3844 0114 43EA0613 		orr	r3, r3, r6, lsl #4
 3845 0118 8361     		str	r3, [r0, #24]
 3846 011a 0262     		str	r2, [r0, #32]
 3847 011c 8368     		ldr	r3, [r0, #8]
 3848 011e 23F07003 		bic	r3, r3, #112
 3849 0122 43F04703 		orr	r3, r3, #71
 3850 0126 B4E7     		b	.L599
 3852              		.section	.text.TIM_SlaveTimer_SetConfig,"ax",%progbits
 3853              		.align	1
 3854              		.syntax unified
 3855              		.thumb
 3856              		.thumb_func
 3857              		.fpu softvfp
 3859              	TIM_SlaveTimer_SetConfig:
 3860              		@ args = 0, pretend = 0, frame = 0
 3861              		@ frame_needed = 0, uses_anonymous_args = 0
 3862 0000 0068     		ldr	r0, [r0]
 3863 0002 38B5     		push	{r3, r4, r5, lr}
 3864 0004 8368     		ldr	r3, [r0, #8]
 3865 0006 4A68     		ldr	r2, [r1, #4]
 3866 0008 23F07003 		bic	r3, r3, #112
 3867 000c 0C68     		ldr	r4, [r1]
 3868 000e 1343     		orrs	r3, r3, r2
 3869 0010 23F00703 		bic	r3, r3, #7
 3870 0014 2343     		orrs	r3, r3, r4
ARM GAS  /tmp/ccqL1RRp.s 			page 66


 3871 0016 502A     		cmp	r2, #80
 3872 0018 8360     		str	r3, [r0, #8]
 3873 001a 1ED0     		beq	.L602
 3874 001c 03D8     		bhi	.L603
 3875 001e 402A     		cmp	r2, #64
 3876 0020 0BD0     		beq	.L604
 3877              	.L609:
 3878 0022 0020     		movs	r0, #0
 3879 0024 38BD     		pop	{r3, r4, r5, pc}
 3880              	.L603:
 3881 0026 602A     		cmp	r2, #96
 3882 0028 27D0     		beq	.L605
 3883 002a 702A     		cmp	r2, #112
 3884 002c F9D1     		bne	.L609
 3885 002e 0B69     		ldr	r3, [r1, #16]
 3886 0030 8A68     		ldr	r2, [r1, #8]
 3887 0032 C968     		ldr	r1, [r1, #12]
 3888 0034 FFF7FEFF 		bl	TIM_ETR_SetConfig
 3889 0038 F3E7     		b	.L609
 3890              	.L604:
 3891 003a 052C     		cmp	r4, #5
 3892 003c 30D0     		beq	.L608
 3893 003e 026A     		ldr	r2, [r0, #32]
 3894 0040 036A     		ldr	r3, [r0, #32]
 3895 0042 0969     		ldr	r1, [r1, #16]
 3896 0044 23F00103 		bic	r3, r3, #1
 3897 0048 0362     		str	r3, [r0, #32]
 3898 004a 8369     		ldr	r3, [r0, #24]
 3899 004c 23F0F003 		bic	r3, r3, #240
 3900 0050 43EA0113 		orr	r3, r3, r1, lsl #4
 3901              	.L610:
 3902 0054 8361     		str	r3, [r0, #24]
 3903 0056 0262     		str	r2, [r0, #32]
 3904 0058 E3E7     		b	.L609
 3905              	.L602:
 3906 005a 8A68     		ldr	r2, [r1, #8]
 3907 005c 0D69     		ldr	r5, [r1, #16]
 3908 005e 016A     		ldr	r1, [r0, #32]
 3909 0060 046A     		ldr	r4, [r0, #32]
 3910 0062 21F00A01 		bic	r1, r1, #10
 3911 0066 24F00104 		bic	r4, r4, #1
 3912 006a 0462     		str	r4, [r0, #32]
 3913 006c 8369     		ldr	r3, [r0, #24]
 3914 006e 0A43     		orrs	r2, r2, r1
 3915 0070 23F0F003 		bic	r3, r3, #240
 3916 0074 43EA0513 		orr	r3, r3, r5, lsl #4
 3917 0078 ECE7     		b	.L610
 3918              	.L605:
 3919 007a 8C68     		ldr	r4, [r1, #8]
 3920 007c 0D69     		ldr	r5, [r1, #16]
 3921 007e 016A     		ldr	r1, [r0, #32]
 3922 0080 21F01001 		bic	r1, r1, #16
 3923 0084 0162     		str	r1, [r0, #32]
 3924 0086 8269     		ldr	r2, [r0, #24]
 3925 0088 036A     		ldr	r3, [r0, #32]
 3926 008a 22F47042 		bic	r2, r2, #61440
 3927 008e 23F0A003 		bic	r3, r3, #160
ARM GAS  /tmp/ccqL1RRp.s 			page 67


 3928 0092 42EA0532 		orr	r2, r2, r5, lsl #12
 3929 0096 43EA0413 		orr	r3, r3, r4, lsl #4
 3930 009a 8261     		str	r2, [r0, #24]
 3931 009c 0362     		str	r3, [r0, #32]
 3932 009e C0E7     		b	.L609
 3933              	.L608:
 3934 00a0 0120     		movs	r0, #1
 3935 00a2 38BD     		pop	{r3, r4, r5, pc}
 3937              		.section	.text.HAL_TIM_SlaveConfigSynchro,"ax",%progbits
 3938              		.align	1
 3939              		.global	HAL_TIM_SlaveConfigSynchro
 3940              		.syntax unified
 3941              		.thumb
 3942              		.thumb_func
 3943              		.fpu softvfp
 3945              	HAL_TIM_SlaveConfigSynchro:
 3946              		@ args = 0, pretend = 0, frame = 0
 3947              		@ frame_needed = 0, uses_anonymous_args = 0
 3948 0000 38B5     		push	{r3, r4, r5, lr}
 3949 0002 90F83C30 		ldrb	r3, [r0, #60]	@ zero_extendqisi2
 3950 0006 0446     		mov	r4, r0
 3951 0008 012B     		cmp	r3, #1
 3952 000a 4FF00203 		mov	r3, #2
 3953 000e 1CD0     		beq	.L614
 3954 0010 0125     		movs	r5, #1
 3955 0012 80F83D30 		strb	r3, [r0, #61]
 3956 0016 80F83C50 		strb	r5, [r0, #60]
 3957 001a FFF7FEFF 		bl	TIM_SlaveTimer_SetConfig
 3958 001e 30B1     		cbz	r0, .L613
 3959 0020 0023     		movs	r3, #0
 3960 0022 84F83D50 		strb	r5, [r4, #61]
 3961 0026 84F83C30 		strb	r3, [r4, #60]
 3962 002a 2846     		mov	r0, r5
 3963 002c 38BD     		pop	{r3, r4, r5, pc}
 3964              	.L613:
 3965 002e 2368     		ldr	r3, [r4]
 3966 0030 DA68     		ldr	r2, [r3, #12]
 3967 0032 22F04002 		bic	r2, r2, #64
 3968 0036 DA60     		str	r2, [r3, #12]
 3969 0038 DA68     		ldr	r2, [r3, #12]
 3970 003a 22F48042 		bic	r2, r2, #16384
 3971 003e DA60     		str	r2, [r3, #12]
 3972 0040 84F83D50 		strb	r5, [r4, #61]
 3973 0044 84F83C00 		strb	r0, [r4, #60]
 3974 0048 38BD     		pop	{r3, r4, r5, pc}
 3975              	.L614:
 3976 004a 1846     		mov	r0, r3
 3977 004c 38BD     		pop	{r3, r4, r5, pc}
 3979              		.section	.text.HAL_TIM_SlaveConfigSynchro_IT,"ax",%progbits
 3980              		.align	1
 3981              		.global	HAL_TIM_SlaveConfigSynchro_IT
 3982              		.syntax unified
 3983              		.thumb
 3984              		.thumb_func
 3985              		.fpu softvfp
 3987              	HAL_TIM_SlaveConfigSynchro_IT:
 3988              		@ args = 0, pretend = 0, frame = 0
ARM GAS  /tmp/ccqL1RRp.s 			page 68


 3989              		@ frame_needed = 0, uses_anonymous_args = 0
 3990 0000 38B5     		push	{r3, r4, r5, lr}
 3991 0002 90F83C30 		ldrb	r3, [r0, #60]	@ zero_extendqisi2
 3992 0006 0446     		mov	r4, r0
 3993 0008 012B     		cmp	r3, #1
 3994 000a 4FF00203 		mov	r3, #2
 3995 000e 1CD0     		beq	.L618
 3996 0010 0125     		movs	r5, #1
 3997 0012 80F83D30 		strb	r3, [r0, #61]
 3998 0016 80F83C50 		strb	r5, [r0, #60]
 3999 001a FFF7FEFF 		bl	TIM_SlaveTimer_SetConfig
 4000 001e 30B1     		cbz	r0, .L617
 4001 0020 0023     		movs	r3, #0
 4002 0022 84F83D50 		strb	r5, [r4, #61]
 4003 0026 84F83C30 		strb	r3, [r4, #60]
 4004 002a 2846     		mov	r0, r5
 4005 002c 38BD     		pop	{r3, r4, r5, pc}
 4006              	.L617:
 4007 002e 2368     		ldr	r3, [r4]
 4008 0030 DA68     		ldr	r2, [r3, #12]
 4009 0032 42F04002 		orr	r2, r2, #64
 4010 0036 DA60     		str	r2, [r3, #12]
 4011 0038 DA68     		ldr	r2, [r3, #12]
 4012 003a 22F48042 		bic	r2, r2, #16384
 4013 003e DA60     		str	r2, [r3, #12]
 4014 0040 84F83D50 		strb	r5, [r4, #61]
 4015 0044 84F83C00 		strb	r0, [r4, #60]
 4016 0048 38BD     		pop	{r3, r4, r5, pc}
 4017              	.L618:
 4018 004a 1846     		mov	r0, r3
 4019 004c 38BD     		pop	{r3, r4, r5, pc}
 4021              		.section	.text.TIM_CCxChannelCmd,"ax",%progbits
 4022              		.align	1
 4023              		.global	TIM_CCxChannelCmd
 4024              		.syntax unified
 4025              		.thumb
 4026              		.thumb_func
 4027              		.fpu softvfp
 4029              	TIM_CCxChannelCmd:
 4030              		@ args = 0, pretend = 0, frame = 0
 4031              		@ frame_needed = 0, uses_anonymous_args = 0
 4032 0000 10B5     		push	{r4, lr}
 4033 0002 0124     		movs	r4, #1
 4034 0004 036A     		ldr	r3, [r0, #32]
 4035 0006 01F01F01 		and	r1, r1, #31
 4036 000a 8C40     		lsls	r4, r4, r1
 4037 000c 23EA0403 		bic	r3, r3, r4
 4038 0010 0362     		str	r3, [r0, #32]
 4039 0012 036A     		ldr	r3, [r0, #32]
 4040 0014 8A40     		lsls	r2, r2, r1
 4041 0016 1A43     		orrs	r2, r2, r3
 4042 0018 0262     		str	r2, [r0, #32]
 4043 001a 10BD     		pop	{r4, pc}
 4045              		.section	.text.HAL_TIM_OC_Stop,"ax",%progbits
 4046              		.align	1
 4047              		.global	HAL_TIM_OC_Stop
 4048              		.syntax unified
ARM GAS  /tmp/ccqL1RRp.s 			page 69


 4049              		.thumb
 4050              		.thumb_func
 4051              		.fpu softvfp
 4053              	HAL_TIM_OC_Stop:
 4054              		@ args = 0, pretend = 0, frame = 0
 4055              		@ frame_needed = 0, uses_anonymous_args = 0
 4056 0000 10B5     		push	{r4, lr}
 4057 0002 0446     		mov	r4, r0
 4058 0004 0022     		movs	r2, #0
 4059 0006 0068     		ldr	r0, [r0]
 4060 0008 FFF7FEFF 		bl	TIM_CCxChannelCmd
 4061 000c 2368     		ldr	r3, [r4]
 4062 000e 124A     		ldr	r2, .L626
 4063 0010 9342     		cmp	r3, r2
 4064 0012 03D0     		beq	.L621
 4065 0014 02F50062 		add	r2, r2, #2048
 4066 0018 9342     		cmp	r3, r2
 4067 001a 0DD1     		bne	.L622
 4068              	.L621:
 4069 001c 41F21112 		movw	r2, #4369
 4070 0020 196A     		ldr	r1, [r3, #32]
 4071 0022 1142     		tst	r1, r2
 4072 0024 08D1     		bne	.L622
 4073 0026 40F24442 		movw	r2, #1092
 4074 002a 196A     		ldr	r1, [r3, #32]
 4075 002c 1142     		tst	r1, r2
 4076 002e 02BF     		ittt	eq
 4077 0030 5A6C     		ldreq	r2, [r3, #68]
 4078 0032 22F40042 		biceq	r2, r2, #32768
 4079 0036 5A64     		streq	r2, [r3, #68]
 4080              	.L622:
 4081 0038 41F21112 		movw	r2, #4369
 4082 003c 196A     		ldr	r1, [r3, #32]
 4083 003e 1142     		tst	r1, r2
 4084 0040 08D1     		bne	.L625
 4085 0042 40F24442 		movw	r2, #1092
 4086 0046 196A     		ldr	r1, [r3, #32]
 4087 0048 1142     		tst	r1, r2
 4088 004a 03D1     		bne	.L625
 4089 004c 1A68     		ldr	r2, [r3]
 4090 004e 22F00102 		bic	r2, r2, #1
 4091 0052 1A60     		str	r2, [r3]
 4092              	.L625:
 4093 0054 0020     		movs	r0, #0
 4094 0056 10BD     		pop	{r4, pc}
 4095              	.L627:
 4096              		.align	2
 4097              	.L626:
 4098 0058 002C0140 		.word	1073818624
 4100              		.section	.text.HAL_TIM_PWM_Start,"ax",%progbits
 4101              		.align	1
 4102              		.global	HAL_TIM_PWM_Start
 4103              		.syntax unified
 4104              		.thumb
 4105              		.thumb_func
 4106              		.fpu softvfp
 4108              	HAL_TIM_PWM_Start:
ARM GAS  /tmp/ccqL1RRp.s 			page 70


 4109              		@ args = 0, pretend = 0, frame = 0
 4110              		@ frame_needed = 0, uses_anonymous_args = 0
 4111 0000 10B5     		push	{r4, lr}
 4112 0002 0446     		mov	r4, r0
 4113 0004 0122     		movs	r2, #1
 4114 0006 0068     		ldr	r0, [r0]
 4115 0008 FFF7FEFF 		bl	TIM_CCxChannelCmd
 4116 000c 2368     		ldr	r3, [r4]
 4117 000e 0B4A     		ldr	r2, .L636
 4118 0010 9342     		cmp	r3, r2
 4119 0012 0ED0     		beq	.L629
 4120 0014 02F50062 		add	r2, r2, #2048
 4121 0018 9342     		cmp	r3, r2
 4122 001a 0AD0     		beq	.L629
 4123              	.L631:
 4124 001c 9A68     		ldr	r2, [r3, #8]
 4125 001e 02F00702 		and	r2, r2, #7
 4126 0022 062A     		cmp	r2, #6
 4127 0024 03D0     		beq	.L634
 4128 0026 1A68     		ldr	r2, [r3]
 4129 0028 42F00102 		orr	r2, r2, #1
 4130 002c 1A60     		str	r2, [r3]
 4131              	.L634:
 4132 002e 0020     		movs	r0, #0
 4133 0030 10BD     		pop	{r4, pc}
 4134              	.L629:
 4135 0032 5A6C     		ldr	r2, [r3, #68]
 4136 0034 42F40042 		orr	r2, r2, #32768
 4137 0038 5A64     		str	r2, [r3, #68]
 4138 003a EFE7     		b	.L631
 4139              	.L637:
 4140              		.align	2
 4141              	.L636:
 4142 003c 002C0140 		.word	1073818624
 4144              		.section	.text.HAL_TIM_OC_Start,"ax",%progbits
 4145              		.align	1
 4146              		.global	HAL_TIM_OC_Start
 4147              		.syntax unified
 4148              		.thumb
 4149              		.thumb_func
 4150              		.fpu softvfp
 4152              	HAL_TIM_OC_Start:
 4153              		@ args = 0, pretend = 0, frame = 0
 4154              		@ frame_needed = 0, uses_anonymous_args = 0
 4155              		@ link register save eliminated.
 4156 0000 FFF7FEBF 		b	HAL_TIM_PWM_Start
 4158              		.section	.text.HAL_TIM_PWM_Stop,"ax",%progbits
 4159              		.align	1
 4160              		.global	HAL_TIM_PWM_Stop
 4161              		.syntax unified
 4162              		.thumb
 4163              		.thumb_func
 4164              		.fpu softvfp
 4166              	HAL_TIM_PWM_Stop:
 4167              		@ args = 0, pretend = 0, frame = 0
 4168              		@ frame_needed = 0, uses_anonymous_args = 0
 4169 0000 10B5     		push	{r4, lr}
ARM GAS  /tmp/ccqL1RRp.s 			page 71


 4170 0002 0446     		mov	r4, r0
 4171 0004 0022     		movs	r2, #0
 4172 0006 0068     		ldr	r0, [r0]
 4173 0008 FFF7FEFF 		bl	TIM_CCxChannelCmd
 4174 000c 2368     		ldr	r3, [r4]
 4175 000e 144A     		ldr	r2, .L645
 4176 0010 9342     		cmp	r3, r2
 4177 0012 03D0     		beq	.L640
 4178 0014 02F50062 		add	r2, r2, #2048
 4179 0018 9342     		cmp	r3, r2
 4180 001a 0DD1     		bne	.L641
 4181              	.L640:
 4182 001c 41F21112 		movw	r2, #4369
 4183 0020 196A     		ldr	r1, [r3, #32]
 4184 0022 1142     		tst	r1, r2
 4185 0024 08D1     		bne	.L641
 4186 0026 40F24442 		movw	r2, #1092
 4187 002a 196A     		ldr	r1, [r3, #32]
 4188 002c 1142     		tst	r1, r2
 4189 002e 02BF     		ittt	eq
 4190 0030 5A6C     		ldreq	r2, [r3, #68]
 4191 0032 22F40042 		biceq	r2, r2, #32768
 4192 0036 5A64     		streq	r2, [r3, #68]
 4193              	.L641:
 4194 0038 41F21112 		movw	r2, #4369
 4195 003c 196A     		ldr	r1, [r3, #32]
 4196 003e 1142     		tst	r1, r2
 4197 0040 08D1     		bne	.L642
 4198 0042 40F24442 		movw	r2, #1092
 4199 0046 196A     		ldr	r1, [r3, #32]
 4200 0048 1142     		tst	r1, r2
 4201 004a 03D1     		bne	.L642
 4202 004c 1A68     		ldr	r2, [r3]
 4203 004e 22F00102 		bic	r2, r2, #1
 4204 0052 1A60     		str	r2, [r3]
 4205              	.L642:
 4206 0054 0123     		movs	r3, #1
 4207 0056 0020     		movs	r0, #0
 4208 0058 84F83D30 		strb	r3, [r4, #61]
 4209 005c 10BD     		pop	{r4, pc}
 4210              	.L646:
 4211 005e 00BF     		.align	2
 4212              	.L645:
 4213 0060 002C0140 		.word	1073818624
 4215              		.section	.text.HAL_TIM_PWM_Start_IT,"ax",%progbits
 4216              		.align	1
 4217              		.global	HAL_TIM_PWM_Start_IT
 4218              		.syntax unified
 4219              		.thumb
 4220              		.thumb_func
 4221              		.fpu softvfp
 4223              	HAL_TIM_PWM_Start_IT:
 4224              		@ args = 0, pretend = 0, frame = 0
 4225              		@ frame_needed = 0, uses_anonymous_args = 0
 4226 0000 10B5     		push	{r4, lr}
 4227 0002 0446     		mov	r4, r0
 4228 0004 0C29     		cmp	r1, #12
ARM GAS  /tmp/ccqL1RRp.s 			page 72


 4229 0006 0DD8     		bhi	.L648
 4230 0008 DFE801F0 		tbb	[pc, r1]
 4231              	.L650:
 4232 000c 07       		.byte	(.L649-.L650)/2
 4233 000d 0C       		.byte	(.L648-.L650)/2
 4234 000e 0C       		.byte	(.L648-.L650)/2
 4235 000f 0C       		.byte	(.L648-.L650)/2
 4236 0010 23       		.byte	(.L651-.L650)/2
 4237 0011 0C       		.byte	(.L648-.L650)/2
 4238 0012 0C       		.byte	(.L648-.L650)/2
 4239 0013 0C       		.byte	(.L648-.L650)/2
 4240 0014 28       		.byte	(.L652-.L650)/2
 4241 0015 0C       		.byte	(.L648-.L650)/2
 4242 0016 0C       		.byte	(.L648-.L650)/2
 4243 0017 0C       		.byte	(.L648-.L650)/2
 4244 0018 2D       		.byte	(.L653-.L650)/2
 4245 0019 00       		.p2align 1
 4246              	.L649:
 4247 001a 0268     		ldr	r2, [r0]
 4248 001c D368     		ldr	r3, [r2, #12]
 4249 001e 43F00203 		orr	r3, r3, #2
 4250              	.L661:
 4251 0022 D360     		str	r3, [r2, #12]
 4252              	.L648:
 4253 0024 0122     		movs	r2, #1
 4254 0026 2068     		ldr	r0, [r4]
 4255 0028 FFF7FEFF 		bl	TIM_CCxChannelCmd
 4256 002c 2368     		ldr	r3, [r4]
 4257 002e 134A     		ldr	r2, .L662
 4258 0030 9342     		cmp	r3, r2
 4259 0032 1DD0     		beq	.L654
 4260 0034 02F50062 		add	r2, r2, #2048
 4261 0038 9342     		cmp	r3, r2
 4262 003a 19D0     		beq	.L654
 4263              	.L656:
 4264 003c 9A68     		ldr	r2, [r3, #8]
 4265 003e 02F00702 		and	r2, r2, #7
 4266 0042 062A     		cmp	r2, #6
 4267 0044 03D0     		beq	.L659
 4268 0046 1A68     		ldr	r2, [r3]
 4269 0048 42F00102 		orr	r2, r2, #1
 4270 004c 1A60     		str	r2, [r3]
 4271              	.L659:
 4272 004e 0020     		movs	r0, #0
 4273 0050 10BD     		pop	{r4, pc}
 4274              	.L651:
 4275 0052 0268     		ldr	r2, [r0]
 4276 0054 D368     		ldr	r3, [r2, #12]
 4277 0056 43F00403 		orr	r3, r3, #4
 4278 005a E2E7     		b	.L661
 4279              	.L652:
 4280 005c 0268     		ldr	r2, [r0]
 4281 005e D368     		ldr	r3, [r2, #12]
 4282 0060 43F00803 		orr	r3, r3, #8
 4283 0064 DDE7     		b	.L661
 4284              	.L653:
 4285 0066 0268     		ldr	r2, [r0]
ARM GAS  /tmp/ccqL1RRp.s 			page 73


 4286 0068 D368     		ldr	r3, [r2, #12]
 4287 006a 43F01003 		orr	r3, r3, #16
 4288 006e D8E7     		b	.L661
 4289              	.L654:
 4290 0070 5A6C     		ldr	r2, [r3, #68]
 4291 0072 42F40042 		orr	r2, r2, #32768
 4292 0076 5A64     		str	r2, [r3, #68]
 4293 0078 E0E7     		b	.L656
 4294              	.L663:
 4295 007a 00BF     		.align	2
 4296              	.L662:
 4297 007c 002C0140 		.word	1073818624
 4299              		.section	.text.HAL_TIM_OC_Start_IT,"ax",%progbits
 4300              		.align	1
 4301              		.global	HAL_TIM_OC_Start_IT
 4302              		.syntax unified
 4303              		.thumb
 4304              		.thumb_func
 4305              		.fpu softvfp
 4307              	HAL_TIM_OC_Start_IT:
 4308              		@ args = 0, pretend = 0, frame = 0
 4309              		@ frame_needed = 0, uses_anonymous_args = 0
 4310              		@ link register save eliminated.
 4311 0000 FFF7FEBF 		b	HAL_TIM_PWM_Start_IT
 4313              		.section	.text.HAL_TIM_PWM_Stop_IT,"ax",%progbits
 4314              		.align	1
 4315              		.global	HAL_TIM_PWM_Stop_IT
 4316              		.syntax unified
 4317              		.thumb
 4318              		.thumb_func
 4319              		.fpu softvfp
 4321              	HAL_TIM_PWM_Stop_IT:
 4322              		@ args = 0, pretend = 0, frame = 0
 4323              		@ frame_needed = 0, uses_anonymous_args = 0
 4324 0000 10B5     		push	{r4, lr}
 4325 0002 0446     		mov	r4, r0
 4326 0004 0C29     		cmp	r1, #12
 4327 0006 0DD8     		bhi	.L666
 4328 0008 DFE801F0 		tbb	[pc, r1]
 4329              	.L668:
 4330 000c 07       		.byte	(.L667-.L668)/2
 4331 000d 0C       		.byte	(.L666-.L668)/2
 4332 000e 0C       		.byte	(.L666-.L668)/2
 4333 000f 0C       		.byte	(.L666-.L668)/2
 4334 0010 36       		.byte	(.L669-.L668)/2
 4335 0011 0C       		.byte	(.L666-.L668)/2
 4336 0012 0C       		.byte	(.L666-.L668)/2
 4337 0013 0C       		.byte	(.L666-.L668)/2
 4338 0014 3B       		.byte	(.L670-.L668)/2
 4339 0015 0C       		.byte	(.L666-.L668)/2
 4340 0016 0C       		.byte	(.L666-.L668)/2
 4341 0017 0C       		.byte	(.L666-.L668)/2
 4342 0018 40       		.byte	(.L671-.L668)/2
 4343 0019 00       		.p2align 1
 4344              	.L667:
 4345 001a 0268     		ldr	r2, [r0]
 4346 001c D368     		ldr	r3, [r2, #12]
ARM GAS  /tmp/ccqL1RRp.s 			page 74


 4347 001e 23F00203 		bic	r3, r3, #2
 4348              	.L677:
 4349 0022 D360     		str	r3, [r2, #12]
 4350              	.L666:
 4351 0024 0022     		movs	r2, #0
 4352 0026 2068     		ldr	r0, [r4]
 4353 0028 FFF7FEFF 		bl	TIM_CCxChannelCmd
 4354 002c 2368     		ldr	r3, [r4]
 4355 002e 1A4A     		ldr	r2, .L678
 4356 0030 9342     		cmp	r3, r2
 4357 0032 03D0     		beq	.L672
 4358 0034 02F50062 		add	r2, r2, #2048
 4359 0038 9342     		cmp	r3, r2
 4360 003a 0DD1     		bne	.L673
 4361              	.L672:
 4362 003c 41F21112 		movw	r2, #4369
 4363 0040 196A     		ldr	r1, [r3, #32]
 4364 0042 1142     		tst	r1, r2
 4365 0044 08D1     		bne	.L673
 4366 0046 40F24442 		movw	r2, #1092
 4367 004a 196A     		ldr	r1, [r3, #32]
 4368 004c 1142     		tst	r1, r2
 4369 004e 02BF     		ittt	eq
 4370 0050 5A6C     		ldreq	r2, [r3, #68]
 4371 0052 22F40042 		biceq	r2, r2, #32768
 4372 0056 5A64     		streq	r2, [r3, #68]
 4373              	.L673:
 4374 0058 41F21112 		movw	r2, #4369
 4375 005c 196A     		ldr	r1, [r3, #32]
 4376 005e 1142     		tst	r1, r2
 4377 0060 08D1     		bne	.L676
 4378 0062 40F24442 		movw	r2, #1092
 4379 0066 196A     		ldr	r1, [r3, #32]
 4380 0068 1142     		tst	r1, r2
 4381 006a 03D1     		bne	.L676
 4382 006c 1A68     		ldr	r2, [r3]
 4383 006e 22F00102 		bic	r2, r2, #1
 4384 0072 1A60     		str	r2, [r3]
 4385              	.L676:
 4386 0074 0020     		movs	r0, #0
 4387 0076 10BD     		pop	{r4, pc}
 4388              	.L669:
 4389 0078 0268     		ldr	r2, [r0]
 4390 007a D368     		ldr	r3, [r2, #12]
 4391 007c 23F00403 		bic	r3, r3, #4
 4392 0080 CFE7     		b	.L677
 4393              	.L670:
 4394 0082 0268     		ldr	r2, [r0]
 4395 0084 D368     		ldr	r3, [r2, #12]
 4396 0086 23F00803 		bic	r3, r3, #8
 4397 008a CAE7     		b	.L677
 4398              	.L671:
 4399 008c 0268     		ldr	r2, [r0]
 4400 008e D368     		ldr	r3, [r2, #12]
 4401 0090 23F01003 		bic	r3, r3, #16
 4402 0094 C5E7     		b	.L677
 4403              	.L679:
ARM GAS  /tmp/ccqL1RRp.s 			page 75


 4404 0096 00BF     		.align	2
 4405              	.L678:
 4406 0098 002C0140 		.word	1073818624
 4408              		.section	.text.HAL_TIM_OC_Stop_IT,"ax",%progbits
 4409              		.align	1
 4410              		.global	HAL_TIM_OC_Stop_IT
 4411              		.syntax unified
 4412              		.thumb
 4413              		.thumb_func
 4414              		.fpu softvfp
 4416              	HAL_TIM_OC_Stop_IT:
 4417              		@ args = 0, pretend = 0, frame = 0
 4418              		@ frame_needed = 0, uses_anonymous_args = 0
 4419              		@ link register save eliminated.
 4420 0000 FFF7FEBF 		b	HAL_TIM_PWM_Stop_IT
 4422              		.section	.text.HAL_TIM_PWM_Start_DMA,"ax",%progbits
 4423              		.align	1
 4424              		.global	HAL_TIM_PWM_Start_DMA
 4425              		.syntax unified
 4426              		.thumb
 4427              		.thumb_func
 4428              		.fpu softvfp
 4430              	HAL_TIM_PWM_Start_DMA:
 4431              		@ args = 0, pretend = 0, frame = 0
 4432              		@ frame_needed = 0, uses_anonymous_args = 0
 4433 0000 38B5     		push	{r3, r4, r5, lr}
 4434 0002 0446     		mov	r4, r0
 4435 0004 90F83D00 		ldrb	r0, [r0, #61]	@ zero_extendqisi2
 4436 0008 0D46     		mov	r5, r1
 4437 000a C0B2     		uxtb	r0, r0
 4438 000c 0228     		cmp	r0, #2
 4439 000e 1146     		mov	r1, r2
 4440 0010 7AD0     		beq	.L699
 4441 0012 94F83D20 		ldrb	r2, [r4, #61]	@ zero_extendqisi2
 4442 0016 012A     		cmp	r2, #1
 4443 0018 06D1     		bne	.L683
 4444 001a 11B9     		cbnz	r1, .L684
 4445 001c 0BB1     		cbz	r3, .L684
 4446              	.L691:
 4447 001e 0120     		movs	r0, #1
 4448 0020 38BD     		pop	{r3, r4, r5, pc}
 4449              	.L684:
 4450 0022 0222     		movs	r2, #2
 4451 0024 84F83D20 		strb	r2, [r4, #61]
 4452              	.L683:
 4453 0028 0C2D     		cmp	r5, #12
 4454 002a 1AD8     		bhi	.L685
 4455 002c DFE805F0 		tbb	[pc, r5]
 4456              	.L687:
 4457 0030 07       		.byte	(.L686-.L687)/2
 4458 0031 19       		.byte	(.L685-.L687)/2
 4459 0032 19       		.byte	(.L685-.L687)/2
 4460 0033 19       		.byte	(.L685-.L687)/2
 4461 0034 31       		.byte	(.L688-.L687)/2
 4462 0035 19       		.byte	(.L685-.L687)/2
 4463 0036 19       		.byte	(.L685-.L687)/2
 4464 0037 19       		.byte	(.L685-.L687)/2
ARM GAS  /tmp/ccqL1RRp.s 			page 76


 4465 0038 43       		.byte	(.L689-.L687)/2
 4466 0039 19       		.byte	(.L685-.L687)/2
 4467 003a 19       		.byte	(.L685-.L687)/2
 4468 003b 19       		.byte	(.L685-.L687)/2
 4469 003c 55       		.byte	(.L690-.L687)/2
 4470 003d 00       		.p2align 1
 4471              	.L686:
 4472 003e 606A     		ldr	r0, [r4, #36]
 4473 0040 324A     		ldr	r2, .L701
 4474 0042 8262     		str	r2, [r0, #40]
 4475 0044 324A     		ldr	r2, .L701+4
 4476 0046 C262     		str	r2, [r0, #44]
 4477 0048 324A     		ldr	r2, .L701+8
 4478 004a 0263     		str	r2, [r0, #48]
 4479 004c 2268     		ldr	r2, [r4]
 4480 004e 3432     		adds	r2, r2, #52
 4481 0050 FFF7FEFF 		bl	HAL_DMA_Start_IT
 4482 0054 0028     		cmp	r0, #0
 4483 0056 E2D1     		bne	.L691
 4484 0058 2268     		ldr	r2, [r4]
 4485 005a D368     		ldr	r3, [r2, #12]
 4486 005c 43F40073 		orr	r3, r3, #512
 4487              	.L700:
 4488 0060 D360     		str	r3, [r2, #12]
 4489              	.L685:
 4490 0062 0122     		movs	r2, #1
 4491 0064 2946     		mov	r1, r5
 4492 0066 2068     		ldr	r0, [r4]
 4493 0068 FFF7FEFF 		bl	TIM_CCxChannelCmd
 4494 006c 2368     		ldr	r3, [r4]
 4495 006e 2A4A     		ldr	r2, .L701+12
 4496 0070 9342     		cmp	r3, r2
 4497 0072 44D0     		beq	.L692
 4498 0074 02F50062 		add	r2, r2, #2048
 4499 0078 9342     		cmp	r3, r2
 4500 007a 40D0     		beq	.L692
 4501              	.L693:
 4502 007c 9A68     		ldr	r2, [r3, #8]
 4503 007e 0020     		movs	r0, #0
 4504 0080 02F00702 		and	r2, r2, #7
 4505 0084 062A     		cmp	r2, #6
 4506 0086 1EBF     		ittt	ne
 4507 0088 1A68     		ldrne	r2, [r3]
 4508 008a 42F00102 		orrne	r2, r2, #1
 4509 008e 1A60     		strne	r2, [r3]
 4510 0090 38BD     		pop	{r3, r4, r5, pc}
 4511              	.L688:
 4512 0092 A06A     		ldr	r0, [r4, #40]
 4513 0094 1D4A     		ldr	r2, .L701
 4514 0096 8262     		str	r2, [r0, #40]
 4515 0098 1D4A     		ldr	r2, .L701+4
 4516 009a C262     		str	r2, [r0, #44]
 4517 009c 1D4A     		ldr	r2, .L701+8
 4518 009e 0263     		str	r2, [r0, #48]
 4519 00a0 2268     		ldr	r2, [r4]
 4520 00a2 3832     		adds	r2, r2, #56
 4521 00a4 FFF7FEFF 		bl	HAL_DMA_Start_IT
ARM GAS  /tmp/ccqL1RRp.s 			page 77


 4522 00a8 0028     		cmp	r0, #0
 4523 00aa B8D1     		bne	.L691
 4524 00ac 2268     		ldr	r2, [r4]
 4525 00ae D368     		ldr	r3, [r2, #12]
 4526 00b0 43F48063 		orr	r3, r3, #1024
 4527 00b4 D4E7     		b	.L700
 4528              	.L689:
 4529 00b6 E06A     		ldr	r0, [r4, #44]
 4530 00b8 144A     		ldr	r2, .L701
 4531 00ba 8262     		str	r2, [r0, #40]
 4532 00bc 144A     		ldr	r2, .L701+4
 4533 00be C262     		str	r2, [r0, #44]
 4534 00c0 144A     		ldr	r2, .L701+8
 4535 00c2 0263     		str	r2, [r0, #48]
 4536 00c4 2268     		ldr	r2, [r4]
 4537 00c6 3C32     		adds	r2, r2, #60
 4538 00c8 FFF7FEFF 		bl	HAL_DMA_Start_IT
 4539 00cc 0028     		cmp	r0, #0
 4540 00ce A6D1     		bne	.L691
 4541 00d0 2268     		ldr	r2, [r4]
 4542 00d2 D368     		ldr	r3, [r2, #12]
 4543 00d4 43F40063 		orr	r3, r3, #2048
 4544 00d8 C2E7     		b	.L700
 4545              	.L690:
 4546 00da 206B     		ldr	r0, [r4, #48]
 4547 00dc 0B4A     		ldr	r2, .L701
 4548 00de 8262     		str	r2, [r0, #40]
 4549 00e0 0B4A     		ldr	r2, .L701+4
 4550 00e2 C262     		str	r2, [r0, #44]
 4551 00e4 0B4A     		ldr	r2, .L701+8
 4552 00e6 0263     		str	r2, [r0, #48]
 4553 00e8 2268     		ldr	r2, [r4]
 4554 00ea 4032     		adds	r2, r2, #64
 4555 00ec FFF7FEFF 		bl	HAL_DMA_Start_IT
 4556 00f0 0028     		cmp	r0, #0
 4557 00f2 94D1     		bne	.L691
 4558 00f4 2268     		ldr	r2, [r4]
 4559 00f6 D368     		ldr	r3, [r2, #12]
 4560 00f8 43F48053 		orr	r3, r3, #4096
 4561 00fc B0E7     		b	.L700
 4562              	.L692:
 4563 00fe 5A6C     		ldr	r2, [r3, #68]
 4564 0100 42F40042 		orr	r2, r2, #32768
 4565 0104 5A64     		str	r2, [r3, #68]
 4566 0106 B9E7     		b	.L693
 4567              	.L699:
 4568 0108 38BD     		pop	{r3, r4, r5, pc}
 4569              	.L702:
 4570 010a 00BF     		.align	2
 4571              	.L701:
 4572 010c 00000000 		.word	TIM_DMADelayPulseCplt
 4573 0110 00000000 		.word	TIM_DMADelayPulseHalfCplt
 4574 0114 00000000 		.word	TIM_DMAError
 4575 0118 002C0140 		.word	1073818624
 4577              		.section	.text.HAL_TIM_OC_Start_DMA,"ax",%progbits
 4578              		.align	1
 4579              		.global	HAL_TIM_OC_Start_DMA
ARM GAS  /tmp/ccqL1RRp.s 			page 78


 4580              		.syntax unified
 4581              		.thumb
 4582              		.thumb_func
 4583              		.fpu softvfp
 4585              	HAL_TIM_OC_Start_DMA:
 4586              		@ args = 0, pretend = 0, frame = 0
 4587              		@ frame_needed = 0, uses_anonymous_args = 0
 4588              		@ link register save eliminated.
 4589 0000 FFF7FEBF 		b	HAL_TIM_PWM_Start_DMA
 4591              		.section	.text.HAL_TIM_PWM_Stop_DMA,"ax",%progbits
 4592              		.align	1
 4593              		.global	HAL_TIM_PWM_Stop_DMA
 4594              		.syntax unified
 4595              		.thumb
 4596              		.thumb_func
 4597              		.fpu softvfp
 4599              	HAL_TIM_PWM_Stop_DMA:
 4600              		@ args = 0, pretend = 0, frame = 0
 4601              		@ frame_needed = 0, uses_anonymous_args = 0
 4602 0000 38B5     		push	{r3, r4, r5, lr}
 4603 0002 0446     		mov	r4, r0
 4604 0004 0D46     		mov	r5, r1
 4605 0006 0C29     		cmp	r1, #12
 4606 0008 10D8     		bhi	.L705
 4607 000a DFE801F0 		tbb	[pc, r1]
 4608              	.L707:
 4609 000e 07       		.byte	(.L706-.L707)/2
 4610 000f 0F       		.byte	(.L705-.L707)/2
 4611 0010 0F       		.byte	(.L705-.L707)/2
 4612 0011 0F       		.byte	(.L705-.L707)/2
 4613 0012 3D       		.byte	(.L708-.L707)/2
 4614 0013 0F       		.byte	(.L705-.L707)/2
 4615 0014 0F       		.byte	(.L705-.L707)/2
 4616 0015 0F       		.byte	(.L705-.L707)/2
 4617 0016 44       		.byte	(.L709-.L707)/2
 4618 0017 0F       		.byte	(.L705-.L707)/2
 4619 0018 0F       		.byte	(.L705-.L707)/2
 4620 0019 0F       		.byte	(.L705-.L707)/2
 4621 001a 4B       		.byte	(.L710-.L707)/2
 4622 001b 00       		.p2align 1
 4623              	.L706:
 4624 001c 0268     		ldr	r2, [r0]
 4625 001e 406A     		ldr	r0, [r0, #36]
 4626 0020 D368     		ldr	r3, [r2, #12]
 4627 0022 23F40073 		bic	r3, r3, #512
 4628 0026 D360     		str	r3, [r2, #12]
 4629              	.L716:
 4630 0028 FFF7FEFF 		bl	HAL_DMA_Abort_IT
 4631              	.L705:
 4632 002c 0022     		movs	r2, #0
 4633 002e 2946     		mov	r1, r5
 4634 0030 2068     		ldr	r0, [r4]
 4635 0032 FFF7FEFF 		bl	TIM_CCxChannelCmd
 4636 0036 2368     		ldr	r3, [r4]
 4637 0038 1E4A     		ldr	r2, .L717
 4638 003a 9342     		cmp	r3, r2
 4639 003c 03D0     		beq	.L711
ARM GAS  /tmp/ccqL1RRp.s 			page 79


 4640 003e 02F50062 		add	r2, r2, #2048
 4641 0042 9342     		cmp	r3, r2
 4642 0044 0DD1     		bne	.L712
 4643              	.L711:
 4644 0046 41F21112 		movw	r2, #4369
 4645 004a 196A     		ldr	r1, [r3, #32]
 4646 004c 1142     		tst	r1, r2
 4647 004e 08D1     		bne	.L712
 4648 0050 40F24442 		movw	r2, #1092
 4649 0054 196A     		ldr	r1, [r3, #32]
 4650 0056 1142     		tst	r1, r2
 4651 0058 02BF     		ittt	eq
 4652 005a 5A6C     		ldreq	r2, [r3, #68]
 4653 005c 22F40042 		biceq	r2, r2, #32768
 4654 0060 5A64     		streq	r2, [r3, #68]
 4655              	.L712:
 4656 0062 41F21112 		movw	r2, #4369
 4657 0066 196A     		ldr	r1, [r3, #32]
 4658 0068 1142     		tst	r1, r2
 4659 006a 08D1     		bne	.L713
 4660 006c 40F24442 		movw	r2, #1092
 4661 0070 196A     		ldr	r1, [r3, #32]
 4662 0072 1142     		tst	r1, r2
 4663 0074 03D1     		bne	.L713
 4664 0076 1A68     		ldr	r2, [r3]
 4665 0078 22F00102 		bic	r2, r2, #1
 4666 007c 1A60     		str	r2, [r3]
 4667              	.L713:
 4668 007e 0123     		movs	r3, #1
 4669 0080 0020     		movs	r0, #0
 4670 0082 84F83D30 		strb	r3, [r4, #61]
 4671 0086 38BD     		pop	{r3, r4, r5, pc}
 4672              	.L708:
 4673 0088 0268     		ldr	r2, [r0]
 4674 008a 806A     		ldr	r0, [r0, #40]
 4675 008c D368     		ldr	r3, [r2, #12]
 4676 008e 23F48063 		bic	r3, r3, #1024
 4677 0092 D360     		str	r3, [r2, #12]
 4678 0094 C8E7     		b	.L716
 4679              	.L709:
 4680 0096 0268     		ldr	r2, [r0]
 4681 0098 C06A     		ldr	r0, [r0, #44]
 4682 009a D368     		ldr	r3, [r2, #12]
 4683 009c 23F40063 		bic	r3, r3, #2048
 4684 00a0 D360     		str	r3, [r2, #12]
 4685 00a2 C1E7     		b	.L716
 4686              	.L710:
 4687 00a4 0268     		ldr	r2, [r0]
 4688 00a6 006B     		ldr	r0, [r0, #48]
 4689 00a8 D368     		ldr	r3, [r2, #12]
 4690 00aa 23F48053 		bic	r3, r3, #4096
 4691 00ae D360     		str	r3, [r2, #12]
 4692 00b0 BAE7     		b	.L716
 4693              	.L718:
 4694 00b2 00BF     		.align	2
 4695              	.L717:
 4696 00b4 002C0140 		.word	1073818624
ARM GAS  /tmp/ccqL1RRp.s 			page 80


 4698              		.section	.text.HAL_TIM_OC_Stop_DMA,"ax",%progbits
 4699              		.align	1
 4700              		.global	HAL_TIM_OC_Stop_DMA
 4701              		.syntax unified
 4702              		.thumb
 4703              		.thumb_func
 4704              		.fpu softvfp
 4706              	HAL_TIM_OC_Stop_DMA:
 4707              		@ args = 0, pretend = 0, frame = 0
 4708              		@ frame_needed = 0, uses_anonymous_args = 0
 4709              		@ link register save eliminated.
 4710 0000 FFF7FEBF 		b	HAL_TIM_PWM_Stop_DMA
 4712              		.section	.text.HAL_TIM_IC_Start,"ax",%progbits
 4713              		.align	1
 4714              		.global	HAL_TIM_IC_Start
 4715              		.syntax unified
 4716              		.thumb
 4717              		.thumb_func
 4718              		.fpu softvfp
 4720              	HAL_TIM_IC_Start:
 4721              		@ args = 0, pretend = 0, frame = 0
 4722              		@ frame_needed = 0, uses_anonymous_args = 0
 4723 0000 10B5     		push	{r4, lr}
 4724 0002 0446     		mov	r4, r0
 4725 0004 0122     		movs	r2, #1
 4726 0006 0068     		ldr	r0, [r0]
 4727 0008 FFF7FEFF 		bl	TIM_CCxChannelCmd
 4728 000c 2368     		ldr	r3, [r4]
 4729 000e 0020     		movs	r0, #0
 4730 0010 9A68     		ldr	r2, [r3, #8]
 4731 0012 02F00702 		and	r2, r2, #7
 4732 0016 062A     		cmp	r2, #6
 4733 0018 1EBF     		ittt	ne
 4734 001a 1A68     		ldrne	r2, [r3]
 4735 001c 42F00102 		orrne	r2, r2, #1
 4736 0020 1A60     		strne	r2, [r3]
 4737 0022 10BD     		pop	{r4, pc}
 4739              		.section	.text.HAL_TIM_IC_Stop,"ax",%progbits
 4740              		.align	1
 4741              		.global	HAL_TIM_IC_Stop
 4742              		.syntax unified
 4743              		.thumb
 4744              		.thumb_func
 4745              		.fpu softvfp
 4747              	HAL_TIM_IC_Stop:
 4748              		@ args = 0, pretend = 0, frame = 0
 4749              		@ frame_needed = 0, uses_anonymous_args = 0
 4750 0000 10B5     		push	{r4, lr}
 4751 0002 0446     		mov	r4, r0
 4752 0004 0022     		movs	r2, #0
 4753 0006 0068     		ldr	r0, [r0]
 4754 0008 FFF7FEFF 		bl	TIM_CCxChannelCmd
 4755 000c 41F21112 		movw	r2, #4369
 4756 0010 2368     		ldr	r3, [r4]
 4757 0012 196A     		ldr	r1, [r3, #32]
 4758 0014 1142     		tst	r1, r2
 4759 0016 08D1     		bne	.L726
ARM GAS  /tmp/ccqL1RRp.s 			page 81


 4760 0018 40F24442 		movw	r2, #1092
 4761 001c 196A     		ldr	r1, [r3, #32]
 4762 001e 1142     		tst	r1, r2
 4763 0020 02BF     		ittt	eq
 4764 0022 1A68     		ldreq	r2, [r3]
 4765 0024 22F00102 		biceq	r2, r2, #1
 4766 0028 1A60     		streq	r2, [r3]
 4767              	.L726:
 4768 002a 0020     		movs	r0, #0
 4769 002c 10BD     		pop	{r4, pc}
 4771              		.section	.text.HAL_TIM_IC_Start_IT,"ax",%progbits
 4772              		.align	1
 4773              		.global	HAL_TIM_IC_Start_IT
 4774              		.syntax unified
 4775              		.thumb
 4776              		.thumb_func
 4777              		.fpu softvfp
 4779              	HAL_TIM_IC_Start_IT:
 4780              		@ args = 0, pretend = 0, frame = 0
 4781              		@ frame_needed = 0, uses_anonymous_args = 0
 4782 0000 10B5     		push	{r4, lr}
 4783 0002 0446     		mov	r4, r0
 4784 0004 0C29     		cmp	r1, #12
 4785 0006 0DD8     		bhi	.L728
 4786 0008 DFE801F0 		tbb	[pc, r1]
 4787              	.L730:
 4788 000c 07       		.byte	(.L729-.L730)/2
 4789 000d 0C       		.byte	(.L728-.L730)/2
 4790 000e 0C       		.byte	(.L728-.L730)/2
 4791 000f 0C       		.byte	(.L728-.L730)/2
 4792 0010 1C       		.byte	(.L731-.L730)/2
 4793 0011 0C       		.byte	(.L728-.L730)/2
 4794 0012 0C       		.byte	(.L728-.L730)/2
 4795 0013 0C       		.byte	(.L728-.L730)/2
 4796 0014 21       		.byte	(.L732-.L730)/2
 4797 0015 0C       		.byte	(.L728-.L730)/2
 4798 0016 0C       		.byte	(.L728-.L730)/2
 4799 0017 0C       		.byte	(.L728-.L730)/2
 4800 0018 26       		.byte	(.L733-.L730)/2
 4801 0019 00       		.p2align 1
 4802              	.L729:
 4803 001a 0268     		ldr	r2, [r0]
 4804 001c D368     		ldr	r3, [r2, #12]
 4805 001e 43F00203 		orr	r3, r3, #2
 4806              	.L738:
 4807 0022 D360     		str	r3, [r2, #12]
 4808              	.L728:
 4809 0024 2068     		ldr	r0, [r4]
 4810 0026 0122     		movs	r2, #1
 4811 0028 FFF7FEFF 		bl	TIM_CCxChannelCmd
 4812 002c 2368     		ldr	r3, [r4]
 4813 002e 0020     		movs	r0, #0
 4814 0030 9A68     		ldr	r2, [r3, #8]
 4815 0032 02F00702 		and	r2, r2, #7
 4816 0036 062A     		cmp	r2, #6
 4817 0038 1EBF     		ittt	ne
 4818 003a 1A68     		ldrne	r2, [r3]
ARM GAS  /tmp/ccqL1RRp.s 			page 82


 4819 003c 42F00102 		orrne	r2, r2, #1
 4820 0040 1A60     		strne	r2, [r3]
 4821 0042 10BD     		pop	{r4, pc}
 4822              	.L731:
 4823 0044 0268     		ldr	r2, [r0]
 4824 0046 D368     		ldr	r3, [r2, #12]
 4825 0048 43F00403 		orr	r3, r3, #4
 4826 004c E9E7     		b	.L738
 4827              	.L732:
 4828 004e 0268     		ldr	r2, [r0]
 4829 0050 D368     		ldr	r3, [r2, #12]
 4830 0052 43F00803 		orr	r3, r3, #8
 4831 0056 E4E7     		b	.L738
 4832              	.L733:
 4833 0058 0268     		ldr	r2, [r0]
 4834 005a D368     		ldr	r3, [r2, #12]
 4835 005c 43F01003 		orr	r3, r3, #16
 4836 0060 DFE7     		b	.L738
 4838              		.section	.text.HAL_TIM_IC_Stop_IT,"ax",%progbits
 4839              		.align	1
 4840              		.global	HAL_TIM_IC_Stop_IT
 4841              		.syntax unified
 4842              		.thumb
 4843              		.thumb_func
 4844              		.fpu softvfp
 4846              	HAL_TIM_IC_Stop_IT:
 4847              		@ args = 0, pretend = 0, frame = 0
 4848              		@ frame_needed = 0, uses_anonymous_args = 0
 4849 0000 10B5     		push	{r4, lr}
 4850 0002 0446     		mov	r4, r0
 4851 0004 0C29     		cmp	r1, #12
 4852 0006 0DD8     		bhi	.L740
 4853 0008 DFE801F0 		tbb	[pc, r1]
 4854              	.L742:
 4855 000c 07       		.byte	(.L741-.L742)/2
 4856 000d 0C       		.byte	(.L740-.L742)/2
 4857 000e 0C       		.byte	(.L740-.L742)/2
 4858 000f 0C       		.byte	(.L740-.L742)/2
 4859 0010 21       		.byte	(.L743-.L742)/2
 4860 0011 0C       		.byte	(.L740-.L742)/2
 4861 0012 0C       		.byte	(.L740-.L742)/2
 4862 0013 0C       		.byte	(.L740-.L742)/2
 4863 0014 26       		.byte	(.L744-.L742)/2
 4864 0015 0C       		.byte	(.L740-.L742)/2
 4865 0016 0C       		.byte	(.L740-.L742)/2
 4866 0017 0C       		.byte	(.L740-.L742)/2
 4867 0018 2B       		.byte	(.L745-.L742)/2
 4868 0019 00       		.p2align 1
 4869              	.L741:
 4870 001a 0268     		ldr	r2, [r0]
 4871 001c D368     		ldr	r3, [r2, #12]
 4872 001e 23F00203 		bic	r3, r3, #2
 4873              	.L747:
 4874 0022 D360     		str	r3, [r2, #12]
 4875              	.L740:
 4876 0024 0022     		movs	r2, #0
 4877 0026 2068     		ldr	r0, [r4]
ARM GAS  /tmp/ccqL1RRp.s 			page 83


 4878 0028 FFF7FEFF 		bl	TIM_CCxChannelCmd
 4879 002c 41F21112 		movw	r2, #4369
 4880 0030 2368     		ldr	r3, [r4]
 4881 0032 196A     		ldr	r1, [r3, #32]
 4882 0034 1142     		tst	r1, r2
 4883 0036 08D1     		bne	.L746
 4884 0038 40F24442 		movw	r2, #1092
 4885 003c 196A     		ldr	r1, [r3, #32]
 4886 003e 1142     		tst	r1, r2
 4887 0040 02BF     		ittt	eq
 4888 0042 1A68     		ldreq	r2, [r3]
 4889 0044 22F00102 		biceq	r2, r2, #1
 4890 0048 1A60     		streq	r2, [r3]
 4891              	.L746:
 4892 004a 0020     		movs	r0, #0
 4893 004c 10BD     		pop	{r4, pc}
 4894              	.L743:
 4895 004e 0268     		ldr	r2, [r0]
 4896 0050 D368     		ldr	r3, [r2, #12]
 4897 0052 23F00403 		bic	r3, r3, #4
 4898 0056 E4E7     		b	.L747
 4899              	.L744:
 4900 0058 0268     		ldr	r2, [r0]
 4901 005a D368     		ldr	r3, [r2, #12]
 4902 005c 23F00803 		bic	r3, r3, #8
 4903 0060 DFE7     		b	.L747
 4904              	.L745:
 4905 0062 0268     		ldr	r2, [r0]
 4906 0064 D368     		ldr	r3, [r2, #12]
 4907 0066 23F01003 		bic	r3, r3, #16
 4908 006a DAE7     		b	.L747
 4910              		.section	.text.HAL_TIM_IC_Start_DMA,"ax",%progbits
 4911              		.align	1
 4912              		.global	HAL_TIM_IC_Start_DMA
 4913              		.syntax unified
 4914              		.thumb
 4915              		.thumb_func
 4916              		.fpu softvfp
 4918              	HAL_TIM_IC_Start_DMA:
 4919              		@ args = 0, pretend = 0, frame = 0
 4920              		@ frame_needed = 0, uses_anonymous_args = 0
 4921 0000 38B5     		push	{r3, r4, r5, lr}
 4922 0002 0446     		mov	r4, r0
 4923 0004 90F83D00 		ldrb	r0, [r0, #61]	@ zero_extendqisi2
 4924 0008 0D46     		mov	r5, r1
 4925 000a C0B2     		uxtb	r0, r0
 4926 000c 0228     		cmp	r0, #2
 4927 000e 37D0     		beq	.L749
 4928 0010 94F83D10 		ldrb	r1, [r4, #61]	@ zero_extendqisi2
 4929 0014 0129     		cmp	r1, #1
 4930 0016 06D1     		bne	.L750
 4931 0018 12B9     		cbnz	r2, .L751
 4932 001a 0BB1     		cbz	r3, .L751
 4933              	.L758:
 4934 001c 0120     		movs	r0, #1
 4935 001e 38BD     		pop	{r3, r4, r5, pc}
 4936              	.L751:
ARM GAS  /tmp/ccqL1RRp.s 			page 84


 4937 0020 0221     		movs	r1, #2
 4938 0022 84F83D10 		strb	r1, [r4, #61]
 4939              	.L750:
 4940 0026 0C2D     		cmp	r5, #12
 4941 0028 1AD8     		bhi	.L752
 4942 002a DFE805F0 		tbb	[pc, r5]
 4943              	.L754:
 4944 002e 07       		.byte	(.L753-.L754)/2
 4945 002f 19       		.byte	(.L752-.L754)/2
 4946 0030 19       		.byte	(.L752-.L754)/2
 4947 0031 19       		.byte	(.L752-.L754)/2
 4948 0032 2A       		.byte	(.L755-.L754)/2
 4949 0033 19       		.byte	(.L752-.L754)/2
 4950 0034 19       		.byte	(.L752-.L754)/2
 4951 0035 19       		.byte	(.L752-.L754)/2
 4952 0036 3C       		.byte	(.L756-.L754)/2
 4953 0037 19       		.byte	(.L752-.L754)/2
 4954 0038 19       		.byte	(.L752-.L754)/2
 4955 0039 19       		.byte	(.L752-.L754)/2
 4956 003a 4E       		.byte	(.L757-.L754)/2
 4957 003b 00       		.p2align 1
 4958              	.L753:
 4959 003c 606A     		ldr	r0, [r4, #36]
 4960 003e 2C49     		ldr	r1, .L765
 4961 0040 8162     		str	r1, [r0, #40]
 4962 0042 2C49     		ldr	r1, .L765+4
 4963 0044 C162     		str	r1, [r0, #44]
 4964 0046 2C49     		ldr	r1, .L765+8
 4965 0048 0163     		str	r1, [r0, #48]
 4966 004a 2168     		ldr	r1, [r4]
 4967 004c 3431     		adds	r1, r1, #52
 4968 004e FFF7FEFF 		bl	HAL_DMA_Start_IT
 4969 0052 0028     		cmp	r0, #0
 4970 0054 E2D1     		bne	.L758
 4971 0056 2268     		ldr	r2, [r4]
 4972 0058 D368     		ldr	r3, [r2, #12]
 4973 005a 43F40073 		orr	r3, r3, #512
 4974              	.L764:
 4975 005e D360     		str	r3, [r2, #12]
 4976              	.L752:
 4977 0060 0122     		movs	r2, #1
 4978 0062 2068     		ldr	r0, [r4]
 4979 0064 2946     		mov	r1, r5
 4980 0066 FFF7FEFF 		bl	TIM_CCxChannelCmd
 4981 006a 0020     		movs	r0, #0
 4982 006c 2368     		ldr	r3, [r4]
 4983 006e 9A68     		ldr	r2, [r3, #8]
 4984 0070 02F00702 		and	r2, r2, #7
 4985 0074 062A     		cmp	r2, #6
 4986 0076 1EBF     		ittt	ne
 4987 0078 1A68     		ldrne	r2, [r3]
 4988 007a 42F00102 		orrne	r2, r2, #1
 4989 007e 1A60     		strne	r2, [r3]
 4990              	.L749:
 4991 0080 38BD     		pop	{r3, r4, r5, pc}
 4992              	.L755:
 4993 0082 A06A     		ldr	r0, [r4, #40]
ARM GAS  /tmp/ccqL1RRp.s 			page 85


 4994 0084 1A49     		ldr	r1, .L765
 4995 0086 8162     		str	r1, [r0, #40]
 4996 0088 1A49     		ldr	r1, .L765+4
 4997 008a C162     		str	r1, [r0, #44]
 4998 008c 1A49     		ldr	r1, .L765+8
 4999 008e 0163     		str	r1, [r0, #48]
 5000 0090 2168     		ldr	r1, [r4]
 5001 0092 3831     		adds	r1, r1, #56
 5002 0094 FFF7FEFF 		bl	HAL_DMA_Start_IT
 5003 0098 0028     		cmp	r0, #0
 5004 009a BFD1     		bne	.L758
 5005 009c 2268     		ldr	r2, [r4]
 5006 009e D368     		ldr	r3, [r2, #12]
 5007 00a0 43F48063 		orr	r3, r3, #1024
 5008 00a4 DBE7     		b	.L764
 5009              	.L756:
 5010 00a6 E06A     		ldr	r0, [r4, #44]
 5011 00a8 1149     		ldr	r1, .L765
 5012 00aa 8162     		str	r1, [r0, #40]
 5013 00ac 1149     		ldr	r1, .L765+4
 5014 00ae C162     		str	r1, [r0, #44]
 5015 00b0 1149     		ldr	r1, .L765+8
 5016 00b2 0163     		str	r1, [r0, #48]
 5017 00b4 2168     		ldr	r1, [r4]
 5018 00b6 3C31     		adds	r1, r1, #60
 5019 00b8 FFF7FEFF 		bl	HAL_DMA_Start_IT
 5020 00bc 0028     		cmp	r0, #0
 5021 00be ADD1     		bne	.L758
 5022 00c0 2268     		ldr	r2, [r4]
 5023 00c2 D368     		ldr	r3, [r2, #12]
 5024 00c4 43F40063 		orr	r3, r3, #2048
 5025 00c8 C9E7     		b	.L764
 5026              	.L757:
 5027 00ca 206B     		ldr	r0, [r4, #48]
 5028 00cc 0849     		ldr	r1, .L765
 5029 00ce 8162     		str	r1, [r0, #40]
 5030 00d0 0849     		ldr	r1, .L765+4
 5031 00d2 C162     		str	r1, [r0, #44]
 5032 00d4 0849     		ldr	r1, .L765+8
 5033 00d6 0163     		str	r1, [r0, #48]
 5034 00d8 2168     		ldr	r1, [r4]
 5035 00da 4031     		adds	r1, r1, #64
 5036 00dc FFF7FEFF 		bl	HAL_DMA_Start_IT
 5037 00e0 0028     		cmp	r0, #0
 5038 00e2 9BD1     		bne	.L758
 5039 00e4 2268     		ldr	r2, [r4]
 5040 00e6 D368     		ldr	r3, [r2, #12]
 5041 00e8 43F48053 		orr	r3, r3, #4096
 5042 00ec B7E7     		b	.L764
 5043              	.L766:
 5044 00ee 00BF     		.align	2
 5045              	.L765:
 5046 00f0 00000000 		.word	TIM_DMACaptureCplt
 5047 00f4 00000000 		.word	TIM_DMACaptureHalfCplt
 5048 00f8 00000000 		.word	TIM_DMAError
 5050              		.section	.text.HAL_TIM_IC_Stop_DMA,"ax",%progbits
 5051              		.align	1
ARM GAS  /tmp/ccqL1RRp.s 			page 86


 5052              		.global	HAL_TIM_IC_Stop_DMA
 5053              		.syntax unified
 5054              		.thumb
 5055              		.thumb_func
 5056              		.fpu softvfp
 5058              	HAL_TIM_IC_Stop_DMA:
 5059              		@ args = 0, pretend = 0, frame = 0
 5060              		@ frame_needed = 0, uses_anonymous_args = 0
 5061 0000 38B5     		push	{r3, r4, r5, lr}
 5062 0002 0446     		mov	r4, r0
 5063 0004 0D46     		mov	r5, r1
 5064 0006 0C29     		cmp	r1, #12
 5065 0008 10D8     		bhi	.L768
 5066 000a DFE801F0 		tbb	[pc, r1]
 5067              	.L770:
 5068 000e 07       		.byte	(.L769-.L770)/2
 5069 000f 0F       		.byte	(.L768-.L770)/2
 5070 0010 0F       		.byte	(.L768-.L770)/2
 5071 0011 0F       		.byte	(.L768-.L770)/2
 5072 0012 28       		.byte	(.L771-.L770)/2
 5073 0013 0F       		.byte	(.L768-.L770)/2
 5074 0014 0F       		.byte	(.L768-.L770)/2
 5075 0015 0F       		.byte	(.L768-.L770)/2
 5076 0016 2F       		.byte	(.L772-.L770)/2
 5077 0017 0F       		.byte	(.L768-.L770)/2
 5078 0018 0F       		.byte	(.L768-.L770)/2
 5079 0019 0F       		.byte	(.L768-.L770)/2
 5080 001a 36       		.byte	(.L773-.L770)/2
 5081 001b 00       		.p2align 1
 5082              	.L769:
 5083 001c 0268     		ldr	r2, [r0]
 5084 001e 406A     		ldr	r0, [r0, #36]
 5085 0020 D368     		ldr	r3, [r2, #12]
 5086 0022 23F40073 		bic	r3, r3, #512
 5087 0026 D360     		str	r3, [r2, #12]
 5088              	.L775:
 5089 0028 FFF7FEFF 		bl	HAL_DMA_Abort_IT
 5090              	.L768:
 5091 002c 0022     		movs	r2, #0
 5092 002e 2946     		mov	r1, r5
 5093 0030 2068     		ldr	r0, [r4]
 5094 0032 FFF7FEFF 		bl	TIM_CCxChannelCmd
 5095 0036 41F21112 		movw	r2, #4369
 5096 003a 2368     		ldr	r3, [r4]
 5097 003c 196A     		ldr	r1, [r3, #32]
 5098 003e 1142     		tst	r1, r2
 5099 0040 08D1     		bne	.L774
 5100 0042 40F24442 		movw	r2, #1092
 5101 0046 196A     		ldr	r1, [r3, #32]
 5102 0048 1142     		tst	r1, r2
 5103 004a 02BF     		ittt	eq
 5104 004c 1A68     		ldreq	r2, [r3]
 5105 004e 22F00102 		biceq	r2, r2, #1
 5106 0052 1A60     		streq	r2, [r3]
 5107              	.L774:
 5108 0054 0123     		movs	r3, #1
 5109 0056 0020     		movs	r0, #0
ARM GAS  /tmp/ccqL1RRp.s 			page 87


 5110 0058 84F83D30 		strb	r3, [r4, #61]
 5111 005c 38BD     		pop	{r3, r4, r5, pc}
 5112              	.L771:
 5113 005e 0268     		ldr	r2, [r0]
 5114 0060 806A     		ldr	r0, [r0, #40]
 5115 0062 D368     		ldr	r3, [r2, #12]
 5116 0064 23F48063 		bic	r3, r3, #1024
 5117 0068 D360     		str	r3, [r2, #12]
 5118 006a DDE7     		b	.L775
 5119              	.L772:
 5120 006c 0268     		ldr	r2, [r0]
 5121 006e C06A     		ldr	r0, [r0, #44]
 5122 0070 D368     		ldr	r3, [r2, #12]
 5123 0072 23F40063 		bic	r3, r3, #2048
 5124 0076 D360     		str	r3, [r2, #12]
 5125 0078 D6E7     		b	.L775
 5126              	.L773:
 5127 007a 0268     		ldr	r2, [r0]
 5128 007c 006B     		ldr	r0, [r0, #48]
 5129 007e D368     		ldr	r3, [r2, #12]
 5130 0080 23F48053 		bic	r3, r3, #4096
 5131 0084 D360     		str	r3, [r2, #12]
 5132 0086 CFE7     		b	.L775
 5134              		.section	.text.TIM_ResetCallback,"ax",%progbits
 5135              		.align	1
 5136              		.global	TIM_ResetCallback
 5137              		.syntax unified
 5138              		.thumb
 5139              		.thumb_func
 5140              		.fpu softvfp
 5142              	TIM_ResetCallback:
 5143              		@ args = 0, pretend = 0, frame = 0
 5144              		@ frame_needed = 0, uses_anonymous_args = 0
 5145              		@ link register save eliminated.
 5146 0000 124B     		ldr	r3, .L777
 5147 0002 8367     		str	r3, [r0, #120]
 5148 0004 124B     		ldr	r3, .L777+4
 5149 0006 C367     		str	r3, [r0, #124]
 5150 0008 124B     		ldr	r3, .L777+8
 5151 000a C0F88030 		str	r3, [r0, #128]
 5152 000e 124B     		ldr	r3, .L777+12
 5153 0010 C0F88430 		str	r3, [r0, #132]
 5154 0014 114B     		ldr	r3, .L777+16
 5155 0016 C0F88830 		str	r3, [r0, #136]
 5156 001a 114B     		ldr	r3, .L777+20
 5157 001c C0F88C30 		str	r3, [r0, #140]
 5158 0020 104B     		ldr	r3, .L777+24
 5159 0022 C0F89030 		str	r3, [r0, #144]
 5160 0026 104B     		ldr	r3, .L777+28
 5161 0028 C0F89430 		str	r3, [r0, #148]
 5162 002c 0F4B     		ldr	r3, .L777+32
 5163 002e C0F89830 		str	r3, [r0, #152]
 5164 0032 0F4B     		ldr	r3, .L777+36
 5165 0034 C0F89C30 		str	r3, [r0, #156]
 5166 0038 0E4B     		ldr	r3, .L777+40
 5167 003a C0F8A030 		str	r3, [r0, #160]
 5168 003e 0E4B     		ldr	r3, .L777+44
ARM GAS  /tmp/ccqL1RRp.s 			page 88


 5169 0040 C0F8A430 		str	r3, [r0, #164]
 5170 0044 0D4B     		ldr	r3, .L777+48
 5171 0046 C0F8A830 		str	r3, [r0, #168]
 5172 004a 7047     		bx	lr
 5173              	.L778:
 5174              		.align	2
 5175              	.L777:
 5176 004c 00000000 		.word	HAL_TIM_PeriodElapsedCallback
 5177 0050 00000000 		.word	HAL_TIM_PeriodElapsedHalfCpltCallback
 5178 0054 00000000 		.word	HAL_TIM_TriggerCallback
 5179 0058 00000000 		.word	HAL_TIM_TriggerHalfCpltCallback
 5180 005c 00000000 		.word	HAL_TIM_IC_CaptureCallback
 5181 0060 00000000 		.word	HAL_TIM_IC_CaptureHalfCpltCallback
 5182 0064 00000000 		.word	HAL_TIM_OC_DelayElapsedCallback
 5183 0068 00000000 		.word	HAL_TIM_PWM_PulseFinishedCallback
 5184 006c 00000000 		.word	HAL_TIM_PWM_PulseFinishedHalfCpltCallback
 5185 0070 00000000 		.word	HAL_TIM_ErrorCallback
 5186 0074 00000000 		.word	HAL_TIMEx_CommutCallback
 5187 0078 00000000 		.word	HAL_TIMEx_CommutHalfCpltCallback
 5188 007c 00000000 		.word	HAL_TIMEx_BreakCallback
 5190              		.section	.text.HAL_TIM_Base_Init,"ax",%progbits
 5191              		.align	1
 5192              		.global	HAL_TIM_Base_Init
 5193              		.syntax unified
 5194              		.thumb
 5195              		.thumb_func
 5196              		.fpu softvfp
 5198              	HAL_TIM_Base_Init:
 5199              		@ args = 0, pretend = 0, frame = 0
 5200              		@ frame_needed = 0, uses_anonymous_args = 0
 5201 0000 10B5     		push	{r4, lr}
 5202 0002 0446     		mov	r4, r0
 5203 0004 D8B1     		cbz	r0, .L783
 5204 0006 90F83D30 		ldrb	r3, [r0, #61]	@ zero_extendqisi2
 5205 000a 03F0FF02 		and	r2, r3, #255
 5206 000e 53B9     		cbnz	r3, .L781
 5207 0010 80F83C20 		strb	r2, [r0, #60]
 5208 0014 FFF7FEFF 		bl	TIM_ResetCallback
 5209 0018 036C     		ldr	r3, [r0, #64]
 5210 001a 0BB9     		cbnz	r3, .L782
 5211 001c 094B     		ldr	r3, .L784
 5212 001e 0364     		str	r3, [r0, #64]
 5213              	.L782:
 5214 0020 236C     		ldr	r3, [r4, #64]
 5215 0022 2046     		mov	r0, r4
 5216 0024 9847     		blx	r3
 5217              	.L781:
 5218 0026 0223     		movs	r3, #2
 5219 0028 2068     		ldr	r0, [r4]
 5220 002a 84F83D30 		strb	r3, [r4, #61]
 5221 002e 211D     		adds	r1, r4, #4
 5222 0030 FFF7FEFF 		bl	TIM_Base_SetConfig
 5223 0034 0123     		movs	r3, #1
 5224 0036 0020     		movs	r0, #0
 5225 0038 84F83D30 		strb	r3, [r4, #61]
 5226 003c 10BD     		pop	{r4, pc}
 5227              	.L783:
ARM GAS  /tmp/ccqL1RRp.s 			page 89


 5228 003e 0120     		movs	r0, #1
 5229 0040 10BD     		pop	{r4, pc}
 5230              	.L785:
 5231 0042 00BF     		.align	2
 5232              	.L784:
 5233 0044 00000000 		.word	HAL_TIM_Base_MspInit
 5235              		.section	.text.HAL_TIM_OC_Init,"ax",%progbits
 5236              		.align	1
 5237              		.global	HAL_TIM_OC_Init
 5238              		.syntax unified
 5239              		.thumb
 5240              		.thumb_func
 5241              		.fpu softvfp
 5243              	HAL_TIM_OC_Init:
 5244              		@ args = 0, pretend = 0, frame = 0
 5245              		@ frame_needed = 0, uses_anonymous_args = 0
 5246 0000 10B5     		push	{r4, lr}
 5247 0002 0446     		mov	r4, r0
 5248 0004 D8B1     		cbz	r0, .L790
 5249 0006 90F83D30 		ldrb	r3, [r0, #61]	@ zero_extendqisi2
 5250 000a 03F0FF02 		and	r2, r3, #255
 5251 000e 53B9     		cbnz	r3, .L788
 5252 0010 80F83C20 		strb	r2, [r0, #60]
 5253 0014 FFF7FEFF 		bl	TIM_ResetCallback
 5254 0018 036D     		ldr	r3, [r0, #80]
 5255 001a 0BB9     		cbnz	r3, .L789
 5256 001c 094B     		ldr	r3, .L791
 5257 001e 0365     		str	r3, [r0, #80]
 5258              	.L789:
 5259 0020 236D     		ldr	r3, [r4, #80]
 5260 0022 2046     		mov	r0, r4
 5261 0024 9847     		blx	r3
 5262              	.L788:
 5263 0026 0223     		movs	r3, #2
 5264 0028 2068     		ldr	r0, [r4]
 5265 002a 84F83D30 		strb	r3, [r4, #61]
 5266 002e 211D     		adds	r1, r4, #4
 5267 0030 FFF7FEFF 		bl	TIM_Base_SetConfig
 5268 0034 0123     		movs	r3, #1
 5269 0036 0020     		movs	r0, #0
 5270 0038 84F83D30 		strb	r3, [r4, #61]
 5271 003c 10BD     		pop	{r4, pc}
 5272              	.L790:
 5273 003e 0120     		movs	r0, #1
 5274 0040 10BD     		pop	{r4, pc}
 5275              	.L792:
 5276 0042 00BF     		.align	2
 5277              	.L791:
 5278 0044 00000000 		.word	HAL_TIM_OC_MspInit
 5280              		.section	.text.HAL_TIM_PWM_Init,"ax",%progbits
 5281              		.align	1
 5282              		.global	HAL_TIM_PWM_Init
 5283              		.syntax unified
 5284              		.thumb
 5285              		.thumb_func
 5286              		.fpu softvfp
 5288              	HAL_TIM_PWM_Init:
ARM GAS  /tmp/ccqL1RRp.s 			page 90


 5289              		@ args = 0, pretend = 0, frame = 0
 5290              		@ frame_needed = 0, uses_anonymous_args = 0
 5291 0000 10B5     		push	{r4, lr}
 5292 0002 0446     		mov	r4, r0
 5293 0004 D8B1     		cbz	r0, .L797
 5294 0006 90F83D30 		ldrb	r3, [r0, #61]	@ zero_extendqisi2
 5295 000a 03F0FF02 		and	r2, r3, #255
 5296 000e 53B9     		cbnz	r3, .L795
 5297 0010 80F83C20 		strb	r2, [r0, #60]
 5298 0014 FFF7FEFF 		bl	TIM_ResetCallback
 5299 0018 836D     		ldr	r3, [r0, #88]
 5300 001a 0BB9     		cbnz	r3, .L796
 5301 001c 094B     		ldr	r3, .L798
 5302 001e 8365     		str	r3, [r0, #88]
 5303              	.L796:
 5304 0020 A36D     		ldr	r3, [r4, #88]
 5305 0022 2046     		mov	r0, r4
 5306 0024 9847     		blx	r3
 5307              	.L795:
 5308 0026 0223     		movs	r3, #2
 5309 0028 2068     		ldr	r0, [r4]
 5310 002a 84F83D30 		strb	r3, [r4, #61]
 5311 002e 211D     		adds	r1, r4, #4
 5312 0030 FFF7FEFF 		bl	TIM_Base_SetConfig
 5313 0034 0123     		movs	r3, #1
 5314 0036 0020     		movs	r0, #0
 5315 0038 84F83D30 		strb	r3, [r4, #61]
 5316 003c 10BD     		pop	{r4, pc}
 5317              	.L797:
 5318 003e 0120     		movs	r0, #1
 5319 0040 10BD     		pop	{r4, pc}
 5320              	.L799:
 5321 0042 00BF     		.align	2
 5322              	.L798:
 5323 0044 00000000 		.word	HAL_TIM_PWM_MspInit
 5325              		.section	.text.HAL_TIM_IC_Init,"ax",%progbits
 5326              		.align	1
 5327              		.global	HAL_TIM_IC_Init
 5328              		.syntax unified
 5329              		.thumb
 5330              		.thumb_func
 5331              		.fpu softvfp
 5333              	HAL_TIM_IC_Init:
 5334              		@ args = 0, pretend = 0, frame = 0
 5335              		@ frame_needed = 0, uses_anonymous_args = 0
 5336 0000 10B5     		push	{r4, lr}
 5337 0002 0446     		mov	r4, r0
 5338 0004 D8B1     		cbz	r0, .L804
 5339 0006 90F83D30 		ldrb	r3, [r0, #61]	@ zero_extendqisi2
 5340 000a 03F0FF02 		and	r2, r3, #255
 5341 000e 53B9     		cbnz	r3, .L802
 5342 0010 80F83C20 		strb	r2, [r0, #60]
 5343 0014 FFF7FEFF 		bl	TIM_ResetCallback
 5344 0018 836C     		ldr	r3, [r0, #72]
 5345 001a 0BB9     		cbnz	r3, .L803
 5346 001c 094B     		ldr	r3, .L805
 5347 001e 8364     		str	r3, [r0, #72]
ARM GAS  /tmp/ccqL1RRp.s 			page 91


 5348              	.L803:
 5349 0020 A36C     		ldr	r3, [r4, #72]
 5350 0022 2046     		mov	r0, r4
 5351 0024 9847     		blx	r3
 5352              	.L802:
 5353 0026 0223     		movs	r3, #2
 5354 0028 2068     		ldr	r0, [r4]
 5355 002a 84F83D30 		strb	r3, [r4, #61]
 5356 002e 211D     		adds	r1, r4, #4
 5357 0030 FFF7FEFF 		bl	TIM_Base_SetConfig
 5358 0034 0123     		movs	r3, #1
 5359 0036 0020     		movs	r0, #0
 5360 0038 84F83D30 		strb	r3, [r4, #61]
 5361 003c 10BD     		pop	{r4, pc}
 5362              	.L804:
 5363 003e 0120     		movs	r0, #1
 5364 0040 10BD     		pop	{r4, pc}
 5365              	.L806:
 5366 0042 00BF     		.align	2
 5367              	.L805:
 5368 0044 00000000 		.word	HAL_TIM_IC_MspInit
 5370              		.section	.text.HAL_TIM_OnePulse_Init,"ax",%progbits
 5371              		.align	1
 5372              		.global	HAL_TIM_OnePulse_Init
 5373              		.syntax unified
 5374              		.thumb
 5375              		.thumb_func
 5376              		.fpu softvfp
 5378              	HAL_TIM_OnePulse_Init:
 5379              		@ args = 0, pretend = 0, frame = 0
 5380              		@ frame_needed = 0, uses_anonymous_args = 0
 5381 0000 38B5     		push	{r3, r4, r5, lr}
 5382 0002 0D46     		mov	r5, r1
 5383 0004 0446     		mov	r4, r0
 5384 0006 18B3     		cbz	r0, .L811
 5385 0008 90F83D30 		ldrb	r3, [r0, #61]	@ zero_extendqisi2
 5386 000c 03F0FF02 		and	r2, r3, #255
 5387 0010 53B9     		cbnz	r3, .L809
 5388 0012 80F83C20 		strb	r2, [r0, #60]
 5389 0016 FFF7FEFF 		bl	TIM_ResetCallback
 5390 001a 036E     		ldr	r3, [r0, #96]
 5391 001c 0BB9     		cbnz	r3, .L810
 5392 001e 0D4B     		ldr	r3, .L812
 5393 0020 0366     		str	r3, [r0, #96]
 5394              	.L810:
 5395 0022 236E     		ldr	r3, [r4, #96]
 5396 0024 2046     		mov	r0, r4
 5397 0026 9847     		blx	r3
 5398              	.L809:
 5399 0028 0223     		movs	r3, #2
 5400 002a 211D     		adds	r1, r4, #4
 5401 002c 84F83D30 		strb	r3, [r4, #61]
 5402 0030 2068     		ldr	r0, [r4]
 5403 0032 FFF7FEFF 		bl	TIM_Base_SetConfig
 5404 0036 2368     		ldr	r3, [r4]
 5405 0038 0020     		movs	r0, #0
 5406 003a 1A68     		ldr	r2, [r3]
ARM GAS  /tmp/ccqL1RRp.s 			page 92


 5407 003c 22F00802 		bic	r2, r2, #8
 5408 0040 1A60     		str	r2, [r3]
 5409 0042 1968     		ldr	r1, [r3]
 5410 0044 2943     		orrs	r1, r1, r5
 5411 0046 1960     		str	r1, [r3]
 5412 0048 0123     		movs	r3, #1
 5413 004a 84F83D30 		strb	r3, [r4, #61]
 5414 004e 38BD     		pop	{r3, r4, r5, pc}
 5415              	.L811:
 5416 0050 0120     		movs	r0, #1
 5417 0052 38BD     		pop	{r3, r4, r5, pc}
 5418              	.L813:
 5419              		.align	2
 5420              	.L812:
 5421 0054 00000000 		.word	HAL_TIM_OnePulse_MspInit
 5423              		.section	.text.HAL_TIM_Encoder_Init,"ax",%progbits
 5424              		.align	1
 5425              		.global	HAL_TIM_Encoder_Init
 5426              		.syntax unified
 5427              		.thumb
 5428              		.thumb_func
 5429              		.fpu softvfp
 5431              	HAL_TIM_Encoder_Init:
 5432              		@ args = 0, pretend = 0, frame = 0
 5433              		@ frame_needed = 0, uses_anonymous_args = 0
 5434 0000 F8B5     		push	{r3, r4, r5, r6, r7, lr}
 5435 0002 0D46     		mov	r5, r1
 5436 0004 0446     		mov	r4, r0
 5437 0006 0028     		cmp	r0, #0
 5438 0008 4AD0     		beq	.L818
 5439 000a 90F83D30 		ldrb	r3, [r0, #61]	@ zero_extendqisi2
 5440 000e 03F0FF02 		and	r2, r3, #255
 5441 0012 53B9     		cbnz	r3, .L816
 5442 0014 80F83C20 		strb	r2, [r0, #60]
 5443 0018 FFF7FEFF 		bl	TIM_ResetCallback
 5444 001c 836E     		ldr	r3, [r0, #104]
 5445 001e 0BB9     		cbnz	r3, .L817
 5446 0020 204B     		ldr	r3, .L819
 5447 0022 8366     		str	r3, [r0, #104]
 5448              	.L817:
 5449 0024 A36E     		ldr	r3, [r4, #104]
 5450 0026 2046     		mov	r0, r4
 5451 0028 9847     		blx	r3
 5452              	.L816:
 5453 002a 2146     		mov	r1, r4
 5454 002c 0223     		movs	r3, #2
 5455 002e 51F8040B 		ldr	r0, [r1], #4
 5456 0032 84F83D30 		strb	r3, [r4, #61]
 5457 0036 8368     		ldr	r3, [r0, #8]
 5458 0038 23F48043 		bic	r3, r3, #16384
 5459 003c 23F00703 		bic	r3, r3, #7
 5460 0040 8360     		str	r3, [r0, #8]
 5461 0042 FFF7FEFF 		bl	TIM_Base_SetConfig
 5462 0046 2068     		ldr	r0, [r4]
 5463 0048 2B68     		ldr	r3, [r5]
 5464 004a 8668     		ldr	r6, [r0, #8]
 5465 004c 8269     		ldr	r2, [r0, #24]
ARM GAS  /tmp/ccqL1RRp.s 			page 93


 5466 004e A968     		ldr	r1, [r5, #8]
 5467 0050 1E43     		orrs	r6, r6, r3
 5468 0052 AB69     		ldr	r3, [r5, #24]
 5469 0054 22F44072 		bic	r2, r2, #768
 5470 0058 22F00302 		bic	r2, r2, #3
 5471 005c 41EA0323 		orr	r3, r1, r3, lsl #8
 5472 0060 1343     		orrs	r3, r3, r2
 5473 0062 23F47C42 		bic	r2, r3, #64512
 5474 0066 2B69     		ldr	r3, [r5, #16]
 5475 0068 E969     		ldr	r1, [r5, #28]
 5476 006a 1B01     		lsls	r3, r3, #4
 5477 006c 43EA0123 		orr	r3, r3, r1, lsl #8
 5478 0070 E968     		ldr	r1, [r5, #12]
 5479 0072 076A     		ldr	r7, [r0, #32]
 5480 0074 0B43     		orrs	r3, r3, r1
 5481 0076 296A     		ldr	r1, [r5, #32]
 5482 0078 22F0FC02 		bic	r2, r2, #252
 5483 007c 43EA0133 		orr	r3, r3, r1, lsl #12
 5484 0080 1343     		orrs	r3, r3, r2
 5485 0082 6969     		ldr	r1, [r5, #20]
 5486 0084 27F02202 		bic	r2, r7, #34
 5487 0088 6F68     		ldr	r7, [r5, #4]
 5488 008a 8660     		str	r6, [r0, #8]
 5489 008c 8361     		str	r3, [r0, #24]
 5490 008e 0123     		movs	r3, #1
 5491 0090 47EA0117 		orr	r7, r7, r1, lsl #4
 5492 0094 1743     		orrs	r7, r7, r2
 5493 0096 0762     		str	r7, [r0, #32]
 5494 0098 84F83D30 		strb	r3, [r4, #61]
 5495 009c 0020     		movs	r0, #0
 5496 009e F8BD     		pop	{r3, r4, r5, r6, r7, pc}
 5497              	.L818:
 5498 00a0 0120     		movs	r0, #1
 5499 00a2 F8BD     		pop	{r3, r4, r5, r6, r7, pc}
 5500              	.L820:
 5501              		.align	2
 5502              	.L819:
 5503 00a4 00000000 		.word	HAL_TIM_Encoder_MspInit
 5505              		.ident	"GCC: (15:6.3.1+svn253039-1build1) 6.3.1 20170620"
ARM GAS  /tmp/ccqL1RRp.s 			page 94

