ARM GAS  /tmp/cc6P5ZT4.s 			page 1


   1              		.cpu cortex-m3
   2              		.eabi_attribute 20, 1
   3              		.eabi_attribute 21, 1
   4              		.eabi_attribute 23, 3
   5              		.eabi_attribute 24, 1
   6              		.eabi_attribute 25, 1
   7              		.eabi_attribute 26, 1
   8              		.eabi_attribute 30, 4
   9              		.eabi_attribute 34, 1
  10              		.eabi_attribute 18, 4
  11              		.file	"stm32f1xx_hal_rtc_ex.c"
  12              		.text
  13              		.section	.text.HAL_RTCEx_SetTamper,"ax",%progbits
  14              		.align	1
  15              		.global	HAL_RTCEx_SetTamper
  16              		.arch armv7-m
  17              		.syntax unified
  18              		.thumb
  19              		.thumb_func
  20              		.fpu softvfp
  22              	HAL_RTCEx_SetTamper:
  23              		@ args = 0, pretend = 0, frame = 0
  24              		@ frame_needed = 0, uses_anonymous_args = 0
  25 0000 0246     		mov	r2, r0
  26 0002 70B5     		push	{r4, r5, r6, lr}
  27 0004 80B1     		cbz	r0, .L5
  28 0006 79B1     		cbz	r1, .L5
  29 0008 037C     		ldrb	r3, [r0, #16]	@ zero_extendqisi2
  30 000a 0220     		movs	r0, #2
  31 000c 012B     		cmp	r3, #1
  32 000e 17D0     		beq	.L2
  33 0010 0124     		movs	r4, #1
  34 0012 0C4D     		ldr	r5, .L7
  35 0014 1474     		strb	r4, [r2, #16]
  36 0016 5074     		strb	r0, [r2, #17]
  37 0018 E86A     		ldr	r0, [r5, #44]
  38 001a 10F4C070 		ands	r0, r0, #384
  39 001e 05D0     		beq	.L3
  40 0020 0423     		movs	r3, #4
  41 0022 5374     		strb	r3, [r2, #17]
  42 0024 0023     		movs	r3, #0
  43 0026 1374     		strb	r3, [r2, #16]
  44              	.L5:
  45 0028 0120     		movs	r0, #1
  46 002a 09E0     		b	.L2
  47              	.L3:
  48 002c 2E6B     		ldr	r6, [r5, #48]
  49 002e D1E90031 		ldrd	r3, r1, [r1]
  50 0032 0B43     		orrs	r3, r3, r1
  51 0034 26F00301 		bic	r1, r6, #3
  52 0038 0B43     		orrs	r3, r3, r1
  53 003a 2B63     		str	r3, [r5, #48]
  54 003c 5474     		strb	r4, [r2, #17]
  55 003e 1074     		strb	r0, [r2, #16]
  56              	.L2:
  57 0040 70BD     		pop	{r4, r5, r6, pc}
  58              	.L8:
ARM GAS  /tmp/cc6P5ZT4.s 			page 2


  59 0042 00BF     		.align	2
  60              	.L7:
  61 0044 006C0040 		.word	1073769472
  63              		.section	.text.HAL_RTCEx_SetTamper_IT,"ax",%progbits
  64              		.align	1
  65              		.global	HAL_RTCEx_SetTamper_IT
  66              		.syntax unified
  67              		.thumb
  68              		.thumb_func
  69              		.fpu softvfp
  71              	HAL_RTCEx_SetTamper_IT:
  72              		@ args = 0, pretend = 0, frame = 0
  73              		@ frame_needed = 0, uses_anonymous_args = 0
  74 0000 0246     		mov	r2, r0
  75 0002 70B5     		push	{r4, r5, r6, lr}
  76 0004 80B1     		cbz	r0, .L13
  77 0006 79B1     		cbz	r1, .L13
  78 0008 037C     		ldrb	r3, [r0, #16]	@ zero_extendqisi2
  79 000a 0220     		movs	r0, #2
  80 000c 012B     		cmp	r3, #1
  81 000e 1BD0     		beq	.L10
  82 0010 0125     		movs	r5, #1
  83 0012 0E4C     		ldr	r4, .L15
  84 0014 1574     		strb	r5, [r2, #16]
  85 0016 5074     		strb	r0, [r2, #17]
  86 0018 E06A     		ldr	r0, [r4, #44]
  87 001a 10F4C070 		ands	r0, r0, #384
  88 001e 05D0     		beq	.L11
  89 0020 0423     		movs	r3, #4
  90 0022 5374     		strb	r3, [r2, #17]
  91 0024 0023     		movs	r3, #0
  92 0026 1374     		strb	r3, [r2, #16]
  93              	.L13:
  94 0028 0120     		movs	r0, #1
  95 002a 0DE0     		b	.L10
  96              	.L11:
  97 002c 266B     		ldr	r6, [r4, #48]
  98 002e D1E90031 		ldrd	r3, r1, [r1]
  99 0032 0B43     		orrs	r3, r3, r1
 100 0034 26F00301 		bic	r1, r6, #3
 101 0038 0B43     		orrs	r3, r3, r1
 102 003a 2363     		str	r3, [r4, #48]
 103 003c 636B     		ldr	r3, [r4, #52]
 104 003e 43F00403 		orr	r3, r3, #4
 105 0042 6363     		str	r3, [r4, #52]
 106 0044 5574     		strb	r5, [r2, #17]
 107 0046 1074     		strb	r0, [r2, #16]
 108              	.L10:
 109 0048 70BD     		pop	{r4, r5, r6, pc}
 110              	.L16:
 111 004a 00BF     		.align	2
 112              	.L15:
 113 004c 006C0040 		.word	1073769472
 115              		.section	.text.HAL_RTCEx_DeactivateTamper,"ax",%progbits
 116              		.align	1
 117              		.global	HAL_RTCEx_DeactivateTamper
 118              		.syntax unified
ARM GAS  /tmp/cc6P5ZT4.s 			page 3


 119              		.thumb
 120              		.thumb_func
 121              		.fpu softvfp
 123              	HAL_RTCEx_DeactivateTamper:
 124              		@ args = 0, pretend = 0, frame = 0
 125              		@ frame_needed = 0, uses_anonymous_args = 0
 126              		@ link register save eliminated.
 127 0000 0246     		mov	r2, r0
 128 0002 D0B1     		cbz	r0, .L19
 129 0004 037C     		ldrb	r3, [r0, #16]	@ zero_extendqisi2
 130 0006 0220     		movs	r0, #2
 131 0008 012B     		cmp	r3, #1
 132 000a 17D0     		beq	.L18
 133 000c 0C4B     		ldr	r3, .L21
 134 000e 5074     		strb	r0, [r2, #17]
 135 0010 196B     		ldr	r1, [r3, #48]
 136 0012 0020     		movs	r0, #0
 137 0014 21F00101 		bic	r1, r1, #1
 138 0018 1963     		str	r1, [r3, #48]
 139 001a 596B     		ldr	r1, [r3, #52]
 140 001c 21F00401 		bic	r1, r1, #4
 141 0020 5963     		str	r1, [r3, #52]
 142 0022 596B     		ldr	r1, [r3, #52]
 143 0024 41F00301 		orr	r1, r1, #3
 144 0028 5963     		str	r1, [r3, #52]
 145 002a 596B     		ldr	r1, [r3, #52]
 146 002c 41F00101 		orr	r1, r1, #1
 147 0030 5963     		str	r1, [r3, #52]
 148 0032 0123     		movs	r3, #1
 149 0034 1074     		strb	r0, [r2, #16]
 150 0036 5374     		strb	r3, [r2, #17]
 151 0038 7047     		bx	lr
 152              	.L19:
 153 003a 0120     		movs	r0, #1
 154              	.L18:
 155 003c 7047     		bx	lr
 156              	.L22:
 157 003e 00BF     		.align	2
 158              	.L21:
 159 0040 006C0040 		.word	1073769472
 161              		.section	.text.HAL_RTCEx_Tamper1EventCallback,"ax",%progbits
 162              		.align	1
 163              		.weak	HAL_RTCEx_Tamper1EventCallback
 164              		.syntax unified
 165              		.thumb
 166              		.thumb_func
 167              		.fpu softvfp
 169              	HAL_RTCEx_Tamper1EventCallback:
 170              		@ args = 0, pretend = 0, frame = 0
 171              		@ frame_needed = 0, uses_anonymous_args = 0
 172              		@ link register save eliminated.
 173 0000 7047     		bx	lr
 175              		.section	.text.HAL_RTCEx_TamperIRQHandler,"ax",%progbits
 176              		.align	1
 177              		.global	HAL_RTCEx_TamperIRQHandler
 178              		.syntax unified
 179              		.thumb
ARM GAS  /tmp/cc6P5ZT4.s 			page 4


 180              		.thumb_func
 181              		.fpu softvfp
 183              	HAL_RTCEx_TamperIRQHandler:
 184              		@ args = 0, pretend = 0, frame = 0
 185              		@ frame_needed = 0, uses_anonymous_args = 0
 186 0000 38B5     		push	{r3, r4, r5, lr}
 187 0002 084C     		ldr	r4, .L32
 188 0004 0546     		mov	r5, r0
 189 0006 636B     		ldr	r3, [r4, #52]
 190 0008 5A07     		lsls	r2, r3, #29
 191 000a 08D5     		bpl	.L25
 192 000c 636B     		ldr	r3, [r4, #52]
 193 000e DB05     		lsls	r3, r3, #23
 194 0010 05D5     		bpl	.L25
 195 0012 FFF7FEFF 		bl	HAL_RTCEx_Tamper1EventCallback
 196 0016 636B     		ldr	r3, [r4, #52]
 197 0018 43F00303 		orr	r3, r3, #3
 198 001c 6363     		str	r3, [r4, #52]
 199              	.L25:
 200 001e 0123     		movs	r3, #1
 201 0020 6B74     		strb	r3, [r5, #17]
 202 0022 38BD     		pop	{r3, r4, r5, pc}
 203              	.L33:
 204              		.align	2
 205              	.L32:
 206 0024 006C0040 		.word	1073769472
 208              		.section	.text.HAL_RTCEx_PollForTamper1Event,"ax",%progbits
 209              		.align	1
 210              		.global	HAL_RTCEx_PollForTamper1Event
 211              		.syntax unified
 212              		.thumb
 213              		.thumb_func
 214              		.fpu softvfp
 216              	HAL_RTCEx_PollForTamper1Event:
 217              		@ args = 0, pretend = 0, frame = 0
 218              		@ frame_needed = 0, uses_anonymous_args = 0
 219 0000 F8B5     		push	{r3, r4, r5, r6, r7, lr}
 220 0002 0446     		mov	r4, r0
 221 0004 0D46     		mov	r5, r1
 222 0006 FFF7FEFF 		bl	HAL_GetTick
 223 000a 0746     		mov	r7, r0
 224 000c B4B1     		cbz	r4, .L40
 225 000e 0C4E     		ldr	r6, .L47
 226              	.L37:
 227 0010 736B     		ldr	r3, [r6, #52]
 228 0012 DB05     		lsls	r3, r3, #23
 229 0014 07D5     		bpl	.L39
 230 0016 736B     		ldr	r3, [r6, #52]
 231 0018 0020     		movs	r0, #0
 232 001a 43F00303 		orr	r3, r3, #3
 233 001e 7363     		str	r3, [r6, #52]
 234 0020 0123     		movs	r3, #1
 235 0022 6374     		strb	r3, [r4, #17]
 236 0024 09E0     		b	.L35
 237              	.L39:
 238 0026 6A1C     		adds	r2, r5, #1
 239 0028 F2D0     		beq	.L37
ARM GAS  /tmp/cc6P5ZT4.s 			page 5


 240 002a 25B1     		cbz	r5, .L38
 241 002c FFF7FEFF 		bl	HAL_GetTick
 242 0030 C01B     		subs	r0, r0, r7
 243 0032 A842     		cmp	r0, r5
 244 0034 ECD9     		bls	.L37
 245              	.L38:
 246 0036 0320     		movs	r0, #3
 247 0038 6074     		strb	r0, [r4, #17]
 248              	.L35:
 249 003a F8BD     		pop	{r3, r4, r5, r6, r7, pc}
 250              	.L40:
 251 003c 0120     		movs	r0, #1
 252 003e FCE7     		b	.L35
 253              	.L48:
 254              		.align	2
 255              	.L47:
 256 0040 006C0040 		.word	1073769472
 258              		.section	.text.HAL_RTCEx_SetSecond_IT,"ax",%progbits
 259              		.align	1
 260              		.global	HAL_RTCEx_SetSecond_IT
 261              		.syntax unified
 262              		.thumb
 263              		.thumb_func
 264              		.fpu softvfp
 266              	HAL_RTCEx_SetSecond_IT:
 267              		@ args = 0, pretend = 0, frame = 0
 268              		@ frame_needed = 0, uses_anonymous_args = 0
 269              		@ link register save eliminated.
 270 0000 0346     		mov	r3, r0
 271 0002 70B1     		cbz	r0, .L51
 272 0004 027C     		ldrb	r2, [r0, #16]	@ zero_extendqisi2
 273 0006 0220     		movs	r0, #2
 274 0008 012A     		cmp	r2, #1
 275 000a 0BD0     		beq	.L50
 276 000c 1968     		ldr	r1, [r3]
 277 000e 5874     		strb	r0, [r3, #17]
 278 0010 0A68     		ldr	r2, [r1]
 279 0012 0020     		movs	r0, #0
 280 0014 42F00102 		orr	r2, r2, #1
 281 0018 0A60     		str	r2, [r1]
 282 001a 0122     		movs	r2, #1
 283 001c 1874     		strb	r0, [r3, #16]
 284 001e 5A74     		strb	r2, [r3, #17]
 285 0020 7047     		bx	lr
 286              	.L51:
 287 0022 0120     		movs	r0, #1
 288              	.L50:
 289 0024 7047     		bx	lr
 291              		.section	.text.HAL_RTCEx_DeactivateSecond,"ax",%progbits
 292              		.align	1
 293              		.global	HAL_RTCEx_DeactivateSecond
 294              		.syntax unified
 295              		.thumb
 296              		.thumb_func
 297              		.fpu softvfp
 299              	HAL_RTCEx_DeactivateSecond:
 300              		@ args = 0, pretend = 0, frame = 0
ARM GAS  /tmp/cc6P5ZT4.s 			page 6


 301              		@ frame_needed = 0, uses_anonymous_args = 0
 302              		@ link register save eliminated.
 303 0000 0346     		mov	r3, r0
 304 0002 70B1     		cbz	r0, .L55
 305 0004 027C     		ldrb	r2, [r0, #16]	@ zero_extendqisi2
 306 0006 0220     		movs	r0, #2
 307 0008 012A     		cmp	r2, #1
 308 000a 0BD0     		beq	.L54
 309 000c 1968     		ldr	r1, [r3]
 310 000e 5874     		strb	r0, [r3, #17]
 311 0010 0A68     		ldr	r2, [r1]
 312 0012 0020     		movs	r0, #0
 313 0014 22F00102 		bic	r2, r2, #1
 314 0018 0A60     		str	r2, [r1]
 315 001a 0122     		movs	r2, #1
 316 001c 1874     		strb	r0, [r3, #16]
 317 001e 5A74     		strb	r2, [r3, #17]
 318 0020 7047     		bx	lr
 319              	.L55:
 320 0022 0120     		movs	r0, #1
 321              	.L54:
 322 0024 7047     		bx	lr
 324              		.section	.text.HAL_RTCEx_RTCEventCallback,"ax",%progbits
 325              		.align	1
 326              		.weak	HAL_RTCEx_RTCEventCallback
 327              		.syntax unified
 328              		.thumb
 329              		.thumb_func
 330              		.fpu softvfp
 332              	HAL_RTCEx_RTCEventCallback:
 333              		@ args = 0, pretend = 0, frame = 0
 334              		@ frame_needed = 0, uses_anonymous_args = 0
 335              		@ link register save eliminated.
 336 0000 7047     		bx	lr
 338              		.section	.text.HAL_RTCEx_RTCEventErrorCallback,"ax",%progbits
 339              		.align	1
 340              		.weak	HAL_RTCEx_RTCEventErrorCallback
 341              		.syntax unified
 342              		.thumb
 343              		.thumb_func
 344              		.fpu softvfp
 346              	HAL_RTCEx_RTCEventErrorCallback:
 347              		@ args = 0, pretend = 0, frame = 0
 348              		@ frame_needed = 0, uses_anonymous_args = 0
 349              		@ link register save eliminated.
 350 0000 7047     		bx	lr
 352              		.section	.text.HAL_RTCEx_RTCIRQHandler,"ax",%progbits
 353              		.align	1
 354              		.global	HAL_RTCEx_RTCIRQHandler
 355              		.syntax unified
 356              		.thumb
 357              		.thumb_func
 358              		.fpu softvfp
 360              	HAL_RTCEx_RTCIRQHandler:
 361              		@ args = 0, pretend = 0, frame = 0
 362              		@ frame_needed = 0, uses_anonymous_args = 0
 363 0000 0368     		ldr	r3, [r0]
ARM GAS  /tmp/cc6P5ZT4.s 			page 7


 364 0002 10B5     		push	{r4, lr}
 365 0004 1A68     		ldr	r2, [r3]
 366 0006 0446     		mov	r4, r0
 367 0008 D107     		lsls	r1, r2, #31
 368 000a 11D5     		bpl	.L59
 369 000c 5A68     		ldr	r2, [r3, #4]
 370 000e D207     		lsls	r2, r2, #31
 371 0010 0ED5     		bpl	.L59
 372 0012 5B68     		ldr	r3, [r3, #4]
 373 0014 5B07     		lsls	r3, r3, #29
 374 0016 0CD5     		bpl	.L61
 375 0018 FFF7FEFF 		bl	HAL_RTCEx_RTCEventErrorCallback
 376 001c 6FF00402 		mvn	r2, #4
 377 0020 2368     		ldr	r3, [r4]
 378 0022 5A60     		str	r2, [r3, #4]
 379 0024 0423     		movs	r3, #4
 380              	.L69:
 381 0026 6FF00102 		mvn	r2, #1
 382 002a 6374     		strb	r3, [r4, #17]
 383 002c 2368     		ldr	r3, [r4]
 384 002e 5A60     		str	r2, [r3, #4]
 385              	.L59:
 386 0030 10BD     		pop	{r4, pc}
 387              	.L61:
 388 0032 FFF7FEFF 		bl	HAL_RTCEx_RTCEventCallback
 389 0036 0123     		movs	r3, #1
 390 0038 F5E7     		b	.L69
 392              		.section	.text.HAL_RTCEx_BKUPWrite,"ax",%progbits
 393              		.align	1
 394              		.global	HAL_RTCEx_BKUPWrite
 395              		.syntax unified
 396              		.thumb
 397              		.thumb_func
 398              		.fpu softvfp
 400              	HAL_RTCEx_BKUPWrite:
 401              		@ args = 0, pretend = 0, frame = 0
 402              		@ frame_needed = 0, uses_anonymous_args = 0
 403              		@ link register save eliminated.
 404 0000 8900     		lsls	r1, r1, #2
 405 0002 01F18041 		add	r1, r1, #1073741824
 406 0006 01F5D841 		add	r1, r1, #27648
 407 000a 92B2     		uxth	r2, r2
 408 000c 0A60     		str	r2, [r1]
 409 000e 7047     		bx	lr
 411              		.section	.text.HAL_RTCEx_BKUPRead,"ax",%progbits
 412              		.align	1
 413              		.global	HAL_RTCEx_BKUPRead
 414              		.syntax unified
 415              		.thumb
 416              		.thumb_func
 417              		.fpu softvfp
 419              	HAL_RTCEx_BKUPRead:
 420              		@ args = 0, pretend = 0, frame = 0
 421              		@ frame_needed = 0, uses_anonymous_args = 0
 422              		@ link register save eliminated.
 423 0000 8900     		lsls	r1, r1, #2
 424 0002 01F18041 		add	r1, r1, #1073741824
ARM GAS  /tmp/cc6P5ZT4.s 			page 8


 425 0006 01F5D841 		add	r1, r1, #27648
 426 000a 0868     		ldr	r0, [r1]
 427 000c 80B2     		uxth	r0, r0
 428 000e 7047     		bx	lr
 430              		.section	.text.HAL_RTCEx_SetSmoothCalib,"ax",%progbits
 431              		.align	1
 432              		.global	HAL_RTCEx_SetSmoothCalib
 433              		.syntax unified
 434              		.thumb
 435              		.thumb_func
 436              		.fpu softvfp
 438              	HAL_RTCEx_SetSmoothCalib:
 439              		@ args = 0, pretend = 0, frame = 0
 440              		@ frame_needed = 0, uses_anonymous_args = 0
 441              		@ link register save eliminated.
 442 0000 0246     		mov	r2, r0
 443 0002 78B1     		cbz	r0, .L74
 444 0004 017C     		ldrb	r1, [r0, #16]	@ zero_extendqisi2
 445 0006 0220     		movs	r0, #2
 446 0008 0129     		cmp	r1, #1
 447 000a 0CD0     		beq	.L73
 448 000c 5074     		strb	r0, [r2, #17]
 449 000e 0648     		ldr	r0, .L76
 450 0010 C16A     		ldr	r1, [r0, #44]
 451 0012 21F07F01 		bic	r1, r1, #127
 452 0016 0B43     		orrs	r3, r3, r1
 453 0018 C362     		str	r3, [r0, #44]
 454 001a 0123     		movs	r3, #1
 455 001c 0020     		movs	r0, #0
 456 001e 5374     		strb	r3, [r2, #17]
 457 0020 1074     		strb	r0, [r2, #16]
 458 0022 7047     		bx	lr
 459              	.L74:
 460 0024 0120     		movs	r0, #1
 461              	.L73:
 462 0026 7047     		bx	lr
 463              	.L77:
 464              		.align	2
 465              	.L76:
 466 0028 006C0040 		.word	1073769472
 468              		.ident	"GCC: (GNU Tools for Arm Embedded Processors 9-2019-q4-major) 9.2.1 20191025 (release) [ARM
ARM GAS  /tmp/cc6P5ZT4.s 			page 9

