ARM GAS  /tmp/ccBrtqSe.s 			page 1


   1              		.cpu cortex-m3
   2              		.eabi_attribute 20, 1
   3              		.eabi_attribute 21, 1
   4              		.eabi_attribute 23, 3
   5              		.eabi_attribute 24, 1
   6              		.eabi_attribute 25, 1
   7              		.eabi_attribute 26, 1
   8              		.eabi_attribute 30, 4
   9              		.eabi_attribute 34, 1
  10              		.eabi_attribute 18, 4
  11              		.file	"stm32f1xx_hal_i2s.c"
  12              		.text
  13              		.section	.text.I2S_WaitFlagStateUntilTimeout,"ax",%progbits
  14              		.align	1
  15              		.arch armv7-m
  16              		.syntax unified
  17              		.thumb
  18              		.thumb_func
  19              		.fpu softvfp
  21              	I2S_WaitFlagStateUntilTimeout:
  22              		@ args = 0, pretend = 0, frame = 0
  23              		@ frame_needed = 0, uses_anonymous_args = 0
  24 0000 2DE9F041 		push	{r4, r5, r6, r7, r8, lr}
  25 0004 0446     		mov	r4, r0
  26 0006 0F46     		mov	r7, r1
  27 0008 1646     		mov	r6, r2
  28 000a 1D46     		mov	r5, r3
  29 000c FFF7FEFF 		bl	HAL_GetTick
  30 0010 8046     		mov	r8, r0
  31              	.L2:
  32 0012 2268     		ldr	r2, [r4]
  33              	.L3:
  34 0014 9368     		ldr	r3, [r2, #8]
  35 0016 37EA0303 		bics	r3, r7, r3
  36 001a 0CBF     		ite	eq
  37 001c 0123     		moveq	r3, #1
  38 001e 0023     		movne	r3, #0
  39 0020 B342     		cmp	r3, r6
  40 0022 01D1     		bne	.L5
  41 0024 0020     		movs	r0, #0
  42 0026 0EE0     		b	.L4
  43              	.L5:
  44 0028 6B1C     		adds	r3, r5, #1
  45 002a F3D0     		beq	.L3
  46 002c FFF7FEFF 		bl	HAL_GetTick
  47 0030 A0EB0800 		sub	r0, r0, r8
  48 0034 A842     		cmp	r0, r5
  49 0036 ECD3     		bcc	.L2
  50 0038 0123     		movs	r3, #1
  51 003a 84F83530 		strb	r3, [r4, #53]
  52 003e 0023     		movs	r3, #0
  53 0040 0320     		movs	r0, #3
  54 0042 84F83430 		strb	r3, [r4, #52]
  55              	.L4:
  56 0046 BDE8F081 		pop	{r4, r5, r6, r7, r8, pc}
  58              		.section	.text.HAL_I2S_MspInit,"ax",%progbits
  59              		.align	1
ARM GAS  /tmp/ccBrtqSe.s 			page 2


  60              		.weak	HAL_I2S_MspInit
  61              		.syntax unified
  62              		.thumb
  63              		.thumb_func
  64              		.fpu softvfp
  66              	HAL_I2S_MspInit:
  67              		@ args = 0, pretend = 0, frame = 0
  68              		@ frame_needed = 0, uses_anonymous_args = 0
  69              		@ link register save eliminated.
  70 0000 7047     		bx	lr
  72              		.section	.text.HAL_I2S_Init,"ax",%progbits
  73              		.align	1
  74              		.global	HAL_I2S_Init
  75              		.syntax unified
  76              		.thumb
  77              		.thumb_func
  78              		.fpu softvfp
  80              	HAL_I2S_Init:
  81              		@ args = 0, pretend = 0, frame = 0
  82              		@ frame_needed = 0, uses_anonymous_args = 0
  83 0000 38B5     		push	{r3, r4, r5, lr}
  84 0002 0446     		mov	r4, r0
  85 0004 0028     		cmp	r0, #0
  86 0006 70D0     		beq	.L23
  87 0008 90F83530 		ldrb	r3, [r0, #53]	@ zero_extendqisi2
  88 000c 03F0FF02 		and	r2, r3, #255
  89 0010 1BB9     		cbnz	r3, .L12
  90 0012 80F83420 		strb	r2, [r0, #52]
  91 0016 FFF7FEFF 		bl	HAL_I2S_MspInit
  92              	.L12:
  93 001a 0221     		movs	r1, #2
  94 001c 2268     		ldr	r2, [r4]
  95 001e 84F83510 		strb	r1, [r4, #53]
  96 0022 D369     		ldr	r3, [r2, #28]
  97 0024 23F47B63 		bic	r3, r3, #4016
  98 0028 23F00F03 		bic	r3, r3, #15
  99 002c D361     		str	r3, [r2, #28]
 100 002e 6369     		ldr	r3, [r4, #20]
 101 0030 1162     		str	r1, [r2, #32]
 102 0032 8B42     		cmp	r3, r1
 103 0034 5BD0     		beq	.L24
 104 0036 E368     		ldr	r3, [r4, #12]
 105 0038 002B     		cmp	r3, #0
 106 003a 0CBF     		ite	eq
 107 003c 1025     		moveq	r5, #16
 108 003e 2025     		movne	r5, #32
 109 0040 A368     		ldr	r3, [r4, #8]
 110 0042 202B     		cmp	r3, #32
 111 0044 2B4B     		ldr	r3, .L28
 112 0046 98BF     		it	ls
 113 0048 6D00     		lslls	r5, r5, #1
 114 004a 9A42     		cmp	r2, r3
 115 004c 36D1     		bne	.L16
 116 004e 0420     		movs	r0, #4
 117              	.L26:
 118 0050 FFF7FEFF 		bl	HAL_RCCEx_GetPeriphCLKFreq
 119              	.L17:
ARM GAS  /tmp/ccBrtqSe.s 			page 3


 120 0054 D4E90431 		ldrd	r3, r1, [r4, #16]
 121 0058 B3F5007F 		cmp	r3, #512
 122 005c 3CD1     		bne	.L19
 123 005e E368     		ldr	r3, [r4, #12]
 124 0060 0A22     		movs	r2, #10
 125 0062 9BB3     		cbz	r3, .L20
 126 0064 AB00     		lsls	r3, r5, #2
 127 0066 B0FBF3F3 		udiv	r3, r0, r3
 128 006a 5343     		muls	r3, r2, r3
 129              	.L27:
 130 006c B3FBF1F3 		udiv	r3, r3, r1
 131 0070 0A22     		movs	r2, #10
 132 0072 0533     		adds	r3, r3, #5
 133 0074 B3FBF2F3 		udiv	r3, r3, r2
 134 0078 03F00102 		and	r2, r3, #1
 135 007c 5B08     		lsrs	r3, r3, #1
 136 007e 991E     		subs	r1, r3, #2
 137 0080 FD29     		cmp	r1, #253
 138 0082 2ED8     		bhi	.L22
 139 0084 1202     		lsls	r2, r2, #8
 140              	.L13:
 141 0086 1343     		orrs	r3, r3, r2
 142 0088 2269     		ldr	r2, [r4, #16]
 143 008a 2168     		ldr	r1, [r4]
 144 008c 1343     		orrs	r3, r3, r2
 145 008e 0B62     		str	r3, [r1, #32]
 146 0090 CA69     		ldr	r2, [r1, #28]
 147 0092 D4E90130 		ldrd	r3, r0, [r4, #4]
 148 0096 22F47B62 		bic	r2, r2, #4016
 149 009a 0343     		orrs	r3, r3, r0
 150 009c 22F00F02 		bic	r2, r2, #15
 151 00a0 1343     		orrs	r3, r3, r2
 152 00a2 E268     		ldr	r2, [r4, #12]
 153 00a4 0020     		movs	r0, #0
 154 00a6 1343     		orrs	r3, r3, r2
 155 00a8 A269     		ldr	r2, [r4, #24]
 156 00aa 1343     		orrs	r3, r3, r2
 157 00ac 43F40063 		orr	r3, r3, #2048
 158 00b0 CB61     		str	r3, [r1, #28]
 159 00b2 0123     		movs	r3, #1
 160 00b4 A063     		str	r0, [r4, #56]
 161 00b6 84F83530 		strb	r3, [r4, #53]
 162              	.L11:
 163 00ba 38BD     		pop	{r3, r4, r5, pc}
 164              	.L16:
 165 00bc 0E4B     		ldr	r3, .L28+4
 166 00be 9A42     		cmp	r2, r3
 167 00c0 01D1     		bne	.L18
 168 00c2 0820     		movs	r0, #8
 169 00c4 C4E7     		b	.L26
 170              	.L18:
 171 00c6 FFF7FEFF 		bl	HAL_RCC_GetSysClockFreq
 172 00ca C3E7     		b	.L17
 173              	.L20:
 174 00cc EB00     		lsls	r3, r5, #3
 175 00ce B0FBF3F0 		udiv	r0, r0, r3
 176 00d2 02FB00F3 		mul	r3, r2, r0
ARM GAS  /tmp/ccBrtqSe.s 			page 4


 177 00d6 C9E7     		b	.L27
 178              	.L19:
 179 00d8 B0FBF5F0 		udiv	r0, r0, r5
 180 00dc 0A23     		movs	r3, #10
 181 00de 4343     		muls	r3, r0, r3
 182 00e0 C4E7     		b	.L27
 183              	.L22:
 184 00e2 A36B     		ldr	r3, [r4, #56]
 185 00e4 43F01003 		orr	r3, r3, #16
 186 00e8 A363     		str	r3, [r4, #56]
 187              	.L23:
 188 00ea 0120     		movs	r0, #1
 189 00ec E5E7     		b	.L11
 190              	.L24:
 191 00ee 0022     		movs	r2, #0
 192 00f0 C9E7     		b	.L13
 193              	.L29:
 194 00f2 00BF     		.align	2
 195              	.L28:
 196 00f4 00380040 		.word	1073756160
 197 00f8 003C0040 		.word	1073757184
 199              		.section	.text.HAL_I2S_MspDeInit,"ax",%progbits
 200              		.align	1
 201              		.weak	HAL_I2S_MspDeInit
 202              		.syntax unified
 203              		.thumb
 204              		.thumb_func
 205              		.fpu softvfp
 207              	HAL_I2S_MspDeInit:
 208              		@ args = 0, pretend = 0, frame = 0
 209              		@ frame_needed = 0, uses_anonymous_args = 0
 210              		@ link register save eliminated.
 211 0000 7047     		bx	lr
 213              		.section	.text.HAL_I2S_DeInit,"ax",%progbits
 214              		.align	1
 215              		.global	HAL_I2S_DeInit
 216              		.syntax unified
 217              		.thumb
 218              		.thumb_func
 219              		.fpu softvfp
 221              	HAL_I2S_DeInit:
 222              		@ args = 0, pretend = 0, frame = 0
 223              		@ frame_needed = 0, uses_anonymous_args = 0
 224 0000 10B5     		push	{r4, lr}
 225 0002 0446     		mov	r4, r0
 226 0004 80B1     		cbz	r0, .L33
 227 0006 0223     		movs	r3, #2
 228 0008 0268     		ldr	r2, [r0]
 229 000a 80F83530 		strb	r3, [r0, #53]
 230 000e D369     		ldr	r3, [r2, #28]
 231 0010 23F48063 		bic	r3, r3, #1024
 232 0014 D361     		str	r3, [r2, #28]
 233 0016 FFF7FEFF 		bl	HAL_I2S_MspDeInit
 234 001a 0020     		movs	r0, #0
 235 001c A063     		str	r0, [r4, #56]
 236 001e 84F83500 		strb	r0, [r4, #53]
 237 0022 84F83400 		strb	r0, [r4, #52]
ARM GAS  /tmp/ccBrtqSe.s 			page 5


 238              	.L32:
 239 0026 10BD     		pop	{r4, pc}
 240              	.L33:
 241 0028 0120     		movs	r0, #1
 242 002a FCE7     		b	.L32
 244              		.section	.text.HAL_I2S_Transmit,"ax",%progbits
 245              		.align	1
 246              		.global	HAL_I2S_Transmit
 247              		.syntax unified
 248              		.thumb
 249              		.thumb_func
 250              		.fpu softvfp
 252              	HAL_I2S_Transmit:
 253              		@ args = 0, pretend = 0, frame = 8
 254              		@ frame_needed = 0, uses_anonymous_args = 0
 255 0000 F7B5     		push	{r0, r1, r2, r4, r5, r6, r7, lr}
 256 0002 0446     		mov	r4, r0
 257 0004 1F46     		mov	r7, r3
 258 0006 0029     		cmp	r1, #0
 259 0008 7FD0     		beq	.L47
 260 000a 002A     		cmp	r2, #0
 261 000c 7DD0     		beq	.L47
 262 000e 90F83430 		ldrb	r3, [r0, #52]	@ zero_extendqisi2
 263 0012 012B     		cmp	r3, #1
 264 0014 0BD0     		beq	.L48
 265 0016 0123     		movs	r3, #1
 266 0018 80F83430 		strb	r3, [r0, #52]
 267 001c 90F83530 		ldrb	r3, [r0, #53]	@ zero_extendqisi2
 268 0020 012B     		cmp	r3, #1
 269 0022 DDB2     		uxtb	r5, r3
 270 0024 4FF00003 		mov	r3, #0
 271 0028 03D0     		beq	.L36
 272 002a 80F83430 		strb	r3, [r0, #52]
 273              	.L48:
 274 002e 0225     		movs	r5, #2
 275 0030 2BE0     		b	.L35
 276              	.L36:
 277 0032 0320     		movs	r0, #3
 278 0034 84F83500 		strb	r0, [r4, #53]
 279 0038 A363     		str	r3, [r4, #56]
 280 003a 2368     		ldr	r3, [r4]
 281 003c E161     		str	r1, [r4, #28]
 282 003e D969     		ldr	r1, [r3, #28]
 283 0040 01F00701 		and	r1, r1, #7
 284 0044 8142     		cmp	r1, r0
 285 0046 01D0     		beq	.L37
 286 0048 0529     		cmp	r1, #5
 287 004a 01D1     		bne	.L38
 288              	.L37:
 289 004c 5200     		lsls	r2, r2, #1
 290 004e 92B2     		uxth	r2, r2
 291              	.L38:
 292 0050 2284     		strh	r2, [r4, #32]	@ movhi
 293 0052 6284     		strh	r2, [r4, #34]	@ movhi
 294 0054 DE69     		ldr	r6, [r3, #28]
 295 0056 DA69     		ldr	r2, [r3, #28]
 296 0058 2046     		mov	r0, r4
ARM GAS  /tmp/ccBrtqSe.s 			page 6


 297 005a 5105     		lsls	r1, r2, #21
 298 005c 58BF     		it	pl
 299 005e DA69     		ldrpl	r2, [r3, #28]
 300 0060 4FF00201 		mov	r1, #2
 301 0064 5CBF     		itt	pl
 302 0066 42F48062 		orrpl	r2, r2, #1024
 303 006a DA61     		strpl	r2, [r3, #28]
 304 006c 3B46     		mov	r3, r7
 305 006e 0122     		movs	r2, #1
 306 0070 FFF7FEFF 		bl	I2S_WaitFlagStateUntilTimeout
 307 0074 50B3     		cbz	r0, .L43
 308              	.L58:
 309 0076 A36B     		ldr	r3, [r4, #56]
 310 0078 43F00103 		orr	r3, r3, #1
 311 007c A363     		str	r3, [r4, #56]
 312 007e 0123     		movs	r3, #1
 313 0080 84F83530 		strb	r3, [r4, #53]
 314 0084 0023     		movs	r3, #0
 315 0086 84F83430 		strb	r3, [r4, #52]
 316              	.L35:
 317 008a 2846     		mov	r0, r5
 318 008c 03B0     		add	sp, sp, #12
 319              		@ sp needed
 320 008e F0BD     		pop	{r4, r5, r6, r7, pc}
 321              	.L44:
 322 0090 E369     		ldr	r3, [r4, #28]
 323 0092 2268     		ldr	r2, [r4]
 324 0094 33F8021B 		ldrh	r1, [r3], #2
 325 0098 2046     		mov	r0, r4
 326 009a D160     		str	r1, [r2, #12]
 327 009c E361     		str	r3, [r4, #28]
 328 009e 638C     		ldrh	r3, [r4, #34]
 329 00a0 0122     		movs	r2, #1
 330 00a2 013B     		subs	r3, r3, #1
 331 00a4 9BB2     		uxth	r3, r3
 332 00a6 6384     		strh	r3, [r4, #34]	@ movhi
 333 00a8 0221     		movs	r1, #2
 334 00aa 3B46     		mov	r3, r7
 335 00ac FFF7FEFF 		bl	I2S_WaitFlagStateUntilTimeout
 336 00b0 0028     		cmp	r0, #0
 337 00b2 E0D1     		bne	.L58
 338 00b4 2368     		ldr	r3, [r4]
 339 00b6 9A68     		ldr	r2, [r3, #8]
 340 00b8 1207     		lsls	r2, r2, #28
 341 00ba 07D5     		bpl	.L43
 342 00bc 0190     		str	r0, [sp, #4]
 343 00be 9B68     		ldr	r3, [r3, #8]
 344 00c0 0193     		str	r3, [sp, #4]
 345 00c2 019B     		ldr	r3, [sp, #4]
 346 00c4 A36B     		ldr	r3, [r4, #56]
 347 00c6 43F00403 		orr	r3, r3, #4
 348 00ca A363     		str	r3, [r4, #56]
 349              	.L43:
 350 00cc 638C     		ldrh	r3, [r4, #34]
 351 00ce 9BB2     		uxth	r3, r3
 352 00d0 002B     		cmp	r3, #0
 353 00d2 DDD1     		bne	.L44
ARM GAS  /tmp/ccBrtqSe.s 			page 7


 354 00d4 16F40076 		ands	r6, r6, #512
 355 00d8 10D1     		bne	.L45
 356 00da 3B46     		mov	r3, r7
 357 00dc 3246     		mov	r2, r6
 358 00de 8021     		movs	r1, #128
 359 00e0 2046     		mov	r0, r4
 360 00e2 FFF7FEFF 		bl	I2S_WaitFlagStateUntilTimeout
 361 00e6 48B1     		cbz	r0, .L45
 362 00e8 A36B     		ldr	r3, [r4, #56]
 363 00ea 43F00103 		orr	r3, r3, #1
 364 00ee A363     		str	r3, [r4, #56]
 365 00f0 0123     		movs	r3, #1
 366 00f2 84F83530 		strb	r3, [r4, #53]
 367 00f6 84F83460 		strb	r6, [r4, #52]
 368 00fa C6E7     		b	.L35
 369              	.L45:
 370 00fc 0123     		movs	r3, #1
 371 00fe 0025     		movs	r5, #0
 372 0100 84F83530 		strb	r3, [r4, #53]
 373 0104 84F83450 		strb	r5, [r4, #52]
 374 0108 BFE7     		b	.L35
 375              	.L47:
 376 010a 0125     		movs	r5, #1
 377 010c BDE7     		b	.L35
 379              		.section	.text.HAL_I2S_Receive,"ax",%progbits
 380              		.align	1
 381              		.global	HAL_I2S_Receive
 382              		.syntax unified
 383              		.thumb
 384              		.thumb_func
 385              		.fpu softvfp
 387              	HAL_I2S_Receive:
 388              		@ args = 0, pretend = 0, frame = 8
 389              		@ frame_needed = 0, uses_anonymous_args = 0
 390 0000 73B5     		push	{r0, r1, r4, r5, r6, lr}
 391 0002 0446     		mov	r4, r0
 392 0004 1E46     		mov	r6, r3
 393 0006 0029     		cmp	r1, #0
 394 0008 6ED0     		beq	.L72
 395 000a 002A     		cmp	r2, #0
 396 000c 6CD0     		beq	.L72
 397 000e 90F83430 		ldrb	r3, [r0, #52]	@ zero_extendqisi2
 398 0012 012B     		cmp	r3, #1
 399 0014 0BD0     		beq	.L73
 400 0016 0123     		movs	r3, #1
 401 0018 80F83430 		strb	r3, [r0, #52]
 402 001c 90F83530 		ldrb	r3, [r0, #53]	@ zero_extendqisi2
 403 0020 012B     		cmp	r3, #1
 404 0022 DDB2     		uxtb	r5, r3
 405 0024 4FF00003 		mov	r3, #0
 406 0028 03D0     		beq	.L61
 407 002a 80F83430 		strb	r3, [r0, #52]
 408              	.L73:
 409 002e 0225     		movs	r5, #2
 410 0030 3FE0     		b	.L60
 411              	.L61:
 412 0032 0420     		movs	r0, #4
ARM GAS  /tmp/ccBrtqSe.s 			page 8


 413 0034 84F83500 		strb	r0, [r4, #53]
 414 0038 A363     		str	r3, [r4, #56]
 415 003a 2368     		ldr	r3, [r4]
 416 003c 6162     		str	r1, [r4, #36]
 417 003e D969     		ldr	r1, [r3, #28]
 418 0040 01F00701 		and	r1, r1, #7
 419 0044 0329     		cmp	r1, #3
 420 0046 01D0     		beq	.L62
 421 0048 0529     		cmp	r1, #5
 422 004a 01D1     		bne	.L63
 423              	.L62:
 424 004c 5200     		lsls	r2, r2, #1
 425 004e 92B2     		uxth	r2, r2
 426              	.L63:
 427 0050 2285     		strh	r2, [r4, #40]	@ movhi
 428 0052 6285     		strh	r2, [r4, #42]	@ movhi
 429 0054 DA69     		ldr	r2, [r3, #28]
 430 0056 5105     		lsls	r1, r2, #21
 431 0058 5EBF     		ittt	pl
 432 005a DA69     		ldrpl	r2, [r3, #28]
 433 005c 42F48062 		orrpl	r2, r2, #1024
 434 0060 DA61     		strpl	r2, [r3, #28]
 435 0062 DA69     		ldr	r2, [r3, #28]
 436 0064 02F44072 		and	r2, r2, #768
 437 0068 B2F5407F 		cmp	r2, #768
 438 006c 06D1     		bne	.L69
 439 006e 0022     		movs	r2, #0
 440 0070 0092     		str	r2, [sp]
 441 0072 DA68     		ldr	r2, [r3, #12]
 442 0074 0092     		str	r2, [sp]
 443 0076 9B68     		ldr	r3, [r3, #8]
 444 0078 0093     		str	r3, [sp]
 445 007a 009B     		ldr	r3, [sp]
 446              	.L69:
 447 007c 628D     		ldrh	r2, [r4, #42]
 448 007e 92B2     		uxth	r2, r2
 449 0080 32B9     		cbnz	r2, .L70
 450 0082 0123     		movs	r3, #1
 451 0084 1546     		mov	r5, r2
 452 0086 84F83530 		strb	r3, [r4, #53]
 453 008a 84F83420 		strb	r2, [r4, #52]
 454 008e 10E0     		b	.L60
 455              	.L70:
 456 0090 0122     		movs	r2, #1
 457 0092 3346     		mov	r3, r6
 458 0094 1146     		mov	r1, r2
 459 0096 2046     		mov	r0, r4
 460 0098 FFF7FEFF 		bl	I2S_WaitFlagStateUntilTimeout
 461 009c 60B1     		cbz	r0, .L68
 462 009e A36B     		ldr	r3, [r4, #56]
 463 00a0 43F00103 		orr	r3, r3, #1
 464 00a4 A363     		str	r3, [r4, #56]
 465 00a6 0123     		movs	r3, #1
 466 00a8 84F83530 		strb	r3, [r4, #53]
 467 00ac 0023     		movs	r3, #0
 468 00ae 84F83430 		strb	r3, [r4, #52]
 469              	.L60:
ARM GAS  /tmp/ccBrtqSe.s 			page 9


 470 00b2 2846     		mov	r0, r5
 471 00b4 02B0     		add	sp, sp, #8
 472              		@ sp needed
 473 00b6 70BD     		pop	{r4, r5, r6, pc}
 474              	.L68:
 475 00b8 2368     		ldr	r3, [r4]
 476 00ba 626A     		ldr	r2, [r4, #36]
 477 00bc D968     		ldr	r1, [r3, #12]
 478 00be 22F8021B 		strh	r1, [r2], #2	@ movhi
 479 00c2 6262     		str	r2, [r4, #36]
 480 00c4 628D     		ldrh	r2, [r4, #42]
 481 00c6 013A     		subs	r2, r2, #1
 482 00c8 92B2     		uxth	r2, r2
 483 00ca 6285     		strh	r2, [r4, #42]	@ movhi
 484 00cc 9A68     		ldr	r2, [r3, #8]
 485 00ce 5206     		lsls	r2, r2, #25
 486 00d0 D4D5     		bpl	.L69
 487 00d2 0190     		str	r0, [sp, #4]
 488 00d4 DA68     		ldr	r2, [r3, #12]
 489 00d6 0192     		str	r2, [sp, #4]
 490 00d8 9B68     		ldr	r3, [r3, #8]
 491 00da 0193     		str	r3, [sp, #4]
 492 00dc 019B     		ldr	r3, [sp, #4]
 493 00de A36B     		ldr	r3, [r4, #56]
 494 00e0 43F00203 		orr	r3, r3, #2
 495 00e4 A363     		str	r3, [r4, #56]
 496 00e6 C9E7     		b	.L69
 497              	.L72:
 498 00e8 0125     		movs	r5, #1
 499 00ea E2E7     		b	.L60
 501              		.section	.text.HAL_I2S_Transmit_IT,"ax",%progbits
 502              		.align	1
 503              		.global	HAL_I2S_Transmit_IT
 504              		.syntax unified
 505              		.thumb
 506              		.thumb_func
 507              		.fpu softvfp
 509              	HAL_I2S_Transmit_IT:
 510              		@ args = 0, pretend = 0, frame = 0
 511              		@ frame_needed = 0, uses_anonymous_args = 0
 512 0000 10B5     		push	{r4, lr}
 513 0002 0029     		cmp	r1, #0
 514 0004 33D0     		beq	.L87
 515 0006 002A     		cmp	r2, #0
 516 0008 31D0     		beq	.L87
 517 000a 90F83430 		ldrb	r3, [r0, #52]	@ zero_extendqisi2
 518 000e 012B     		cmp	r3, #1
 519 0010 0AD0     		beq	.L88
 520 0012 0123     		movs	r3, #1
 521 0014 80F83430 		strb	r3, [r0, #52]
 522 0018 90F83530 		ldrb	r3, [r0, #53]	@ zero_extendqisi2
 523 001c 012B     		cmp	r3, #1
 524 001e 4FF00003 		mov	r3, #0
 525 0022 03D0     		beq	.L81
 526 0024 80F83430 		strb	r3, [r0, #52]
 527              	.L88:
 528 0028 0220     		movs	r0, #2
ARM GAS  /tmp/ccBrtqSe.s 			page 10


 529 002a 1FE0     		b	.L80
 530              	.L81:
 531 002c 0324     		movs	r4, #3
 532 002e 80F83540 		strb	r4, [r0, #53]
 533 0032 8363     		str	r3, [r0, #56]
 534 0034 0368     		ldr	r3, [r0]
 535 0036 C161     		str	r1, [r0, #28]
 536 0038 D969     		ldr	r1, [r3, #28]
 537 003a 01F00701 		and	r1, r1, #7
 538 003e A142     		cmp	r1, r4
 539 0040 01D0     		beq	.L82
 540 0042 0529     		cmp	r1, #5
 541 0044 01D1     		bne	.L83
 542              	.L82:
 543 0046 5200     		lsls	r2, r2, #1
 544 0048 92B2     		uxth	r2, r2
 545              	.L83:
 546 004a 0284     		strh	r2, [r0, #32]	@ movhi
 547 004c 4284     		strh	r2, [r0, #34]	@ movhi
 548 004e 5A68     		ldr	r2, [r3, #4]
 549 0050 42F0A002 		orr	r2, r2, #160
 550 0054 5A60     		str	r2, [r3, #4]
 551 0056 DA69     		ldr	r2, [r3, #28]
 552 0058 5205     		lsls	r2, r2, #21
 553 005a 5EBF     		ittt	pl
 554 005c DA69     		ldrpl	r2, [r3, #28]
 555 005e 42F48062 		orrpl	r2, r2, #1024
 556 0062 DA61     		strpl	r2, [r3, #28]
 557 0064 0023     		movs	r3, #0
 558 0066 80F83430 		strb	r3, [r0, #52]
 559 006a 1846     		mov	r0, r3
 560              	.L80:
 561 006c 10BD     		pop	{r4, pc}
 562              	.L87:
 563 006e 0120     		movs	r0, #1
 564 0070 FCE7     		b	.L80
 566              		.section	.text.HAL_I2S_Receive_IT,"ax",%progbits
 567              		.align	1
 568              		.global	HAL_I2S_Receive_IT
 569              		.syntax unified
 570              		.thumb
 571              		.thumb_func
 572              		.fpu softvfp
 574              	HAL_I2S_Receive_IT:
 575              		@ args = 0, pretend = 0, frame = 0
 576              		@ frame_needed = 0, uses_anonymous_args = 0
 577 0000 10B5     		push	{r4, lr}
 578 0002 0029     		cmp	r1, #0
 579 0004 33D0     		beq	.L100
 580 0006 002A     		cmp	r2, #0
 581 0008 31D0     		beq	.L100
 582 000a 90F83430 		ldrb	r3, [r0, #52]	@ zero_extendqisi2
 583 000e 012B     		cmp	r3, #1
 584 0010 0AD0     		beq	.L101
 585 0012 0123     		movs	r3, #1
 586 0014 80F83430 		strb	r3, [r0, #52]
 587 0018 90F83530 		ldrb	r3, [r0, #53]	@ zero_extendqisi2
ARM GAS  /tmp/ccBrtqSe.s 			page 11


 588 001c 012B     		cmp	r3, #1
 589 001e 4FF00003 		mov	r3, #0
 590 0022 03D0     		beq	.L94
 591 0024 80F83430 		strb	r3, [r0, #52]
 592              	.L101:
 593 0028 0220     		movs	r0, #2
 594 002a 1FE0     		b	.L93
 595              	.L94:
 596 002c 0424     		movs	r4, #4
 597 002e 80F83540 		strb	r4, [r0, #53]
 598 0032 8363     		str	r3, [r0, #56]
 599 0034 0368     		ldr	r3, [r0]
 600 0036 4162     		str	r1, [r0, #36]
 601 0038 D969     		ldr	r1, [r3, #28]
 602 003a 01F00701 		and	r1, r1, #7
 603 003e 0329     		cmp	r1, #3
 604 0040 01D0     		beq	.L95
 605 0042 0529     		cmp	r1, #5
 606 0044 01D1     		bne	.L96
 607              	.L95:
 608 0046 5200     		lsls	r2, r2, #1
 609 0048 92B2     		uxth	r2, r2
 610              	.L96:
 611 004a 0285     		strh	r2, [r0, #40]	@ movhi
 612 004c 4285     		strh	r2, [r0, #42]	@ movhi
 613 004e 5A68     		ldr	r2, [r3, #4]
 614 0050 42F06002 		orr	r2, r2, #96
 615 0054 5A60     		str	r2, [r3, #4]
 616 0056 DA69     		ldr	r2, [r3, #28]
 617 0058 5205     		lsls	r2, r2, #21
 618 005a 5EBF     		ittt	pl
 619 005c DA69     		ldrpl	r2, [r3, #28]
 620 005e 42F48062 		orrpl	r2, r2, #1024
 621 0062 DA61     		strpl	r2, [r3, #28]
 622 0064 0023     		movs	r3, #0
 623 0066 80F83430 		strb	r3, [r0, #52]
 624 006a 1846     		mov	r0, r3
 625              	.L93:
 626 006c 10BD     		pop	{r4, pc}
 627              	.L100:
 628 006e 0120     		movs	r0, #1
 629 0070 FCE7     		b	.L93
 631              		.section	.text.HAL_I2S_Transmit_DMA,"ax",%progbits
 632              		.align	1
 633              		.global	HAL_I2S_Transmit_DMA
 634              		.syntax unified
 635              		.thumb
 636              		.thumb_func
 637              		.fpu softvfp
 639              	HAL_I2S_Transmit_DMA:
 640              		@ args = 0, pretend = 0, frame = 0
 641              		@ frame_needed = 0, uses_anonymous_args = 0
 642 0000 70B5     		push	{r4, r5, r6, lr}
 643 0002 0446     		mov	r4, r0
 644 0004 0029     		cmp	r1, #0
 645 0006 54D0     		beq	.L115
 646 0008 002A     		cmp	r2, #0
ARM GAS  /tmp/ccBrtqSe.s 			page 12


 647 000a 52D0     		beq	.L115
 648 000c 90F83430 		ldrb	r3, [r0, #52]	@ zero_extendqisi2
 649 0010 012B     		cmp	r3, #1
 650 0012 0BD0     		beq	.L116
 651 0014 0123     		movs	r3, #1
 652 0016 80F83430 		strb	r3, [r0, #52]
 653 001a 90F83530 		ldrb	r3, [r0, #53]	@ zero_extendqisi2
 654 001e 012B     		cmp	r3, #1
 655 0020 DDB2     		uxtb	r5, r3
 656 0022 4FF00003 		mov	r3, #0
 657 0026 03D0     		beq	.L107
 658 0028 80F83430 		strb	r3, [r0, #52]
 659              	.L116:
 660 002c 0225     		movs	r5, #2
 661 002e 28E0     		b	.L106
 662              	.L107:
 663 0030 0320     		movs	r0, #3
 664 0032 2668     		ldr	r6, [r4]
 665 0034 84F83500 		strb	r0, [r4, #53]
 666 0038 A363     		str	r3, [r4, #56]
 667 003a F369     		ldr	r3, [r6, #28]
 668 003c E161     		str	r1, [r4, #28]
 669 003e 03F00703 		and	r3, r3, #7
 670 0042 8342     		cmp	r3, r0
 671 0044 01D0     		beq	.L108
 672 0046 052B     		cmp	r3, #5
 673 0048 1DD1     		bne	.L109
 674              	.L108:
 675 004a 5300     		lsls	r3, r2, #1
 676 004c 9BB2     		uxth	r3, r3
 677 004e 2384     		strh	r3, [r4, #32]	@ movhi
 678 0050 6384     		strh	r3, [r4, #34]	@ movhi
 679              	.L110:
 680 0052 E06A     		ldr	r0, [r4, #44]
 681 0054 184B     		ldr	r3, .L120
 682 0056 06F10C02 		add	r2, r6, #12
 683 005a C362     		str	r3, [r0, #44]
 684 005c 174B     		ldr	r3, .L120+4
 685 005e 8362     		str	r3, [r0, #40]
 686 0060 174B     		ldr	r3, .L120+8
 687 0062 0363     		str	r3, [r0, #48]
 688 0064 238C     		ldrh	r3, [r4, #32]
 689 0066 9BB2     		uxth	r3, r3
 690 0068 FFF7FEFF 		bl	HAL_DMA_Start_IT
 691 006c 70B1     		cbz	r0, .L111
 692 006e A36B     		ldr	r3, [r4, #56]
 693 0070 43F00803 		orr	r3, r3, #8
 694 0074 A363     		str	r3, [r4, #56]
 695 0076 0123     		movs	r3, #1
 696 0078 84F83530 		strb	r3, [r4, #53]
 697 007c 0023     		movs	r3, #0
 698 007e 84F83430 		strb	r3, [r4, #52]
 699              	.L106:
 700 0082 2846     		mov	r0, r5
 701 0084 70BD     		pop	{r4, r5, r6, pc}
 702              	.L109:
 703 0086 2284     		strh	r2, [r4, #32]	@ movhi
ARM GAS  /tmp/ccBrtqSe.s 			page 13


 704 0088 6284     		strh	r2, [r4, #34]	@ movhi
 705 008a E2E7     		b	.L110
 706              	.L111:
 707 008c 0025     		movs	r5, #0
 708 008e 2368     		ldr	r3, [r4]
 709 0090 DA69     		ldr	r2, [r3, #28]
 710 0092 5105     		lsls	r1, r2, #21
 711 0094 5EBF     		ittt	pl
 712 0096 DA69     		ldrpl	r2, [r3, #28]
 713 0098 42F48062 		orrpl	r2, r2, #1024
 714 009c DA61     		strpl	r2, [r3, #28]
 715 009e 5A68     		ldr	r2, [r3, #4]
 716 00a0 9207     		lsls	r2, r2, #30
 717 00a2 5EBF     		ittt	pl
 718 00a4 5A68     		ldrpl	r2, [r3, #4]
 719 00a6 42F00202 		orrpl	r2, r2, #2
 720 00aa 5A60     		strpl	r2, [r3, #4]
 721 00ac 84F83450 		strb	r5, [r4, #52]
 722 00b0 E7E7     		b	.L106
 723              	.L115:
 724 00b2 0125     		movs	r5, #1
 725 00b4 E5E7     		b	.L106
 726              	.L121:
 727 00b6 00BF     		.align	2
 728              	.L120:
 729 00b8 00000000 		.word	I2S_DMATxHalfCplt
 730 00bc 00000000 		.word	I2S_DMATxCplt
 731 00c0 00000000 		.word	I2S_DMAError
 733              		.section	.text.HAL_I2S_Receive_DMA,"ax",%progbits
 734              		.align	1
 735              		.global	HAL_I2S_Receive_DMA
 736              		.syntax unified
 737              		.thumb
 738              		.thumb_func
 739              		.fpu softvfp
 741              	HAL_I2S_Receive_DMA:
 742              		@ args = 0, pretend = 0, frame = 8
 743              		@ frame_needed = 0, uses_anonymous_args = 0
 744 0000 1346     		mov	r3, r2
 745 0002 73B5     		push	{r0, r1, r4, r5, r6, lr}
 746 0004 0A46     		mov	r2, r1
 747 0006 0446     		mov	r4, r0
 748 0008 0029     		cmp	r1, #0
 749 000a 5FD0     		beq	.L133
 750 000c 002B     		cmp	r3, #0
 751 000e 5DD0     		beq	.L133
 752 0010 90F83410 		ldrb	r1, [r0, #52]	@ zero_extendqisi2
 753 0014 0129     		cmp	r1, #1
 754 0016 0BD0     		beq	.L134
 755 0018 0121     		movs	r1, #1
 756 001a 80F83410 		strb	r1, [r0, #52]
 757 001e 90F83510 		ldrb	r1, [r0, #53]	@ zero_extendqisi2
 758 0022 0129     		cmp	r1, #1
 759 0024 CDB2     		uxtb	r5, r1
 760 0026 4FF00001 		mov	r1, #0
 761 002a 03D0     		beq	.L124
 762 002c 80F83410 		strb	r1, [r0, #52]
ARM GAS  /tmp/ccBrtqSe.s 			page 14


 763              	.L134:
 764 0030 0225     		movs	r5, #2
 765 0032 35E0     		b	.L123
 766              	.L124:
 767 0034 0420     		movs	r0, #4
 768 0036 2668     		ldr	r6, [r4]
 769 0038 84F83500 		strb	r0, [r4, #53]
 770 003c A163     		str	r1, [r4, #56]
 771 003e F169     		ldr	r1, [r6, #28]
 772 0040 6262     		str	r2, [r4, #36]
 773 0042 01F00701 		and	r1, r1, #7
 774 0046 0329     		cmp	r1, #3
 775 0048 01D0     		beq	.L125
 776 004a 0529     		cmp	r1, #5
 777 004c 01D1     		bne	.L126
 778              	.L125:
 779 004e 5B00     		lsls	r3, r3, #1
 780 0050 9BB2     		uxth	r3, r3
 781              	.L126:
 782 0052 2385     		strh	r3, [r4, #40]	@ movhi
 783 0054 206B     		ldr	r0, [r4, #48]
 784 0056 6385     		strh	r3, [r4, #42]	@ movhi
 785 0058 1D4B     		ldr	r3, .L138
 786 005a C362     		str	r3, [r0, #44]
 787 005c 1D4B     		ldr	r3, .L138+4
 788 005e 8362     		str	r3, [r0, #40]
 789 0060 1D4B     		ldr	r3, .L138+8
 790 0062 0363     		str	r3, [r0, #48]
 791 0064 F369     		ldr	r3, [r6, #28]
 792 0066 03F44073 		and	r3, r3, #768
 793 006a B3F5407F 		cmp	r3, #768
 794 006e 06D1     		bne	.L128
 795 0070 0023     		movs	r3, #0
 796 0072 0193     		str	r3, [sp, #4]
 797 0074 F368     		ldr	r3, [r6, #12]
 798 0076 0193     		str	r3, [sp, #4]
 799 0078 B368     		ldr	r3, [r6, #8]
 800 007a 0193     		str	r3, [sp, #4]
 801 007c 019B     		ldr	r3, [sp, #4]
 802              	.L128:
 803 007e 238D     		ldrh	r3, [r4, #40]
 804 0080 06F10C01 		add	r1, r6, #12
 805 0084 9BB2     		uxth	r3, r3
 806 0086 FFF7FEFF 		bl	HAL_DMA_Start_IT
 807 008a 60B1     		cbz	r0, .L129
 808 008c A36B     		ldr	r3, [r4, #56]
 809 008e 43F00803 		orr	r3, r3, #8
 810 0092 A363     		str	r3, [r4, #56]
 811 0094 0123     		movs	r3, #1
 812 0096 84F83530 		strb	r3, [r4, #53]
 813 009a 0023     		movs	r3, #0
 814 009c 84F83430 		strb	r3, [r4, #52]
 815              	.L123:
 816 00a0 2846     		mov	r0, r5
 817 00a2 02B0     		add	sp, sp, #8
 818              		@ sp needed
 819 00a4 70BD     		pop	{r4, r5, r6, pc}
ARM GAS  /tmp/ccBrtqSe.s 			page 15


 820              	.L129:
 821 00a6 0025     		movs	r5, #0
 822 00a8 2368     		ldr	r3, [r4]
 823 00aa DA69     		ldr	r2, [r3, #28]
 824 00ac 5105     		lsls	r1, r2, #21
 825 00ae 5EBF     		ittt	pl
 826 00b0 DA69     		ldrpl	r2, [r3, #28]
 827 00b2 42F48062 		orrpl	r2, r2, #1024
 828 00b6 DA61     		strpl	r2, [r3, #28]
 829 00b8 5A68     		ldr	r2, [r3, #4]
 830 00ba D207     		lsls	r2, r2, #31
 831 00bc 5EBF     		ittt	pl
 832 00be 5A68     		ldrpl	r2, [r3, #4]
 833 00c0 42F00102 		orrpl	r2, r2, #1
 834 00c4 5A60     		strpl	r2, [r3, #4]
 835 00c6 84F83450 		strb	r5, [r4, #52]
 836 00ca E9E7     		b	.L123
 837              	.L133:
 838 00cc 0125     		movs	r5, #1
 839 00ce E7E7     		b	.L123
 840              	.L139:
 841              		.align	2
 842              	.L138:
 843 00d0 00000000 		.word	I2S_DMARxHalfCplt
 844 00d4 00000000 		.word	I2S_DMARxCplt
 845 00d8 00000000 		.word	I2S_DMAError
 847              		.section	.text.HAL_I2S_DMAPause,"ax",%progbits
 848              		.align	1
 849              		.global	HAL_I2S_DMAPause
 850              		.syntax unified
 851              		.thumb
 852              		.thumb_func
 853              		.fpu softvfp
 855              	HAL_I2S_DMAPause:
 856              		@ args = 0, pretend = 0, frame = 0
 857              		@ frame_needed = 0, uses_anonymous_args = 0
 858              		@ link register save eliminated.
 859 0000 90F83430 		ldrb	r3, [r0, #52]	@ zero_extendqisi2
 860 0004 012B     		cmp	r3, #1
 861 0006 19D0     		beq	.L144
 862 0008 0123     		movs	r3, #1
 863 000a 80F83430 		strb	r3, [r0, #52]
 864 000e 90F83530 		ldrb	r3, [r0, #53]	@ zero_extendqisi2
 865 0012 032B     		cmp	r3, #3
 866 0014 09D1     		bne	.L142
 867 0016 0268     		ldr	r2, [r0]
 868 0018 5368     		ldr	r3, [r2, #4]
 869 001a 23F00203 		bic	r3, r3, #2
 870              	.L145:
 871 001e 5360     		str	r3, [r2, #4]
 872              	.L143:
 873 0020 0023     		movs	r3, #0
 874 0022 80F83430 		strb	r3, [r0, #52]
 875 0026 1846     		mov	r0, r3
 876 0028 7047     		bx	lr
 877              	.L142:
 878 002a 90F83530 		ldrb	r3, [r0, #53]	@ zero_extendqisi2
ARM GAS  /tmp/ccBrtqSe.s 			page 16


 879 002e 042B     		cmp	r3, #4
 880 0030 F6D1     		bne	.L143
 881 0032 0268     		ldr	r2, [r0]
 882 0034 5368     		ldr	r3, [r2, #4]
 883 0036 23F00103 		bic	r3, r3, #1
 884 003a F0E7     		b	.L145
 885              	.L144:
 886 003c 0220     		movs	r0, #2
 887 003e 7047     		bx	lr
 889              		.section	.text.HAL_I2S_DMAResume,"ax",%progbits
 890              		.align	1
 891              		.global	HAL_I2S_DMAResume
 892              		.syntax unified
 893              		.thumb
 894              		.thumb_func
 895              		.fpu softvfp
 897              	HAL_I2S_DMAResume:
 898              		@ args = 0, pretend = 0, frame = 0
 899              		@ frame_needed = 0, uses_anonymous_args = 0
 900              		@ link register save eliminated.
 901 0000 90F83430 		ldrb	r3, [r0, #52]	@ zero_extendqisi2
 902 0004 012B     		cmp	r3, #1
 903 0006 1FD0     		beq	.L151
 904 0008 0123     		movs	r3, #1
 905 000a 80F83430 		strb	r3, [r0, #52]
 906 000e 90F83520 		ldrb	r2, [r0, #53]	@ zero_extendqisi2
 907 0012 0368     		ldr	r3, [r0]
 908 0014 032A     		cmp	r2, #3
 909 0016 0FD1     		bne	.L148
 910 0018 5A68     		ldr	r2, [r3, #4]
 911 001a 42F00202 		orr	r2, r2, #2
 912              	.L152:
 913 001e 5A60     		str	r2, [r3, #4]
 914              	.L149:
 915 0020 DA69     		ldr	r2, [r3, #28]
 916 0022 5205     		lsls	r2, r2, #21
 917 0024 5EBF     		ittt	pl
 918 0026 DA69     		ldrpl	r2, [r3, #28]
 919 0028 42F48062 		orrpl	r2, r2, #1024
 920 002c DA61     		strpl	r2, [r3, #28]
 921 002e 0023     		movs	r3, #0
 922 0030 80F83430 		strb	r3, [r0, #52]
 923 0034 1846     		mov	r0, r3
 924 0036 7047     		bx	lr
 925              	.L148:
 926 0038 90F83520 		ldrb	r2, [r0, #53]	@ zero_extendqisi2
 927 003c 042A     		cmp	r2, #4
 928 003e EFD1     		bne	.L149
 929 0040 5A68     		ldr	r2, [r3, #4]
 930 0042 42F00102 		orr	r2, r2, #1
 931 0046 EAE7     		b	.L152
 932              	.L151:
 933 0048 0220     		movs	r0, #2
 934 004a 7047     		bx	lr
 936              		.section	.text.HAL_I2S_DMAStop,"ax",%progbits
 937              		.align	1
 938              		.global	HAL_I2S_DMAStop
ARM GAS  /tmp/ccBrtqSe.s 			page 17


 939              		.syntax unified
 940              		.thumb
 941              		.thumb_func
 942              		.fpu softvfp
 944              	HAL_I2S_DMAStop:
 945              		@ args = 0, pretend = 0, frame = 0
 946              		@ frame_needed = 0, uses_anonymous_args = 0
 947 0000 38B5     		push	{r3, r4, r5, lr}
 948 0002 0368     		ldr	r3, [r0]
 949 0004 0446     		mov	r4, r0
 950 0006 5A68     		ldr	r2, [r3, #4]
 951 0008 C06A     		ldr	r0, [r0, #44]
 952 000a 22F00202 		bic	r2, r2, #2
 953 000e 5A60     		str	r2, [r3, #4]
 954 0010 5A68     		ldr	r2, [r3, #4]
 955 0012 22F00102 		bic	r2, r2, #1
 956 0016 5A60     		str	r2, [r3, #4]
 957 0018 A0B9     		cbnz	r0, .L154
 958              	.L156:
 959 001a 0025     		movs	r5, #0
 960              	.L155:
 961 001c 206B     		ldr	r0, [r4, #48]
 962 001e 38B1     		cbz	r0, .L157
 963 0020 FFF7FEFF 		bl	HAL_DMA_Abort
 964 0024 20B1     		cbz	r0, .L157
 965 0026 0125     		movs	r5, #1
 966 0028 A36B     		ldr	r3, [r4, #56]
 967 002a 43F00803 		orr	r3, r3, #8
 968 002e A363     		str	r3, [r4, #56]
 969              	.L157:
 970 0030 2268     		ldr	r2, [r4]
 971 0032 2846     		mov	r0, r5
 972 0034 D369     		ldr	r3, [r2, #28]
 973 0036 23F48063 		bic	r3, r3, #1024
 974 003a D361     		str	r3, [r2, #28]
 975 003c 0123     		movs	r3, #1
 976 003e 84F83530 		strb	r3, [r4, #53]
 977 0042 38BD     		pop	{r3, r4, r5, pc}
 978              	.L154:
 979 0044 FFF7FEFF 		bl	HAL_DMA_Abort
 980 0048 0028     		cmp	r0, #0
 981 004a E6D0     		beq	.L156
 982 004c A36B     		ldr	r3, [r4, #56]
 983 004e 0125     		movs	r5, #1
 984 0050 43F00803 		orr	r3, r3, #8
 985 0054 A363     		str	r3, [r4, #56]
 986 0056 E1E7     		b	.L155
 988              		.section	.text.HAL_I2S_TxHalfCpltCallback,"ax",%progbits
 989              		.align	1
 990              		.weak	HAL_I2S_TxHalfCpltCallback
 991              		.syntax unified
 992              		.thumb
 993              		.thumb_func
 994              		.fpu softvfp
 996              	HAL_I2S_TxHalfCpltCallback:
 997              		@ args = 0, pretend = 0, frame = 0
 998              		@ frame_needed = 0, uses_anonymous_args = 0
ARM GAS  /tmp/ccBrtqSe.s 			page 18


 999              		@ link register save eliminated.
 1000 0000 7047     		bx	lr
 1002              		.section	.text.I2S_DMATxHalfCplt,"ax",%progbits
 1003              		.align	1
 1004              		.syntax unified
 1005              		.thumb
 1006              		.thumb_func
 1007              		.fpu softvfp
 1009              	I2S_DMATxHalfCplt:
 1010              		@ args = 0, pretend = 0, frame = 0
 1011              		@ frame_needed = 0, uses_anonymous_args = 0
 1012 0000 08B5     		push	{r3, lr}
 1013 0002 406A     		ldr	r0, [r0, #36]
 1014 0004 FFF7FEFF 		bl	HAL_I2S_TxHalfCpltCallback
 1015 0008 08BD     		pop	{r3, pc}
 1017              		.section	.text.HAL_I2S_TxCpltCallback,"ax",%progbits
 1018              		.align	1
 1019              		.weak	HAL_I2S_TxCpltCallback
 1020              		.syntax unified
 1021              		.thumb
 1022              		.thumb_func
 1023              		.fpu softvfp
 1025              	HAL_I2S_TxCpltCallback:
 1026              		@ args = 0, pretend = 0, frame = 0
 1027              		@ frame_needed = 0, uses_anonymous_args = 0
 1028              		@ link register save eliminated.
 1029 0000 7047     		bx	lr
 1031              		.section	.text.I2S_DMATxCplt,"ax",%progbits
 1032              		.align	1
 1033              		.syntax unified
 1034              		.thumb
 1035              		.thumb_func
 1036              		.fpu softvfp
 1038              	I2S_DMATxCplt:
 1039              		@ args = 0, pretend = 0, frame = 0
 1040              		@ frame_needed = 0, uses_anonymous_args = 0
 1041 0000 08B5     		push	{r3, lr}
 1042 0002 0346     		mov	r3, r0
 1043 0004 9A69     		ldr	r2, [r3, #24]
 1044 0006 406A     		ldr	r0, [r0, #36]
 1045 0008 42B9     		cbnz	r2, .L171
 1046 000a 0168     		ldr	r1, [r0]
 1047 000c 4B68     		ldr	r3, [r1, #4]
 1048 000e 23F00203 		bic	r3, r3, #2
 1049 0012 4B60     		str	r3, [r1, #4]
 1050 0014 0123     		movs	r3, #1
 1051 0016 4284     		strh	r2, [r0, #34]	@ movhi
 1052 0018 80F83530 		strb	r3, [r0, #53]
 1053              	.L171:
 1054 001c FFF7FEFF 		bl	HAL_I2S_TxCpltCallback
 1055 0020 08BD     		pop	{r3, pc}
 1057              		.section	.text.HAL_I2S_RxHalfCpltCallback,"ax",%progbits
 1058              		.align	1
 1059              		.weak	HAL_I2S_RxHalfCpltCallback
 1060              		.syntax unified
 1061              		.thumb
 1062              		.thumb_func
ARM GAS  /tmp/ccBrtqSe.s 			page 19


 1063              		.fpu softvfp
 1065              	HAL_I2S_RxHalfCpltCallback:
 1066              		@ args = 0, pretend = 0, frame = 0
 1067              		@ frame_needed = 0, uses_anonymous_args = 0
 1068              		@ link register save eliminated.
 1069 0000 7047     		bx	lr
 1071              		.section	.text.I2S_DMARxHalfCplt,"ax",%progbits
 1072              		.align	1
 1073              		.syntax unified
 1074              		.thumb
 1075              		.thumb_func
 1076              		.fpu softvfp
 1078              	I2S_DMARxHalfCplt:
 1079              		@ args = 0, pretend = 0, frame = 0
 1080              		@ frame_needed = 0, uses_anonymous_args = 0
 1081 0000 08B5     		push	{r3, lr}
 1082 0002 406A     		ldr	r0, [r0, #36]
 1083 0004 FFF7FEFF 		bl	HAL_I2S_RxHalfCpltCallback
 1084 0008 08BD     		pop	{r3, pc}
 1086              		.section	.text.HAL_I2S_RxCpltCallback,"ax",%progbits
 1087              		.align	1
 1088              		.weak	HAL_I2S_RxCpltCallback
 1089              		.syntax unified
 1090              		.thumb
 1091              		.thumb_func
 1092              		.fpu softvfp
 1094              	HAL_I2S_RxCpltCallback:
 1095              		@ args = 0, pretend = 0, frame = 0
 1096              		@ frame_needed = 0, uses_anonymous_args = 0
 1097              		@ link register save eliminated.
 1098 0000 7047     		bx	lr
 1100              		.section	.text.I2S_DMARxCplt,"ax",%progbits
 1101              		.align	1
 1102              		.syntax unified
 1103              		.thumb
 1104              		.thumb_func
 1105              		.fpu softvfp
 1107              	I2S_DMARxCplt:
 1108              		@ args = 0, pretend = 0, frame = 0
 1109              		@ frame_needed = 0, uses_anonymous_args = 0
 1110 0000 08B5     		push	{r3, lr}
 1111 0002 0346     		mov	r3, r0
 1112 0004 9A69     		ldr	r2, [r3, #24]
 1113 0006 406A     		ldr	r0, [r0, #36]
 1114 0008 42B9     		cbnz	r2, .L176
 1115 000a 0168     		ldr	r1, [r0]
 1116 000c 4B68     		ldr	r3, [r1, #4]
 1117 000e 23F00103 		bic	r3, r3, #1
 1118 0012 4B60     		str	r3, [r1, #4]
 1119 0014 0123     		movs	r3, #1
 1120 0016 4285     		strh	r2, [r0, #42]	@ movhi
 1121 0018 80F83530 		strb	r3, [r0, #53]
 1122              	.L176:
 1123 001c FFF7FEFF 		bl	HAL_I2S_RxCpltCallback
 1124 0020 08BD     		pop	{r3, pc}
 1126              		.section	.text.HAL_I2S_ErrorCallback,"ax",%progbits
 1127              		.align	1
ARM GAS  /tmp/ccBrtqSe.s 			page 20


 1128              		.weak	HAL_I2S_ErrorCallback
 1129              		.syntax unified
 1130              		.thumb
 1131              		.thumb_func
 1132              		.fpu softvfp
 1134              	HAL_I2S_ErrorCallback:
 1135              		@ args = 0, pretend = 0, frame = 0
 1136              		@ frame_needed = 0, uses_anonymous_args = 0
 1137              		@ link register save eliminated.
 1138 0000 7047     		bx	lr
 1140              		.section	.text.I2S_DMAError,"ax",%progbits
 1141              		.align	1
 1142              		.syntax unified
 1143              		.thumb
 1144              		.thumb_func
 1145              		.fpu softvfp
 1147              	I2S_DMAError:
 1148              		@ args = 0, pretend = 0, frame = 0
 1149              		@ frame_needed = 0, uses_anonymous_args = 0
 1150 0000 406A     		ldr	r0, [r0, #36]
 1151 0002 08B5     		push	{r3, lr}
 1152 0004 0268     		ldr	r2, [r0]
 1153 0006 5368     		ldr	r3, [r2, #4]
 1154 0008 23F00303 		bic	r3, r3, #3
 1155 000c 5360     		str	r3, [r2, #4]
 1156 000e 0023     		movs	r3, #0
 1157 0010 4384     		strh	r3, [r0, #34]	@ movhi
 1158 0012 4385     		strh	r3, [r0, #42]	@ movhi
 1159 0014 0123     		movs	r3, #1
 1160 0016 80F83530 		strb	r3, [r0, #53]
 1161 001a 836B     		ldr	r3, [r0, #56]
 1162 001c 43F00803 		orr	r3, r3, #8
 1163 0020 8363     		str	r3, [r0, #56]
 1164 0022 FFF7FEFF 		bl	HAL_I2S_ErrorCallback
 1165 0026 08BD     		pop	{r3, pc}
 1167              		.section	.text.HAL_I2S_IRQHandler,"ax",%progbits
 1168              		.align	1
 1169              		.global	HAL_I2S_IRQHandler
 1170              		.syntax unified
 1171              		.thumb
 1172              		.thumb_func
 1173              		.fpu softvfp
 1175              	HAL_I2S_IRQHandler:
 1176              		@ args = 0, pretend = 0, frame = 0
 1177              		@ frame_needed = 0, uses_anonymous_args = 0
 1178 0000 0268     		ldr	r2, [r0]
 1179 0002 38B5     		push	{r3, r4, r5, lr}
 1180 0004 5468     		ldr	r4, [r2, #4]
 1181 0006 9168     		ldr	r1, [r2, #8]
 1182 0008 0346     		mov	r3, r0
 1183 000a 11F0400F 		tst	r1, #64
 1184 000e C1F38015 		ubfx	r5, r1, #6, #1
 1185 0012 1BD1     		bne	.L180
 1186 0014 11F0010F 		tst	r1, #1
 1187 0018 18D0     		beq	.L180
 1188 001a 14F0400F 		tst	r4, #64
 1189 001e 15D0     		beq	.L180
ARM GAS  /tmp/ccBrtqSe.s 			page 21


 1190 0020 D468     		ldr	r4, [r2, #12]
 1191 0022 416A     		ldr	r1, [r0, #36]
 1192 0024 21F8024B 		strh	r4, [r1], #2	@ movhi
 1193 0028 4162     		str	r1, [r0, #36]
 1194 002a 418D     		ldrh	r1, [r0, #42]
 1195 002c 0139     		subs	r1, r1, #1
 1196 002e 89B2     		uxth	r1, r1
 1197 0030 4185     		strh	r1, [r0, #42]	@ movhi
 1198 0032 418D     		ldrh	r1, [r0, #42]
 1199 0034 89B2     		uxth	r1, r1
 1200 0036 41B9     		cbnz	r1, .L179
 1201 0038 5168     		ldr	r1, [r2, #4]
 1202 003a 21F06001 		bic	r1, r1, #96
 1203 003e 5160     		str	r1, [r2, #4]
 1204 0040 0122     		movs	r2, #1
 1205 0042 80F83520 		strb	r2, [r0, #53]
 1206 0046 FFF7FEFF 		bl	HAL_I2S_RxCpltCallback
 1207              	.L179:
 1208 004a 38BD     		pop	{r3, r4, r5, pc}
 1209              	.L180:
 1210 004c 8807     		lsls	r0, r1, #30
 1211 004e 19D5     		bpl	.L183
 1212 0050 2006     		lsls	r0, r4, #24
 1213 0052 17D5     		bpl	.L183
 1214 0054 D969     		ldr	r1, [r3, #28]
 1215 0056 31F8020B 		ldrh	r0, [r1], #2
 1216 005a D060     		str	r0, [r2, #12]
 1217 005c D961     		str	r1, [r3, #28]
 1218 005e 598C     		ldrh	r1, [r3, #34]
 1219 0060 0139     		subs	r1, r1, #1
 1220 0062 89B2     		uxth	r1, r1
 1221 0064 5984     		strh	r1, [r3, #34]	@ movhi
 1222 0066 598C     		ldrh	r1, [r3, #34]
 1223 0068 89B2     		uxth	r1, r1
 1224 006a 0029     		cmp	r1, #0
 1225 006c EDD1     		bne	.L179
 1226 006e 5168     		ldr	r1, [r2, #4]
 1227 0070 1846     		mov	r0, r3
 1228 0072 21F0A001 		bic	r1, r1, #160
 1229 0076 5160     		str	r1, [r2, #4]
 1230 0078 0122     		movs	r2, #1
 1231 007a 83F83520 		strb	r2, [r3, #53]
 1232 007e FFF7FEFF 		bl	HAL_I2S_TxCpltCallback
 1233 0082 E2E7     		b	.L179
 1234              	.L183:
 1235 0084 A006     		lsls	r0, r4, #26
 1236 0086 E0D5     		bpl	.L179
 1237 0088 3DB1     		cbz	r5, .L185
 1238 008a 5068     		ldr	r0, [r2, #4]
 1239 008c 20F06000 		bic	r0, r0, #96
 1240 0090 5060     		str	r0, [r2, #4]
 1241 0092 986B     		ldr	r0, [r3, #56]
 1242 0094 40F00200 		orr	r0, r0, #2
 1243 0098 9863     		str	r0, [r3, #56]
 1244              	.L185:
 1245 009a 0907     		lsls	r1, r1, #28
 1246 009c 07D5     		bpl	.L186
ARM GAS  /tmp/ccBrtqSe.s 			page 22


 1247 009e 5168     		ldr	r1, [r2, #4]
 1248 00a0 21F0A001 		bic	r1, r1, #160
 1249 00a4 5160     		str	r1, [r2, #4]
 1250 00a6 9A6B     		ldr	r2, [r3, #56]
 1251 00a8 42F00402 		orr	r2, r2, #4
 1252 00ac 9A63     		str	r2, [r3, #56]
 1253              	.L186:
 1254 00ae 0122     		movs	r2, #1
 1255 00b0 1846     		mov	r0, r3
 1256 00b2 83F83520 		strb	r2, [r3, #53]
 1257 00b6 FFF7FEFF 		bl	HAL_I2S_ErrorCallback
 1258 00ba C6E7     		b	.L179
 1260              		.section	.text.HAL_I2S_GetState,"ax",%progbits
 1261              		.align	1
 1262              		.global	HAL_I2S_GetState
 1263              		.syntax unified
 1264              		.thumb
 1265              		.thumb_func
 1266              		.fpu softvfp
 1268              	HAL_I2S_GetState:
 1269              		@ args = 0, pretend = 0, frame = 0
 1270              		@ frame_needed = 0, uses_anonymous_args = 0
 1271              		@ link register save eliminated.
 1272 0000 90F83500 		ldrb	r0, [r0, #53]	@ zero_extendqisi2
 1273 0004 7047     		bx	lr
 1275              		.section	.text.HAL_I2S_GetError,"ax",%progbits
 1276              		.align	1
 1277              		.global	HAL_I2S_GetError
 1278              		.syntax unified
 1279              		.thumb
 1280              		.thumb_func
 1281              		.fpu softvfp
 1283              	HAL_I2S_GetError:
 1284              		@ args = 0, pretend = 0, frame = 0
 1285              		@ frame_needed = 0, uses_anonymous_args = 0
 1286              		@ link register save eliminated.
 1287 0000 806B     		ldr	r0, [r0, #56]
 1288 0002 7047     		bx	lr
 1290              		.ident	"GCC: (GNU Tools for Arm Embedded Processors 9-2019-q4-major) 9.2.1 20191025 (release) [ARM
ARM GAS  /tmp/ccBrtqSe.s 			page 23

