ARM GAS  /tmp/ccBaiOiR.s 			page 1


   1              		.cpu cortex-m3
   2              		.eabi_attribute 20, 1
   3              		.eabi_attribute 21, 1
   4              		.eabi_attribute 23, 3
   5              		.eabi_attribute 24, 1
   6              		.eabi_attribute 25, 1
   7              		.eabi_attribute 26, 1
   8              		.eabi_attribute 30, 4
   9              		.eabi_attribute 34, 1
  10              		.eabi_attribute 18, 4
  11              		.file	"stm32f1xx_hal_mmc.c"
  12              		.text
  13              		.section	.text.MMC_DMATransmitCplt,"ax",%progbits
  14              		.align	1
  15              		.arch armv7-m
  16              		.syntax unified
  17              		.thumb
  18              		.thumb_func
  19              		.fpu softvfp
  21              	MMC_DMATransmitCplt:
  22              		@ args = 0, pretend = 0, frame = 0
  23              		@ frame_needed = 0, uses_anonymous_args = 0
  24              		@ link register save eliminated.
  25 0000 436A     		ldr	r3, [r0, #36]
  26 0002 1A68     		ldr	r2, [r3]
  27 0004 D36B     		ldr	r3, [r2, #60]
  28 0006 43F48073 		orr	r3, r3, #256
  29 000a D363     		str	r3, [r2, #60]
  30 000c 7047     		bx	lr
  32              		.section	.text.HAL_MMC_MspInit,"ax",%progbits
  33              		.align	1
  34              		.weak	HAL_MMC_MspInit
  35              		.syntax unified
  36              		.thumb
  37              		.thumb_func
  38              		.fpu softvfp
  40              	HAL_MMC_MspInit:
  41              		@ args = 0, pretend = 0, frame = 0
  42              		@ frame_needed = 0, uses_anonymous_args = 0
  43              		@ link register save eliminated.
  44 0000 7047     		bx	lr
  46              		.section	.text.HAL_MMC_MspDeInit,"ax",%progbits
  47              		.align	1
  48              		.weak	HAL_MMC_MspDeInit
  49              		.syntax unified
  50              		.thumb
  51              		.thumb_func
  52              		.fpu softvfp
  54              	HAL_MMC_MspDeInit:
  55              		@ args = 0, pretend = 0, frame = 0
  56              		@ frame_needed = 0, uses_anonymous_args = 0
  57              		@ link register save eliminated.
  58 0000 7047     		bx	lr
  60              		.section	.text.HAL_MMC_DeInit,"ax",%progbits
  61              		.align	1
  62              		.global	HAL_MMC_DeInit
  63              		.syntax unified
ARM GAS  /tmp/ccBaiOiR.s 			page 2


  64              		.thumb
  65              		.thumb_func
  66              		.fpu softvfp
  68              	HAL_MMC_DeInit:
  69              		@ args = 0, pretend = 0, frame = 0
  70              		@ frame_needed = 0, uses_anonymous_args = 0
  71 0000 10B5     		push	{r4, lr}
  72 0002 0446     		mov	r4, r0
  73 0004 68B1     		cbz	r0, .L6
  74 0006 0323     		movs	r3, #3
  75 0008 80F83430 		strb	r3, [r0, #52]
  76 000c 0068     		ldr	r0, [r0]
  77 000e FFF7FEFF 		bl	SDIO_PowerState_OFF
  78 0012 2046     		mov	r0, r4
  79 0014 FFF7FEFF 		bl	HAL_MMC_MspDeInit
  80 0018 0020     		movs	r0, #0
  81 001a A063     		str	r0, [r4, #56]
  82 001c 84F83400 		strb	r0, [r4, #52]
  83              	.L5:
  84 0020 10BD     		pop	{r4, pc}
  85              	.L6:
  86 0022 0120     		movs	r0, #1
  87 0024 FCE7     		b	.L5
  89              		.section	.text.HAL_MMC_ReadBlocks,"ax",%progbits
  90              		.align	1
  91              		.global	HAL_MMC_ReadBlocks
  92              		.syntax unified
  93              		.thumb
  94              		.thumb_func
  95              		.fpu softvfp
  97              	HAL_MMC_ReadBlocks:
  98              		@ args = 4, pretend = 0, frame = 32
  99              		@ frame_needed = 0, uses_anonymous_args = 0
 100 0000 2DE9F04F 		push	{r4, r5, r6, r7, r8, r9, r10, fp, lr}
 101 0004 89B0     		sub	sp, sp, #36
 102 0006 0446     		mov	r4, r0
 103 0008 0D46     		mov	r5, r1
 104 000a 1646     		mov	r6, r2
 105 000c 9A46     		mov	r10, r3
 106 000e FFF7FEFF 		bl	HAL_GetTick
 107 0012 8046     		mov	r8, r0
 108 0014 2DB9     		cbnz	r5, .L8
 109 0016 A36B     		ldr	r3, [r4, #56]
 110 0018 43F00063 		orr	r3, r3, #134217728
 111              	.L49:
 112 001c 0127     		movs	r7, #1
 113 001e A363     		str	r3, [r4, #56]
 114 0020 10E0     		b	.L9
 115              	.L8:
 116 0022 94F83430 		ldrb	r3, [r4, #52]	@ zero_extendqisi2
 117 0026 012B     		cmp	r3, #1
 118 0028 DFB2     		uxtb	r7, r3
 119 002a 40F0D980 		bne	.L10
 120 002e 0021     		movs	r1, #0
 121 0030 A26D     		ldr	r2, [r4, #88]
 122 0032 06EB0A03 		add	r3, r6, r10
 123 0036 9342     		cmp	r3, r2
ARM GAS  /tmp/ccBaiOiR.s 			page 3


 124 0038 A163     		str	r1, [r4, #56]
 125 003a 07D9     		bls	.L11
 126 003c A36B     		ldr	r3, [r4, #56]
 127 003e 43F00073 		orr	r3, r3, #33554432
 128 0042 A363     		str	r3, [r4, #56]
 129              	.L9:
 130 0044 3846     		mov	r0, r7
 131 0046 09B0     		add	sp, sp, #36
 132              		@ sp needed
 133 0048 BDE8F08F 		pop	{r4, r5, r6, r7, r8, r9, r10, fp, pc}
 134              	.L11:
 135 004c 0323     		movs	r3, #3
 136 004e 2068     		ldr	r0, [r4]
 137 0050 84F83430 		strb	r3, [r4, #52]
 138 0054 636C     		ldr	r3, [r4, #68]
 139 0056 C162     		str	r1, [r0, #44]
 140 0058 012B     		cmp	r3, #1
 141 005a 4FF40071 		mov	r1, #512
 142 005e 18BF     		it	ne
 143 0060 7602     		lslne	r6, r6, #9
 144 0062 FFF7FEFF 		bl	SDMMC_CmdBlockLength
 145 0066 48B1     		cbz	r0, .L13
 146              	.L53:
 147 0068 2368     		ldr	r3, [r4]
 148 006a 5F4A     		ldr	r2, .L54
 149 006c 9A63     		str	r2, [r3, #56]
 150 006e A36B     		ldr	r3, [r4, #56]
 151 0070 1843     		orrs	r0, r0, r3
 152 0072 A063     		str	r0, [r4, #56]
 153              	.L51:
 154 0074 0123     		movs	r3, #1
 155 0076 84F83430 		strb	r3, [r4, #52]
 156 007a E3E7     		b	.L9
 157              	.L13:
 158 007c 4FF0FF33 		mov	r3, #-1
 159 0080 0293     		str	r3, [sp, #8]
 160 0082 4FEA4A23 		lsl	r3, r10, #9
 161 0086 4FF0010B 		mov	fp, #1
 162 008a 0393     		str	r3, [sp, #12]
 163 008c 4FF00209 		mov	r9, #2
 164 0090 9023     		movs	r3, #144
 165 0092 0690     		str	r0, [sp, #24]
 166 0094 02A9     		add	r1, sp, #8
 167 0096 2068     		ldr	r0, [r4]
 168 0098 CDE90439 		strd	r3, r9, [sp, #16]
 169 009c CDF81CB0 		str	fp, [sp, #28]
 170 00a0 FFF7FEFF 		bl	SDIO_ConfigData
 171 00a4 DA45     		cmp	r10, fp
 172 00a6 24D9     		bls	.L14
 173 00a8 3146     		mov	r1, r6
 174 00aa 2068     		ldr	r0, [r4]
 175 00ac C4F83090 		str	r9, [r4, #48]
 176 00b0 FFF7FEFF 		bl	SDMMC_CmdReadMultiBlock
 177              	.L15:
 178 00b4 0028     		cmp	r0, #0
 179 00b6 D7D1     		bne	.L53
 180 00b8 40F22A3B 		movw	fp, #810
ARM GAS  /tmp/ccBaiOiR.s 			page 4


 181 00bc 039E     		ldr	r6, [sp, #12]
 182              	.L17:
 183 00be 2068     		ldr	r0, [r4]
 184 00c0 436B     		ldr	r3, [r0, #52]
 185 00c2 13EA0B0F 		tst	r3, fp
 186 00c6 436B     		ldr	r3, [r0, #52]
 187 00c8 1AD0     		beq	.L20
 188 00ca DB05     		lsls	r3, r3, #23
 189 00cc 06D5     		bpl	.L21
 190 00ce BAF1010F 		cmp	r10, #1
 191 00d2 03D9     		bls	.L21
 192 00d4 FFF7FEFF 		bl	SDMMC_CmdStopTransfer
 193 00d8 0028     		cmp	r0, #0
 194 00da C5D1     		bne	.L53
 195              	.L21:
 196 00dc 2368     		ldr	r3, [r4]
 197 00de 5A6B     		ldr	r2, [r3, #52]
 198 00e0 1007     		lsls	r0, r2, #28
 199 00e2 3DD5     		bpl	.L22
 200 00e4 404A     		ldr	r2, .L54
 201 00e6 9A63     		str	r2, [r3, #56]
 202 00e8 A36B     		ldr	r3, [r4, #56]
 203 00ea 43F00803 		orr	r3, r3, #8
 204              	.L52:
 205 00ee A363     		str	r3, [r4, #56]
 206 00f0 C0E7     		b	.L51
 207              	.L14:
 208 00f2 3146     		mov	r1, r6
 209 00f4 2068     		ldr	r0, [r4]
 210 00f6 C4F830B0 		str	fp, [r4, #48]
 211 00fa FFF7FEFF 		bl	SDMMC_CmdReadSingleBlock
 212 00fe D9E7     		b	.L15
 213              	.L20:
 214 0100 1A04     		lsls	r2, r3, #16
 215 0102 1AD5     		bpl	.L18
 216 0104 CEB1     		cbz	r6, .L18
 217 0106 05F10409 		add	r9, r5, #4
 218 010a 05F12402 		add	r2, r5, #36
 219              	.L19:
 220 010e 2068     		ldr	r0, [r4]
 221 0110 0192     		str	r2, [sp, #4]
 222 0112 FFF7FEFF 		bl	SDIO_ReadFIFO
 223 0116 010A     		lsrs	r1, r0, #8
 224 0118 09F8040C 		strb	r0, [r9, #-4]
 225 011c 09F8031C 		strb	r1, [r9, #-3]
 226 0120 019A     		ldr	r2, [sp, #4]
 227 0122 010C     		lsrs	r1, r0, #16
 228 0124 000E     		lsrs	r0, r0, #24
 229 0126 09F8021C 		strb	r1, [r9, #-2]
 230 012a 09F8010C 		strb	r0, [r9, #-1]
 231 012e 09F10409 		add	r9, r9, #4
 232 0132 4A45     		cmp	r2, r9
 233 0134 EBD1     		bne	.L19
 234 0136 2035     		adds	r5, r5, #32
 235 0138 203E     		subs	r6, r6, #32
 236              	.L18:
 237 013a FFF7FEFF 		bl	HAL_GetTick
ARM GAS  /tmp/ccBaiOiR.s 			page 5


 238 013e 129B     		ldr	r3, [sp, #72]
 239 0140 A0EB0800 		sub	r0, r0, r8
 240 0144 9842     		cmp	r0, r3
 241 0146 BAD3     		bcc	.L17
 242 0148 2368     		ldr	r3, [r4]
 243 014a 274A     		ldr	r2, .L54
 244 014c 0327     		movs	r7, #3
 245 014e 9A63     		str	r2, [r3, #56]
 246 0150 A36B     		ldr	r3, [r4, #56]
 247 0152 43F00043 		orr	r3, r3, #-2147483648
 248 0156 A363     		str	r3, [r4, #56]
 249 0158 0123     		movs	r3, #1
 250 015a 84F83430 		strb	r3, [r4, #52]
 251 015e 71E7     		b	.L9
 252              	.L22:
 253 0160 5A6B     		ldr	r2, [r3, #52]
 254 0162 9107     		lsls	r1, r2, #30
 255 0164 05D5     		bpl	.L23
 256 0166 204A     		ldr	r2, .L54
 257 0168 9A63     		str	r2, [r3, #56]
 258 016a A36B     		ldr	r3, [r4, #56]
 259 016c 43F00203 		orr	r3, r3, #2
 260 0170 BDE7     		b	.L52
 261              	.L23:
 262 0172 5A6B     		ldr	r2, [r3, #52]
 263 0174 9206     		lsls	r2, r2, #26
 264 0176 24D5     		bpl	.L24
 265 0178 1B4A     		ldr	r2, .L54
 266 017a 9A63     		str	r2, [r3, #56]
 267 017c A36B     		ldr	r3, [r4, #56]
 268 017e 43F02003 		orr	r3, r3, #32
 269 0182 B4E7     		b	.L52
 270              	.L27:
 271 0184 FFF7FEFF 		bl	SDIO_ReadFIFO
 272 0188 030A     		lsrs	r3, r0, #8
 273 018a 05F8033C 		strb	r3, [r5, #-3]
 274 018e 030C     		lsrs	r3, r0, #16
 275 0190 05F8023C 		strb	r3, [r5, #-2]
 276 0194 030E     		lsrs	r3, r0, #24
 277 0196 05F8013C 		strb	r3, [r5, #-1]
 278 019a 05F8040C 		strb	r0, [r5, #-4]
 279 019e FFF7FEFF 		bl	HAL_GetTick
 280 01a2 129B     		ldr	r3, [sp, #72]
 281 01a4 A0EB0800 		sub	r0, r0, r8
 282 01a8 9842     		cmp	r0, r3
 283 01aa A6F10406 		sub	r6, r6, #4
 284 01ae 05F10405 		add	r5, r5, #4
 285 01b2 07D3     		bcc	.L25
 286 01b4 2368     		ldr	r3, [r4]
 287 01b6 0C4A     		ldr	r2, .L54
 288 01b8 9A63     		str	r2, [r3, #56]
 289 01ba A36B     		ldr	r3, [r4, #56]
 290 01bc 43F00043 		orr	r3, r3, #-2147483648
 291 01c0 95E7     		b	.L52
 292              	.L24:
 293 01c2 0435     		adds	r5, r5, #4
 294              	.L25:
ARM GAS  /tmp/ccBaiOiR.s 			page 6


 295 01c4 2068     		ldr	r0, [r4]
 296 01c6 436B     		ldr	r3, [r0, #52]
 297 01c8 9B02     		lsls	r3, r3, #10
 298 01ca 01D5     		bpl	.L26
 299 01cc 002E     		cmp	r6, #0
 300 01ce D9D1     		bne	.L27
 301              	.L26:
 302 01d0 40F23A53 		movw	r3, #1338
 303 01d4 8363     		str	r3, [r0, #56]
 304 01d6 0123     		movs	r3, #1
 305 01d8 0027     		movs	r7, #0
 306 01da 84F83430 		strb	r3, [r4, #52]
 307 01de 31E7     		b	.L9
 308              	.L10:
 309 01e0 A36B     		ldr	r3, [r4, #56]
 310 01e2 43F00053 		orr	r3, r3, #536870912
 311 01e6 19E7     		b	.L49
 312              	.L55:
 313              		.align	2
 314              	.L54:
 315 01e8 FF054000 		.word	4195839
 317              		.section	.text.HAL_MMC_WriteBlocks,"ax",%progbits
 318              		.align	1
 319              		.global	HAL_MMC_WriteBlocks
 320              		.syntax unified
 321              		.thumb
 322              		.thumb_func
 323              		.fpu softvfp
 325              	HAL_MMC_WriteBlocks:
 326              		@ args = 4, pretend = 0, frame = 32
 327              		@ frame_needed = 0, uses_anonymous_args = 0
 328 0000 2DE9F04F 		push	{r4, r5, r6, r7, r8, r9, r10, fp, lr}
 329 0004 89B0     		sub	sp, sp, #36
 330 0006 0446     		mov	r4, r0
 331 0008 0E46     		mov	r6, r1
 332 000a 9246     		mov	r10, r2
 333 000c 1F46     		mov	r7, r3
 334 000e FFF7FEFF 		bl	HAL_GetTick
 335 0012 8146     		mov	r9, r0
 336 0014 36B9     		cbnz	r6, .L57
 337 0016 A36B     		ldr	r3, [r4, #56]
 338 0018 43F00063 		orr	r3, r3, #134217728
 339              	.L92:
 340 001c 4FF00108 		mov	r8, #1
 341 0020 A363     		str	r3, [r4, #56]
 342 0022 11E0     		b	.L58
 343              	.L57:
 344 0024 94F83430 		ldrb	r3, [r4, #52]	@ zero_extendqisi2
 345 0028 012B     		cmp	r3, #1
 346 002a 5FFA83F8 		uxtb	r8, r3
 347 002e 40F0AA80 		bne	.L59
 348 0032 0021     		movs	r1, #0
 349 0034 A26D     		ldr	r2, [r4, #88]
 350 0036 0AEB0703 		add	r3, r10, r7
 351 003a 9342     		cmp	r3, r2
 352 003c A163     		str	r1, [r4, #56]
 353 003e 07D9     		bls	.L60
ARM GAS  /tmp/ccBaiOiR.s 			page 7


 354 0040 A36B     		ldr	r3, [r4, #56]
 355 0042 43F00073 		orr	r3, r3, #33554432
 356 0046 A363     		str	r3, [r4, #56]
 357              	.L58:
 358 0048 4046     		mov	r0, r8
 359 004a 09B0     		add	sp, sp, #36
 360              		@ sp needed
 361 004c BDE8F08F 		pop	{r4, r5, r6, r7, r8, r9, r10, fp, pc}
 362              	.L60:
 363 0050 0323     		movs	r3, #3
 364 0052 2068     		ldr	r0, [r4]
 365 0054 84F83430 		strb	r3, [r4, #52]
 366 0058 636C     		ldr	r3, [r4, #68]
 367 005a C162     		str	r1, [r0, #44]
 368 005c 012B     		cmp	r3, #1
 369 005e 4FF40071 		mov	r1, #512
 370 0062 18BF     		it	ne
 371 0064 4FEA4A2A 		lslne	r10, r10, #9
 372 0068 FFF7FEFF 		bl	SDMMC_CmdBlockLength
 373 006c 0346     		mov	r3, r0
 374 006e 2068     		ldr	r0, [r4]
 375 0070 2BB1     		cbz	r3, .L62
 376 0072 474A     		ldr	r2, .L95
 377 0074 8263     		str	r2, [r0, #56]
 378 0076 A06B     		ldr	r0, [r4, #56]
 379 0078 0343     		orrs	r3, r3, r0
 380              	.L94:
 381 007a A363     		str	r3, [r4, #56]
 382 007c 0EE0     		b	.L93
 383              	.L62:
 384 007e 012F     		cmp	r7, #1
 385 0080 10D9     		bls	.L63
 386 0082 2023     		movs	r3, #32
 387 0084 5146     		mov	r1, r10
 388 0086 2363     		str	r3, [r4, #48]
 389 0088 FFF7FEFF 		bl	SDMMC_CmdWriteMultiBlock
 390              	.L91:
 391 008c 0246     		mov	r2, r0
 392 008e 2068     		ldr	r0, [r4]
 393 0090 72B1     		cbz	r2, .L65
 394 0092 3F4B     		ldr	r3, .L95
 395 0094 8363     		str	r3, [r0, #56]
 396 0096 A06B     		ldr	r0, [r4, #56]
 397 0098 0243     		orrs	r2, r2, r0
 398 009a A263     		str	r2, [r4, #56]
 399              	.L93:
 400 009c 0123     		movs	r3, #1
 401 009e 84F83430 		strb	r3, [r4, #52]
 402 00a2 D1E7     		b	.L58
 403              	.L63:
 404 00a4 1023     		movs	r3, #16
 405 00a6 5146     		mov	r1, r10
 406 00a8 2363     		str	r3, [r4, #48]
 407 00aa FFF7FEFF 		bl	SDMMC_CmdWriteSingleBlock
 408 00ae EDE7     		b	.L91
 409              	.L65:
 410 00b0 4FF0FF33 		mov	r3, #-1
ARM GAS  /tmp/ccBaiOiR.s 			page 8


 411 00b4 0293     		str	r3, [sp, #8]
 412 00b6 7B02     		lsls	r3, r7, #9
 413 00b8 0393     		str	r3, [sp, #12]
 414 00ba 9023     		movs	r3, #144
 415 00bc CDE90432 		strd	r3, r2, [sp, #16]
 416 00c0 0123     		movs	r3, #1
 417 00c2 40F21A3A 		movw	r10, #794
 418 00c6 02A9     		add	r1, sp, #8
 419 00c8 0692     		str	r2, [sp, #24]
 420 00ca 0793     		str	r3, [sp, #28]
 421 00cc FFF7FEFF 		bl	SDIO_ConfigData
 422 00d0 039D     		ldr	r5, [sp, #12]
 423              	.L66:
 424 00d2 2068     		ldr	r0, [r4]
 425 00d4 436B     		ldr	r3, [r0, #52]
 426 00d6 13EA0A0F 		tst	r3, r10
 427 00da 436B     		ldr	r3, [r0, #52]
 428 00dc 0DD0     		beq	.L69
 429 00de DD05     		lsls	r5, r3, #23
 430 00e0 2CD5     		bpl	.L70
 431 00e2 012F     		cmp	r7, #1
 432 00e4 2AD9     		bls	.L70
 433 00e6 FFF7FEFF 		bl	SDMMC_CmdStopTransfer
 434 00ea 38B3     		cbz	r0, .L70
 435 00ec 2368     		ldr	r3, [r4]
 436 00ee 284A     		ldr	r2, .L95
 437 00f0 9A63     		str	r2, [r3, #56]
 438 00f2 A36B     		ldr	r3, [r4, #56]
 439 00f4 1843     		orrs	r0, r0, r3
 440 00f6 A063     		str	r0, [r4, #56]
 441 00f8 D0E7     		b	.L93
 442              	.L69:
 443 00fa 5B04     		lsls	r3, r3, #17
 444 00fc 0CD5     		bpl	.L67
 445 00fe 5DB1     		cbz	r5, .L67
 446 0100 06F1200B 		add	fp, r6, #32
 447              	.L68:
 448 0104 56F8042B 		ldr	r2, [r6], #4	@ unaligned
 449 0108 2068     		ldr	r0, [r4]
 450 010a 01A9     		add	r1, sp, #4
 451 010c 0192     		str	r2, [sp, #4]
 452 010e FFF7FEFF 		bl	SDIO_WriteFIFO
 453 0112 B345     		cmp	fp, r6
 454 0114 F6D1     		bne	.L68
 455 0116 203D     		subs	r5, r5, #32
 456              	.L67:
 457 0118 FFF7FEFF 		bl	HAL_GetTick
 458 011c 129B     		ldr	r3, [sp, #72]
 459 011e A0EB0900 		sub	r0, r0, r9
 460 0122 9842     		cmp	r0, r3
 461 0124 D5D3     		bcc	.L66
 462 0126 2368     		ldr	r3, [r4]
 463 0128 194A     		ldr	r2, .L95
 464 012a 4FF00308 		mov	r8, #3
 465 012e 9A63     		str	r2, [r3, #56]
 466 0130 A36B     		ldr	r3, [r4, #56]
 467 0132 A363     		str	r3, [r4, #56]
ARM GAS  /tmp/ccBaiOiR.s 			page 9


 468 0134 0123     		movs	r3, #1
 469 0136 84F83430 		strb	r3, [r4, #52]
 470 013a 85E7     		b	.L58
 471              	.L70:
 472 013c 2368     		ldr	r3, [r4]
 473 013e 5A6B     		ldr	r2, [r3, #52]
 474 0140 1107     		lsls	r1, r2, #28
 475 0142 05D5     		bpl	.L71
 476 0144 124A     		ldr	r2, .L95
 477 0146 9A63     		str	r2, [r3, #56]
 478 0148 A36B     		ldr	r3, [r4, #56]
 479 014a 43F00803 		orr	r3, r3, #8
 480 014e 94E7     		b	.L94
 481              	.L71:
 482 0150 5A6B     		ldr	r2, [r3, #52]
 483 0152 9207     		lsls	r2, r2, #30
 484 0154 05D5     		bpl	.L72
 485 0156 0E4A     		ldr	r2, .L95
 486 0158 9A63     		str	r2, [r3, #56]
 487 015a A36B     		ldr	r3, [r4, #56]
 488 015c 43F00203 		orr	r3, r3, #2
 489 0160 8BE7     		b	.L94
 490              	.L72:
 491 0162 5A6B     		ldr	r2, [r3, #52]
 492 0164 12F01002 		ands	r2, r2, #16
 493 0168 05D0     		beq	.L73
 494 016a 094A     		ldr	r2, .L95
 495 016c 9A63     		str	r2, [r3, #56]
 496 016e A36B     		ldr	r3, [r4, #56]
 497 0170 43F01003 		orr	r3, r3, #16
 498 0174 81E7     		b	.L94
 499              	.L73:
 500 0176 40F23A51 		movw	r1, #1338
 501 017a 9963     		str	r1, [r3, #56]
 502 017c 0123     		movs	r3, #1
 503 017e 9046     		mov	r8, r2
 504 0180 84F83430 		strb	r3, [r4, #52]
 505 0184 60E7     		b	.L58
 506              	.L59:
 507 0186 A36B     		ldr	r3, [r4, #56]
 508 0188 43F00053 		orr	r3, r3, #536870912
 509 018c 46E7     		b	.L92
 510              	.L96:
 511 018e 00BF     		.align	2
 512              	.L95:
 513 0190 FF054000 		.word	4195839
 515              		.section	.text.HAL_MMC_ReadBlocks_IT,"ax",%progbits
 516              		.align	1
 517              		.global	HAL_MMC_ReadBlocks_IT
 518              		.syntax unified
 519              		.thumb
 520              		.thumb_func
 521              		.fpu softvfp
 523              	HAL_MMC_ReadBlocks_IT:
 524              		@ args = 0, pretend = 0, frame = 24
 525              		@ frame_needed = 0, uses_anonymous_args = 0
 526 0000 2DE9F041 		push	{r4, r5, r6, r7, r8, lr}
ARM GAS  /tmp/ccBaiOiR.s 			page 10


 527 0004 0446     		mov	r4, r0
 528 0006 1546     		mov	r5, r2
 529 0008 1E46     		mov	r6, r3
 530 000a 86B0     		sub	sp, sp, #24
 531 000c 41B9     		cbnz	r1, .L98
 532 000e 0127     		movs	r7, #1
 533 0010 836B     		ldr	r3, [r0, #56]
 534 0012 43F00063 		orr	r3, r3, #134217728
 535 0016 8363     		str	r3, [r0, #56]
 536              	.L99:
 537 0018 3846     		mov	r0, r7
 538 001a 06B0     		add	sp, sp, #24
 539              		@ sp needed
 540 001c BDE8F081 		pop	{r4, r5, r6, r7, r8, pc}
 541              	.L98:
 542 0020 90F83430 		ldrb	r3, [r0, #52]	@ zero_extendqisi2
 543 0024 012B     		cmp	r3, #1
 544 0026 DFB2     		uxtb	r7, r3
 545 0028 4FD1     		bne	.L105
 546 002a 0022     		movs	r2, #0
 547 002c 8263     		str	r2, [r0, #56]
 548 002e 806D     		ldr	r0, [r0, #88]
 549 0030 AB19     		adds	r3, r5, r6
 550 0032 8342     		cmp	r3, r0
 551 0034 04D9     		bls	.L100
 552 0036 A36B     		ldr	r3, [r4, #56]
 553 0038 43F00073 		orr	r3, r3, #33554432
 554 003c A363     		str	r3, [r4, #56]
 555 003e EBE7     		b	.L99
 556              	.L100:
 557 0040 0323     		movs	r3, #3
 558 0042 2068     		ldr	r0, [r4]
 559 0044 84F83430 		strb	r3, [r4, #52]
 560 0048 C262     		str	r2, [r0, #44]
 561 004a C36B     		ldr	r3, [r0, #60]
 562 004c 4FEA4628 		lsl	r8, r6, #9
 563 0050 43F40343 		orr	r3, r3, #33536
 564 0054 43F02A03 		orr	r3, r3, #42
 565 0058 A162     		str	r1, [r4, #40]
 566 005a C4F82C80 		str	r8, [r4, #44]
 567 005e C363     		str	r3, [r0, #60]
 568 0060 636C     		ldr	r3, [r4, #68]
 569 0062 4FF40071 		mov	r1, #512
 570 0066 012B     		cmp	r3, #1
 571 0068 18BF     		it	ne
 572 006a 6D02     		lslne	r5, r5, #9
 573 006c FFF7FEFF 		bl	SDMMC_CmdBlockLength
 574 0070 48B1     		cbz	r0, .L102
 575              	.L110:
 576 0072 2368     		ldr	r3, [r4]
 577 0074 164A     		ldr	r2, .L111
 578 0076 9A63     		str	r2, [r3, #56]
 579 0078 A36B     		ldr	r3, [r4, #56]
 580 007a 1843     		orrs	r0, r0, r3
 581 007c 0123     		movs	r3, #1
 582 007e A063     		str	r0, [r4, #56]
 583 0080 84F83430 		strb	r3, [r4, #52]
ARM GAS  /tmp/ccBaiOiR.s 			page 11


 584 0084 C8E7     		b	.L99
 585              	.L102:
 586 0086 4FF0FF33 		mov	r3, #-1
 587 008a 9022     		movs	r2, #144
 588 008c CDE90038 		strd	r3, r8, [sp]
 589 0090 0223     		movs	r3, #2
 590 0092 CDE90223 		strd	r2, r3, [sp, #8]
 591 0096 0123     		movs	r3, #1
 592 0098 0490     		str	r0, [sp, #16]
 593 009a 6946     		mov	r1, sp
 594 009c 2068     		ldr	r0, [r4]
 595 009e 0593     		str	r3, [sp, #20]
 596 00a0 FFF7FEFF 		bl	SDIO_ConfigData
 597 00a4 012E     		cmp	r6, #1
 598 00a6 09D9     		bls	.L103
 599 00a8 0A23     		movs	r3, #10
 600 00aa 2946     		mov	r1, r5
 601 00ac 2068     		ldr	r0, [r4]
 602 00ae 2363     		str	r3, [r4, #48]
 603 00b0 FFF7FEFF 		bl	SDMMC_CmdReadMultiBlock
 604              	.L104:
 605 00b4 0028     		cmp	r0, #0
 606 00b6 DCD1     		bne	.L110
 607 00b8 0746     		mov	r7, r0
 608 00ba ADE7     		b	.L99
 609              	.L103:
 610 00bc 0923     		movs	r3, #9
 611 00be 2946     		mov	r1, r5
 612 00c0 2068     		ldr	r0, [r4]
 613 00c2 2363     		str	r3, [r4, #48]
 614 00c4 FFF7FEFF 		bl	SDMMC_CmdReadSingleBlock
 615 00c8 F4E7     		b	.L104
 616              	.L105:
 617 00ca 0227     		movs	r7, #2
 618 00cc A4E7     		b	.L99
 619              	.L112:
 620 00ce 00BF     		.align	2
 621              	.L111:
 622 00d0 FF054000 		.word	4195839
 624              		.section	.text.HAL_MMC_WriteBlocks_IT,"ax",%progbits
 625              		.align	1
 626              		.global	HAL_MMC_WriteBlocks_IT
 627              		.syntax unified
 628              		.thumb
 629              		.thumb_func
 630              		.fpu softvfp
 632              	HAL_MMC_WriteBlocks_IT:
 633              		@ args = 0, pretend = 0, frame = 24
 634              		@ frame_needed = 0, uses_anonymous_args = 0
 635 0000 2DE9F041 		push	{r4, r5, r6, r7, r8, lr}
 636 0004 0446     		mov	r4, r0
 637 0006 1546     		mov	r5, r2
 638 0008 1E46     		mov	r6, r3
 639 000a 86B0     		sub	sp, sp, #24
 640 000c 41B9     		cbnz	r1, .L114
 641 000e 0127     		movs	r7, #1
 642 0010 836B     		ldr	r3, [r0, #56]
ARM GAS  /tmp/ccBaiOiR.s 			page 12


 643 0012 43F00063 		orr	r3, r3, #134217728
 644 0016 8363     		str	r3, [r0, #56]
 645              	.L115:
 646 0018 3846     		mov	r0, r7
 647 001a 06B0     		add	sp, sp, #24
 648              		@ sp needed
 649 001c BDE8F081 		pop	{r4, r5, r6, r7, r8, pc}
 650              	.L114:
 651 0020 90F83430 		ldrb	r3, [r0, #52]	@ zero_extendqisi2
 652 0024 012B     		cmp	r3, #1
 653 0026 DFB2     		uxtb	r7, r3
 654 0028 53D1     		bne	.L122
 655 002a 0022     		movs	r2, #0
 656 002c 8263     		str	r2, [r0, #56]
 657 002e 806D     		ldr	r0, [r0, #88]
 658 0030 AB19     		adds	r3, r5, r6
 659 0032 8342     		cmp	r3, r0
 660 0034 04D9     		bls	.L116
 661 0036 A36B     		ldr	r3, [r4, #56]
 662 0038 43F00073 		orr	r3, r3, #33554432
 663 003c A363     		str	r3, [r4, #56]
 664 003e EBE7     		b	.L115
 665              	.L116:
 666 0040 0323     		movs	r3, #3
 667 0042 2068     		ldr	r0, [r4]
 668 0044 84F83430 		strb	r3, [r4, #52]
 669 0048 C262     		str	r2, [r0, #44]
 670 004a C36B     		ldr	r3, [r0, #60]
 671 004c 4FEA4628 		lsl	r8, r6, #9
 672 0050 43F48643 		orr	r3, r3, #17152
 673 0054 43F01A03 		orr	r3, r3, #26
 674 0058 2162     		str	r1, [r4, #32]
 675 005a C4F82480 		str	r8, [r4, #36]
 676 005e C363     		str	r3, [r0, #60]
 677 0060 636C     		ldr	r3, [r4, #68]
 678 0062 4FF40071 		mov	r1, #512
 679 0066 012B     		cmp	r3, #1
 680 0068 18BF     		it	ne
 681 006a 6D02     		lslne	r5, r5, #9
 682 006c FFF7FEFF 		bl	SDMMC_CmdBlockLength
 683 0070 0346     		mov	r3, r0
 684 0072 2068     		ldr	r0, [r4]
 685 0074 43B1     		cbz	r3, .L118
 686 0076 184A     		ldr	r2, .L128
 687 0078 8263     		str	r2, [r0, #56]
 688 007a A06B     		ldr	r0, [r4, #56]
 689 007c 0343     		orrs	r3, r3, r0
 690 007e A363     		str	r3, [r4, #56]
 691              	.L127:
 692 0080 0123     		movs	r3, #1
 693 0082 84F83430 		strb	r3, [r4, #52]
 694 0086 C7E7     		b	.L115
 695              	.L118:
 696 0088 012E     		cmp	r6, #1
 697 008a 0DD9     		bls	.L119
 698 008c 2823     		movs	r3, #40
 699 008e 2946     		mov	r1, r5
ARM GAS  /tmp/ccBaiOiR.s 			page 13


 700 0090 2363     		str	r3, [r4, #48]
 701 0092 FFF7FEFF 		bl	SDMMC_CmdWriteMultiBlock
 702              	.L126:
 703 0096 0546     		mov	r5, r0
 704 0098 2068     		ldr	r0, [r4]
 705 009a 5DB1     		cbz	r5, .L121
 706 009c 0E4B     		ldr	r3, .L128
 707 009e 8363     		str	r3, [r0, #56]
 708 00a0 A06B     		ldr	r0, [r4, #56]
 709 00a2 0543     		orrs	r5, r5, r0
 710 00a4 A563     		str	r5, [r4, #56]
 711 00a6 EBE7     		b	.L127
 712              	.L119:
 713 00a8 1823     		movs	r3, #24
 714 00aa 2946     		mov	r1, r5
 715 00ac 2363     		str	r3, [r4, #48]
 716 00ae FFF7FEFF 		bl	SDMMC_CmdWriteSingleBlock
 717 00b2 F0E7     		b	.L126
 718              	.L121:
 719 00b4 4FF0FF33 		mov	r3, #-1
 720 00b8 CDE90038 		strd	r3, r8, [sp]
 721 00bc 9023     		movs	r3, #144
 722 00be CDE90235 		strd	r3, r5, [sp, #8]
 723 00c2 0123     		movs	r3, #1
 724 00c4 6946     		mov	r1, sp
 725 00c6 0495     		str	r5, [sp, #16]
 726 00c8 0593     		str	r3, [sp, #20]
 727 00ca 2F46     		mov	r7, r5
 728 00cc FFF7FEFF 		bl	SDIO_ConfigData
 729 00d0 A2E7     		b	.L115
 730              	.L122:
 731 00d2 0227     		movs	r7, #2
 732 00d4 A0E7     		b	.L115
 733              	.L129:
 734 00d6 00BF     		.align	2
 735              	.L128:
 736 00d8 FF054000 		.word	4195839
 738              		.section	.text.HAL_MMC_ReadBlocks_DMA,"ax",%progbits
 739              		.align	1
 740              		.global	HAL_MMC_ReadBlocks_DMA
 741              		.syntax unified
 742              		.thumb
 743              		.thumb_func
 744              		.fpu softvfp
 746              	HAL_MMC_ReadBlocks_DMA:
 747              		@ args = 0, pretend = 0, frame = 24
 748              		@ frame_needed = 0, uses_anonymous_args = 0
 749 0000 2DE9F043 		push	{r4, r5, r6, r7, r8, r9, lr}
 750 0004 0446     		mov	r4, r0
 751 0006 1546     		mov	r5, r2
 752 0008 1E46     		mov	r6, r3
 753 000a 8846     		mov	r8, r1
 754 000c 87B0     		sub	sp, sp, #28
 755 000e 41B9     		cbnz	r1, .L131
 756 0010 0127     		movs	r7, #1
 757 0012 836B     		ldr	r3, [r0, #56]
 758 0014 43F00063 		orr	r3, r3, #134217728
ARM GAS  /tmp/ccBaiOiR.s 			page 14


 759 0018 8363     		str	r3, [r0, #56]
 760              	.L132:
 761 001a 3846     		mov	r0, r7
 762 001c 07B0     		add	sp, sp, #28
 763              		@ sp needed
 764 001e BDE8F083 		pop	{r4, r5, r6, r7, r8, r9, pc}
 765              	.L131:
 766 0022 90F83430 		ldrb	r3, [r0, #52]	@ zero_extendqisi2
 767 0026 012B     		cmp	r3, #1
 768 0028 DFB2     		uxtb	r7, r3
 769 002a 6AD1     		bne	.L139
 770 002c 0022     		movs	r2, #0
 771 002e 816D     		ldr	r1, [r0, #88]
 772 0030 AB19     		adds	r3, r5, r6
 773 0032 8B42     		cmp	r3, r1
 774 0034 8263     		str	r2, [r0, #56]
 775 0036 04D9     		bls	.L133
 776 0038 836B     		ldr	r3, [r0, #56]
 777 003a 43F00073 		orr	r3, r3, #33554432
 778 003e 8363     		str	r3, [r0, #56]
 779 0040 EBE7     		b	.L132
 780              	.L133:
 781 0042 0323     		movs	r3, #3
 782 0044 80F83430 		strb	r3, [r0, #52]
 783 0048 0068     		ldr	r0, [r0]
 784 004a 3049     		ldr	r1, .L146
 785 004c C262     		str	r2, [r0, #44]
 786 004e C36B     		ldr	r3, [r0, #60]
 787 0050 43F44A73 		orr	r3, r3, #808
 788 0054 43F00203 		orr	r3, r3, #2
 789 0058 C363     		str	r3, [r0, #60]
 790 005a E36B     		ldr	r3, [r4, #60]
 791 005c 9962     		str	r1, [r3, #40]
 792 005e 2C49     		ldr	r1, .L146+4
 793 0060 C3E90C12 		strd	r1, r2, [r3, #48]
 794 0064 636C     		ldr	r3, [r4, #68]
 795 0066 4FF40071 		mov	r1, #512
 796 006a 012B     		cmp	r3, #1
 797 006c 18BF     		it	ne
 798 006e 6D02     		lslne	r5, r5, #9
 799 0070 FFF7FEFF 		bl	SDMMC_CmdBlockLength
 800 0074 2168     		ldr	r1, [r4]
 801 0076 18B1     		cbz	r0, .L135
 802 0078 264B     		ldr	r3, .L146+8
 803 007a 8B63     		str	r3, [r1, #56]
 804              	.L144:
 805 007c A063     		str	r0, [r4, #56]
 806 007e 13E0     		b	.L145
 807              	.L135:
 808 0080 4FEA4629 		lsl	r9, r6, #9
 809 0084 4246     		mov	r2, r8
 810 0086 E06B     		ldr	r0, [r4, #60]
 811 0088 4FEA9903 		lsr	r3, r9, #2
 812 008c 8031     		adds	r1, r1, #128
 813 008e FFF7FEFF 		bl	HAL_DMA_Start_IT
 814 0092 68B1     		cbz	r0, .L136
 815 0094 2368     		ldr	r3, [r4]
ARM GAS  /tmp/ccBaiOiR.s 			page 15


 816 0096 DA6B     		ldr	r2, [r3, #60]
 817 0098 22F49572 		bic	r2, r2, #298
 818 009c DA63     		str	r2, [r3, #60]
 819 009e 1D4A     		ldr	r2, .L146+8
 820 00a0 9A63     		str	r2, [r3, #56]
 821 00a2 4FF08043 		mov	r3, #1073741824
 822 00a6 A363     		str	r3, [r4, #56]
 823              	.L145:
 824 00a8 0123     		movs	r3, #1
 825 00aa 84F83430 		strb	r3, [r4, #52]
 826 00ae B4E7     		b	.L132
 827              	.L136:
 828 00b0 0123     		movs	r3, #1
 829 00b2 194A     		ldr	r2, .L146+12
 830 00b4 9021     		movs	r1, #144
 831 00b6 1360     		str	r3, [r2]
 832 00b8 4FF0FF32 		mov	r2, #-1
 833 00bc CDE90029 		strd	r2, r9, [sp]
 834 00c0 0222     		movs	r2, #2
 835 00c2 CDE90403 		strd	r0, r3, [sp, #16]
 836 00c6 CDE90212 		strd	r1, r2, [sp, #8]
 837 00ca 2068     		ldr	r0, [r4]
 838 00cc 6946     		mov	r1, sp
 839 00ce FFF7FEFF 		bl	SDIO_ConfigData
 840 00d2 012E     		cmp	r6, #1
 841 00d4 0ED9     		bls	.L137
 842 00d6 8223     		movs	r3, #130
 843 00d8 2946     		mov	r1, r5
 844 00da 2068     		ldr	r0, [r4]
 845 00dc 2363     		str	r3, [r4, #48]
 846 00de FFF7FEFF 		bl	SDMMC_CmdReadMultiBlock
 847              	.L138:
 848 00e2 80B1     		cbz	r0, .L140
 849 00e4 2368     		ldr	r3, [r4]
 850 00e6 0B4A     		ldr	r2, .L146+8
 851 00e8 9A63     		str	r2, [r3, #56]
 852 00ea DA6B     		ldr	r2, [r3, #60]
 853 00ec 22F49572 		bic	r2, r2, #298
 854 00f0 DA63     		str	r2, [r3, #60]
 855 00f2 C3E7     		b	.L144
 856              	.L137:
 857 00f4 8123     		movs	r3, #129
 858 00f6 2946     		mov	r1, r5
 859 00f8 2068     		ldr	r0, [r4]
 860 00fa 2363     		str	r3, [r4, #48]
 861 00fc FFF7FEFF 		bl	SDMMC_CmdReadSingleBlock
 862 0100 EFE7     		b	.L138
 863              	.L139:
 864 0102 0227     		movs	r7, #2
 865 0104 89E7     		b	.L132
 866              	.L140:
 867 0106 0746     		mov	r7, r0
 868 0108 87E7     		b	.L132
 869              	.L147:
 870 010a 00BF     		.align	2
 871              	.L146:
 872 010c 00000000 		.word	MMC_DMAReceiveCplt
ARM GAS  /tmp/ccBaiOiR.s 			page 16


 873 0110 00000000 		.word	MMC_DMAError
 874 0114 FF054000 		.word	4195839
 875 0118 8C053042 		.word	1110443404
 877              		.section	.text.HAL_MMC_WriteBlocks_DMA,"ax",%progbits
 878              		.align	1
 879              		.global	HAL_MMC_WriteBlocks_DMA
 880              		.syntax unified
 881              		.thumb
 882              		.thumb_func
 883              		.fpu softvfp
 885              	HAL_MMC_WriteBlocks_DMA:
 886              		@ args = 0, pretend = 0, frame = 24
 887              		@ frame_needed = 0, uses_anonymous_args = 0
 888 0000 2DE9F043 		push	{r4, r5, r6, r7, r8, r9, lr}
 889 0004 0446     		mov	r4, r0
 890 0006 1546     		mov	r5, r2
 891 0008 1E46     		mov	r6, r3
 892 000a 8846     		mov	r8, r1
 893 000c 87B0     		sub	sp, sp, #28
 894 000e 41B9     		cbnz	r1, .L149
 895 0010 0127     		movs	r7, #1
 896 0012 836B     		ldr	r3, [r0, #56]
 897 0014 43F00063 		orr	r3, r3, #134217728
 898 0018 8363     		str	r3, [r0, #56]
 899              	.L150:
 900 001a 3846     		mov	r0, r7
 901 001c 07B0     		add	sp, sp, #28
 902              		@ sp needed
 903 001e BDE8F083 		pop	{r4, r5, r6, r7, r8, r9, pc}
 904              	.L149:
 905 0022 90F83430 		ldrb	r3, [r0, #52]	@ zero_extendqisi2
 906 0026 012B     		cmp	r3, #1
 907 0028 DFB2     		uxtb	r7, r3
 908 002a 73D1     		bne	.L158
 909 002c 0022     		movs	r2, #0
 910 002e 816D     		ldr	r1, [r0, #88]
 911 0030 AB19     		adds	r3, r5, r6
 912 0032 8B42     		cmp	r3, r1
 913 0034 8263     		str	r2, [r0, #56]
 914 0036 04D9     		bls	.L151
 915 0038 836B     		ldr	r3, [r0, #56]
 916 003a 43F00073 		orr	r3, r3, #33554432
 917 003e 8363     		str	r3, [r0, #56]
 918 0040 EBE7     		b	.L150
 919              	.L151:
 920 0042 0323     		movs	r3, #3
 921 0044 80F83430 		strb	r3, [r0, #52]
 922 0048 0068     		ldr	r0, [r0]
 923 004a 3349     		ldr	r1, .L164
 924 004c C262     		str	r2, [r0, #44]
 925 004e C36B     		ldr	r3, [r0, #60]
 926 0050 43F40673 		orr	r3, r3, #536
 927 0054 43F00203 		orr	r3, r3, #2
 928 0058 C363     		str	r3, [r0, #60]
 929 005a 236C     		ldr	r3, [r4, #64]
 930 005c 9962     		str	r1, [r3, #40]
 931 005e 2F49     		ldr	r1, .L164+4
ARM GAS  /tmp/ccBaiOiR.s 			page 17


 932 0060 C3E90C12 		strd	r1, r2, [r3, #48]
 933 0064 636C     		ldr	r3, [r4, #68]
 934 0066 4FF40071 		mov	r1, #512
 935 006a 012B     		cmp	r3, #1
 936 006c 18BF     		it	ne
 937 006e 6D02     		lslne	r5, r5, #9
 938 0070 FFF7FEFF 		bl	SDMMC_CmdBlockLength
 939 0074 0346     		mov	r3, r0
 940 0076 2068     		ldr	r0, [r4]
 941 0078 43B1     		cbz	r3, .L153
 942 007a 294A     		ldr	r2, .L164+8
 943 007c 8263     		str	r2, [r0, #56]
 944 007e A06B     		ldr	r0, [r4, #56]
 945 0080 0343     		orrs	r3, r3, r0
 946 0082 A363     		str	r3, [r4, #56]
 947              	.L163:
 948 0084 0123     		movs	r3, #1
 949 0086 84F83430 		strb	r3, [r4, #52]
 950 008a C6E7     		b	.L150
 951              	.L153:
 952 008c 012E     		cmp	r6, #1
 953 008e 11D9     		bls	.L154
 954 0090 A023     		movs	r3, #160
 955 0092 2946     		mov	r1, r5
 956 0094 2363     		str	r3, [r4, #48]
 957 0096 FFF7FEFF 		bl	SDMMC_CmdWriteMultiBlock
 958              	.L162:
 959 009a 0546     		mov	r5, r0
 960 009c 2268     		ldr	r2, [r4]
 961 009e 78B1     		cbz	r0, .L156
 962 00a0 1F4B     		ldr	r3, .L164+8
 963 00a2 9363     		str	r3, [r2, #56]
 964 00a4 D36B     		ldr	r3, [r2, #60]
 965 00a6 23F48D73 		bic	r3, r3, #282
 966 00aa D363     		str	r3, [r2, #60]
 967 00ac A06B     		ldr	r0, [r4, #56]
 968 00ae 0543     		orrs	r5, r5, r0
 969 00b0 A563     		str	r5, [r4, #56]
 970 00b2 E7E7     		b	.L163
 971              	.L154:
 972 00b4 9023     		movs	r3, #144
 973 00b6 2946     		mov	r1, r5
 974 00b8 2363     		str	r3, [r4, #48]
 975 00ba FFF7FEFF 		bl	SDMMC_CmdWriteSingleBlock
 976 00be ECE7     		b	.L162
 977              	.L156:
 978 00c0 4FF00109 		mov	r9, #1
 979 00c4 174B     		ldr	r3, .L164+12
 980 00c6 7602     		lsls	r6, r6, #9
 981 00c8 C3F80090 		str	r9, [r3]
 982 00cc 4146     		mov	r1, r8
 983 00ce 206C     		ldr	r0, [r4, #64]
 984 00d0 B308     		lsrs	r3, r6, #2
 985 00d2 8032     		adds	r2, r2, #128
 986 00d4 FFF7FEFF 		bl	HAL_DMA_Start_IT
 987 00d8 68B1     		cbz	r0, .L157
 988 00da 2368     		ldr	r3, [r4]
ARM GAS  /tmp/ccBaiOiR.s 			page 18


 989 00dc DA6B     		ldr	r2, [r3, #60]
 990 00de 22F48D72 		bic	r2, r2, #282
 991 00e2 DA63     		str	r2, [r3, #60]
 992 00e4 0E4A     		ldr	r2, .L164+8
 993 00e6 9A63     		str	r2, [r3, #56]
 994 00e8 A36B     		ldr	r3, [r4, #56]
 995 00ea 43F08043 		orr	r3, r3, #1073741824
 996 00ee A363     		str	r3, [r4, #56]
 997 00f0 84F83490 		strb	r9, [r4, #52]
 998 00f4 91E7     		b	.L150
 999              	.L157:
 1000 00f6 4FF0FF33 		mov	r3, #-1
 1001 00fa CDE90036 		strd	r3, r6, [sp]
 1002 00fe 9023     		movs	r3, #144
 1003 0100 6946     		mov	r1, sp
 1004 0102 2068     		ldr	r0, [r4]
 1005 0104 CDE90235 		strd	r3, r5, [sp, #8]
 1006 0108 CDE90459 		strd	r5, r9, [sp, #16]
 1007 010c 2F46     		mov	r7, r5
 1008 010e FFF7FEFF 		bl	SDIO_ConfigData
 1009 0112 82E7     		b	.L150
 1010              	.L158:
 1011 0114 0227     		movs	r7, #2
 1012 0116 80E7     		b	.L150
 1013              	.L165:
 1014              		.align	2
 1015              	.L164:
 1016 0118 00000000 		.word	MMC_DMATransmitCplt
 1017 011c 00000000 		.word	MMC_DMAError
 1018 0120 FF054000 		.word	4195839
 1019 0124 8C053042 		.word	1110443404
 1021              		.section	.text.HAL_MMC_Erase,"ax",%progbits
 1022              		.align	1
 1023              		.global	HAL_MMC_Erase
 1024              		.syntax unified
 1025              		.thumb
 1026              		.thumb_func
 1027              		.fpu softvfp
 1029              	HAL_MMC_Erase:
 1030              		@ args = 0, pretend = 0, frame = 0
 1031              		@ frame_needed = 0, uses_anonymous_args = 0
 1032 0000 F8B5     		push	{r3, r4, r5, r6, r7, lr}
 1033 0002 90F83430 		ldrb	r3, [r0, #52]	@ zero_extendqisi2
 1034 0006 0446     		mov	r4, r0
 1035 0008 012B     		cmp	r3, #1
 1036 000a 0E46     		mov	r6, r1
 1037 000c 1546     		mov	r5, r2
 1038 000e DFB2     		uxtb	r7, r3
 1039 0010 50D1     		bne	.L176
 1040 0012 0021     		movs	r1, #0
 1041 0014 9642     		cmp	r6, r2
 1042 0016 8163     		str	r1, [r0, #56]
 1043 0018 05D9     		bls	.L168
 1044 001a 836B     		ldr	r3, [r0, #56]
 1045 001c 43F00063 		orr	r3, r3, #134217728
 1046              	.L180:
 1047 0020 A363     		str	r3, [r4, #56]
ARM GAS  /tmp/ccBaiOiR.s 			page 19


 1048              	.L167:
 1049 0022 3846     		mov	r0, r7
 1050 0024 F8BD     		pop	{r3, r4, r5, r6, r7, pc}
 1051              	.L168:
 1052 0026 836D     		ldr	r3, [r0, #88]
 1053 0028 9342     		cmp	r3, r2
 1054 002a 03D2     		bcs	.L169
 1055 002c 836B     		ldr	r3, [r0, #56]
 1056 002e 43F00073 		orr	r3, r3, #33554432
 1057 0032 F5E7     		b	.L180
 1058              	.L169:
 1059 0034 0323     		movs	r3, #3
 1060 0036 80F83430 		strb	r3, [r0, #52]
 1061 003a A36C     		ldr	r3, [r4, #72]
 1062 003c 0068     		ldr	r0, [r0]
 1063 003e 9A06     		lsls	r2, r3, #26
 1064 0040 08D4     		bmi	.L170
 1065 0042 1D4B     		ldr	r3, .L183
 1066 0044 8363     		str	r3, [r0, #56]
 1067 0046 A36B     		ldr	r3, [r4, #56]
 1068 0048 43F08063 		orr	r3, r3, #67108864
 1069              	.L181:
 1070 004c A363     		str	r3, [r4, #56]
 1071 004e 84F83470 		strb	r7, [r4, #52]
 1072 0052 E6E7     		b	.L167
 1073              	.L170:
 1074 0054 FFF7FEFF 		bl	SDIO_GetResponse
 1075 0058 8301     		lsls	r3, r0, #6
 1076 005a 06D5     		bpl	.L171
 1077 005c 2368     		ldr	r3, [r4]
 1078 005e 164A     		ldr	r2, .L183
 1079 0060 9A63     		str	r2, [r3, #56]
 1080 0062 A36B     		ldr	r3, [r4, #56]
 1081 0064 43F40063 		orr	r3, r3, #2048
 1082 0068 F0E7     		b	.L181
 1083              	.L171:
 1084 006a 636C     		ldr	r3, [r4, #68]
 1085 006c 2068     		ldr	r0, [r4]
 1086 006e 012B     		cmp	r3, #1
 1087 0070 18BF     		it	ne
 1088 0072 7602     		lslne	r6, r6, #9
 1089 0074 3146     		mov	r1, r6
 1090 0076 18BF     		it	ne
 1091 0078 6D02     		lslne	r5, r5, #9
 1092 007a FFF7FEFF 		bl	SDMMC_CmdEraseStartAdd
 1093 007e 48B1     		cbz	r0, .L173
 1094              	.L182:
 1095 0080 2368     		ldr	r3, [r4]
 1096 0082 0D4A     		ldr	r2, .L183
 1097 0084 9A63     		str	r2, [r3, #56]
 1098 0086 A36B     		ldr	r3, [r4, #56]
 1099 0088 1843     		orrs	r0, r0, r3
 1100 008a 0123     		movs	r3, #1
 1101 008c A063     		str	r0, [r4, #56]
 1102 008e 84F83430 		strb	r3, [r4, #52]
 1103 0092 C6E7     		b	.L167
 1104              	.L173:
ARM GAS  /tmp/ccBaiOiR.s 			page 20


 1105 0094 2946     		mov	r1, r5
 1106 0096 2068     		ldr	r0, [r4]
 1107 0098 FFF7FEFF 		bl	SDMMC_CmdEraseEndAdd
 1108 009c 0028     		cmp	r0, #0
 1109 009e EFD1     		bne	.L182
 1110 00a0 2068     		ldr	r0, [r4]
 1111 00a2 FFF7FEFF 		bl	SDMMC_CmdErase
 1112 00a6 0028     		cmp	r0, #0
 1113 00a8 EAD1     		bne	.L182
 1114 00aa 0123     		movs	r3, #1
 1115 00ac 0746     		mov	r7, r0
 1116 00ae 84F83430 		strb	r3, [r4, #52]
 1117 00b2 B6E7     		b	.L167
 1118              	.L176:
 1119 00b4 0227     		movs	r7, #2
 1120 00b6 B4E7     		b	.L167
 1121              	.L184:
 1122              		.align	2
 1123              	.L183:
 1124 00b8 FF054000 		.word	4195839
 1126              		.section	.text.HAL_MMC_GetState,"ax",%progbits
 1127              		.align	1
 1128              		.global	HAL_MMC_GetState
 1129              		.syntax unified
 1130              		.thumb
 1131              		.thumb_func
 1132              		.fpu softvfp
 1134              	HAL_MMC_GetState:
 1135              		@ args = 0, pretend = 0, frame = 0
 1136              		@ frame_needed = 0, uses_anonymous_args = 0
 1137              		@ link register save eliminated.
 1138 0000 90F83400 		ldrb	r0, [r0, #52]	@ zero_extendqisi2
 1139 0004 7047     		bx	lr
 1141              		.section	.text.HAL_MMC_GetError,"ax",%progbits
 1142              		.align	1
 1143              		.global	HAL_MMC_GetError
 1144              		.syntax unified
 1145              		.thumb
 1146              		.thumb_func
 1147              		.fpu softvfp
 1149              	HAL_MMC_GetError:
 1150              		@ args = 0, pretend = 0, frame = 0
 1151              		@ frame_needed = 0, uses_anonymous_args = 0
 1152              		@ link register save eliminated.
 1153 0000 806B     		ldr	r0, [r0, #56]
 1154 0002 7047     		bx	lr
 1156              		.section	.text.HAL_MMC_TxCpltCallback,"ax",%progbits
 1157              		.align	1
 1158              		.weak	HAL_MMC_TxCpltCallback
 1159              		.syntax unified
 1160              		.thumb
 1161              		.thumb_func
 1162              		.fpu softvfp
 1164              	HAL_MMC_TxCpltCallback:
 1165              		@ args = 0, pretend = 0, frame = 0
 1166              		@ frame_needed = 0, uses_anonymous_args = 0
 1167              		@ link register save eliminated.
ARM GAS  /tmp/ccBaiOiR.s 			page 21


 1168 0000 7047     		bx	lr
 1170              		.section	.text.HAL_MMC_RxCpltCallback,"ax",%progbits
 1171              		.align	1
 1172              		.weak	HAL_MMC_RxCpltCallback
 1173              		.syntax unified
 1174              		.thumb
 1175              		.thumb_func
 1176              		.fpu softvfp
 1178              	HAL_MMC_RxCpltCallback:
 1179              		@ args = 0, pretend = 0, frame = 0
 1180              		@ frame_needed = 0, uses_anonymous_args = 0
 1181              		@ link register save eliminated.
 1182 0000 7047     		bx	lr
 1184              		.section	.text.HAL_MMC_ErrorCallback,"ax",%progbits
 1185              		.align	1
 1186              		.weak	HAL_MMC_ErrorCallback
 1187              		.syntax unified
 1188              		.thumb
 1189              		.thumb_func
 1190              		.fpu softvfp
 1192              	HAL_MMC_ErrorCallback:
 1193              		@ args = 0, pretend = 0, frame = 0
 1194              		@ frame_needed = 0, uses_anonymous_args = 0
 1195              		@ link register save eliminated.
 1196 0000 7047     		bx	lr
 1198              		.section	.text.MMC_DMAReceiveCplt,"ax",%progbits
 1199              		.align	1
 1200              		.syntax unified
 1201              		.thumb
 1202              		.thumb_func
 1203              		.fpu softvfp
 1205              	MMC_DMAReceiveCplt:
 1206              		@ args = 0, pretend = 0, frame = 0
 1207              		@ frame_needed = 0, uses_anonymous_args = 0
 1208 0000 10B5     		push	{r4, lr}
 1209 0002 446A     		ldr	r4, [r0, #36]
 1210 0004 236B     		ldr	r3, [r4, #48]
 1211 0006 822B     		cmp	r3, #130
 1212 0008 09D1     		bne	.L192
 1213 000a 2068     		ldr	r0, [r4]
 1214 000c FFF7FEFF 		bl	SDMMC_CmdStopTransfer
 1215 0010 28B1     		cbz	r0, .L192
 1216 0012 A36B     		ldr	r3, [r4, #56]
 1217 0014 1843     		orrs	r0, r0, r3
 1218 0016 A063     		str	r0, [r4, #56]
 1219 0018 2046     		mov	r0, r4
 1220 001a FFF7FEFF 		bl	HAL_MMC_ErrorCallback
 1221              	.L192:
 1222 001e 2368     		ldr	r3, [r4]
 1223 0020 2046     		mov	r0, r4
 1224 0022 DA6A     		ldr	r2, [r3, #44]
 1225 0024 22F00802 		bic	r2, r2, #8
 1226 0028 DA62     		str	r2, [r3, #44]
 1227 002a 40F23A52 		movw	r2, #1338
 1228 002e 9A63     		str	r2, [r3, #56]
 1229 0030 0123     		movs	r3, #1
 1230 0032 84F83430 		strb	r3, [r4, #52]
ARM GAS  /tmp/ccBaiOiR.s 			page 22


 1231 0036 FFF7FEFF 		bl	HAL_MMC_RxCpltCallback
 1232 003a 10BD     		pop	{r4, pc}
 1234              		.section	.text.HAL_MMC_AbortCallback,"ax",%progbits
 1235              		.align	1
 1236              		.weak	HAL_MMC_AbortCallback
 1237              		.syntax unified
 1238              		.thumb
 1239              		.thumb_func
 1240              		.fpu softvfp
 1242              	HAL_MMC_AbortCallback:
 1243              		@ args = 0, pretend = 0, frame = 0
 1244              		@ frame_needed = 0, uses_anonymous_args = 0
 1245              		@ link register save eliminated.
 1246 0000 7047     		bx	lr
 1248              		.section	.text.HAL_MMC_GetCardCID,"ax",%progbits
 1249              		.align	1
 1250              		.global	HAL_MMC_GetCardCID
 1251              		.syntax unified
 1252              		.thumb
 1253              		.thumb_func
 1254              		.fpu softvfp
 1256              	HAL_MMC_GetCardCID:
 1257              		@ args = 0, pretend = 0, frame = 0
 1258              		@ frame_needed = 0, uses_anonymous_args = 0
 1259 0000 10B5     		push	{r4, lr}
 1260 0002 046F     		ldr	r4, [r0, #112]
 1261 0004 230E     		lsrs	r3, r4, #24
 1262 0006 0B70     		strb	r3, [r1]
 1263 0008 C4F30F23 		ubfx	r3, r4, #8, #16
 1264 000c 4B80     		strh	r3, [r1, #2]	@ movhi
 1265 000e 436F     		ldr	r3, [r0, #116]
 1266 0010 1A0A     		lsrs	r2, r3, #8
 1267 0012 42EA0462 		orr	r2, r2, r4, lsl #24
 1268 0016 DBB2     		uxtb	r3, r3
 1269 0018 4A60     		str	r2, [r1, #4]
 1270 001a 0B72     		strb	r3, [r1, #8]
 1271 001c 846F     		ldr	r4, [r0, #120]
 1272 001e 230E     		lsrs	r3, r4, #24
 1273 0020 4B72     		strb	r3, [r1, #9]
 1274 0022 C36F     		ldr	r3, [r0, #124]
 1275 0024 0020     		movs	r0, #0
 1276 0026 1A0E     		lsrs	r2, r3, #24
 1277 0028 42EA0422 		orr	r2, r2, r4, lsl #8
 1278 002c CA60     		str	r2, [r1, #12]
 1279 002e C3F30352 		ubfx	r2, r3, #20, #4
 1280 0032 0A74     		strb	r2, [r1, #16]
 1281 0034 C3F30B22 		ubfx	r2, r3, #8, #12
 1282 0038 C3F34603 		ubfx	r3, r3, #1, #7
 1283 003c 4A82     		strh	r2, [r1, #18]	@ movhi
 1284 003e 0B75     		strb	r3, [r1, #20]
 1285 0040 0123     		movs	r3, #1
 1286 0042 4B75     		strb	r3, [r1, #21]
 1287 0044 10BD     		pop	{r4, pc}
 1289              		.section	.text.HAL_MMC_GetCardCSD,"ax",%progbits
 1290              		.align	1
 1291              		.global	HAL_MMC_GetCardCSD
 1292              		.syntax unified
ARM GAS  /tmp/ccBaiOiR.s 			page 23


 1293              		.thumb
 1294              		.thumb_func
 1295              		.fpu softvfp
 1297              	HAL_MMC_GetCardCSD:
 1298              		@ args = 0, pretend = 0, frame = 0
 1299              		@ frame_needed = 0, uses_anonymous_args = 0
 1300 0000 0246     		mov	r2, r0
 1301 0002 036E     		ldr	r3, [r0, #96]
 1302 0004 70B5     		push	{r4, r5, r6, lr}
 1303 0006 980F     		lsrs	r0, r3, #30
 1304 0008 0870     		strb	r0, [r1]
 1305 000a C3F38360 		ubfx	r0, r3, #26, #4
 1306 000e 4870     		strb	r0, [r1, #1]
 1307 0010 C3F30160 		ubfx	r0, r3, #24, #2
 1308 0014 8870     		strb	r0, [r1, #2]
 1309 0016 C3F30740 		ubfx	r0, r3, #16, #8
 1310 001a C870     		strb	r0, [r1, #3]
 1311 001c C3F30720 		ubfx	r0, r3, #8, #8
 1312 0020 0871     		strb	r0, [r1, #4]
 1313 0022 0020     		movs	r0, #0
 1314 0024 40F6FC75 		movw	r5, #4092
 1315 0028 0126     		movs	r6, #1
 1316 002a DBB2     		uxtb	r3, r3
 1317 002c 4B71     		strb	r3, [r1, #5]
 1318 002e 546E     		ldr	r4, [r2, #100]
 1319 0030 230D     		lsrs	r3, r4, #20
 1320 0032 CB80     		strh	r3, [r1, #6]	@ movhi
 1321 0034 C4F30343 		ubfx	r3, r4, #16, #4
 1322 0038 0B72     		strb	r3, [r1, #8]
 1323 003a C4F3C033 		ubfx	r3, r4, #15, #1
 1324 003e 4B72     		strb	r3, [r1, #9]
 1325 0040 C4F38033 		ubfx	r3, r4, #14, #1
 1326 0044 8B72     		strb	r3, [r1, #10]
 1327 0046 C4F34033 		ubfx	r3, r4, #13, #1
 1328 004a CB72     		strb	r3, [r1, #11]
 1329 004c C4F30033 		ubfx	r3, r4, #12, #1
 1330 0050 0B73     		strb	r3, [r1, #12]
 1331 0052 4873     		strb	r0, [r1, #13]
 1332 0054 936E     		ldr	r3, [r2, #104]
 1333 0056 05EA8404 		and	r4, r5, r4, lsl #2
 1334 005a 44EA9374 		orr	r4, r4, r3, lsr #30
 1335 005e 0C61     		str	r4, [r1, #16]
 1336 0060 C3F3C264 		ubfx	r4, r3, #27, #3
 1337 0064 0C75     		strb	r4, [r1, #20]
 1338 0066 C3F30264 		ubfx	r4, r3, #24, #3
 1339 006a 4C75     		strb	r4, [r1, #21]
 1340 006c C3F34254 		ubfx	r4, r3, #21, #3
 1341 0070 8C75     		strb	r4, [r1, #22]
 1342 0072 C3F38244 		ubfx	r4, r3, #18, #3
 1343 0076 CC75     		strb	r4, [r1, #23]
 1344 0078 C3F3C234 		ubfx	r4, r3, #15, #3
 1345 007c 0C76     		strb	r4, [r1, #24]
 1346 007e 0C69     		ldr	r4, [r1, #16]
 1347 0080 0D7E     		ldrb	r5, [r1, #24]	@ zero_extendqisi2
 1348 0082 0134     		adds	r4, r4, #1
 1349 0084 05F00705 		and	r5, r5, #7
 1350 0088 0235     		adds	r5, r5, #2
ARM GAS  /tmp/ccBaiOiR.s 			page 24


 1351 008a AC40     		lsls	r4, r4, r5
 1352 008c 1465     		str	r4, [r2, #80]
 1353 008e 0D7A     		ldrb	r5, [r1, #8]	@ zero_extendqisi2
 1354 0090 05F00F05 		and	r5, r5, #15
 1355 0094 06FA05F5 		lsl	r5, r6, r5
 1356 0098 5565     		str	r5, [r2, #84]
 1357 009a 6D0A     		lsrs	r5, r5, #9
 1358 009c 6C43     		muls	r4, r5, r4
 1359 009e 9465     		str	r4, [r2, #88]
 1360 00a0 4FF40074 		mov	r4, #512
 1361 00a4 D465     		str	r4, [r2, #92]
 1362 00a6 C3F38034 		ubfx	r4, r3, #14, #1
 1363 00aa 4C76     		strb	r4, [r1, #25]
 1364 00ac C3F3C614 		ubfx	r4, r3, #7, #7
 1365 00b0 03F07F03 		and	r3, r3, #127
 1366 00b4 8C76     		strb	r4, [r1, #26]
 1367 00b6 CB76     		strb	r3, [r1, #27]
 1368 00b8 D36E     		ldr	r3, [r2, #108]
 1369 00ba DA0F     		lsrs	r2, r3, #31
 1370 00bc 0A77     		strb	r2, [r1, #28]
 1371 00be C3F34172 		ubfx	r2, r3, #29, #2
 1372 00c2 4A77     		strb	r2, [r1, #29]
 1373 00c4 C3F38262 		ubfx	r2, r3, #26, #3
 1374 00c8 8A77     		strb	r2, [r1, #30]
 1375 00ca C3F38352 		ubfx	r2, r3, #22, #4
 1376 00ce CA77     		strb	r2, [r1, #31]
 1377 00d0 C3F34052 		ubfx	r2, r3, #21, #1
 1378 00d4 81F82020 		strb	r2, [r1, #32]
 1379 00d8 C3F30042 		ubfx	r2, r3, #16, #1
 1380 00dc 81F82100 		strb	r0, [r1, #33]
 1381 00e0 81F82220 		strb	r2, [r1, #34]
 1382 00e4 C3F3C032 		ubfx	r2, r3, #15, #1
 1383 00e8 81F82320 		strb	r2, [r1, #35]
 1384 00ec C3F38032 		ubfx	r2, r3, #14, #1
 1385 00f0 81F82420 		strb	r2, [r1, #36]
 1386 00f4 C3F34032 		ubfx	r2, r3, #13, #1
 1387 00f8 81F82520 		strb	r2, [r1, #37]
 1388 00fc C3F30032 		ubfx	r2, r3, #12, #1
 1389 0100 81F82620 		strb	r2, [r1, #38]
 1390 0104 C3F38122 		ubfx	r2, r3, #10, #2
 1391 0108 81F82720 		strb	r2, [r1, #39]
 1392 010c C3F30122 		ubfx	r2, r3, #8, #2
 1393 0110 C3F34603 		ubfx	r3, r3, #1, #7
 1394 0114 81F82820 		strb	r2, [r1, #40]
 1395 0118 81F82930 		strb	r3, [r1, #41]
 1396 011c 81F82A60 		strb	r6, [r1, #42]
 1397 0120 70BD     		pop	{r4, r5, r6, pc}
 1399              		.section	.text.HAL_MMC_InitCard,"ax",%progbits
 1400              		.align	1
 1401              		.global	HAL_MMC_InitCard
 1402              		.syntax unified
 1403              		.thumb
 1404              		.thumb_func
 1405              		.fpu softvfp
 1407              	HAL_MMC_InitCard:
 1408              		@ args = 0, pretend = 0, frame = 80
 1409              		@ frame_needed = 0, uses_anonymous_args = 0
ARM GAS  /tmp/ccBaiOiR.s 			page 25


 1410 0000 70B5     		push	{r4, r5, r6, lr}
 1411 0002 0025     		movs	r5, #0
 1412 0004 7623     		movs	r3, #118
 1413 0006 0446     		mov	r4, r0
 1414 0008 98B0     		sub	sp, sp, #96
 1415 000a CDE90955 		strd	r5, r5, [sp, #36]
 1416 000e 0C93     		str	r3, [sp, #48]
 1417 0010 0B95     		str	r5, [sp, #44]
 1418 0012 0AAB     		add	r3, sp, #40
 1419 0014 93E80700 		ldm	r3, {r0, r1, r2}
 1420 0018 8DE80700 		stm	sp, {r0, r1, r2}
 1421 001c CDE90755 		strd	r5, r5, [sp, #28]
 1422 0020 07AB     		add	r3, sp, #28
 1423 0022 2068     		ldr	r0, [r4]
 1424 0024 0ECB     		ldm	r3, {r1, r2, r3}
 1425 0026 FFF7FEFF 		bl	SDIO_Init
 1426 002a 0128     		cmp	r0, #1
 1427 002c 03D1     		bne	.L201
 1428              	.L203:
 1429 002e 0125     		movs	r5, #1
 1430              	.L217:
 1431 0030 2846     		mov	r0, r5
 1432 0032 18B0     		add	sp, sp, #96
 1433              		@ sp needed
 1434 0034 70BD     		pop	{r4, r5, r6, pc}
 1435              	.L201:
 1436 0036 554E     		ldr	r6, .L219
 1437 0038 2068     		ldr	r0, [r4]
 1438 003a 3560     		str	r5, [r6]
 1439 003c FFF7FEFF 		bl	SDIO_PowerState_ON
 1440 0040 0128     		cmp	r0, #1
 1441 0042 F4D0     		beq	.L203
 1442 0044 0123     		movs	r3, #1
 1443 0046 2068     		ldr	r0, [r4]
 1444 0048 3360     		str	r3, [r6]
 1445 004a 0695     		str	r5, [sp, #24]
 1446 004c FFF7FEFF 		bl	SDMMC_CmdGoIdleState
 1447 0050 0028     		cmp	r0, #0
 1448 0052 40F09180 		bne	.L204
 1449 0056 4FF6FF75 		movw	r5, #65535
 1450 005a 4D4E     		ldr	r6, .L219+4
 1451              	.L205:
 1452 005c 069B     		ldr	r3, [sp, #24]
 1453 005e 5A1C     		adds	r2, r3, #1
 1454 0060 AB42     		cmp	r3, r5
 1455 0062 0692     		str	r2, [sp, #24]
 1456 0064 00F08680 		beq	.L210
 1457 0068 3146     		mov	r1, r6
 1458 006a 2068     		ldr	r0, [r4]
 1459 006c FFF7FEFF 		bl	SDMMC_CmdOpCondition
 1460 0070 0146     		mov	r1, r0
 1461 0072 0028     		cmp	r0, #0
 1462 0074 40F08680 		bne	.L211
 1463 0078 2068     		ldr	r0, [r4]
 1464 007a FFF7FEFF 		bl	SDIO_GetResponse
 1465 007e 0028     		cmp	r0, #0
 1466 0080 ECDA     		bge	.L205
ARM GAS  /tmp/ccBaiOiR.s 			page 26


 1467 0082 000E     		lsrs	r0, r0, #24
 1468 0084 A0F1C003 		sub	r3, r0, #192
 1469 0088 5842     		rsbs	r0, r3, #0
 1470 008a 5841     		adcs	r0, r0, r3
 1471 008c 0123     		movs	r3, #1
 1472 008e 6064     		str	r0, [r4, #68]
 1473 0090 2068     		ldr	r0, [r4]
 1474 0092 ADF81630 		strh	r3, [sp, #22]	@ movhi
 1475 0096 FFF7FEFF 		bl	SDIO_GetPowerState
 1476 009a 0028     		cmp	r0, #0
 1477 009c 61D0     		beq	.L206
 1478 009e 2068     		ldr	r0, [r4]
 1479 00a0 FFF7FEFF 		bl	SDMMC_CmdSendCID
 1480 00a4 0146     		mov	r1, r0
 1481 00a6 0028     		cmp	r0, #0
 1482 00a8 5DD1     		bne	.L209
 1483 00aa 2068     		ldr	r0, [r4]
 1484 00ac FFF7FEFF 		bl	SDIO_GetResponse
 1485 00b0 0421     		movs	r1, #4
 1486 00b2 2067     		str	r0, [r4, #112]
 1487 00b4 2068     		ldr	r0, [r4]
 1488 00b6 FFF7FEFF 		bl	SDIO_GetResponse
 1489 00ba 0821     		movs	r1, #8
 1490 00bc 6067     		str	r0, [r4, #116]
 1491 00be 2068     		ldr	r0, [r4]
 1492 00c0 FFF7FEFF 		bl	SDIO_GetResponse
 1493 00c4 0C21     		movs	r1, #12
 1494 00c6 A067     		str	r0, [r4, #120]
 1495 00c8 2068     		ldr	r0, [r4]
 1496 00ca FFF7FEFF 		bl	SDIO_GetResponse
 1497 00ce 0DF11601 		add	r1, sp, #22
 1498 00d2 E067     		str	r0, [r4, #124]
 1499 00d4 2068     		ldr	r0, [r4]
 1500 00d6 FFF7FEFF 		bl	SDMMC_CmdSetRelAdd
 1501 00da 0146     		mov	r1, r0
 1502 00dc 0028     		cmp	r0, #0
 1503 00de 42D1     		bne	.L209
 1504 00e0 BDF81610 		ldrh	r1, [sp, #22]
 1505 00e4 2068     		ldr	r0, [r4]
 1506 00e6 E164     		str	r1, [r4, #76]
 1507 00e8 0904     		lsls	r1, r1, #16
 1508 00ea FFF7FEFF 		bl	SDMMC_CmdSendCSD
 1509 00ee 0146     		mov	r1, r0
 1510 00f0 0028     		cmp	r0, #0
 1511 00f2 38D1     		bne	.L209
 1512 00f4 2068     		ldr	r0, [r4]
 1513 00f6 FFF7FEFF 		bl	SDIO_GetResponse
 1514 00fa 0421     		movs	r1, #4
 1515 00fc 2066     		str	r0, [r4, #96]
 1516 00fe 2068     		ldr	r0, [r4]
 1517 0100 FFF7FEFF 		bl	SDIO_GetResponse
 1518 0104 0821     		movs	r1, #8
 1519 0106 6066     		str	r0, [r4, #100]
 1520 0108 2068     		ldr	r0, [r4]
 1521 010a FFF7FEFF 		bl	SDIO_GetResponse
 1522 010e 0C21     		movs	r1, #12
 1523 0110 A066     		str	r0, [r4, #104]
ARM GAS  /tmp/ccBaiOiR.s 			page 27


 1524 0112 2068     		ldr	r0, [r4]
 1525 0114 FFF7FEFF 		bl	SDIO_GetResponse
 1526 0118 0421     		movs	r1, #4
 1527 011a E066     		str	r0, [r4, #108]
 1528 011c 2068     		ldr	r0, [r4]
 1529 011e FFF7FEFF 		bl	SDIO_GetResponse
 1530 0122 000D     		lsrs	r0, r0, #20
 1531 0124 A064     		str	r0, [r4, #72]
 1532 0126 0DA9     		add	r1, sp, #52
 1533 0128 2046     		mov	r0, r4
 1534 012a FFF7FEFF 		bl	HAL_MMC_GetCardCSD
 1535 012e 0546     		mov	r5, r0
 1536 0130 18B1     		cbz	r0, .L208
 1537 0132 A16B     		ldr	r1, [r4, #56]
 1538 0134 B9B9     		cbnz	r1, .L209
 1539 0136 0D46     		mov	r5, r1
 1540 0138 7AE7     		b	.L217
 1541              	.L208:
 1542 013a E26C     		ldr	r2, [r4, #76]
 1543 013c 0346     		mov	r3, r0
 1544 013e 1204     		lsls	r2, r2, #16
 1545 0140 2068     		ldr	r0, [r4]
 1546 0142 FFF7FEFF 		bl	SDMMC_CmdSelDesel
 1547 0146 0146     		mov	r1, r0
 1548 0148 68B9     		cbnz	r0, .L209
 1549 014a 04F11003 		add	r3, r4, #16
 1550 014e 93E80700 		ldm	r3, {r0, r1, r2}
 1551 0152 8DE80700 		stm	sp, {r0, r1, r2}
 1552 0156 231D     		adds	r3, r4, #4
 1553 0158 2068     		ldr	r0, [r4]
 1554 015a 0ECB     		ldm	r3, {r1, r2, r3}
 1555 015c FFF7FEFF 		bl	SDIO_Init
 1556 0160 66E7     		b	.L217
 1557              	.L206:
 1558 0162 4FF08061 		mov	r1, #67108864
 1559              	.L209:
 1560 0166 0125     		movs	r5, #1
 1561 0168 84F83450 		strb	r5, [r4, #52]
 1562 016c A06B     		ldr	r0, [r4, #56]
 1563 016e 0843     		orrs	r0, r0, r1
 1564              	.L218:
 1565 0170 A063     		str	r0, [r4, #56]
 1566 0172 5DE7     		b	.L217
 1567              	.L210:
 1568 0174 4FF08070 		mov	r0, #16777216
 1569              	.L204:
 1570 0178 0125     		movs	r5, #1
 1571 017a 84F83450 		strb	r5, [r4, #52]
 1572 017e A36B     		ldr	r3, [r4, #56]
 1573 0180 1843     		orrs	r0, r0, r3
 1574 0182 F5E7     		b	.L218
 1575              	.L211:
 1576 0184 4FF08050 		mov	r0, #268435456
 1577 0188 F6E7     		b	.L204
 1578              	.L220:
 1579 018a 00BF     		.align	2
 1580              	.L219:
ARM GAS  /tmp/ccBaiOiR.s 			page 28


 1581 018c A0003042 		.word	1110442144
 1582 0190 0080FFC0 		.word	-1056997376
 1584              		.section	.text.HAL_MMC_Init,"ax",%progbits
 1585              		.align	1
 1586              		.global	HAL_MMC_Init
 1587              		.syntax unified
 1588              		.thumb
 1589              		.thumb_func
 1590              		.fpu softvfp
 1592              	HAL_MMC_Init:
 1593              		@ args = 0, pretend = 0, frame = 0
 1594              		@ frame_needed = 0, uses_anonymous_args = 0
 1595 0000 10B5     		push	{r4, lr}
 1596 0002 0446     		mov	r4, r0
 1597 0004 08B9     		cbnz	r0, .L222
 1598              	.L225:
 1599 0006 0120     		movs	r0, #1
 1600              	.L223:
 1601 0008 10BD     		pop	{r4, pc}
 1602              	.L222:
 1603 000a 90F83430 		ldrb	r3, [r0, #52]	@ zero_extendqisi2
 1604 000e 03F0FF02 		and	r2, r3, #255
 1605 0012 13B9     		cbnz	r3, .L224
 1606 0014 0277     		strb	r2, [r0, #28]
 1607 0016 FFF7FEFF 		bl	HAL_MMC_MspInit
 1608              	.L224:
 1609 001a 0323     		movs	r3, #3
 1610 001c 2046     		mov	r0, r4
 1611 001e 84F83430 		strb	r3, [r4, #52]
 1612 0022 FFF7FEFF 		bl	HAL_MMC_InitCard
 1613 0026 0128     		cmp	r0, #1
 1614 0028 EDD0     		beq	.L225
 1615 002a 0020     		movs	r0, #0
 1616 002c 0123     		movs	r3, #1
 1617 002e A063     		str	r0, [r4, #56]
 1618 0030 2063     		str	r0, [r4, #48]
 1619 0032 84F83430 		strb	r3, [r4, #52]
 1620 0036 E7E7     		b	.L223
 1622              		.section	.text.HAL_MMC_GetCardInfo,"ax",%progbits
 1623              		.align	1
 1624              		.global	HAL_MMC_GetCardInfo
 1625              		.syntax unified
 1626              		.thumb
 1627              		.thumb_func
 1628              		.fpu softvfp
 1630              	HAL_MMC_GetCardInfo:
 1631              		@ args = 0, pretend = 0, frame = 0
 1632              		@ frame_needed = 0, uses_anonymous_args = 0
 1633              		@ link register save eliminated.
 1634 0000 436C     		ldr	r3, [r0, #68]
 1635 0002 0B60     		str	r3, [r1]
 1636 0004 836C     		ldr	r3, [r0, #72]
 1637 0006 4B60     		str	r3, [r1, #4]
 1638 0008 C36C     		ldr	r3, [r0, #76]
 1639 000a 8B60     		str	r3, [r1, #8]
 1640 000c 036D     		ldr	r3, [r0, #80]
 1641 000e CB60     		str	r3, [r1, #12]
ARM GAS  /tmp/ccBaiOiR.s 			page 29


 1642 0010 436D     		ldr	r3, [r0, #84]
 1643 0012 0B61     		str	r3, [r1, #16]
 1644 0014 836D     		ldr	r3, [r0, #88]
 1645 0016 4B61     		str	r3, [r1, #20]
 1646 0018 C36D     		ldr	r3, [r0, #92]
 1647 001a 0020     		movs	r0, #0
 1648 001c 8B61     		str	r3, [r1, #24]
 1649 001e 7047     		bx	lr
 1651              		.section	.text.HAL_MMC_ConfigWideBusOperation,"ax",%progbits
 1652              		.align	1
 1653              		.global	HAL_MMC_ConfigWideBusOperation
 1654              		.syntax unified
 1655              		.thumb
 1656              		.thumb_func
 1657              		.fpu softvfp
 1659              	HAL_MMC_ConfigWideBusOperation:
 1660              		@ args = 0, pretend = 0, frame = 32
 1661              		@ frame_needed = 0, uses_anonymous_args = 0
 1662 0000 0023     		movs	r3, #0
 1663 0002 F0B5     		push	{r4, r5, r6, r7, lr}
 1664 0004 8DB0     		sub	sp, sp, #52
 1665 0006 CDE90831 		strd	r3, r1, [sp, #32]
 1666 000a CDE90633 		strd	r3, r3, [sp, #24]
 1667 000e 0593     		str	r3, [sp, #20]
 1668 0010 0A93     		str	r3, [sp, #40]
 1669 0012 7623     		movs	r3, #118
 1670 0014 0322     		movs	r2, #3
 1671 0016 0446     		mov	r4, r0
 1672 0018 0D46     		mov	r5, r1
 1673 001a 0B93     		str	r3, [sp, #44]
 1674 001c 09AF     		add	r7, sp, #36
 1675 001e 80F83420 		strb	r2, [r0, #52]
 1676 0022 97E80700 		ldm	r7, {r0, r1, r2}
 1677 0026 8DE80700 		stm	sp, {r0, r1, r2}
 1678 002a 06AE     		add	r6, sp, #24
 1679 002c 2068     		ldr	r0, [r4]
 1680 002e 96E80E00 		ldm	r6, {r1, r2, r3}
 1681 0032 FFF7FEFF 		bl	SDIO_Init
 1682 0036 B5F5805F 		cmp	r5, #4096
 1683 003a 15D1     		bne	.L231
 1684 003c 3849     		ldr	r1, .L266
 1685              	.L264:
 1686 003e 2068     		ldr	r0, [r4]
 1687 0040 FFF7FEFF 		bl	SDMMC_CmdSwitch
 1688 0044 10B1     		cbz	r0, .L233
 1689 0046 A36B     		ldr	r3, [r4, #56]
 1690 0048 1843     		orrs	r0, r0, r3
 1691 004a A063     		str	r0, [r4, #56]
 1692              	.L233:
 1693 004c 4FF6FF75 		movw	r5, #65535
 1694              	.L240:
 1695 0050 059B     		ldr	r3, [sp, #20]
 1696 0052 AB42     		cmp	r3, r5
 1697 0054 15D1     		bne	.L237
 1698              	.L262:
 1699 0056 0120     		movs	r0, #1
 1700 0058 84F83400 		strb	r0, [r4, #52]
ARM GAS  /tmp/ccBaiOiR.s 			page 30


 1701 005c A36B     		ldr	r3, [r4, #56]
 1702 005e 43F08063 		orr	r3, r3, #67108864
 1703 0062 A363     		str	r3, [r4, #56]
 1704              	.L238:
 1705 0064 0DB0     		add	sp, sp, #52
 1706              		@ sp needed
 1707 0066 F0BD     		pop	{r4, r5, r6, r7, pc}
 1708              	.L231:
 1709 0068 B5F5006F 		cmp	r5, #2048
 1710 006c 01D1     		bne	.L234
 1711 006e 2D49     		ldr	r1, .L266+4
 1712 0070 E5E7     		b	.L264
 1713              	.L234:
 1714 0072 0DB9     		cbnz	r5, .L236
 1715 0074 2C49     		ldr	r1, .L266+8
 1716 0076 E2E7     		b	.L264
 1717              	.L236:
 1718 0078 A36B     		ldr	r3, [r4, #56]
 1719 007a 43F00063 		orr	r3, r3, #134217728
 1720 007e A363     		str	r3, [r4, #56]
 1721 0080 E4E7     		b	.L233
 1722              	.L237:
 1723 0082 059B     		ldr	r3, [sp, #20]
 1724 0084 E16C     		ldr	r1, [r4, #76]
 1725 0086 0133     		adds	r3, r3, #1
 1726 0088 2068     		ldr	r0, [r4]
 1727 008a 0904     		lsls	r1, r1, #16
 1728 008c 0593     		str	r3, [sp, #20]
 1729 008e FFF7FEFF 		bl	SDMMC_CmdSendStatus
 1730 0092 10B1     		cbz	r0, .L239
 1731 0094 A36B     		ldr	r3, [r4, #56]
 1732 0096 1843     		orrs	r0, r0, r3
 1733 0098 A063     		str	r0, [r4, #56]
 1734              	.L239:
 1735 009a 0021     		movs	r1, #0
 1736 009c 2068     		ldr	r0, [r4]
 1737 009e FFF7FEFF 		bl	SDIO_GetResponse
 1738 00a2 C309     		lsrs	r3, r0, #7
 1739 00a4 012B     		cmp	r3, #1
 1740 00a6 D3D0     		beq	.L240
 1741 00a8 4FF0FF33 		mov	r3, #-1
 1742 00ac 0593     		str	r3, [sp, #20]
 1743              	.L241:
 1744 00ae C305     		lsls	r3, r0, #23
 1745 00b0 0AD5     		bpl	.L244
 1746 00b2 A56B     		ldr	r5, [r4, #56]
 1747 00b4 D4F800C0 		ldr	ip, [r4]
 1748 00b8 D5B1     		cbz	r5, .L245
 1749 00ba 0120     		movs	r0, #1
 1750 00bc 1B4B     		ldr	r3, .L266+12
 1751 00be CCF83830 		str	r3, [ip, #56]
 1752 00c2 84F83400 		strb	r0, [r4, #52]
 1753 00c6 CDE7     		b	.L238
 1754              	.L244:
 1755 00c8 059B     		ldr	r3, [sp, #20]
 1756 00ca 002B     		cmp	r3, #0
 1757 00cc C3D0     		beq	.L262
ARM GAS  /tmp/ccBaiOiR.s 			page 31


 1758 00ce 059B     		ldr	r3, [sp, #20]
 1759 00d0 E16C     		ldr	r1, [r4, #76]
 1760 00d2 013B     		subs	r3, r3, #1
 1761 00d4 2068     		ldr	r0, [r4]
 1762 00d6 0904     		lsls	r1, r1, #16
 1763 00d8 0593     		str	r3, [sp, #20]
 1764 00da FFF7FEFF 		bl	SDMMC_CmdSendStatus
 1765 00de 10B1     		cbz	r0, .L243
 1766 00e0 A36B     		ldr	r3, [r4, #56]
 1767 00e2 1843     		orrs	r0, r0, r3
 1768 00e4 A063     		str	r0, [r4, #56]
 1769              	.L243:
 1770 00e6 0021     		movs	r1, #0
 1771 00e8 2068     		ldr	r0, [r4]
 1772 00ea FFF7FEFF 		bl	SDIO_GetResponse
 1773 00ee DEE7     		b	.L241
 1774              	.L245:
 1775 00f0 6368     		ldr	r3, [r4, #4]
 1776 00f2 0693     		str	r3, [sp, #24]
 1777 00f4 A368     		ldr	r3, [r4, #8]
 1778 00f6 0793     		str	r3, [sp, #28]
 1779 00f8 E368     		ldr	r3, [r4, #12]
 1780 00fa 0893     		str	r3, [sp, #32]
 1781 00fc 6369     		ldr	r3, [r4, #20]
 1782 00fe 0A93     		str	r3, [sp, #40]
 1783 0100 A369     		ldr	r3, [r4, #24]
 1784 0102 0B93     		str	r3, [sp, #44]
 1785 0104 97E80700 		ldm	r7, {r0, r1, r2}
 1786 0108 8DE80700 		stm	sp, {r0, r1, r2}
 1787 010c 6046     		mov	r0, ip
 1788 010e 96E80E00 		ldm	r6, {r1, r2, r3}
 1789 0112 FFF7FEFF 		bl	SDIO_Init
 1790 0116 0123     		movs	r3, #1
 1791 0118 2846     		mov	r0, r5
 1792 011a 84F83430 		strb	r3, [r4, #52]
 1793 011e A1E7     		b	.L238
 1794              	.L267:
 1795              		.align	2
 1796              	.L266:
 1797 0120 0002B703 		.word	62325248
 1798 0124 0001B703 		.word	62324992
 1799 0128 0000B703 		.word	62324736
 1800 012c FF054000 		.word	4195839
 1802              		.section	.text.HAL_MMC_GetCardState,"ax",%progbits
 1803              		.align	1
 1804              		.global	HAL_MMC_GetCardState
 1805              		.syntax unified
 1806              		.thumb
 1807              		.thumb_func
 1808              		.fpu softvfp
 1810              	HAL_MMC_GetCardState:
 1811              		@ args = 0, pretend = 0, frame = 0
 1812              		@ frame_needed = 0, uses_anonymous_args = 0
 1813 0000 C16C     		ldr	r1, [r0, #76]
 1814 0002 10B5     		push	{r4, lr}
 1815 0004 0904     		lsls	r1, r1, #16
 1816 0006 0446     		mov	r4, r0
ARM GAS  /tmp/ccBaiOiR.s 			page 32


 1817 0008 0068     		ldr	r0, [r0]
 1818 000a FFF7FEFF 		bl	SDMMC_CmdSendStatus
 1819 000e 0146     		mov	r1, r0
 1820 0010 28B9     		cbnz	r0, .L269
 1821 0012 2068     		ldr	r0, [r4]
 1822 0014 FFF7FEFF 		bl	SDIO_GetResponse
 1823              	.L270:
 1824 0018 C0F34320 		ubfx	r0, r0, #9, #4
 1825 001c 10BD     		pop	{r4, pc}
 1826              	.L269:
 1827 001e A06B     		ldr	r0, [r4, #56]
 1828 0020 0143     		orrs	r1, r1, r0
 1829 0022 A163     		str	r1, [r4, #56]
 1830 0024 0020     		movs	r0, #0
 1831 0026 F7E7     		b	.L270
 1833              		.section	.text.MMC_DMAError,"ax",%progbits
 1834              		.align	1
 1835              		.syntax unified
 1836              		.thumb
 1837              		.thumb_func
 1838              		.fpu softvfp
 1840              	MMC_DMAError:
 1841              		@ args = 0, pretend = 0, frame = 0
 1842              		@ frame_needed = 0, uses_anonymous_args = 0
 1843 0000 10B5     		push	{r4, lr}
 1844 0002 446A     		ldr	r4, [r0, #36]
 1845 0004 E36B     		ldr	r3, [r4, #60]
 1846 0006 9A6B     		ldr	r2, [r3, #56]
 1847 0008 236C     		ldr	r3, [r4, #64]
 1848 000a 012A     		cmp	r2, #1
 1849 000c 9B6B     		ldr	r3, [r3, #56]
 1850 000e 01D0     		beq	.L272
 1851 0010 012B     		cmp	r3, #1
 1852 0012 19D1     		bne	.L273
 1853              	.L272:
 1854 0014 2368     		ldr	r3, [r4]
 1855 0016 0E4A     		ldr	r2, .L278
 1856 0018 2046     		mov	r0, r4
 1857 001a 9A63     		str	r2, [r3, #56]
 1858 001c DA6B     		ldr	r2, [r3, #60]
 1859 001e 22F49D72 		bic	r2, r2, #314
 1860 0022 DA63     		str	r2, [r3, #60]
 1861 0024 A36B     		ldr	r3, [r4, #56]
 1862 0026 43F08043 		orr	r3, r3, #1073741824
 1863 002a A363     		str	r3, [r4, #56]
 1864 002c FFF7FEFF 		bl	HAL_MMC_GetCardState
 1865 0030 0538     		subs	r0, r0, #5
 1866 0032 0128     		cmp	r0, #1
 1867 0034 05D8     		bhi	.L274
 1868 0036 2068     		ldr	r0, [r4]
 1869 0038 FFF7FEFF 		bl	SDMMC_CmdStopTransfer
 1870 003c A36B     		ldr	r3, [r4, #56]
 1871 003e 0343     		orrs	r3, r3, r0
 1872 0040 A363     		str	r3, [r4, #56]
 1873              	.L274:
 1874 0042 0123     		movs	r3, #1
 1875 0044 84F83430 		strb	r3, [r4, #52]
ARM GAS  /tmp/ccBaiOiR.s 			page 33


 1876              	.L273:
 1877 0048 2046     		mov	r0, r4
 1878 004a FFF7FEFF 		bl	HAL_MMC_ErrorCallback
 1879 004e 10BD     		pop	{r4, pc}
 1880              	.L279:
 1881              		.align	2
 1882              	.L278:
 1883 0050 FF054000 		.word	4195839
 1885              		.section	.text.MMC_DMATxAbort,"ax",%progbits
 1886              		.align	1
 1887              		.syntax unified
 1888              		.thumb
 1889              		.thumb_func
 1890              		.fpu softvfp
 1892              	MMC_DMATxAbort:
 1893              		@ args = 0, pretend = 0, frame = 0
 1894              		@ frame_needed = 0, uses_anonymous_args = 0
 1895 0000 38B5     		push	{r3, r4, r5, lr}
 1896 0002 446A     		ldr	r4, [r0, #36]
 1897 0004 236C     		ldr	r3, [r4, #64]
 1898 0006 0BB1     		cbz	r3, .L281
 1899 0008 0023     		movs	r3, #0
 1900 000a 2364     		str	r3, [r4, #64]
 1901              	.L281:
 1902 000c E56B     		ldr	r5, [r4, #60]
 1903 000e A5B9     		cbnz	r5, .L280
 1904 0010 2046     		mov	r0, r4
 1905 0012 FFF7FEFF 		bl	HAL_MMC_GetCardState
 1906 0016 0123     		movs	r3, #1
 1907 0018 0538     		subs	r0, r0, #5
 1908 001a 9842     		cmp	r0, r3
 1909 001c A563     		str	r5, [r4, #56]
 1910 001e 84F83430 		strb	r3, [r4, #52]
 1911 0022 0AD8     		bhi	.L280
 1912 0024 2068     		ldr	r0, [r4]
 1913 0026 FFF7FEFF 		bl	SDMMC_CmdStopTransfer
 1914 002a A36B     		ldr	r3, [r4, #56]
 1915 002c 0343     		orrs	r3, r3, r0
 1916 002e A363     		str	r3, [r4, #56]
 1917 0030 A36B     		ldr	r3, [r4, #56]
 1918 0032 2046     		mov	r0, r4
 1919 0034 13B1     		cbz	r3, .L285
 1920 0036 FFF7FEFF 		bl	HAL_MMC_AbortCallback
 1921              	.L280:
 1922 003a 38BD     		pop	{r3, r4, r5, pc}
 1923              	.L285:
 1924 003c FFF7FEFF 		bl	HAL_MMC_ErrorCallback
 1925 0040 FBE7     		b	.L280
 1927              		.section	.text.MMC_DMARxAbort,"ax",%progbits
 1928              		.align	1
 1929              		.syntax unified
 1930              		.thumb
 1931              		.thumb_func
 1932              		.fpu softvfp
 1934              	MMC_DMARxAbort:
 1935              		@ args = 0, pretend = 0, frame = 0
 1936              		@ frame_needed = 0, uses_anonymous_args = 0
ARM GAS  /tmp/ccBaiOiR.s 			page 34


 1937 0000 38B5     		push	{r3, r4, r5, lr}
 1938 0002 446A     		ldr	r4, [r0, #36]
 1939 0004 E36B     		ldr	r3, [r4, #60]
 1940 0006 0BB1     		cbz	r3, .L290
 1941 0008 0023     		movs	r3, #0
 1942 000a E363     		str	r3, [r4, #60]
 1943              	.L290:
 1944 000c 256C     		ldr	r5, [r4, #64]
 1945 000e A5B9     		cbnz	r5, .L289
 1946 0010 2046     		mov	r0, r4
 1947 0012 FFF7FEFF 		bl	HAL_MMC_GetCardState
 1948 0016 0123     		movs	r3, #1
 1949 0018 0538     		subs	r0, r0, #5
 1950 001a 9842     		cmp	r0, r3
 1951 001c A563     		str	r5, [r4, #56]
 1952 001e 84F83430 		strb	r3, [r4, #52]
 1953 0022 0AD8     		bhi	.L289
 1954 0024 2068     		ldr	r0, [r4]
 1955 0026 FFF7FEFF 		bl	SDMMC_CmdStopTransfer
 1956 002a A36B     		ldr	r3, [r4, #56]
 1957 002c 0343     		orrs	r3, r3, r0
 1958 002e A363     		str	r3, [r4, #56]
 1959 0030 A36B     		ldr	r3, [r4, #56]
 1960 0032 2046     		mov	r0, r4
 1961 0034 13B1     		cbz	r3, .L294
 1962 0036 FFF7FEFF 		bl	HAL_MMC_AbortCallback
 1963              	.L289:
 1964 003a 38BD     		pop	{r3, r4, r5, pc}
 1965              	.L294:
 1966 003c FFF7FEFF 		bl	HAL_MMC_ErrorCallback
 1967 0040 FBE7     		b	.L289
 1969              		.section	.text.HAL_MMC_IRQHandler,"ax",%progbits
 1970              		.align	1
 1971              		.global	HAL_MMC_IRQHandler
 1972              		.syntax unified
 1973              		.thumb
 1974              		.thumb_func
 1975              		.fpu softvfp
 1977              	HAL_MMC_IRQHandler:
 1978              		@ args = 0, pretend = 0, frame = 8
 1979              		@ frame_needed = 0, uses_anonymous_args = 0
 1980 0000 2DE9F341 		push	{r0, r1, r4, r5, r6, r7, r8, lr}
 1981 0004 056B     		ldr	r5, [r0, #48]
 1982 0006 0446     		mov	r4, r0
 1983 0008 0068     		ldr	r0, [r0]
 1984 000a 436B     		ldr	r3, [r0, #52]
 1985 000c 1A04     		lsls	r2, r3, #16
 1986 000e 1FD5     		bpl	.L299
 1987 0010 2B07     		lsls	r3, r5, #28
 1988 0012 1DD5     		bpl	.L299
 1989 0014 E76A     		ldr	r7, [r4, #44]
 1990 0016 C7B1     		cbz	r7, .L298
 1991 0018 A66A     		ldr	r6, [r4, #40]
 1992 001a 351D     		adds	r5, r6, #4
 1993 001c 06F12408 		add	r8, r6, #36
 1994              	.L302:
 1995 0020 2068     		ldr	r0, [r4]
ARM GAS  /tmp/ccBaiOiR.s 			page 35


 1996 0022 FFF7FEFF 		bl	SDIO_ReadFIFO
 1997 0026 030A     		lsrs	r3, r0, #8
 1998 0028 05F8040C 		strb	r0, [r5, #-4]
 1999 002c 05F8033C 		strb	r3, [r5, #-3]
 2000 0030 030C     		lsrs	r3, r0, #16
 2001 0032 000E     		lsrs	r0, r0, #24
 2002 0034 05F8023C 		strb	r3, [r5, #-2]
 2003 0038 05F8010C 		strb	r0, [r5, #-1]
 2004 003c 0435     		adds	r5, r5, #4
 2005 003e 4545     		cmp	r5, r8
 2006 0040 EED1     		bne	.L302
 2007 0042 2036     		adds	r6, r6, #32
 2008 0044 203F     		subs	r7, r7, #32
 2009 0046 A662     		str	r6, [r4, #40]
 2010 0048 E762     		str	r7, [r4, #44]
 2011              	.L298:
 2012 004a 02B0     		add	sp, sp, #8
 2013              		@ sp needed
 2014 004c BDE8F081 		pop	{r4, r5, r6, r7, r8, pc}
 2015              	.L299:
 2016 0050 436B     		ldr	r3, [r0, #52]
 2017 0052 DF05     		lsls	r7, r3, #23
 2018 0054 43D5     		bpl	.L303
 2019 0056 4FF48073 		mov	r3, #256
 2020 005a 8363     		str	r3, [r0, #56]
 2021 005c C36B     		ldr	r3, [r0, #60]
 2022 005e 2E06     		lsls	r6, r5, #24
 2023 0060 23F44E73 		bic	r3, r3, #824
 2024 0064 23F00203 		bic	r3, r3, #2
 2025 0068 C363     		str	r3, [r0, #60]
 2026 006a C36A     		ldr	r3, [r0, #44]
 2027 006c 23F00103 		bic	r3, r3, #1
 2028 0070 C362     		str	r3, [r0, #44]
 2029 0072 18D5     		bpl	.L304
 2030 0074 A906     		lsls	r1, r5, #26
 2031 0076 08D5     		bpl	.L306
 2032 0078 FFF7FEFF 		bl	SDMMC_CmdStopTransfer
 2033 007c 28B1     		cbz	r0, .L306
 2034 007e A36B     		ldr	r3, [r4, #56]
 2035 0080 1843     		orrs	r0, r0, r3
 2036 0082 A063     		str	r0, [r4, #56]
 2037 0084 2046     		mov	r0, r4
 2038 0086 FFF7FEFF 		bl	HAL_MMC_ErrorCallback
 2039              	.L306:
 2040 008a AA07     		lsls	r2, r5, #30
 2041 008c DDD1     		bne	.L298
 2042 008e 2268     		ldr	r2, [r4]
 2043 0090 2046     		mov	r0, r4
 2044 0092 D36A     		ldr	r3, [r2, #44]
 2045 0094 23F00803 		bic	r3, r3, #8
 2046 0098 D362     		str	r3, [r2, #44]
 2047 009a 0123     		movs	r3, #1
 2048 009c 84F83430 		strb	r3, [r4, #52]
 2049              	.L312:
 2050 00a0 FFF7FEFF 		bl	HAL_MMC_TxCpltCallback
 2051 00a4 D1E7     		b	.L298
 2052              	.L304:
ARM GAS  /tmp/ccBaiOiR.s 			page 36


 2053 00a6 2B07     		lsls	r3, r5, #28
 2054 00a8 CFD5     		bpl	.L298
 2055 00aa 15F0220F 		tst	r5, #34
 2056 00ae 08D0     		beq	.L310
 2057 00b0 FFF7FEFF 		bl	SDMMC_CmdStopTransfer
 2058 00b4 28B1     		cbz	r0, .L310
 2059 00b6 A36B     		ldr	r3, [r4, #56]
 2060 00b8 1843     		orrs	r0, r0, r3
 2061 00ba A063     		str	r0, [r4, #56]
 2062 00bc 2046     		mov	r0, r4
 2063 00be FFF7FEFF 		bl	HAL_MMC_ErrorCallback
 2064              	.L310:
 2065 00c2 40F23A52 		movw	r2, #1338
 2066 00c6 2368     		ldr	r3, [r4]
 2067 00c8 AF07     		lsls	r7, r5, #30
 2068 00ca 9A63     		str	r2, [r3, #56]
 2069 00cc 4FF00103 		mov	r3, #1
 2070 00d0 2046     		mov	r0, r4
 2071 00d2 84F83430 		strb	r3, [r4, #52]
 2072 00d6 E3D0     		beq	.L312
 2073 00d8 FFF7FEFF 		bl	HAL_MMC_RxCpltCallback
 2074 00dc B5E7     		b	.L298
 2075              	.L303:
 2076 00de 436B     		ldr	r3, [r0, #52]
 2077 00e0 5E04     		lsls	r6, r3, #17
 2078 00e2 26D5     		bpl	.L313
 2079 00e4 2907     		lsls	r1, r5, #28
 2080 00e6 24D5     		bpl	.L313
 2081 00e8 676A     		ldr	r7, [r4, #36]
 2082 00ea 002F     		cmp	r7, #0
 2083 00ec ADD0     		beq	.L298
 2084 00ee 266A     		ldr	r6, [r4, #32]
 2085 00f0 351D     		adds	r5, r6, #4
 2086 00f2 06F12408 		add	r8, r6, #36
 2087              	.L315:
 2088 00f6 15F8043C 		ldrb	r3, [r5, #-4]	@ zero_extendqisi2
 2089 00fa 2068     		ldr	r0, [r4]
 2090 00fc 0193     		str	r3, [sp, #4]
 2091 00fe 15F8032C 		ldrb	r2, [r5, #-3]	@ zero_extendqisi2
 2092 0102 01A9     		add	r1, sp, #4
 2093 0104 43EA0223 		orr	r3, r3, r2, lsl #8
 2094 0108 0193     		str	r3, [sp, #4]
 2095 010a 15F8022C 		ldrb	r2, [r5, #-2]	@ zero_extendqisi2
 2096 010e 0435     		adds	r5, r5, #4
 2097 0110 43EA0243 		orr	r3, r3, r2, lsl #16
 2098 0114 0193     		str	r3, [sp, #4]
 2099 0116 15F8052C 		ldrb	r2, [r5, #-5]	@ zero_extendqisi2
 2100 011a 43EA0263 		orr	r3, r3, r2, lsl #24
 2101 011e 0193     		str	r3, [sp, #4]
 2102 0120 FFF7FEFF 		bl	SDIO_WriteFIFO
 2103 0124 4545     		cmp	r5, r8
 2104 0126 E6D1     		bne	.L315
 2105 0128 2036     		adds	r6, r6, #32
 2106 012a 203F     		subs	r7, r7, #32
 2107 012c 2662     		str	r6, [r4, #32]
 2108 012e 6762     		str	r7, [r4, #36]
 2109 0130 8BE7     		b	.L298
ARM GAS  /tmp/ccBaiOiR.s 			page 37


 2110              	.L313:
 2111 0132 40F23A23 		movw	r3, #570
 2112 0136 426B     		ldr	r2, [r0, #52]
 2113 0138 1A42     		tst	r2, r3
 2114 013a 86D0     		beq	.L298
 2115 013c 436B     		ldr	r3, [r0, #52]
 2116 013e 9A07     		lsls	r2, r3, #30
 2117 0140 42BF     		ittt	mi
 2118 0142 A36B     		ldrmi	r3, [r4, #56]
 2119 0144 43F00203 		orrmi	r3, r3, #2
 2120 0148 A363     		strmi	r3, [r4, #56]
 2121 014a 436B     		ldr	r3, [r0, #52]
 2122 014c 1B07     		lsls	r3, r3, #28
 2123 014e 42BF     		ittt	mi
 2124 0150 A36B     		ldrmi	r3, [r4, #56]
 2125 0152 43F00803 		orrmi	r3, r3, #8
 2126 0156 A363     		strmi	r3, [r4, #56]
 2127 0158 436B     		ldr	r3, [r0, #52]
 2128 015a 9F06     		lsls	r7, r3, #26
 2129 015c 42BF     		ittt	mi
 2130 015e A36B     		ldrmi	r3, [r4, #56]
 2131 0160 43F02003 		orrmi	r3, r3, #32
 2132 0164 A363     		strmi	r3, [r4, #56]
 2133 0166 436B     		ldr	r3, [r0, #52]
 2134 0168 DE06     		lsls	r6, r3, #27
 2135 016a 42BF     		ittt	mi
 2136 016c A36B     		ldrmi	r3, [r4, #56]
 2137 016e 43F01003 		orrmi	r3, r3, #16
 2138 0172 A363     		strmi	r3, [r4, #56]
 2139 0174 436B     		ldr	r3, [r0, #52]
 2140 0176 9905     		lsls	r1, r3, #22
 2141 0178 42BF     		ittt	mi
 2142 017a A36B     		ldrmi	r3, [r4, #56]
 2143 017c 43F00803 		orrmi	r3, r3, #8
 2144 0180 A363     		strmi	r3, [r4, #56]
 2145 0182 40F23A73 		movw	r3, #1850
 2146 0186 8363     		str	r3, [r0, #56]
 2147 0188 C36B     		ldr	r3, [r0, #60]
 2148 018a 23F44E73 		bic	r3, r3, #824
 2149 018e 23F00203 		bic	r3, r3, #2
 2150 0192 C363     		str	r3, [r0, #60]
 2151 0194 FFF7FEFF 		bl	SDMMC_CmdStopTransfer
 2152 0198 A36B     		ldr	r3, [r4, #56]
 2153 019a 2A07     		lsls	r2, r5, #28
 2154 019c 43EA0003 		orr	r3, r3, r0
 2155 01a0 A363     		str	r3, [r4, #56]
 2156 01a2 06D5     		bpl	.L321
 2157 01a4 0123     		movs	r3, #1
 2158 01a6 2046     		mov	r0, r4
 2159 01a8 84F83430 		strb	r3, [r4, #52]
 2160 01ac FFF7FEFF 		bl	HAL_MMC_ErrorCallback
 2161 01b0 4BE7     		b	.L298
 2162              	.L321:
 2163 01b2 2B06     		lsls	r3, r5, #24
 2164 01b4 7FF549AF 		bpl	.L298
 2165 01b8 206C     		ldr	r0, [r4, #64]
 2166 01ba 50B1     		cbz	r0, .L322
ARM GAS  /tmp/ccBaiOiR.s 			page 38


 2167 01bc 0F4B     		ldr	r3, .L377
 2168 01be 4363     		str	r3, [r0, #52]
 2169 01c0 FFF7FEFF 		bl	HAL_DMA_Abort_IT
 2170 01c4 0028     		cmp	r0, #0
 2171 01c6 3FF440AF 		beq	.L298
 2172 01ca 206C     		ldr	r0, [r4, #64]
 2173 01cc FFF7FEFF 		bl	MMC_DMATxAbort
 2174 01d0 3BE7     		b	.L298
 2175              	.L322:
 2176 01d2 E06B     		ldr	r0, [r4, #60]
 2177 01d4 50B1     		cbz	r0, .L323
 2178 01d6 0A4B     		ldr	r3, .L377+4
 2179 01d8 4363     		str	r3, [r0, #52]
 2180 01da FFF7FEFF 		bl	HAL_DMA_Abort_IT
 2181 01de 0028     		cmp	r0, #0
 2182 01e0 3FF433AF 		beq	.L298
 2183 01e4 E06B     		ldr	r0, [r4, #60]
 2184 01e6 FFF7FEFF 		bl	MMC_DMARxAbort
 2185 01ea 2EE7     		b	.L298
 2186              	.L323:
 2187 01ec 0123     		movs	r3, #1
 2188 01ee A063     		str	r0, [r4, #56]
 2189 01f0 2046     		mov	r0, r4
 2190 01f2 84F83430 		strb	r3, [r4, #52]
 2191 01f6 FFF7FEFF 		bl	HAL_MMC_AbortCallback
 2192 01fa 26E7     		b	.L298
 2193              	.L378:
 2194              		.align	2
 2195              	.L377:
 2196 01fc 00000000 		.word	MMC_DMATxAbort
 2197 0200 00000000 		.word	MMC_DMARxAbort
 2199              		.section	.text.HAL_MMC_Abort,"ax",%progbits
 2200              		.align	1
 2201              		.global	HAL_MMC_Abort
 2202              		.syntax unified
 2203              		.thumb
 2204              		.thumb_func
 2205              		.fpu softvfp
 2207              	HAL_MMC_Abort:
 2208              		@ args = 0, pretend = 0, frame = 0
 2209              		@ frame_needed = 0, uses_anonymous_args = 0
 2210 0000 0368     		ldr	r3, [r0]
 2211 0002 10B5     		push	{r4, lr}
 2212 0004 DA6B     		ldr	r2, [r3, #60]
 2213 0006 0446     		mov	r4, r0
 2214 0008 22F49D72 		bic	r2, r2, #314
 2215 000c DA63     		str	r2, [r3, #60]
 2216 000e 40F23A52 		movw	r2, #1338
 2217 0012 006C     		ldr	r0, [r0, #64]
 2218 0014 9A63     		str	r2, [r3, #56]
 2219 0016 08B9     		cbnz	r0, .L380
 2220 0018 E26B     		ldr	r2, [r4, #60]
 2221 001a A2B1     		cbz	r2, .L381
 2222              	.L380:
 2223 001c DA6A     		ldr	r2, [r3, #44]
 2224 001e 22F00802 		bic	r2, r2, #8
 2225 0022 DA62     		str	r2, [r3, #44]
ARM GAS  /tmp/ccBaiOiR.s 			page 39


 2226 0024 30B1     		cbz	r0, .L383
 2227 0026 FFF7FEFF 		bl	HAL_DMA_Abort
 2228 002a 18B1     		cbz	r0, .L383
 2229 002c A36B     		ldr	r3, [r4, #56]
 2230 002e 43F08043 		orr	r3, r3, #1073741824
 2231 0032 A363     		str	r3, [r4, #56]
 2232              	.L383:
 2233 0034 E06B     		ldr	r0, [r4, #60]
 2234 0036 30B1     		cbz	r0, .L381
 2235 0038 FFF7FEFF 		bl	HAL_DMA_Abort
 2236 003c 18B1     		cbz	r0, .L381
 2237 003e A36B     		ldr	r3, [r4, #56]
 2238 0040 43F08043 		orr	r3, r3, #1073741824
 2239 0044 A363     		str	r3, [r4, #56]
 2240              	.L381:
 2241 0046 0123     		movs	r3, #1
 2242 0048 84F83430 		strb	r3, [r4, #52]
 2243 004c 0023     		movs	r3, #0
 2244 004e 2046     		mov	r0, r4
 2245 0050 2363     		str	r3, [r4, #48]
 2246 0052 FFF7FEFF 		bl	HAL_MMC_GetCardState
 2247 0056 0538     		subs	r0, r0, #5
 2248 0058 0128     		cmp	r0, #1
 2249 005a 03D8     		bhi	.L386
 2250 005c 2068     		ldr	r0, [r4]
 2251 005e FFF7FEFF 		bl	SDMMC_CmdStopTransfer
 2252 0062 A063     		str	r0, [r4, #56]
 2253              	.L386:
 2254 0064 A06B     		ldr	r0, [r4, #56]
 2255 0066 0038     		subs	r0, r0, #0
 2256 0068 18BF     		it	ne
 2257 006a 0120     		movne	r0, #1
 2258 006c 10BD     		pop	{r4, pc}
 2260              		.section	.text.HAL_MMC_Abort_IT,"ax",%progbits
 2261              		.align	1
 2262              		.global	HAL_MMC_Abort_IT
 2263              		.syntax unified
 2264              		.thumb
 2265              		.thumb_func
 2266              		.fpu softvfp
 2268              	HAL_MMC_Abort_IT:
 2269              		@ args = 0, pretend = 0, frame = 0
 2270              		@ frame_needed = 0, uses_anonymous_args = 0
 2271 0000 38B5     		push	{r3, r4, r5, lr}
 2272 0002 0368     		ldr	r3, [r0]
 2273 0004 0446     		mov	r4, r0
 2274 0006 DA6B     		ldr	r2, [r3, #60]
 2275 0008 006C     		ldr	r0, [r0, #64]
 2276 000a 22F49D72 		bic	r2, r2, #314
 2277 000e DA63     		str	r2, [r3, #60]
 2278 0010 40F23A52 		movw	r2, #1338
 2279 0014 9A63     		str	r2, [r3, #56]
 2280 0016 C0B9     		cbnz	r0, .L397
 2281 0018 E26B     		ldr	r2, [r4, #60]
 2282 001a B2B9     		cbnz	r2, .L397
 2283              	.L398:
 2284 001c 2046     		mov	r0, r4
ARM GAS  /tmp/ccBaiOiR.s 			page 40


 2285 001e FFF7FEFF 		bl	HAL_MMC_GetCardState
 2286 0022 0123     		movs	r3, #1
 2287 0024 0538     		subs	r0, r0, #5
 2288 0026 9842     		cmp	r0, r3
 2289 0028 84F83430 		strb	r3, [r4, #52]
 2290 002c 03D8     		bhi	.L407
 2291 002e 2068     		ldr	r0, [r4]
 2292 0030 FFF7FEFF 		bl	SDMMC_CmdStopTransfer
 2293 0034 A063     		str	r0, [r4, #56]
 2294              	.L407:
 2295 0036 A56B     		ldr	r5, [r4, #56]
 2296 0038 0DBB     		cbnz	r5, .L408
 2297 003a 2046     		mov	r0, r4
 2298 003c FFF7FEFF 		bl	HAL_MMC_AbortCallback
 2299 0040 1BE0     		b	.L418
 2300              	.L406:
 2301 0042 E36B     		ldr	r3, [r4, #60]
 2302 0044 002B     		cmp	r3, #0
 2303 0046 E9D0     		beq	.L398
 2304              	.L399:
 2305 0048 38BD     		pop	{r3, r4, r5, pc}
 2306              	.L397:
 2307 004a DA6A     		ldr	r2, [r3, #44]
 2308 004c 22F00802 		bic	r2, r2, #8
 2309 0050 DA62     		str	r2, [r3, #44]
 2310 0052 30B1     		cbz	r0, .L401
 2311 0054 0B4B     		ldr	r3, .L419
 2312 0056 4363     		str	r3, [r0, #52]
 2313 0058 FFF7FEFF 		bl	HAL_DMA_Abort_IT
 2314 005c 08B1     		cbz	r0, .L401
 2315 005e 0023     		movs	r3, #0
 2316 0060 2364     		str	r3, [r4, #64]
 2317              	.L401:
 2318 0062 E06B     		ldr	r0, [r4, #60]
 2319 0064 30B1     		cbz	r0, .L404
 2320 0066 084B     		ldr	r3, .L419+4
 2321 0068 4363     		str	r3, [r0, #52]
 2322 006a FFF7FEFF 		bl	HAL_DMA_Abort_IT
 2323 006e 08B1     		cbz	r0, .L404
 2324 0070 0023     		movs	r3, #0
 2325 0072 E363     		str	r3, [r4, #60]
 2326              	.L404:
 2327 0074 206C     		ldr	r0, [r4, #64]
 2328 0076 0028     		cmp	r0, #0
 2329 0078 E3D0     		beq	.L406
 2330              	.L418:
 2331 007a 0020     		movs	r0, #0
 2332 007c E4E7     		b	.L399
 2333              	.L408:
 2334 007e 0120     		movs	r0, #1
 2335 0080 E2E7     		b	.L399
 2336              	.L420:
 2337 0082 00BF     		.align	2
 2338              	.L419:
 2339 0084 00000000 		.word	MMC_DMATxAbort
 2340 0088 00000000 		.word	MMC_DMARxAbort
 2342              		.ident	"GCC: (GNU Tools for Arm Embedded Processors 9-2019-q4-major) 9.2.1 20191025 (release) [ARM
ARM GAS  /tmp/ccBaiOiR.s 			page 41


ARM GAS  /tmp/ccBaiOiR.s 			page 42

