ARM GAS  /tmp/cc8AQ0ew.s 			page 1


   1              		.cpu cortex-m3
   2              		.eabi_attribute 20, 1
   3              		.eabi_attribute 21, 1
   4              		.eabi_attribute 23, 3
   5              		.eabi_attribute 24, 1
   6              		.eabi_attribute 25, 1
   7              		.eabi_attribute 26, 1
   8              		.eabi_attribute 30, 4
   9              		.eabi_attribute 34, 1
  10              		.eabi_attribute 18, 4
  11              		.file	"usbd_ioreq.c"
  12              		.section	.text.USBD_CtlSendData,"ax",%progbits
  13              		.align	1
  14              		.global	USBD_CtlSendData
  15              		.syntax unified
  16              		.thumb
  17              		.thumb_func
  18              		.fpu softvfp
  20              	USBD_CtlSendData:
  21              		@ args = 0, pretend = 0, frame = 0
  22              		@ frame_needed = 0, uses_anonymous_args = 0
  23 0000 1346     		mov	r3, r2
  24 0002 0222     		movs	r2, #2
  25 0004 10B5     		push	{r4, lr}
  26 0006 C0F89422 		str	r2, [r0, #660]
  27 000a C361     		str	r3, [r0, #28]
  28 000c 0A46     		mov	r2, r1
  29 000e 0362     		str	r3, [r0, #32]
  30 0010 0021     		movs	r1, #0
  31 0012 FFF7FEFF 		bl	USBD_LL_Transmit
  32 0016 0020     		movs	r0, #0
  33 0018 10BD     		pop	{r4, pc}
  35              		.section	.text.USBD_CtlContinueSendData,"ax",%progbits
  36              		.align	1
  37              		.global	USBD_CtlContinueSendData
  38              		.syntax unified
  39              		.thumb
  40              		.thumb_func
  41              		.fpu softvfp
  43              	USBD_CtlContinueSendData:
  44              		@ args = 0, pretend = 0, frame = 0
  45              		@ frame_needed = 0, uses_anonymous_args = 0
  46 0000 08B5     		push	{r3, lr}
  47 0002 1346     		mov	r3, r2
  48 0004 0A46     		mov	r2, r1
  49 0006 0021     		movs	r1, #0
  50 0008 FFF7FEFF 		bl	USBD_LL_Transmit
  51 000c 0020     		movs	r0, #0
  52 000e 08BD     		pop	{r3, pc}
  54              		.section	.text.USBD_CtlPrepareRx,"ax",%progbits
  55              		.align	1
  56              		.global	USBD_CtlPrepareRx
  57              		.syntax unified
  58              		.thumb
  59              		.thumb_func
  60              		.fpu softvfp
  62              	USBD_CtlPrepareRx:
ARM GAS  /tmp/cc8AQ0ew.s 			page 2


  63              		@ args = 0, pretend = 0, frame = 0
  64              		@ frame_needed = 0, uses_anonymous_args = 0
  65 0000 1346     		mov	r3, r2
  66 0002 0322     		movs	r2, #3
  67 0004 10B5     		push	{r4, lr}
  68 0006 C0F89422 		str	r2, [r0, #660]
  69 000a C0F85C31 		str	r3, [r0, #348]
  70 000e 0A46     		mov	r2, r1
  71 0010 C0F86031 		str	r3, [r0, #352]
  72 0014 0021     		movs	r1, #0
  73 0016 FFF7FEFF 		bl	USBD_LL_PrepareReceive
  74 001a 0020     		movs	r0, #0
  75 001c 10BD     		pop	{r4, pc}
  77              		.section	.text.USBD_CtlContinueRx,"ax",%progbits
  78              		.align	1
  79              		.global	USBD_CtlContinueRx
  80              		.syntax unified
  81              		.thumb
  82              		.thumb_func
  83              		.fpu softvfp
  85              	USBD_CtlContinueRx:
  86              		@ args = 0, pretend = 0, frame = 0
  87              		@ frame_needed = 0, uses_anonymous_args = 0
  88 0000 08B5     		push	{r3, lr}
  89 0002 1346     		mov	r3, r2
  90 0004 0A46     		mov	r2, r1
  91 0006 0021     		movs	r1, #0
  92 0008 FFF7FEFF 		bl	USBD_LL_PrepareReceive
  93 000c 0020     		movs	r0, #0
  94 000e 08BD     		pop	{r3, pc}
  96              		.section	.text.USBD_CtlSendStatus,"ax",%progbits
  97              		.align	1
  98              		.global	USBD_CtlSendStatus
  99              		.syntax unified
 100              		.thumb
 101              		.thumb_func
 102              		.fpu softvfp
 104              	USBD_CtlSendStatus:
 105              		@ args = 0, pretend = 0, frame = 0
 106              		@ frame_needed = 0, uses_anonymous_args = 0
 107 0000 08B5     		push	{r3, lr}
 108 0002 0423     		movs	r3, #4
 109 0004 C0F89432 		str	r3, [r0, #660]
 110 0008 0023     		movs	r3, #0
 111 000a 1A46     		mov	r2, r3
 112 000c 1946     		mov	r1, r3
 113 000e FFF7FEFF 		bl	USBD_LL_Transmit
 114 0012 0020     		movs	r0, #0
 115 0014 08BD     		pop	{r3, pc}
 117              		.section	.text.USBD_CtlReceiveStatus,"ax",%progbits
 118              		.align	1
 119              		.global	USBD_CtlReceiveStatus
 120              		.syntax unified
 121              		.thumb
 122              		.thumb_func
 123              		.fpu softvfp
 125              	USBD_CtlReceiveStatus:
ARM GAS  /tmp/cc8AQ0ew.s 			page 3


 126              		@ args = 0, pretend = 0, frame = 0
 127              		@ frame_needed = 0, uses_anonymous_args = 0
 128 0000 08B5     		push	{r3, lr}
 129 0002 0523     		movs	r3, #5
 130 0004 C0F89432 		str	r3, [r0, #660]
 131 0008 0023     		movs	r3, #0
 132 000a 1A46     		mov	r2, r3
 133 000c 1946     		mov	r1, r3
 134 000e FFF7FEFF 		bl	USBD_LL_PrepareReceive
 135 0012 0020     		movs	r0, #0
 136 0014 08BD     		pop	{r3, pc}
 138              		.section	.text.USBD_GetRxCount,"ax",%progbits
 139              		.align	1
 140              		.global	USBD_GetRxCount
 141              		.syntax unified
 142              		.thumb
 143              		.thumb_func
 144              		.fpu softvfp
 146              	USBD_GetRxCount:
 147              		@ args = 0, pretend = 0, frame = 0
 148              		@ frame_needed = 0, uses_anonymous_args = 0
 149              		@ link register save eliminated.
 150 0000 FFF7FEBF 		b	USBD_LL_GetRxDataSize
 152              		.ident	"GCC: (15:6.3.1+svn253039-1build1) 6.3.1 20170620"
ARM GAS  /tmp/cc8AQ0ew.s 			page 4

