ARM GAS  /tmp/ccYywkHi.s 			page 1


   1              		.cpu cortex-m3
   2              		.eabi_attribute 20, 1
   3              		.eabi_attribute 21, 1
   4              		.eabi_attribute 23, 3
   5              		.eabi_attribute 24, 1
   6              		.eabi_attribute 25, 1
   7              		.eabi_attribute 26, 1
   8              		.eabi_attribute 30, 4
   9              		.eabi_attribute 34, 1
  10              		.eabi_attribute 18, 4
  11              		.file	"infinikeys_hwif_berndokb.c"
  12              		.section	.text._ikhwif_berndokb_usb_deinit,"ax",%progbits
  13              		.align	1
  14              		.syntax unified
  15              		.thumb
  16              		.thumb_func
  17              		.fpu softvfp
  19              	_ikhwif_berndokb_usb_deinit:
  20              		@ args = 0, pretend = 0, frame = 0
  21              		@ frame_needed = 0, uses_anonymous_args = 0
  22              		@ link register save eliminated.
  23 0000 7047     		bx	lr
  25              		.section	.text._ikhwif_berndokb_cfgmem_deinit,"ax",%progbits
  26              		.align	1
  27              		.syntax unified
  28              		.thumb
  29              		.thumb_func
  30              		.fpu softvfp
  32              	_ikhwif_berndokb_cfgmem_deinit:
  33              		@ args = 0, pretend = 0, frame = 0
  34              		@ frame_needed = 0, uses_anonymous_args = 0
  35              		@ link register save eliminated.
  36 0000 0020     		movs	r0, #0
  37 0002 7047     		bx	lr
  39              		.section	.text._ikhwif_berndokb_cfgmem_wbyte,"ax",%progbits
  40              		.align	1
  41              		.syntax unified
  42              		.thumb
  43              		.thumb_func
  44              		.fpu softvfp
  46              	_ikhwif_berndokb_cfgmem_wbyte:
  47              		@ args = 0, pretend = 0, frame = 0
  48              		@ frame_needed = 0, uses_anonymous_args = 0
  49              		@ link register save eliminated.
  50 0000 0020     		movs	r0, #0
  51 0002 7047     		bx	lr
  53              		.section	.text._ikhwif_berndokb_cfgmem_wbuf,"ax",%progbits
  54              		.align	1
  55              		.syntax unified
  56              		.thumb
  57              		.thumb_func
  58              		.fpu softvfp
  60              	_ikhwif_berndokb_cfgmem_wbuf:
  61              		@ args = 0, pretend = 0, frame = 8
  62              		@ frame_needed = 0, uses_anonymous_args = 0
  63              		@ link register save eliminated.
  64 0000 0020     		movs	r0, #0
ARM GAS  /tmp/ccYywkHi.s 			page 2


  65 0002 82B0     		sub	sp, sp, #8
  66 0004 02AB     		add	r3, sp, #8
  67 0006 03E90600 		stmdb	r3, {r1, r2}
  68 000a 02B0     		add	sp, sp, #8
  69              		@ sp needed
  70 000c 7047     		bx	lr
  72              		.section	.text._ikhwif_berndokb_cfgmem_rbyte,"ax",%progbits
  73              		.align	1
  74              		.syntax unified
  75              		.thumb
  76              		.thumb_func
  77              		.fpu softvfp
  79              	_ikhwif_berndokb_cfgmem_rbyte:
  80              		@ args = 0, pretend = 0, frame = 0
  81              		@ frame_needed = 0, uses_anonymous_args = 0
  82              		@ link register save eliminated.
  83 0000 0020     		movs	r0, #0
  84 0002 7047     		bx	lr
  86              		.section	.text._ikhwif_berndokb_cfgmem_rbuf,"ax",%progbits
  87              		.align	1
  88              		.syntax unified
  89              		.thumb
  90              		.thumb_func
  91              		.fpu softvfp
  93              	_ikhwif_berndokb_cfgmem_rbuf:
  94              		@ args = 0, pretend = 0, frame = 0
  95              		@ frame_needed = 0, uses_anonymous_args = 0
  96              		@ link register save eliminated.
  97 0000 0022     		movs	r2, #0
  98 0002 0260     		str	r2, [r0]
  99 0004 4260     		str	r2, [r0, #4]
 100 0006 7047     		bx	lr
 102              		.section	.text._ikhwif_berndokb_usb_transmitusb,"ax",%progbits
 103              		.align	1
 104              		.syntax unified
 105              		.thumb
 106              		.thumb_func
 107              		.fpu softvfp
 109              	_ikhwif_berndokb_usb_transmitusb:
 110              		@ args = 0, pretend = 0, frame = 8
 111              		@ frame_needed = 0, uses_anonymous_args = 0
 112 0000 07B5     		push	{r0, r1, r2, lr}
 113 0002 012A     		cmp	r2, #1
 114 0004 02AB     		add	r3, sp, #8
 115 0006 03E90300 		stmdb	r3, {r0, r1}
 116 000a 06D1     		bne	.L8
 117 000c 054B     		ldr	r3, .L9
 118 000e BDF80420 		ldrh	r2, [sp, #4]
 119 0012 0099     		ldr	r1, [sp]
 120 0014 1868     		ldr	r0, [r3]
 121 0016 FFF7FEFF 		bl	IK_STM32CUBE_USBD_HID_SendReport
 122              	.L8:
 123 001a 0020     		movs	r0, #0
 124 001c 03B0     		add	sp, sp, #12
 125              		@ sp needed
 126 001e 5DF804FB 		ldr	pc, [sp], #4
 127              	.L10:
ARM GAS  /tmp/ccYywkHi.s 			page 3


 128 0022 00BF     		.align	2
 129              	.L9:
 130 0024 00000000 		.word	hw_usbd_handle
 132              		.section	.text._ikhwif_berndokb_debug_printmsg,"ax",%progbits
 133              		.align	1
 134              		.syntax unified
 135              		.thumb
 136              		.thumb_func
 137              		.fpu softvfp
 139              	_ikhwif_berndokb_debug_printmsg:
 140              		@ args = 0, pretend = 0, frame = 0
 141              		@ frame_needed = 0, uses_anonymous_args = 0
 142 0000 08B5     		push	{r3, lr}
 143 0002 074B     		ldr	r3, .L14
 144 0004 1B78     		ldrb	r3, [r3]	@ zero_extendqisi2
 145 0006 012B     		cmp	r3, #1
 146 0008 08D1     		bne	.L13
 147 000a 8AB2     		uxth	r2, r1
 148 000c 0146     		mov	r1, r0
 149 000e 0548     		ldr	r0, .L14+4
 150 0010 0A23     		movs	r3, #10
 151 0012 0068     		ldr	r0, [r0]
 152 0014 FFF7FEFF 		bl	HAL_UART_Transmit
 153 0018 0020     		movs	r0, #0
 154 001a 08BD     		pop	{r3, pc}
 155              	.L13:
 156 001c 0120     		movs	r0, #1
 157 001e 08BD     		pop	{r3, pc}
 158              	.L15:
 159              		.align	2
 160              	.L14:
 161 0020 00000000 		.word	hw_uart1_init_status
 162 0024 00000000 		.word	hw_uart1_handle
 164              		.section	.text._ikhwif_berndokb_kbm_pollmatrix,"ax",%progbits
 165              		.align	1
 166              		.syntax unified
 167              		.thumb
 168              		.thumb_func
 169              		.fpu softvfp
 171              	_ikhwif_berndokb_kbm_pollmatrix:
 172              		@ args = 0, pretend = 0, frame = 32
 173              		@ frame_needed = 0, uses_anonymous_args = 0
 174 0000 2DE9F043 		push	{r4, r5, r6, r7, r8, r9, lr}
 175 0004 5A4B     		ldr	r3, .L22
 176 0006 89B0     		sub	sp, sp, #36
 177 0008 1878     		ldrb	r0, [r3]	@ zero_extendqisi2
 178 000a 0128     		cmp	r0, #1
 179 000c 40F0AD80 		bne	.L19
 180 0010 584B     		ldr	r3, .L22+4
 181 0012 1B78     		ldrb	r3, [r3]	@ zero_extendqisi2
 182 0014 012B     		cmp	r3, #1
 183 0016 40F0A580 		bne	.L17
 184 001a 0026     		movs	r6, #0
 185 001c DFF85C91 		ldr	r9, .L22+12
 186 0020 554D     		ldr	r5, .L22+8
 187              	.L18:
 188 0022 0124     		movs	r4, #1
ARM GAS  /tmp/ccYywkHi.s 			page 4


 189 0024 04FA06F7 		lsl	r7, r4, r6
 190 0028 FAB2     		uxtb	r2, r7
 191 002a DFF85481 		ldr	r8, .L22+16
 192 002e 0021     		movs	r1, #0
 193 0030 D9F80000 		ldr	r0, [r9]
 194 0034 FFF7FEFF 		bl	PCA9555_WritePort
 195 0038 C7F30722 		ubfx	r2, r7, #8, #8
 196 003c 2146     		mov	r1, r4
 197 003e D9F80000 		ldr	r0, [r9]
 198 0042 FFF7FEFF 		bl	PCA9555_WritePort
 199 0046 C7F30742 		ubfx	r2, r7, #16, #8
 200 004a D8F80000 		ldr	r0, [r8]
 201 004e 0021     		movs	r1, #0
 202 0050 FFF7FEFF 		bl	PCA9555_WritePort
 203 0054 0022     		movs	r2, #0
 204 0056 2146     		mov	r1, r4
 205 0058 D8F80000 		ldr	r0, [r8]
 206 005c B4B2     		uxth	r4, r6
 207 005e FFF7FEFF 		bl	PCA9555_WritePort
 208 0062 631C     		adds	r3, r4, #1
 209 0064 4FF48051 		mov	r1, #4096
 210 0068 2846     		mov	r0, r5
 211 006a ADF80430 		strh	r3, [sp, #4]	@ movhi
 212 006e FFF7FEFF 		bl	HAL_GPIO_ReadPin
 213 0072 431E     		subs	r3, r0, #1
 214 0074 5842     		rsbs	r0, r3, #0
 215 0076 5841     		adcs	r0, r0, r3
 216 0078 8DF80600 		strb	r0, [sp, #6]
 217 007c 0198     		ldr	r0, [sp, #4]
 218 007e FFF7FEFF 		bl	IK_SWACQ_PollStatusReportCallback
 219 0082 04F11703 		add	r3, r4, #23
 220 0086 4FF40061 		mov	r1, #2048
 221 008a 2846     		mov	r0, r5
 222 008c ADF80830 		strh	r3, [sp, #8]	@ movhi
 223 0090 FFF7FEFF 		bl	HAL_GPIO_ReadPin
 224 0094 421E     		subs	r2, r0, #1
 225 0096 5042     		rsbs	r0, r2, #0
 226 0098 5041     		adcs	r0, r0, r2
 227 009a 8DF80A00 		strb	r0, [sp, #10]
 228 009e 0298     		ldr	r0, [sp, #8]
 229 00a0 FFF7FEFF 		bl	IK_SWACQ_PollStatusReportCallback
 230 00a4 04F12D03 		add	r3, r4, #45
 231 00a8 4FF48061 		mov	r1, #1024
 232 00ac 2846     		mov	r0, r5
 233 00ae ADF80C30 		strh	r3, [sp, #12]	@ movhi
 234 00b2 FFF7FEFF 		bl	HAL_GPIO_ReadPin
 235 00b6 411E     		subs	r1, r0, #1
 236 00b8 4842     		rsbs	r0, r1, #0
 237 00ba 4841     		adcs	r0, r0, r1
 238 00bc 8DF80E00 		strb	r0, [sp, #14]
 239 00c0 0398     		ldr	r0, [sp, #12]
 240 00c2 FFF7FEFF 		bl	IK_SWACQ_PollStatusReportCallback
 241 00c6 04F14303 		add	r3, r4, #67
 242 00ca 4FF40071 		mov	r1, #512
 243 00ce 2846     		mov	r0, r5
 244 00d0 ADF81030 		strh	r3, [sp, #16]	@ movhi
 245 00d4 FFF7FEFF 		bl	HAL_GPIO_ReadPin
ARM GAS  /tmp/ccYywkHi.s 			page 5


 246 00d8 471E     		subs	r7, r0, #1
 247 00da 7842     		rsbs	r0, r7, #0
 248 00dc 7841     		adcs	r0, r0, r7
 249 00de 8DF81200 		strb	r0, [sp, #18]
 250 00e2 0498     		ldr	r0, [sp, #16]
 251 00e4 FFF7FEFF 		bl	IK_SWACQ_PollStatusReportCallback
 252 00e8 04F15903 		add	r3, r4, #89
 253 00ec 4FF48071 		mov	r1, #256
 254 00f0 2846     		mov	r0, r5
 255 00f2 ADF81430 		strh	r3, [sp, #20]	@ movhi
 256 00f6 FFF7FEFF 		bl	HAL_GPIO_ReadPin
 257 00fa 00F1FF3E 		add	lr, r0, #-1
 258 00fe DEF10000 		rsbs	r0, lr, #0
 259 0102 40EB0E00 		adc	r0, r0, lr
 260 0106 8DF81600 		strb	r0, [sp, #22]
 261 010a 0598     		ldr	r0, [sp, #20]
 262 010c FFF7FEFF 		bl	IK_SWACQ_PollStatusReportCallback
 263 0110 04F16F03 		add	r3, r4, #111
 264 0114 1021     		movs	r1, #16
 265 0116 2846     		mov	r0, r5
 266 0118 ADF81830 		strh	r3, [sp, #24]	@ movhi
 267 011c FFF7FEFF 		bl	HAL_GPIO_ReadPin
 268 0120 00F1FF3C 		add	ip, r0, #-1
 269 0124 DCF10000 		rsbs	r0, ip, #0
 270 0128 40EB0C00 		adc	r0, r0, ip
 271 012c 8DF81A00 		strb	r0, [sp, #26]
 272 0130 0698     		ldr	r0, [sp, #24]
 273 0132 FFF7FEFF 		bl	IK_SWACQ_PollStatusReportCallback
 274 0136 8534     		adds	r4, r4, #133
 275 0138 2021     		movs	r1, #32
 276 013a 2846     		mov	r0, r5
 277 013c ADF81C40 		strh	r4, [sp, #28]	@ movhi
 278 0140 FFF7FEFF 		bl	HAL_GPIO_ReadPin
 279 0144 00F1FF38 		add	r8, r0, #-1
 280 0148 D8F10000 		rsbs	r0, r8, #0
 281 014c 40EB0800 		adc	r0, r0, r8
 282 0150 8DF81E00 		strb	r0, [sp, #30]
 283 0154 0798     		ldr	r0, [sp, #28]
 284 0156 0136     		adds	r6, r6, #1
 285 0158 FFF7FEFF 		bl	IK_SWACQ_PollStatusReportCallback
 286 015c 162E     		cmp	r6, #22
 287 015e 7FF460AF 		bne	.L18
 288 0162 0020     		movs	r0, #0
 289              	.L17:
 290 0164 09B0     		add	sp, sp, #36
 291              		@ sp needed
 292 0166 BDE8F083 		pop	{r4, r5, r6, r7, r8, r9, pc}
 293              	.L19:
 294 016a 0120     		movs	r0, #1
 295 016c FAE7     		b	.L17
 296              	.L23:
 297 016e 00BF     		.align	2
 298              	.L22:
 299 0170 00000000 		.word	hw_portex0_init_status
 300 0174 00000000 		.word	hw_portex1_init_status
 301 0178 00100140 		.word	1073811456
 302 017c 00000000 		.word	hw_portex0_handle
ARM GAS  /tmp/ccYywkHi.s 			page 6


 303 0180 00000000 		.word	hw_portex1_handle
 305              		.section	.text._ikhwif_berndokb_cfgmem_init,"ax",%progbits
 306              		.align	1
 307              		.syntax unified
 308              		.thumb
 309              		.thumb_func
 310              		.fpu softvfp
 312              	_ikhwif_berndokb_cfgmem_init:
 313              		@ args = 0, pretend = 0, frame = 0
 314              		@ frame_needed = 0, uses_anonymous_args = 0
 315              		@ link register save eliminated.
 316 0000 0020     		movs	r0, #0
 317 0002 7047     		bx	lr
 319              		.section	.text._ikhwif_berndokb_usb_init,"ax",%progbits
 320              		.align	1
 321              		.syntax unified
 322              		.thumb
 323              		.thumb_func
 324              		.fpu softvfp
 326              	_ikhwif_berndokb_usb_init:
 327              		@ args = 0, pretend = 0, frame = 0
 328              		@ frame_needed = 0, uses_anonymous_args = 0
 329              		@ link register save eliminated.
 330 0000 0020     		movs	r0, #0
 331 0002 7047     		bx	lr
 333              		.global	infinikeys_hwif_berndokb_kbmatrix
 334              		.global	infinikeys_hwif_berndokb_cfgmem
 335              		.global	infinikeys_hwif_berndokb_debug
 336              		.global	infinikeys_hwif_berndokb_usb
 337              		.section	.data.infinikeys_hwif_berndokb_cfgmem,"aw",%progbits
 338              		.align	2
 341              	infinikeys_hwif_berndokb_cfgmem:
 342 0000 00000000 		.word	_ikhwif_berndokb_cfgmem_init
 343 0004 00000000 		.word	_ikhwif_berndokb_cfgmem_deinit
 344 0008 00000000 		.word	_ikhwif_berndokb_cfgmem_wbyte
 345 000c 00000000 		.word	_ikhwif_berndokb_cfgmem_wbuf
 346 0010 00000000 		.word	_ikhwif_berndokb_cfgmem_rbyte
 347 0014 00000000 		.word	_ikhwif_berndokb_cfgmem_rbuf
 348 0018 00000000 		.word	0
 349              		.section	.data.infinikeys_hwif_berndokb_debug,"aw",%progbits
 350              		.align	2
 353              	infinikeys_hwif_berndokb_debug:
 354 0000 00000000 		.word	_ikhwif_berndokb_debug_printmsg
 355              		.section	.data.infinikeys_hwif_berndokb_kbmatrix,"aw",%progbits
 356              		.align	2
 359              	infinikeys_hwif_berndokb_kbmatrix:
 360 0000 00000000 		.word	_ikhwif_berndokb_kbm_pollmatrix
 361              		.section	.data.infinikeys_hwif_berndokb_usb,"aw",%progbits
 362              		.align	2
 365              	infinikeys_hwif_berndokb_usb:
 366 0000 00000000 		.word	_ikhwif_berndokb_usb_init
 367 0004 00000000 		.word	_ikhwif_berndokb_usb_deinit
 368 0008 00000000 		.word	_ikhwif_berndokb_usb_transmitusb
 369              		.ident	"GCC: (15:6.3.1+svn253039-1build1) 6.3.1 20170620"
ARM GAS  /tmp/ccYywkHi.s 			page 7

