ARM GAS  /tmp/cc6znCH1.s 			page 1


   1              		.cpu cortex-m3
   2              		.eabi_attribute 20, 1
   3              		.eabi_attribute 21, 1
   4              		.eabi_attribute 23, 3
   5              		.eabi_attribute 24, 1
   6              		.eabi_attribute 25, 1
   7              		.eabi_attribute 26, 1
   8              		.eabi_attribute 30, 4
   9              		.eabi_attribute 34, 1
  10              		.eabi_attribute 18, 4
  11              		.file	"console.c"
  12              		.section	.text.CONSOLE_Init,"ax",%progbits
  13              		.align	1
  14              		.global	CONSOLE_Init
  15              		.syntax unified
  16              		.thumb
  17              		.thumb_func
  18              		.fpu softvfp
  20              	CONSOLE_Init:
  21              		@ args = 0, pretend = 0, frame = 0
  22              		@ frame_needed = 0, uses_anonymous_args = 0
  23              		@ link register save eliminated.
  24 0000 08B1     		cbz	r0, .L1
  25 0002 014B     		ldr	r3, .L6
  26 0004 1860     		str	r0, [r3]
  27              	.L1:
  28 0006 7047     		bx	lr
  29              	.L7:
  30              		.align	2
  31              	.L6:
  32 0008 00000000 		.word	.LANCHOR0
  34              		.section	.text.CONSOLE_Print,"ax",%progbits
  35              		.align	1
  36              		.global	CONSOLE_Print
  37              		.syntax unified
  38              		.thumb
  39              		.thumb_func
  40              		.fpu softvfp
  42              	CONSOLE_Print:
  43              		@ args = 4, pretend = 16, frame = 8
  44              		@ frame_needed = 0, uses_anonymous_args = 1
  45 0000 0FB4     		push	{r0, r1, r2, r3}
  46 0002 37B5     		push	{r0, r1, r2, r4, r5, lr}
  47 0004 0F4D     		ldr	r5, .L17
  48 0006 2B68     		ldr	r3, [r5]
  49 0008 B3B1     		cbz	r3, .L8
  50 000a 0698     		ldr	r0, [sp, #24]
  51 000c FFF7FEFF 		bl	strlen
  52 0010 00F58070 		add	r0, r0, #256
  53 0014 FFF7FEFF 		bl	malloc
  54 0018 0446     		mov	r4, r0
  55 001a 68B1     		cbz	r0, .L8
  56 001c 07AA     		add	r2, sp, #28
  57 001e 0699     		ldr	r1, [sp, #24]
  58 0020 0192     		str	r2, [sp, #4]
  59 0022 FFF7FEFF 		bl	vsprintf
  60 0026 0A23     		movs	r3, #10
ARM GAS  /tmp/cc6znCH1.s 			page 2


  61 0028 82B2     		uxth	r2, r0
  62 002a 2146     		mov	r1, r4
  63 002c 2868     		ldr	r0, [r5]
  64 002e FFF7FEFF 		bl	HAL_UART_Transmit
  65 0032 2046     		mov	r0, r4
  66 0034 FFF7FEFF 		bl	free
  67              	.L8:
  68 0038 03B0     		add	sp, sp, #12
  69              		@ sp needed
  70 003a BDE83040 		pop	{r4, r5, lr}
  71 003e 04B0     		add	sp, sp, #16
  72 0040 7047     		bx	lr
  73              	.L18:
  74 0042 00BF     		.align	2
  75              	.L17:
  76 0044 00000000 		.word	.LANCHOR0
  78              		.section	.text.CONSOLE_vPrint,"ax",%progbits
  79              		.align	1
  80              		.global	CONSOLE_vPrint
  81              		.syntax unified
  82              		.thumb
  83              		.thumb_func
  84              		.fpu softvfp
  86              	CONSOLE_vPrint:
  87              		@ args = 0, pretend = 0, frame = 0
  88              		@ frame_needed = 0, uses_anonymous_args = 0
  89 0000 F8B5     		push	{r3, r4, r5, r6, r7, lr}
  90 0002 0E4D     		ldr	r5, .L26
  91 0004 0646     		mov	r6, r0
  92 0006 2B68     		ldr	r3, [r5]
  93 0008 0F46     		mov	r7, r1
  94 000a B3B1     		cbz	r3, .L19
  95 000c FFF7FEFF 		bl	strlen
  96 0010 00F58070 		add	r0, r0, #256
  97 0014 FFF7FEFF 		bl	malloc
  98 0018 0446     		mov	r4, r0
  99 001a 70B1     		cbz	r0, .L19
 100 001c 3A46     		mov	r2, r7
 101 001e 3146     		mov	r1, r6
 102 0020 FFF7FEFF 		bl	vsprintf
 103 0024 0A23     		movs	r3, #10
 104 0026 82B2     		uxth	r2, r0
 105 0028 2146     		mov	r1, r4
 106 002a 2868     		ldr	r0, [r5]
 107 002c FFF7FEFF 		bl	HAL_UART_Transmit
 108 0030 2046     		mov	r0, r4
 109 0032 BDE8F840 		pop	{r3, r4, r5, r6, r7, lr}
 110 0036 FFF7FEBF 		b	free
 111              	.L19:
 112 003a F8BD     		pop	{r3, r4, r5, r6, r7, pc}
 113              	.L27:
 114              		.align	2
 115              	.L26:
 116 003c 00000000 		.word	.LANCHOR0
 118              		.section	.text.CONSOLE_PrintLn,"ax",%progbits
 119              		.align	1
 120              		.global	CONSOLE_PrintLn
ARM GAS  /tmp/cc6znCH1.s 			page 3


 121              		.syntax unified
 122              		.thumb
 123              		.thumb_func
 124              		.fpu softvfp
 126              	CONSOLE_PrintLn:
 127              		@ args = 4, pretend = 16, frame = 8
 128              		@ frame_needed = 0, uses_anonymous_args = 1
 129 0000 0FB4     		push	{r0, r1, r2, r3}
 130 0002 07B5     		push	{r0, r1, r2, lr}
 131 0004 04A9     		add	r1, sp, #16
 132 0006 51F8040B 		ldr	r0, [r1], #4
 133 000a 0191     		str	r1, [sp, #4]
 134 000c FFF7FEFF 		bl	CONSOLE_vPrint
 135 0010 0348     		ldr	r0, .L29
 136 0012 FFF7FEFF 		bl	CONSOLE_Print
 137 0016 03B0     		add	sp, sp, #12
 138              		@ sp needed
 139 0018 5DF804EB 		ldr	lr, [sp], #4
 140 001c 04B0     		add	sp, sp, #16
 141 001e 7047     		bx	lr
 142              	.L30:
 143              		.align	2
 144              	.L29:
 145 0020 00000000 		.word	.LC0
 147              		.section	.text.CONSOLE_ClearScreen,"ax",%progbits
 148              		.align	1
 149              		.global	CONSOLE_ClearScreen
 150              		.syntax unified
 151              		.thumb
 152              		.thumb_func
 153              		.fpu softvfp
 155              	CONSOLE_ClearScreen:
 156              		@ args = 0, pretend = 0, frame = 0
 157              		@ frame_needed = 0, uses_anonymous_args = 0
 158              		@ link register save eliminated.
 159 0000 0148     		ldr	r0, .L32
 160 0002 FFF7FEBF 		b	CONSOLE_Print
 161              	.L33:
 162 0006 00BF     		.align	2
 163              	.L32:
 164 0008 00000000 		.word	.LC1
 166              		.section	.bss._console_usart,"aw",%nobits
 167              		.align	2
 168              		.set	.LANCHOR0,. + 0
 171              	_console_usart:
 172 0000 00000000 		.space	4
 173              		.section	.rodata.CONSOLE_ClearScreen.str1.1,"aMS",%progbits,1
 174              	.LC1:
 175 0000 1B5B324A 		.ascii	"\033[2J\033[H\000"
 175      1B5B4800 
 176              		.section	.rodata.CONSOLE_PrintLn.str1.1,"aMS",%progbits,1
 177              	.LC0:
 178 0000 0A00     		.ascii	"\012\000"
 179              		.ident	"GCC: (15:6.3.1+svn253039-1build1) 6.3.1 20170620"
ARM GAS  /tmp/cc6znCH1.s 			page 4

