ARM GAS  /tmp/ccXsXVvH.s 			page 1


   1              		.cpu cortex-m3
   2              		.eabi_attribute 20, 1
   3              		.eabi_attribute 21, 1
   4              		.eabi_attribute 23, 3
   5              		.eabi_attribute 24, 1
   6              		.eabi_attribute 25, 1
   7              		.eabi_attribute 26, 1
   8              		.eabi_attribute 30, 4
   9              		.eabi_attribute 34, 1
  10              		.eabi_attribute 18, 4
  11              		.file	"infinikeys_stm32cube_usb_hid.c"
  12              		.section	.text.IK_STM32CUBE_USBD_HID_GetConfigDescriptor,"ax",%progbits
  13              		.align	1
  14              		.syntax unified
  15              		.thumb
  16              		.thumb_func
  17              		.fpu softvfp
  19              	IK_STM32CUBE_USBD_HID_GetConfigDescriptor:
  20              		@ args = 0, pretend = 0, frame = 0
  21              		@ frame_needed = 0, uses_anonymous_args = 0
  22              		@ link register save eliminated.
  23 0000 2923     		movs	r3, #41
  24 0002 0380     		strh	r3, [r0]	@ movhi
  25 0004 0048     		ldr	r0, .L2
  26 0006 7047     		bx	lr
  27              	.L3:
  28              		.align	2
  29              	.L2:
  30 0008 00000000 		.word	IK_USB_DESCRIPTOR_CONFIG
  32              		.section	.text.IK_STM32CUBE_USBD_HID_GetDeviceQualifierDescriptor,"ax",%progbits
  33              		.align	1
  34              		.syntax unified
  35              		.thumb
  36              		.thumb_func
  37              		.fpu softvfp
  39              	IK_STM32CUBE_USBD_HID_GetDeviceQualifierDescriptor:
  40              		@ args = 0, pretend = 0, frame = 0
  41              		@ frame_needed = 0, uses_anonymous_args = 0
  42              		@ link register save eliminated.
  43 0000 0A23     		movs	r3, #10
  44 0002 0380     		strh	r3, [r0]	@ movhi
  45 0004 0048     		ldr	r0, .L5
  46 0006 7047     		bx	lr
  47              	.L6:
  48              		.align	2
  49              	.L5:
  50 0008 00000000 		.word	_IK_USB_DESCRIPTOR_DEV_QUALIF
  52              		.section	.text.IK_STM32CUBE_USBD_HID_DataIn,"ax",%progbits
  53              		.align	1
  54              		.syntax unified
  55              		.thumb
  56              		.thumb_func
  57              		.fpu softvfp
  59              	IK_STM32CUBE_USBD_HID_DataIn:
  60              		@ args = 0, pretend = 0, frame = 0
  61              		@ frame_needed = 0, uses_anonymous_args = 0
  62              		@ link register save eliminated.
ARM GAS  /tmp/ccXsXVvH.s 			page 2


  63 0000 D0F81832 		ldr	r3, [r0, #536]
  64 0004 0020     		movs	r0, #0
  65 0006 83F86000 		strb	r0, [r3, #96]
  66 000a 7047     		bx	lr
  68              		.section	.text.IK_STM32CUBE_USBD_HID_EP0RecieveReady,"ax",%progbits
  69              		.align	1
  70              		.syntax unified
  71              		.thumb
  72              		.thumb_func
  73              		.fpu softvfp
  75              	IK_STM32CUBE_USBD_HID_EP0RecieveReady:
  76              		@ args = 0, pretend = 0, frame = 0
  77              		@ frame_needed = 0, uses_anonymous_args = 0
  78 0000 10B5     		push	{r4, lr}
  79 0002 D0F81842 		ldr	r4, [r0, #536]
  80 0006 E36D     		ldr	r3, [r4, #92]
  81 0008 012B     		cmp	r3, #1
  82 000a 06D1     		bne	.L9
  83 000c D0F81C32 		ldr	r3, [r0, #540]
  84 0010 2046     		mov	r0, r4
  85 0012 DB68     		ldr	r3, [r3, #12]
  86 0014 9847     		blx	r3
  87 0016 0023     		movs	r3, #0
  88 0018 E365     		str	r3, [r4, #92]
  89              	.L9:
  90 001a 0020     		movs	r0, #0
  91 001c 10BD     		pop	{r4, pc}
  93              		.section	.text.IK_STM32CUBE_USBD_HID_DataOut,"ax",%progbits
  94              		.align	1
  95              		.syntax unified
  96              		.thumb
  97              		.thumb_func
  98              		.fpu softvfp
 100              	IK_STM32CUBE_USBD_HID_DataOut:
 101              		@ args = 0, pretend = 0, frame = 0
 102              		@ frame_needed = 0, uses_anonymous_args = 0
 103 0000 38B5     		push	{r3, r4, r5, lr}
 104 0002 0446     		mov	r4, r0
 105 0004 D0F81852 		ldr	r5, [r0, #536]
 106 0008 D0F81C32 		ldr	r3, [r0, #540]
 107 000c 2846     		mov	r0, r5
 108 000e DB68     		ldr	r3, [r3, #12]
 109 0010 9847     		blx	r3
 110 0012 5023     		movs	r3, #80
 111 0014 2A46     		mov	r2, r5
 112 0016 0121     		movs	r1, #1
 113 0018 2046     		mov	r0, r4
 114 001a FFF7FEFF 		bl	USBD_LL_PrepareReceive
 115 001e 0020     		movs	r0, #0
 116 0020 38BD     		pop	{r3, r4, r5, pc}
 118              		.section	.text.IK_STM32CUBE_USBD_HID_Setup,"ax",%progbits
 119              		.align	1
 120              		.syntax unified
 121              		.thumb
 122              		.thumb_func
 123              		.fpu softvfp
 125              	IK_STM32CUBE_USBD_HID_Setup:
ARM GAS  /tmp/ccXsXVvH.s 			page 3


 126              		@ args = 0, pretend = 0, frame = 0
 127              		@ frame_needed = 0, uses_anonymous_args = 0
 128 0000 38B5     		push	{r3, r4, r5, lr}
 129 0002 0C78     		ldrb	r4, [r1]	@ zero_extendqisi2
 130 0004 0546     		mov	r5, r0
 131 0006 14F06004 		ands	r4, r4, #96
 132 000a D0F81832 		ldr	r3, [r0, #536]
 133 000e 03D0     		beq	.L13
 134 0010 202C     		cmp	r4, #32
 135 0012 2DD0     		beq	.L14
 136              	.L30:
 137 0014 0024     		movs	r4, #0
 138 0016 26E0     		b	.L12
 139              	.L13:
 140 0018 4A78     		ldrb	r2, [r1, #1]	@ zero_extendqisi2
 141 001a 0A2A     		cmp	r2, #10
 142 001c 1ED0     		beq	.L15
 143 001e 0B2A     		cmp	r2, #11
 144 0020 23D0     		beq	.L16
 145 0022 062A     		cmp	r2, #6
 146 0024 1FD1     		bne	.L12
 147 0026 4B88     		ldrh	r3, [r1, #2]
 148 0028 1B0A     		lsrs	r3, r3, #8
 149 002a 222B     		cmp	r3, #34
 150 002c 0BD1     		bne	.L18
 151 002e C888     		ldrh	r0, [r1, #6]
 152 0030 D5F81C32 		ldr	r3, [r5, #540]
 153 0034 5B28     		cmp	r0, #91
 154 0036 28BF     		it	cs
 155 0038 5B20     		movcs	r0, #91
 156 003a 1968     		ldr	r1, [r3]
 157              	.L19:
 158 003c 0246     		mov	r2, r0
 159              	.L32:
 160 003e 2846     		mov	r0, r5
 161 0040 FFF7FEFF 		bl	USBD_CtlSendData
 162 0044 E6E7     		b	.L30
 163              	.L18:
 164 0046 212B     		cmp	r3, #33
 165 0048 05D1     		bne	.L29
 166 004a C888     		ldrh	r0, [r1, #6]
 167 004c 1C49     		ldr	r1, .L33
 168 004e 0928     		cmp	r0, #9
 169 0050 28BF     		it	cs
 170 0052 0920     		movcs	r0, #9
 171 0054 F2E7     		b	.L19
 172              	.L29:
 173 0056 2046     		mov	r0, r4
 174 0058 2146     		mov	r1, r4
 175 005a EFE7     		b	.L19
 176              	.L15:
 177 005c 0122     		movs	r2, #1
 178 005e 03F15801 		add	r1, r3, #88
 179 0062 FFF7FEFF 		bl	USBD_CtlSendData
 180              	.L12:
 181 0066 2046     		mov	r0, r4
 182 0068 38BD     		pop	{r3, r4, r5, pc}
ARM GAS  /tmp/ccXsXVvH.s 			page 4


 183              	.L16:
 184 006a 8A78     		ldrb	r2, [r1, #2]	@ zero_extendqisi2
 185 006c 9A65     		str	r2, [r3, #88]
 186 006e FAE7     		b	.L12
 187              	.L14:
 188 0070 4A78     		ldrb	r2, [r1, #1]	@ zero_extendqisi2
 189 0072 023A     		subs	r2, r2, #2
 190 0074 092A     		cmp	r2, #9
 191 0076 1DD8     		bhi	.L20
 192 0078 DFE802F0 		tbb	[pc, r2]
 193              	.L22:
 194 007c 10       		.byte	(.L21-.L22)/2
 195 007d 08       		.byte	(.L23-.L22)/2
 196 007e 1C       		.byte	(.L20-.L22)/2
 197 007f 1C       		.byte	(.L20-.L22)/2
 198 0080 1C       		.byte	(.L20-.L22)/2
 199 0081 1C       		.byte	(.L20-.L22)/2
 200 0082 1C       		.byte	(.L20-.L22)/2
 201 0083 14       		.byte	(.L24-.L22)/2
 202 0084 0C       		.byte	(.L25-.L22)/2
 203 0085 05       		.byte	(.L26-.L22)/2
 204              		.p2align 1
 205              	.L26:
 206 0086 8A78     		ldrb	r2, [r1, #2]	@ zero_extendqisi2
 207 0088 1A65     		str	r2, [r3, #80]
 208 008a C3E7     		b	.L30
 209              	.L23:
 210 008c 0122     		movs	r2, #1
 211 008e 03F15001 		add	r1, r3, #80
 212 0092 D4E7     		b	.L32
 213              	.L25:
 214 0094 4A88     		ldrh	r2, [r1, #2]
 215 0096 120A     		lsrs	r2, r2, #8
 216 0098 5A65     		str	r2, [r3, #84]
 217 009a BBE7     		b	.L30
 218              	.L21:
 219 009c 0122     		movs	r2, #1
 220 009e 03F15401 		add	r1, r3, #84
 221 00a2 CCE7     		b	.L32
 222              	.L24:
 223 00a4 0122     		movs	r2, #1
 224 00a6 2846     		mov	r0, r5
 225 00a8 DA65     		str	r2, [r3, #92]
 226 00aa 8A79     		ldrb	r2, [r1, #6]	@ zero_extendqisi2
 227 00ac 1946     		mov	r1, r3
 228 00ae FFF7FEFF 		bl	USBD_CtlPrepareRx
 229 00b2 AFE7     		b	.L30
 230              	.L20:
 231 00b4 2846     		mov	r0, r5
 232 00b6 FFF7FEFF 		bl	USBD_CtlError
 233 00ba 0224     		movs	r4, #2
 234 00bc D3E7     		b	.L12
 235              	.L34:
 236 00be 00BF     		.align	2
 237              	.L33:
 238 00c0 00000000 		.word	IK_USB_DESCRIPTOR_HID_REPORT
 240              		.section	.text.IK_STM32CUBE_USBD_HID_DeInit,"ax",%progbits
ARM GAS  /tmp/ccXsXVvH.s 			page 5


 241              		.align	1
 242              		.syntax unified
 243              		.thumb
 244              		.thumb_func
 245              		.fpu softvfp
 247              	IK_STM32CUBE_USBD_HID_DeInit:
 248              		@ args = 0, pretend = 0, frame = 0
 249              		@ frame_needed = 0, uses_anonymous_args = 0
 250 0000 10B5     		push	{r4, lr}
 251 0002 0446     		mov	r4, r0
 252 0004 8121     		movs	r1, #129
 253 0006 FFF7FEFF 		bl	USBD_LL_CloseEP
 254 000a 0121     		movs	r1, #1
 255 000c 2046     		mov	r0, r4
 256 000e FFF7FEFF 		bl	USBD_LL_CloseEP
 257 0012 D4F81832 		ldr	r3, [r4, #536]
 258 0016 53B1     		cbz	r3, .L36
 259 0018 D4F81C32 		ldr	r3, [r4, #540]
 260 001c 9B68     		ldr	r3, [r3, #8]
 261 001e 9847     		blx	r3
 262 0020 D4F81802 		ldr	r0, [r4, #536]
 263 0024 FFF7FEFF 		bl	USBD_static_free
 264 0028 0023     		movs	r3, #0
 265 002a C4F81832 		str	r3, [r4, #536]
 266              	.L36:
 267 002e 0020     		movs	r0, #0
 268 0030 10BD     		pop	{r4, pc}
 270              		.section	.text.IK_STM32CUBE_USBD_HID_Init,"ax",%progbits
 271              		.align	1
 272              		.syntax unified
 273              		.thumb
 274              		.thumb_func
 275              		.fpu softvfp
 277              	IK_STM32CUBE_USBD_HID_Init:
 278              		@ args = 0, pretend = 0, frame = 0
 279              		@ frame_needed = 0, uses_anonymous_args = 0
 280 0000 70B5     		push	{r4, r5, r6, lr}
 281 0002 0546     		mov	r5, r0
 282 0004 0A23     		movs	r3, #10
 283 0006 0322     		movs	r2, #3
 284 0008 8121     		movs	r1, #129
 285 000a FFF7FEFF 		bl	USBD_LL_OpenEP
 286 000e 0A23     		movs	r3, #10
 287 0010 0322     		movs	r2, #3
 288 0012 0121     		movs	r1, #1
 289 0014 2846     		mov	r0, r5
 290 0016 FFF7FEFF 		bl	USBD_LL_OpenEP
 291 001a 6420     		movs	r0, #100
 292 001c FFF7FEFF 		bl	USBD_static_malloc
 293 0020 0646     		mov	r6, r0
 294 0022 C5F81802 		str	r0, [r5, #536]
 295 0026 70B1     		cbz	r0, .L42
 296 0028 0024     		movs	r4, #0
 297 002a D5F81C32 		ldr	r3, [r5, #540]
 298 002e 80F86040 		strb	r4, [r0, #96]
 299 0032 5B68     		ldr	r3, [r3, #4]
 300 0034 9847     		blx	r3
ARM GAS  /tmp/ccXsXVvH.s 			page 6


 301 0036 5023     		movs	r3, #80
 302 0038 3246     		mov	r2, r6
 303 003a 0121     		movs	r1, #1
 304 003c 2846     		mov	r0, r5
 305 003e FFF7FEFF 		bl	USBD_LL_PrepareReceive
 306 0042 2046     		mov	r0, r4
 307 0044 70BD     		pop	{r4, r5, r6, pc}
 308              	.L42:
 309 0046 0220     		movs	r0, #2
 310 0048 70BD     		pop	{r4, r5, r6, pc}
 312              		.section	.text.IK_STM32CUBE_USBD_HID_SendReport,"ax",%progbits
 313              		.align	1
 314              		.global	IK_STM32CUBE_USBD_HID_SendReport
 315              		.syntax unified
 316              		.thumb
 317              		.thumb_func
 318              		.fpu softvfp
 320              	IK_STM32CUBE_USBD_HID_SendReport:
 321              		@ args = 0, pretend = 0, frame = 0
 322              		@ frame_needed = 0, uses_anonymous_args = 0
 323 0000 10B5     		push	{r4, lr}
 324 0002 1346     		mov	r3, r2
 325 0004 90F8FC21 		ldrb	r2, [r0, #508]	@ zero_extendqisi2
 326 0008 032A     		cmp	r2, #3
 327 000a 0BD1     		bne	.L44
 328 000c D0F81842 		ldr	r4, [r0, #536]
 329 0010 94F86020 		ldrb	r2, [r4, #96]	@ zero_extendqisi2
 330 0014 32B9     		cbnz	r2, .L44
 331 0016 0122     		movs	r2, #1
 332 0018 84F86020 		strb	r2, [r4, #96]
 333 001c 0A46     		mov	r2, r1
 334 001e 8121     		movs	r1, #129
 335 0020 FFF7FEFF 		bl	USBD_LL_Transmit
 336              	.L44:
 337 0024 0020     		movs	r0, #0
 338 0026 10BD     		pop	{r4, pc}
 340              		.section	.text.IK_STM32CUBE_USBD_HID_RegisterInterface,"ax",%progbits
 341              		.align	1
 342              		.global	IK_STM32CUBE_USBD_HID_RegisterInterface
 343              		.syntax unified
 344              		.thumb
 345              		.thumb_func
 346              		.fpu softvfp
 348              	IK_STM32CUBE_USBD_HID_RegisterInterface:
 349              		@ args = 0, pretend = 0, frame = 0
 350              		@ frame_needed = 0, uses_anonymous_args = 0
 351              		@ link register save eliminated.
 352 0000 19B1     		cbz	r1, .L47
 353 0002 C0F81C12 		str	r1, [r0, #540]
 354 0006 0020     		movs	r0, #0
 355 0008 7047     		bx	lr
 356              	.L47:
 357 000a 0220     		movs	r0, #2
 358 000c 7047     		bx	lr
 360              		.global	IK_HID_Class
 361              		.section	.data.IK_HID_Class,"aw",%progbits
 362              		.align	2
ARM GAS  /tmp/ccXsXVvH.s 			page 7


 365              	IK_HID_Class:
 366 0000 00000000 		.word	IK_STM32CUBE_USBD_HID_Init
 367 0004 00000000 		.word	IK_STM32CUBE_USBD_HID_DeInit
 368 0008 00000000 		.word	IK_STM32CUBE_USBD_HID_Setup
 369 000c 00000000 		.word	0
 370 0010 00000000 		.word	IK_STM32CUBE_USBD_HID_EP0RecieveReady
 371 0014 00000000 		.word	IK_STM32CUBE_USBD_HID_DataIn
 372 0018 00000000 		.word	IK_STM32CUBE_USBD_HID_DataOut
 373 001c 00000000 		.word	0
 374 0020 00000000 		.word	0
 375 0024 00000000 		.word	0
 376 0028 00000000 		.word	IK_STM32CUBE_USBD_HID_GetConfigDescriptor
 377 002c 00000000 		.word	IK_STM32CUBE_USBD_HID_GetConfigDescriptor
 378 0030 00000000 		.word	IK_STM32CUBE_USBD_HID_GetConfigDescriptor
 379 0034 00000000 		.word	IK_STM32CUBE_USBD_HID_GetDeviceQualifierDescriptor
 380              		.ident	"GCC: (15:6.3.1+svn253039-1build1) 6.3.1 20170620"
ARM GAS  /tmp/ccXsXVvH.s 			page 8


DEFINED SYMBOLS
                            *ABS*:0000000000000000 infinikeys_stm32cube_usb_hid.c
     /tmp/ccXsXVvH.s:13     .text.IK_STM32CUBE_USBD_HID_GetConfigDescriptor:0000000000000000 $t
     /tmp/ccXsXVvH.s:19     .text.IK_STM32CUBE_USBD_HID_GetConfigDescriptor:0000000000000000 IK_STM32CUBE_USBD_HID_GetConfigDescriptor
     /tmp/ccXsXVvH.s:30     .text.IK_STM32CUBE_USBD_HID_GetConfigDescriptor:0000000000000008 $d
     /tmp/ccXsXVvH.s:33     .text.IK_STM32CUBE_USBD_HID_GetDeviceQualifierDescriptor:0000000000000000 $t
     /tmp/ccXsXVvH.s:39     .text.IK_STM32CUBE_USBD_HID_GetDeviceQualifierDescriptor:0000000000000000 IK_STM32CUBE_USBD_HID_GetDeviceQualifierDescriptor
     /tmp/ccXsXVvH.s:50     .text.IK_STM32CUBE_USBD_HID_GetDeviceQualifierDescriptor:0000000000000008 $d
     /tmp/ccXsXVvH.s:53     .text.IK_STM32CUBE_USBD_HID_DataIn:0000000000000000 $t
     /tmp/ccXsXVvH.s:59     .text.IK_STM32CUBE_USBD_HID_DataIn:0000000000000000 IK_STM32CUBE_USBD_HID_DataIn
     /tmp/ccXsXVvH.s:69     .text.IK_STM32CUBE_USBD_HID_EP0RecieveReady:0000000000000000 $t
     /tmp/ccXsXVvH.s:75     .text.IK_STM32CUBE_USBD_HID_EP0RecieveReady:0000000000000000 IK_STM32CUBE_USBD_HID_EP0RecieveReady
     /tmp/ccXsXVvH.s:94     .text.IK_STM32CUBE_USBD_HID_DataOut:0000000000000000 $t
     /tmp/ccXsXVvH.s:100    .text.IK_STM32CUBE_USBD_HID_DataOut:0000000000000000 IK_STM32CUBE_USBD_HID_DataOut
     /tmp/ccXsXVvH.s:119    .text.IK_STM32CUBE_USBD_HID_Setup:0000000000000000 $t
     /tmp/ccXsXVvH.s:125    .text.IK_STM32CUBE_USBD_HID_Setup:0000000000000000 IK_STM32CUBE_USBD_HID_Setup
     /tmp/ccXsXVvH.s:194    .text.IK_STM32CUBE_USBD_HID_Setup:000000000000007c $d
     /tmp/ccXsXVvH.s:204    .text.IK_STM32CUBE_USBD_HID_Setup:0000000000000086 $t
     /tmp/ccXsXVvH.s:238    .text.IK_STM32CUBE_USBD_HID_Setup:00000000000000c0 $d
     /tmp/ccXsXVvH.s:241    .text.IK_STM32CUBE_USBD_HID_DeInit:0000000000000000 $t
     /tmp/ccXsXVvH.s:247    .text.IK_STM32CUBE_USBD_HID_DeInit:0000000000000000 IK_STM32CUBE_USBD_HID_DeInit
     /tmp/ccXsXVvH.s:271    .text.IK_STM32CUBE_USBD_HID_Init:0000000000000000 $t
     /tmp/ccXsXVvH.s:277    .text.IK_STM32CUBE_USBD_HID_Init:0000000000000000 IK_STM32CUBE_USBD_HID_Init
     /tmp/ccXsXVvH.s:313    .text.IK_STM32CUBE_USBD_HID_SendReport:0000000000000000 $t
     /tmp/ccXsXVvH.s:320    .text.IK_STM32CUBE_USBD_HID_SendReport:0000000000000000 IK_STM32CUBE_USBD_HID_SendReport
     /tmp/ccXsXVvH.s:341    .text.IK_STM32CUBE_USBD_HID_RegisterInterface:0000000000000000 $t
     /tmp/ccXsXVvH.s:348    .text.IK_STM32CUBE_USBD_HID_RegisterInterface:0000000000000000 IK_STM32CUBE_USBD_HID_RegisterInterface
     /tmp/ccXsXVvH.s:365    .data.IK_HID_Class:0000000000000000 IK_HID_Class
     /tmp/ccXsXVvH.s:362    .data.IK_HID_Class:0000000000000000 $d

UNDEFINED SYMBOLS
IK_USB_DESCRIPTOR_CONFIG
_IK_USB_DESCRIPTOR_DEV_QUALIF
USBD_LL_PrepareReceive
USBD_CtlSendData
USBD_CtlPrepareRx
USBD_CtlError
IK_USB_DESCRIPTOR_HID_REPORT
USBD_LL_CloseEP
USBD_static_free
USBD_LL_OpenEP
USBD_static_malloc
USBD_LL_Transmit
