ARM GAS  /tmp/ccIrAZ6x.s 			page 1


   1              		.cpu cortex-m3
   2              		.eabi_attribute 20, 1
   3              		.eabi_attribute 21, 1
   4              		.eabi_attribute 23, 3
   5              		.eabi_attribute 24, 1
   6              		.eabi_attribute 25, 1
   7              		.eabi_attribute 26, 1
   8              		.eabi_attribute 30, 4
   9              		.eabi_attribute 34, 1
  10              		.eabi_attribute 18, 4
  11              		.file	"isr.c"
  12              		.section	.text.NMI_Handler,"ax",%progbits
  13              		.align	1
  14              		.global	NMI_Handler
  15              		.syntax unified
  16              		.thumb
  17              		.thumb_func
  18              		.fpu softvfp
  20              	NMI_Handler:
  21              		@ args = 0, pretend = 0, frame = 0
  22              		@ frame_needed = 0, uses_anonymous_args = 0
  23              		@ link register save eliminated.
  24 0000 7047     		bx	lr
  26              		.section	.text.HardFault_Handler,"ax",%progbits
  27              		.align	1
  28              		.global	HardFault_Handler
  29              		.syntax unified
  30              		.thumb
  31              		.thumb_func
  32              		.fpu softvfp
  34              	HardFault_Handler:
  35              		@ Volatile: function does not return.
  36              		@ args = 0, pretend = 0, frame = 0
  37              		@ frame_needed = 0, uses_anonymous_args = 0
  38 0000 08B5     		push	{r3, lr}
  39 0002 0C4B     		ldr	r3, .L5
  40 0004 1C78     		ldrb	r4, [r3]	@ zero_extendqisi2
  41 0006 012C     		cmp	r4, #1
  42 0008 13D1     		bne	.L3
  43 000a 2246     		mov	r2, r4
  44 000c 1021     		movs	r1, #16
  45 000e 0A48     		ldr	r0, .L5+4
  46 0010 FFF7FEFF 		bl	HAL_GPIO_WritePin
  47 0014 0022     		movs	r2, #0
  48 0016 2146     		mov	r1, r4
  49 0018 0848     		ldr	r0, .L5+8
  50 001a FFF7FEFF 		bl	HAL_GPIO_WritePin
  51 001e 0022     		movs	r2, #0
  52 0020 0221     		movs	r1, #2
  53 0022 0648     		ldr	r0, .L5+8
  54 0024 FFF7FEFF 		bl	HAL_GPIO_WritePin
  55 0028 0022     		movs	r2, #0
  56 002a 0421     		movs	r1, #4
  57 002c 0348     		ldr	r0, .L5+8
  58 002e FFF7FEFF 		bl	HAL_GPIO_WritePin
  59              	.L3:
  60              	.L4:
ARM GAS  /tmp/ccIrAZ6x.s 			page 2


  61 0032 FEE7     		b	.L4
  62              	.L6:
  63              		.align	2
  64              	.L5:
  65 0034 00000000 		.word	hw_gpio_init_status
  66 0038 00080140 		.word	1073809408
  67 003c 000C0140 		.word	1073810432
  69              		.section	.text.MemManage_Handler,"ax",%progbits
  70              		.align	1
  71              		.global	MemManage_Handler
  72              		.syntax unified
  73              		.thumb
  74              		.thumb_func
  75              		.fpu softvfp
  77              	MemManage_Handler:
  78              		@ Volatile: function does not return.
  79              		@ args = 0, pretend = 0, frame = 0
  80              		@ frame_needed = 0, uses_anonymous_args = 0
  81 0000 08B5     		push	{r3, lr}
  82 0002 0C4B     		ldr	r3, .L10
  83 0004 1C78     		ldrb	r4, [r3]	@ zero_extendqisi2
  84 0006 012C     		cmp	r4, #1
  85 0008 13D1     		bne	.L8
  86 000a 2246     		mov	r2, r4
  87 000c 1021     		movs	r1, #16
  88 000e 0A48     		ldr	r0, .L10+4
  89 0010 FFF7FEFF 		bl	HAL_GPIO_WritePin
  90 0014 2246     		mov	r2, r4
  91 0016 2146     		mov	r1, r4
  92 0018 0848     		ldr	r0, .L10+8
  93 001a FFF7FEFF 		bl	HAL_GPIO_WritePin
  94 001e 0022     		movs	r2, #0
  95 0020 0221     		movs	r1, #2
  96 0022 0648     		ldr	r0, .L10+8
  97 0024 FFF7FEFF 		bl	HAL_GPIO_WritePin
  98 0028 0022     		movs	r2, #0
  99 002a 0421     		movs	r1, #4
 100 002c 0348     		ldr	r0, .L10+8
 101 002e FFF7FEFF 		bl	HAL_GPIO_WritePin
 102              	.L8:
 103              	.L9:
 104 0032 FEE7     		b	.L9
 105              	.L11:
 106              		.align	2
 107              	.L10:
 108 0034 00000000 		.word	hw_gpio_init_status
 109 0038 00080140 		.word	1073809408
 110 003c 000C0140 		.word	1073810432
 112              		.section	.text.BusFault_Handler,"ax",%progbits
 113              		.align	1
 114              		.global	BusFault_Handler
 115              		.syntax unified
 116              		.thumb
 117              		.thumb_func
 118              		.fpu softvfp
 120              	BusFault_Handler:
 121              		@ Volatile: function does not return.
ARM GAS  /tmp/ccIrAZ6x.s 			page 3


 122              		@ args = 0, pretend = 0, frame = 0
 123              		@ frame_needed = 0, uses_anonymous_args = 0
 124 0000 08B5     		push	{r3, lr}
 125 0002 0C4B     		ldr	r3, .L15
 126 0004 1C78     		ldrb	r4, [r3]	@ zero_extendqisi2
 127 0006 012C     		cmp	r4, #1
 128 0008 13D1     		bne	.L13
 129 000a 2246     		mov	r2, r4
 130 000c 1021     		movs	r1, #16
 131 000e 0A48     		ldr	r0, .L15+4
 132 0010 FFF7FEFF 		bl	HAL_GPIO_WritePin
 133 0014 0022     		movs	r2, #0
 134 0016 2146     		mov	r1, r4
 135 0018 0848     		ldr	r0, .L15+8
 136 001a FFF7FEFF 		bl	HAL_GPIO_WritePin
 137 001e 2246     		mov	r2, r4
 138 0020 0221     		movs	r1, #2
 139 0022 0648     		ldr	r0, .L15+8
 140 0024 FFF7FEFF 		bl	HAL_GPIO_WritePin
 141 0028 0022     		movs	r2, #0
 142 002a 0421     		movs	r1, #4
 143 002c 0348     		ldr	r0, .L15+8
 144 002e FFF7FEFF 		bl	HAL_GPIO_WritePin
 145              	.L13:
 146              	.L14:
 147 0032 FEE7     		b	.L14
 148              	.L16:
 149              		.align	2
 150              	.L15:
 151 0034 00000000 		.word	hw_gpio_init_status
 152 0038 00080140 		.word	1073809408
 153 003c 000C0140 		.word	1073810432
 155              		.section	.text.UsageFault_Handler,"ax",%progbits
 156              		.align	1
 157              		.global	UsageFault_Handler
 158              		.syntax unified
 159              		.thumb
 160              		.thumb_func
 161              		.fpu softvfp
 163              	UsageFault_Handler:
 164              		@ Volatile: function does not return.
 165              		@ args = 0, pretend = 0, frame = 0
 166              		@ frame_needed = 0, uses_anonymous_args = 0
 167 0000 08B5     		push	{r3, lr}
 168 0002 0C4B     		ldr	r3, .L20
 169 0004 1C78     		ldrb	r4, [r3]	@ zero_extendqisi2
 170 0006 012C     		cmp	r4, #1
 171 0008 13D1     		bne	.L18
 172 000a 2246     		mov	r2, r4
 173 000c 1021     		movs	r1, #16
 174 000e 0A48     		ldr	r0, .L20+4
 175 0010 FFF7FEFF 		bl	HAL_GPIO_WritePin
 176 0014 2246     		mov	r2, r4
 177 0016 2146     		mov	r1, r4
 178 0018 0848     		ldr	r0, .L20+8
 179 001a FFF7FEFF 		bl	HAL_GPIO_WritePin
 180 001e 2246     		mov	r2, r4
ARM GAS  /tmp/ccIrAZ6x.s 			page 4


 181 0020 0221     		movs	r1, #2
 182 0022 0648     		ldr	r0, .L20+8
 183 0024 FFF7FEFF 		bl	HAL_GPIO_WritePin
 184 0028 0022     		movs	r2, #0
 185 002a 0421     		movs	r1, #4
 186 002c 0348     		ldr	r0, .L20+8
 187 002e FFF7FEFF 		bl	HAL_GPIO_WritePin
 188              	.L18:
 189              	.L19:
 190 0032 FEE7     		b	.L19
 191              	.L21:
 192              		.align	2
 193              	.L20:
 194 0034 00000000 		.word	hw_gpio_init_status
 195 0038 00080140 		.word	1073809408
 196 003c 000C0140 		.word	1073810432
 198              		.section	.text.SVC_Handler,"ax",%progbits
 199              		.align	1
 200              		.global	SVC_Handler
 201              		.syntax unified
 202              		.thumb
 203              		.thumb_func
 204              		.fpu softvfp
 206              	SVC_Handler:
 207              		@ args = 0, pretend = 0, frame = 0
 208              		@ frame_needed = 0, uses_anonymous_args = 0
 209              		@ link register save eliminated.
 210 0000 7047     		bx	lr
 212              		.section	.text.DebugMon_Handler,"ax",%progbits
 213              		.align	1
 214              		.global	DebugMon_Handler
 215              		.syntax unified
 216              		.thumb
 217              		.thumb_func
 218              		.fpu softvfp
 220              	DebugMon_Handler:
 221              		@ args = 0, pretend = 0, frame = 0
 222              		@ frame_needed = 0, uses_anonymous_args = 0
 223              		@ link register save eliminated.
 224 0000 7047     		bx	lr
 226              		.section	.text.PendSV_Handler,"ax",%progbits
 227              		.align	1
 228              		.global	PendSV_Handler
 229              		.syntax unified
 230              		.thumb
 231              		.thumb_func
 232              		.fpu softvfp
 234              	PendSV_Handler:
 235              		@ args = 0, pretend = 0, frame = 0
 236              		@ frame_needed = 0, uses_anonymous_args = 0
 237              		@ link register save eliminated.
 238 0000 7047     		bx	lr
 240              		.section	.text.SysTick_Handler,"ax",%progbits
 241              		.align	1
 242              		.global	SysTick_Handler
 243              		.syntax unified
 244              		.thumb
ARM GAS  /tmp/ccIrAZ6x.s 			page 5


 245              		.thumb_func
 246              		.fpu softvfp
 248              	SysTick_Handler:
 249              		@ args = 0, pretend = 0, frame = 0
 250              		@ frame_needed = 0, uses_anonymous_args = 0
 251              		@ link register save eliminated.
 252 0000 FFF7FEBF 		b	HAL_IncTick
 254              		.section	.text.DMA1_Channel1_IRQHandler,"ax",%progbits
 255              		.align	1
 256              		.global	DMA1_Channel1_IRQHandler
 257              		.syntax unified
 258              		.thumb
 259              		.thumb_func
 260              		.fpu softvfp
 262              	DMA1_Channel1_IRQHandler:
 263              		@ args = 0, pretend = 0, frame = 0
 264              		@ frame_needed = 0, uses_anonymous_args = 0
 265 0000 08B5     		push	{r3, lr}
 266 0002 054B     		ldr	r3, .L27
 267 0004 1868     		ldr	r0, [r3]
 268 0006 FFF7FEFF 		bl	HAL_DMA_IRQHandler
 269 000a 044B     		ldr	r3, .L27+4
 270 000c 1868     		ldr	r0, [r3]
 271 000e BDE80840 		pop	{r3, lr}
 272 0012 FFF7FEBF 		b	NP32_DMAComplete_Callback
 273              	.L28:
 274 0016 00BF     		.align	2
 275              	.L27:
 276 0018 00000000 		.word	hw_timer2_ch3_dma_handle
 277 001c 00000000 		.word	hw_ws2812_handle
 279              		.section	.text.USB_LP_CAN1_RX0_IRQHandler,"ax",%progbits
 280              		.align	1
 281              		.global	USB_LP_CAN1_RX0_IRQHandler
 282              		.syntax unified
 283              		.thumb
 284              		.thumb_func
 285              		.fpu softvfp
 287              	USB_LP_CAN1_RX0_IRQHandler:
 288              		@ args = 0, pretend = 0, frame = 0
 289              		@ frame_needed = 0, uses_anonymous_args = 0
 290              		@ link register save eliminated.
 291 0000 0148     		ldr	r0, .L30
 292 0002 FFF7FEBF 		b	HAL_PCD_IRQHandler
 293              	.L31:
 294 0006 00BF     		.align	2
 295              	.L30:
 296 0008 00000000 		.word	hpcd_USB_FS
 298              		.ident	"GCC: (15:6.3.1+svn253039-1build1) 6.3.1 20170620"
ARM GAS  /tmp/ccIrAZ6x.s 			page 6

