ARM GAS  /tmp/ccFoH9rx.s 			page 1


   1              		.cpu cortex-m3
   2              		.eabi_attribute 20, 1
   3              		.eabi_attribute 21, 1
   4              		.eabi_attribute 23, 3
   5              		.eabi_attribute 24, 1
   6              		.eabi_attribute 25, 1
   7              		.eabi_attribute 26, 1
   8              		.eabi_attribute 30, 4
   9              		.eabi_attribute 34, 1
  10              		.eabi_attribute 18, 4
  11              		.file	"main.c"
  12              		.section	.text.startup.main,"ax",%progbits
  13              		.align	1
  14              		.global	main
  15              		.syntax unified
  16              		.thumb
  17              		.thumb_func
  18              		.fpu softvfp
  20              	main:
  21              		@ Volatile: function does not return.
  22              		@ args = 0, pretend = 0, frame = 0
  23              		@ frame_needed = 0, uses_anonymous_args = 0
  24 0000 07B5     		push	{r0, r1, r2, lr}
  25 0002 FFF7FEFF 		bl	HAL_Init
  26 0006 FFF7FEFF 		bl	SYS_Clock_Init
  27 000a FFF7FEFF 		bl	SYS_GPIO_Init
  28 000e FFF7FEFF 		bl	SYS_DMA_Init
  29 0012 FFF7FEFF 		bl	SYS_Init
  30 0016 FFF7FEFF 		bl	SYS_I2C_Init
  31 001a FFF7FEFF 		bl	SYS_USART_Init
  32 001e 414B     		ldr	r3, .L9
  33 0020 1B78     		ldrb	r3, [r3]	@ zero_extendqisi2
  34 0022 012B     		cmp	r3, #1
  35 0024 05D0     		beq	.L2
  36 0026 404B     		ldr	r3, .L9+4
  37 0028 404A     		ldr	r2, .L9+8
  38 002a 2921     		movs	r1, #41
  39 002c 0220     		movs	r0, #2
  40 002e FFF7FEFF 		bl	SYS_ThrowError
  41              	.L2:
  42 0032 3F4B     		ldr	r3, .L9+12
  43 0034 1868     		ldr	r0, [r3]
  44 0036 FFF7FEFF 		bl	CONSOLE_Init
  45 003a FFF7FEFF 		bl	SYS_Timer_Init
  46 003e FFF7FEFF 		bl	SYS_PostPortInit
  47 0042 FFF7FEFF 		bl	CONSOLE_ClearScreen
  48 0046 3B48     		ldr	r0, .L9+16
  49 0048 FFF7FEFF 		bl	CONSOLE_PrintLn
  50 004c 3A48     		ldr	r0, .L9+20
  51 004e FFF7FEFF 		bl	CONSOLE_PrintLn
  52 0052 3A48     		ldr	r0, .L9+24
  53 0054 FFF7FEFF 		bl	CONSOLE_PrintLn
  54 0058 3948     		ldr	r0, .L9+28
  55 005a FFF7FEFF 		bl	CONSOLE_PrintLn
  56 005e 3948     		ldr	r0, .L9+32
  57 0060 FFF7FEFF 		bl	CONSOLE_PrintLn
  58 0064 3848     		ldr	r0, .L9+36
ARM GAS  /tmp/ccFoH9rx.s 			page 2


  59 0066 FFF7FEFF 		bl	CONSOLE_PrintLn
  60 006a 0123     		movs	r3, #1
  61 006c 0021     		movs	r1, #0
  62 006e 1A46     		mov	r2, r3
  63 0070 3648     		ldr	r0, .L9+40
  64 0072 FFF7FEFF 		bl	CONSOLE_PrintLn
  65 0076 3648     		ldr	r0, .L9+44
  66 0078 FFF7FEFF 		bl	CONSOLE_Print
  67 007c 3548     		ldr	r0, .L9+48
  68 007e FFF7FEFF 		bl	CONSOLE_PrintLn
  69 0082 FFF7FEFF 		bl	SYS_USB_Init
  70 0086 3448     		ldr	r0, .L9+52
  71 0088 FFF7FEFF 		bl	CONSOLE_PrintLn
  72 008c FFF7FEFF 		bl	SYS_PCA9555_Init
  73 0090 FFF7FEFF 		bl	SYS_WS2812_Init
  74 0094 FFF7FEFF 		bl	LIB_Infinikeys_Init
  75 0098 FFF7FEFF 		bl	SYS_PostLibInit
  76 009c 2F48     		ldr	r0, .L9+56
  77 009e FFF7FEFF 		bl	CONSOLE_PrintLn
  78 00a2 FFF7FEFF 		bl	SYS_HWB_Read
  79 00a6 2E4B     		ldr	r3, .L9+60
  80 00a8 2E48     		ldr	r0, .L9+64
  81 00aa 1978     		ldrb	r1, [r3]	@ zero_extendqisi2
  82 00ac C1F30013 		ubfx	r3, r1, #4, #1
  83 00b0 0193     		str	r3, [sp, #4]
  84 00b2 C1F3C003 		ubfx	r3, r1, #3, #1
  85 00b6 0093     		str	r3, [sp]
  86 00b8 C1F34002 		ubfx	r2, r1, #1, #1
  87 00bc C1F38003 		ubfx	r3, r1, #2, #1
  88 00c0 01F00101 		and	r1, r1, #1
  89 00c4 FFF7FEFF 		bl	CONSOLE_PrintLn
  90 00c8 274B     		ldr	r3, .L9+68
  91 00ca 1B78     		ldrb	r3, [r3]	@ zero_extendqisi2
  92 00cc 012B     		cmp	r3, #1
  93 00ce 06D1     		bne	.L3
  94 00d0 264C     		ldr	r4, .L9+72
  95 00d2 2068     		ldr	r0, [r4]
  96 00d4 FFF7FEFF 		bl	NP32_ClearAllLEDs
  97 00d8 2068     		ldr	r0, [r4]
  98 00da FFF7FEFF 		bl	NP32_Update
  99              	.L3:
 100 00de 244B     		ldr	r3, .L9+76
 101 00e0 1B78     		ldrb	r3, [r3]	@ zero_extendqisi2
 102 00e2 012B     		cmp	r3, #1
 103 00e4 19D1     		bne	.L5
 104 00e6 234B     		ldr	r3, .L9+80
 105 00e8 1C78     		ldrb	r4, [r3]	@ zero_extendqisi2
 106 00ea 012C     		cmp	r4, #1
 107 00ec 15D1     		bne	.L5
 108 00ee 0022     		movs	r2, #0
 109 00f0 214D     		ldr	r5, .L9+84
 110 00f2 1146     		mov	r1, r2
 111 00f4 2868     		ldr	r0, [r5]
 112 00f6 FFF7FEFF 		bl	PCA9555_ConfigPortPinMode
 113 00fa 2868     		ldr	r0, [r5]
 114 00fc 0022     		movs	r2, #0
 115 00fe 2146     		mov	r1, r4
ARM GAS  /tmp/ccFoH9rx.s 			page 3


 116 0100 FFF7FEFF 		bl	PCA9555_ConfigPortPinMode
 117 0104 0022     		movs	r2, #0
 118 0106 1D4D     		ldr	r5, .L9+88
 119 0108 1146     		mov	r1, r2
 120 010a 2868     		ldr	r0, [r5]
 121 010c FFF7FEFF 		bl	PCA9555_ConfigPortPinMode
 122 0110 0022     		movs	r2, #0
 123 0112 2146     		mov	r1, r4
 124 0114 2868     		ldr	r0, [r5]
 125 0116 FFF7FEFF 		bl	PCA9555_ConfigPortPinMode
 126              	.L5:
 127 011a FFF7FEFF 		bl	IK_Tick
 128 011e FFF7FEFF 		bl	IK_KBM_SendHIDReport
 129 0122 FAE7     		b	.L5
 130              	.L10:
 131              		.align	2
 132              	.L9:
 133 0124 00000000 		.word	hw_uart1_init_status
 134 0128 00000000 		.word	.LC0
 135 012c 20000000 		.word	.LC1
 136 0130 00000000 		.word	hw_uart1_handle
 137 0134 2B000000 		.word	.LC2
 138 0138 7B000000 		.word	.LC3
 139 013c CB000000 		.word	.LC4
 140 0140 1B010000 		.word	.LC5
 141 0144 6B010000 		.word	.LC6
 142 0148 BB010000 		.word	.LC7
 143 014c 0B020000 		.word	.LC8
 144 0150 2E020000 		.word	.LC9
 145 0154 30020000 		.word	.LC10
 146 0158 4A020000 		.word	.LC11
 147 015c 6A020000 		.word	.LC12
 148 0160 00000000 		.word	sys_hwbyte
 149 0164 99020000 		.word	.LC13
 150 0168 00000000 		.word	hw_ws2812_init_status
 151 016c 00000000 		.word	hw_ws2812_handle
 152 0170 00000000 		.word	hw_portex0_init_status
 153 0174 00000000 		.word	hw_portex1_init_status
 154 0178 00000000 		.word	hw_portex0_handle
 155 017c 00000000 		.word	hw_portex1_handle
 157              		.section	.text.HAL_MspInit,"ax",%progbits
 158              		.align	1
 159              		.global	HAL_MspInit
 160              		.syntax unified
 161              		.thumb
 162              		.thumb_func
 163              		.fpu softvfp
 165              	HAL_MspInit:
 166              		@ args = 0, pretend = 0, frame = 8
 167              		@ frame_needed = 0, uses_anonymous_args = 0
 168              		@ link register save eliminated.
 169 0000 0A4B     		ldr	r3, .L12
 170 0002 82B0     		sub	sp, sp, #8
 171 0004 9A69     		ldr	r2, [r3, #24]
 172 0006 42F00102 		orr	r2, r2, #1
 173 000a 9A61     		str	r2, [r3, #24]
 174 000c 9A69     		ldr	r2, [r3, #24]
ARM GAS  /tmp/ccFoH9rx.s 			page 4


 175 000e 02F00102 		and	r2, r2, #1
 176 0012 0092     		str	r2, [sp]
 177 0014 009A     		ldr	r2, [sp]
 178 0016 DA69     		ldr	r2, [r3, #28]
 179 0018 42F08052 		orr	r2, r2, #268435456
 180 001c DA61     		str	r2, [r3, #28]
 181 001e DB69     		ldr	r3, [r3, #28]
 182 0020 03F08053 		and	r3, r3, #268435456
 183 0024 0193     		str	r3, [sp, #4]
 184 0026 019B     		ldr	r3, [sp, #4]
 185 0028 02B0     		add	sp, sp, #8
 186              		@ sp needed
 187 002a 7047     		bx	lr
 188              	.L13:
 189              		.align	2
 190              	.L12:
 191 002c 00100240 		.word	1073876992
 193              		.section	.rodata.main.str1.1,"aMS",%progbits,1
 194              	.LC0:
 195 0000 4661696C 		.ascii	"Failed to initialise HW-UART-1.\000"
 195      65642074 
 195      6F20696E 
 195      69746961 
 195      6C697365 
 196              	.LC1:
 197 0020 7372632F 		.ascii	"src/main.c\000"
 197      6D61696E 
 197      2E6300
 198              	.LC2:
 199 002b 2020205F 		.ascii	"   ___                     _                       "
 199      5F5F2020 
 199      20202020 
 199      20202020 
 199      20202020 
 200 005e 5F202020 		.ascii	"_                         _ \000"
 200      20202020 
 200      20202020 
 200      20202020 
 200      20202020 
 201              	.LC3:
 202 007b 20202F20 		.ascii	"  / __\\ ___ _ __ _ __   __| | ___   /\\ /\\___ _  "
 202      5F5F5C20 
 202      5F5F5F20 
 202      5F205F5F 
 202      205F205F 
 203 00ab 205F7C20 		.ascii	" _| |__   ___   __ _ _ __ __| |\000"
 203      7C5F5F20 
 203      20205F5F 
 203      5F202020 
 203      5F5F205F 
 204              	.LC4:
 205 00cb 202F5F5F 		.ascii	" /__\\/// _ \\ '__| '_ \\ / _` |/ _ \\ / //_/ _ \\ "
 205      5C2F2F2F 
 205      205F205C 
 205      20275F5F 
 205      7C20275F 
 206 00f9 7C207C20 		.ascii	"| | | '_ \\ / _ \\ / _` | '__/ _` |\000"
ARM GAS  /tmp/ccFoH9rx.s 			page 5


 206      7C20275F 
 206      205C202F 
 206      205F205C 
 206      202F205F 
 207              	.LC5:
 208 011b 2F205C2F 		.ascii	"/ \\/  \\  __/ |  | | | | (_| | (_) / __ \\  __/ |_"
 208      20205C20 
 208      205F5F2F 
 208      207C2020 
 208      7C207C20 
 209 014b 7C207C20 		.ascii	"| | |_) | (_) | (_| | | | (_| |\000"
 209      7C5F2920 
 209      7C20285F 
 209      29207C20 
 209      285F7C20 
 210              	.LC6:
 211 016b 5C5F5F5F 		.ascii	"\\_____/\\___|_|  |_| |_|\\__,_|\\___/\\/  \\/\\___"
 211      5F5F2F5C 
 211      5F5F5F7C 
 211      5F7C2020 
 211      7C5F7C20 
 212 0197 7C5C5F5F 		.ascii	"|\\__, |_.__/ \\___/ \\__,_|_|  \\__,_|\000"
 212      2C207C5F 
 212      2E5F5F2F 
 212      205C5F5F 
 212      5F2F205C 
 213              	.LC7:
 214 01bb 20202020 		.ascii	"                                             |___/ "
 214      20202020 
 214      20202020 
 214      20202020 
 214      20202020 
 215 01ee 20202020 		.ascii	"                            \000"
 215      20202020 
 215      20202020 
 215      20202020 
 215      20202020 
 216              	.LC8:
 217 020b 4265726E 		.ascii	"BerndoKeyboard Firmware v%i.%i.%i.\000"
 217      646F4B65 
 217      79626F61 
 217      72642046 
 217      69726D77 
 218              	.LC9:
 219 022e 0A00     		.ascii	"\012\000"
 220              	.LC10:
 221 0230 5B424B46 		.ascii	"[BKF] Initialising USB...\000"
 221      5D20496E 
 221      69746961 
 221      6C697369 
 221      6E672055 
 222              	.LC11:
 223 024a 5B424B46 		.ascii	"[BKF] Initialising libraries...\000"
 223      5D20496E 
 223      69746961 
 223      6C697369 
 223      6E67206C 
ARM GAS  /tmp/ccFoH9rx.s 			page 6


 224              	.LC12:
 225 026a 5B424B46 		.ascii	"[BKF] System init complete. Starting firmware.\000"
 225      5D205379 
 225      7374656D 
 225      20696E69 
 225      7420636F 
 226              	.LC13:
 227 0299 5B424B46 		.ascii	"[BKF] Read HW-Bits: [%d][%d][%d][%d][%d]\000"
 227      5D205265 
 227      61642048 
 227      572D4269 
 227      74733A20 
 228              		.ident	"GCC: (15:6.3.1+svn253039-1build1) 6.3.1 20170620"
ARM GAS  /tmp/ccFoH9rx.s 			page 7


DEFINED SYMBOLS
                            *ABS*:0000000000000000 main.c
     /tmp/ccFoH9rx.s:13     .text.startup.main:0000000000000000 $t
     /tmp/ccFoH9rx.s:20     .text.startup.main:0000000000000000 main
     /tmp/ccFoH9rx.s:133    .text.startup.main:0000000000000124 $d
     /tmp/ccFoH9rx.s:158    .text.HAL_MspInit:0000000000000000 $t
     /tmp/ccFoH9rx.s:165    .text.HAL_MspInit:0000000000000000 HAL_MspInit
     /tmp/ccFoH9rx.s:191    .text.HAL_MspInit:000000000000002c $d

UNDEFINED SYMBOLS
HAL_Init
SYS_Clock_Init
SYS_GPIO_Init
SYS_DMA_Init
SYS_Init
SYS_I2C_Init
SYS_USART_Init
SYS_ThrowError
CONSOLE_Init
SYS_Timer_Init
SYS_PostPortInit
CONSOLE_ClearScreen
CONSOLE_PrintLn
CONSOLE_Print
SYS_USB_Init
SYS_PCA9555_Init
SYS_WS2812_Init
LIB_Infinikeys_Init
SYS_PostLibInit
SYS_HWB_Read
NP32_ClearAllLEDs
NP32_Update
PCA9555_ConfigPortPinMode
IK_Tick
IK_KBM_SendHIDReport
hw_uart1_init_status
hw_uart1_handle
sys_hwbyte
hw_ws2812_init_status
hw_ws2812_handle
hw_portex0_init_status
hw_portex1_init_status
hw_portex0_handle
hw_portex1_handle
