ARM GAS  /tmp/ccfijWbq.s 			page 1


   1              		.cpu cortex-m3
   2              		.eabi_attribute 20, 1
   3              		.eabi_attribute 21, 1
   4              		.eabi_attribute 23, 3
   5              		.eabi_attribute 24, 1
   6              		.eabi_attribute 25, 1
   7              		.eabi_attribute 26, 1
   8              		.eabi_attribute 30, 4
   9              		.eabi_attribute 34, 1
  10              		.eabi_attribute 18, 4
  11              		.file	"mcu_init.c"
  12              		.text
  13              		.section	.text.SystemInit,"ax",%progbits
  14              		.align	1
  15              		.global	SystemInit
  16              		.arch armv7-m
  17              		.syntax unified
  18              		.thumb
  19              		.thumb_func
  20              		.fpu softvfp
  22              	SystemInit:
  23              		@ args = 0, pretend = 0, frame = 0
  24              		@ frame_needed = 0, uses_anonymous_args = 0
  25              		@ link register save eliminated.
  26 0000 0F4B     		ldr	r3, .L2
  27 0002 1A68     		ldr	r2, [r3]
  28 0004 42F00102 		orr	r2, r2, #1
  29 0008 1A60     		str	r2, [r3]
  30 000a 5968     		ldr	r1, [r3, #4]
  31 000c 0D4A     		ldr	r2, .L2+4
  32 000e 0A40     		ands	r2, r2, r1
  33 0010 5A60     		str	r2, [r3, #4]
  34 0012 1A68     		ldr	r2, [r3]
  35 0014 22F08472 		bic	r2, r2, #17301504
  36 0018 22F48032 		bic	r2, r2, #65536
  37 001c 1A60     		str	r2, [r3]
  38 001e 1A68     		ldr	r2, [r3]
  39 0020 22F48022 		bic	r2, r2, #262144
  40 0024 1A60     		str	r2, [r3]
  41 0026 5A68     		ldr	r2, [r3, #4]
  42 0028 22F4FE02 		bic	r2, r2, #8323072
  43 002c 5A60     		str	r2, [r3, #4]
  44 002e 4FF41F02 		mov	r2, #10420224
  45 0032 9A60     		str	r2, [r3, #8]
  46 0034 4FF00062 		mov	r2, #134217728
  47 0038 034B     		ldr	r3, .L2+8
  48 003a 9A60     		str	r2, [r3, #8]
  49 003c 7047     		bx	lr
  50              	.L3:
  51 003e 00BF     		.align	2
  52              	.L2:
  53 0040 00100240 		.word	1073876992
  54 0044 0000FFF8 		.word	-117506048
  55 0048 00ED00E0 		.word	-536810240
  57              		.section	.text.SystemCoreClockUpdate,"ax",%progbits
  58              		.align	1
  59              		.global	SystemCoreClockUpdate
ARM GAS  /tmp/ccfijWbq.s 			page 2


  60              		.syntax unified
  61              		.thumb
  62              		.thumb_func
  63              		.fpu softvfp
  65              	SystemCoreClockUpdate:
  66              		@ args = 0, pretend = 0, frame = 0
  67              		@ frame_needed = 0, uses_anonymous_args = 0
  68              		@ link register save eliminated.
  69 0000 134A     		ldr	r2, .L12
  70 0002 144B     		ldr	r3, .L12+4
  71 0004 5168     		ldr	r1, [r2, #4]
  72 0006 01F00C01 		and	r1, r1, #12
  73 000a 0429     		cmp	r1, #4
  74 000c 0CD0     		beq	.L5
  75 000e 0829     		cmp	r1, #8
  76 0010 0CD0     		beq	.L6
  77 0012 1149     		ldr	r1, .L12+8
  78              	.L10:
  79 0014 1960     		str	r1, [r3]
  80 0016 5268     		ldr	r2, [r2, #4]
  81 0018 1049     		ldr	r1, .L12+12
  82 001a C2F30312 		ubfx	r2, r2, #4, #4
  83 001e 895C     		ldrb	r1, [r1, r2]	@ zero_extendqisi2
  84 0020 1A68     		ldr	r2, [r3]
  85 0022 CA40     		lsrs	r2, r2, r1
  86 0024 1A60     		str	r2, [r3]
  87 0026 7047     		bx	lr
  88              	.L5:
  89 0028 0D49     		ldr	r1, .L12+16
  90 002a F3E7     		b	.L10
  91              	.L6:
  92 002c 5168     		ldr	r1, [r2, #4]
  93 002e 5068     		ldr	r0, [r2, #4]
  94 0030 C1F38341 		ubfx	r1, r1, #18, #4
  95 0034 C003     		lsls	r0, r0, #15
  96 0036 01F10201 		add	r1, r1, #2
  97 003a 02D4     		bmi	.L8
  98 003c 0948     		ldr	r0, .L12+20
  99              	.L11:
 100 003e 4143     		muls	r1, r0, r1
 101 0040 E8E7     		b	.L10
 102              	.L8:
 103 0042 5068     		ldr	r0, [r2, #4]
 104 0044 8003     		lsls	r0, r0, #14
 105 0046 4CBF     		ite	mi
 106 0048 0348     		ldrmi	r0, .L12+8
 107 004a 0548     		ldrpl	r0, .L12+16
 108 004c F7E7     		b	.L11
 109              	.L13:
 110 004e 00BF     		.align	2
 111              	.L12:
 112 0050 00100240 		.word	1073876992
 113 0054 00000000 		.word	.LANCHOR0
 114 0058 00127A00 		.word	8000000
 115 005c 00000000 		.word	.LANCHOR1
 116 0060 0024F400 		.word	16000000
 117 0064 00093D00 		.word	4000000
ARM GAS  /tmp/ccfijWbq.s 			page 3


 119              		.global	APBPrescTable
 120              		.global	AHBPrescTable
 121              		.global	SystemCoreClock
 122              		.section	.data.SystemCoreClock,"aw"
 123              		.align	2
 124              		.set	.LANCHOR0,. + 0
 127              	SystemCoreClock:
 128 0000 0024F400 		.word	16000000
 129              		.section	.rodata.AHBPrescTable,"a"
 130              		.set	.LANCHOR1,. + 0
 133              	AHBPrescTable:
 134 0000 00000000 		.ascii	"\000\000\000\000\000\000\000\000\001\002\003\004\006"
 134      00000000 
 134      01020304 
 134      06
 135 000d 070809   		.ascii	"\007\010\011"
 136              		.section	.rodata.APBPrescTable,"a"
 139              	APBPrescTable:
 140 0000 00000000 		.ascii	"\000\000\000\000\001\002\003\004"
 140      01020304 
 141              		.ident	"GCC: (GNU Tools for Arm Embedded Processors 9-2019-q4-major) 9.2.1 20191025 (release) [ARM
ARM GAS  /tmp/ccfijWbq.s 			page 4


DEFINED SYMBOLS
                            *ABS*:0000000000000000 mcu_init.c
     /tmp/ccfijWbq.s:14     .text.SystemInit:0000000000000000 $t
     /tmp/ccfijWbq.s:22     .text.SystemInit:0000000000000000 SystemInit
     /tmp/ccfijWbq.s:53     .text.SystemInit:0000000000000040 $d
     /tmp/ccfijWbq.s:58     .text.SystemCoreClockUpdate:0000000000000000 $t
     /tmp/ccfijWbq.s:65     .text.SystemCoreClockUpdate:0000000000000000 SystemCoreClockUpdate
     /tmp/ccfijWbq.s:112    .text.SystemCoreClockUpdate:0000000000000050 $d
     /tmp/ccfijWbq.s:139    .rodata.APBPrescTable:0000000000000000 APBPrescTable
     /tmp/ccfijWbq.s:133    .rodata.AHBPrescTable:0000000000000000 AHBPrescTable
     /tmp/ccfijWbq.s:127    .data.SystemCoreClock:0000000000000000 SystemCoreClock
     /tmp/ccfijWbq.s:123    .data.SystemCoreClock:0000000000000000 $d

NO UNDEFINED SYMBOLS
