ARM GAS  /tmp/ccQgsE83.s 			page 1


   1              		.syntax unified
   2              		.cpu cortex-m3
   3              		.fpu softvfp
   4              		.eabi_attribute 20, 1
   5              		.eabi_attribute 21, 1
   6              		.eabi_attribute 23, 3
   7              		.eabi_attribute 24, 1
   8              		.eabi_attribute 25, 1
   9              		.eabi_attribute 26, 1
  10              		.eabi_attribute 30, 4
  11              		.eabi_attribute 34, 1
  12              		.eabi_attribute 18, 4
  13              		.thumb
  14              		.file	"sys_usart.c"
  15              		.section	.text._SYS_USART1_MspDeInitCallback,"ax",%progbits
  16              		.align	1
  17              		.thumb
  18              		.thumb_func
  20              	_SYS_USART1_MspDeInitCallback:
  21              		@ args = 0, pretend = 0, frame = 0
  22              		@ frame_needed = 0, uses_anonymous_args = 0
  23              		@ link register save eliminated.
  24 0000 044A     		ldr	r2, .L2
  25 0002 0548     		ldr	r0, .L2+4
  26 0004 9369     		ldr	r3, [r2, #24]
  27 0006 4FF4C061 		mov	r1, #1536
  28 000a 23F48043 		bic	r3, r3, #16384
  29 000e 9361     		str	r3, [r2, #24]
  30 0010 FFF7FEBF 		b	HAL_GPIO_DeInit
  31              	.L3:
  32              		.align	2
  33              	.L2:
  34 0014 00100240 		.word	1073876992
  35 0018 00080140 		.word	1073809408
  37              		.section	.text._SYS_USART1_MspInitCallback,"ax",%progbits
  38              		.align	1
  39              		.thumb
  40              		.thumb_func
  42              	_SYS_USART1_MspInitCallback:
  43              		@ args = 0, pretend = 0, frame = 24
  44              		@ frame_needed = 0, uses_anonymous_args = 0
  45 0000 10B5     		push	{r4, lr}
  46 0002 86B0     		sub	sp, sp, #24
  47 0004 02A8     		add	r0, sp, #8
  48 0006 0021     		movs	r1, #0
  49 0008 1022     		movs	r2, #16
  50 000a FFF7FEFF 		bl	memset
  51 000e 154B     		ldr	r3, .L5
  52 0010 154C     		ldr	r4, .L5+4
  53 0012 9A69     		ldr	r2, [r3, #24]
  54 0014 2046     		mov	r0, r4
  55 0016 42F48042 		orr	r2, r2, #16384
  56 001a 9A61     		str	r2, [r3, #24]
  57 001c 9A69     		ldr	r2, [r3, #24]
  58 001e 02A9     		add	r1, sp, #8
  59 0020 02F48042 		and	r2, r2, #16384
  60 0024 0092     		str	r2, [sp]
ARM GAS  /tmp/ccQgsE83.s 			page 2


  61 0026 009A     		ldr	r2, [sp]
  62 0028 9A69     		ldr	r2, [r3, #24]
  63 002a 42F00402 		orr	r2, r2, #4
  64 002e 9A61     		str	r2, [r3, #24]
  65 0030 9B69     		ldr	r3, [r3, #24]
  66 0032 03F00403 		and	r3, r3, #4
  67 0036 0193     		str	r3, [sp, #4]
  68 0038 019B     		ldr	r3, [sp, #4]
  69 003a 4FF40073 		mov	r3, #512
  70 003e 0293     		str	r3, [sp, #8]
  71 0040 0223     		movs	r3, #2
  72 0042 0393     		str	r3, [sp, #12]
  73 0044 0323     		movs	r3, #3
  74 0046 0593     		str	r3, [sp, #20]
  75 0048 FFF7FEFF 		bl	HAL_GPIO_Init
  76 004c 4FF48063 		mov	r3, #1024
  77 0050 0293     		str	r3, [sp, #8]
  78 0052 2046     		mov	r0, r4
  79 0054 0023     		movs	r3, #0
  80 0056 02A9     		add	r1, sp, #8
  81 0058 0393     		str	r3, [sp, #12]
  82 005a 0493     		str	r3, [sp, #16]
  83 005c FFF7FEFF 		bl	HAL_GPIO_Init
  84 0060 06B0     		add	sp, sp, #24
  85              		@ sp needed
  86 0062 10BD     		pop	{r4, pc}
  87              	.L6:
  88              		.align	2
  89              	.L5:
  90 0064 00100240 		.word	1073876992
  91 0068 00080140 		.word	1073809408
  93              		.section	.text.SYS_USART_Init,"ax",%progbits
  94              		.align	1
  95              		.global	SYS_USART_Init
  96              		.thumb
  97              		.thumb_func
  99              	SYS_USART_Init:
 100              		@ args = 0, pretend = 0, frame = 0
 101              		@ frame_needed = 0, uses_anonymous_args = 0
 102 0000 1148     		ldr	r0, .L10
 103 0002 124B     		ldr	r3, .L10+4
 104 0004 10B5     		push	{r4, lr}
 105 0006 1860     		str	r0, [r3]
 106 0008 114B     		ldr	r3, .L10+8
 107 000a 4FF4E134 		mov	r4, #115200
 108 000e 80E81800 		stmia	r0, {r3, r4}
 109 0012 0023     		movs	r3, #0
 110 0014 8360     		str	r3, [r0, #8]
 111 0016 C360     		str	r3, [r0, #12]
 112 0018 0361     		str	r3, [r0, #16]
 113 001a 8361     		str	r3, [r0, #24]
 114 001c C361     		str	r3, [r0, #28]
 115 001e 0D4B     		ldr	r3, .L10+12
 116 0020 0C22     		movs	r2, #12
 117 0022 4366     		str	r3, [r0, #100]
 118 0024 0C4B     		ldr	r3, .L10+16
 119 0026 4261     		str	r2, [r0, #20]
ARM GAS  /tmp/ccQgsE83.s 			page 3


 120 0028 8366     		str	r3, [r0, #104]
 121 002a FFF7FEFF 		bl	HAL_UART_Init
 122 002e 38B1     		cbz	r0, .L8
 123 0030 BDE81040 		pop	{r4, lr}
 124 0034 0220     		movs	r0, #2
 125 0036 1D21     		movs	r1, #29
 126 0038 084A     		ldr	r2, .L10+20
 127 003a 094B     		ldr	r3, .L10+24
 128 003c FFF7FEBF 		b	SYS_ThrowError
 129              	.L8:
 130 0040 084B     		ldr	r3, .L10+28
 131 0042 0122     		movs	r2, #1
 132 0044 1A70     		strb	r2, [r3]
 133 0046 10BD     		pop	{r4, pc}
 134              	.L11:
 135              		.align	2
 136              	.L10:
 137 0048 00000000 		.word	.LANCHOR0
 138 004c 00000000 		.word	hw_uart1_handle
 139 0050 00380140 		.word	1073821696
 140 0054 00000000 		.word	_SYS_USART1_MspInitCallback
 141 0058 00000000 		.word	_SYS_USART1_MspDeInitCallback
 142 005c 00000000 		.word	.LC0
 143 0060 10000000 		.word	.LC1
 144 0064 00000000 		.word	hw_uart1_init_status
 146              		.comm	hw_uart1_init_status,1,1
 147              		.comm	hw_uart1_handle,4,4
 148              		.section	.rodata.str1.1,"aMS",%progbits,1
 149              	.LC0:
 150 0000 7372632F 		.ascii	"src/sys_usart.c\000"
 150      7379735F 
 150      75736172 
 150      742E6300 
 151              	.LC1:
 152 0010 55415254 		.ascii	"UART1 INIT FAIL\000"
 152      3120494E 
 152      49542046 
 152      41494C00 
 153              		.section	.bss._hw_uart1_handle,"aw",%nobits
 154              		.align	2
 155              		.set	.LANCHOR0,. + 0
 158              	_hw_uart1_handle:
 159 0000 00000000 		.space	108
 159      00000000 
 159      00000000 
 159      00000000 
 159      00000000 
 160              		.ident	"GCC: (15:4.9.3+svn231177-1) 4.9.3 20150529 (prerelease)"
ARM GAS  /tmp/ccQgsE83.s 			page 4

