ARM GAS  /tmp/ccgPul25.s 			page 1


   1              		.cpu cortex-m3
   2              		.eabi_attribute 20, 1
   3              		.eabi_attribute 21, 1
   4              		.eabi_attribute 23, 3
   5              		.eabi_attribute 24, 1
   6              		.eabi_attribute 25, 1
   7              		.eabi_attribute 26, 1
   8              		.eabi_attribute 30, 4
   9              		.eabi_attribute 34, 1
  10              		.eabi_attribute 18, 4
  11              		.file	"sys_i2c.c"
  12              		.text
  13              		.section	.text._SYS_I2C1_MspDeInitCallback,"ax",%progbits
  14              		.align	1
  15              		.arch armv7-m
  16              		.syntax unified
  17              		.thumb
  18              		.thumb_func
  19              		.fpu softvfp
  21              	_SYS_I2C1_MspDeInitCallback:
  22              		@ args = 0, pretend = 0, frame = 0
  23              		@ frame_needed = 0, uses_anonymous_args = 0
  24              		@ link register save eliminated.
  25 0000 044A     		ldr	r2, .L2
  26 0002 C021     		movs	r1, #192
  27 0004 D369     		ldr	r3, [r2, #28]
  28 0006 0448     		ldr	r0, .L2+4
  29 0008 23F40013 		bic	r3, r3, #2097152
  30 000c D361     		str	r3, [r2, #28]
  31 000e FFF7FEBF 		b	HAL_GPIO_DeInit
  32              	.L3:
  33 0012 00BF     		.align	2
  34              	.L2:
  35 0014 00100240 		.word	1073876992
  36 0018 000C0140 		.word	1073810432
  38              		.section	.text._SYS_I2C1_MspInitCallback,"ax",%progbits
  39              		.align	1
  40              		.syntax unified
  41              		.thumb
  42              		.thumb_func
  43              		.fpu softvfp
  45              	_SYS_I2C1_MspInitCallback:
  46              		@ args = 0, pretend = 0, frame = 24
  47              		@ frame_needed = 0, uses_anonymous_args = 0
  48 0000 0023     		movs	r3, #0
  49 0002 10B5     		push	{r4, lr}
  50 0004 104C     		ldr	r4, .L5
  51 0006 86B0     		sub	sp, sp, #24
  52 0008 0493     		str	r3, [sp, #16]
  53 000a A369     		ldr	r3, [r4, #24]
  54 000c C022     		movs	r2, #192
  55 000e 43F00803 		orr	r3, r3, #8
  56 0012 A361     		str	r3, [r4, #24]
  57 0014 A369     		ldr	r3, [r4, #24]
  58 0016 0D48     		ldr	r0, .L5+4
  59 0018 03F00803 		and	r3, r3, #8
  60 001c 0093     		str	r3, [sp]
ARM GAS  /tmp/ccgPul25.s 			page 2


  61 001e 009B     		ldr	r3, [sp]
  62 0020 1223     		movs	r3, #18
  63 0022 CDE90223 		strd	r2, r3, [sp, #8]
  64 0026 0323     		movs	r3, #3
  65 0028 02A9     		add	r1, sp, #8
  66 002a 0593     		str	r3, [sp, #20]
  67 002c FFF7FEFF 		bl	HAL_GPIO_Init
  68 0030 E369     		ldr	r3, [r4, #28]
  69 0032 43F40013 		orr	r3, r3, #2097152
  70 0036 E361     		str	r3, [r4, #28]
  71 0038 E369     		ldr	r3, [r4, #28]
  72 003a 03F40013 		and	r3, r3, #2097152
  73 003e 0193     		str	r3, [sp, #4]
  74 0040 019B     		ldr	r3, [sp, #4]
  75 0042 06B0     		add	sp, sp, #24
  76              		@ sp needed
  77 0044 10BD     		pop	{r4, pc}
  78              	.L6:
  79 0046 00BF     		.align	2
  80              	.L5:
  81 0048 00100240 		.word	1073876992
  82 004c 000C0140 		.word	1073810432
  84              		.section	.rodata.SYS_I2C_Init.str1.1,"aMS",%progbits,1
  85              	.LC0:
  86 0000 49324331 		.ascii	"I2C1 INIT FAIL\000"
  86      20494E49 
  86      54204641 
  86      494C00
  87              	.LC1:
  88 000f 7372632F 		.ascii	"src/sys_i2c.c\000"
  88      7379735F 
  88      6932632E 
  88      6300
  89              		.section	.text.SYS_I2C_Init,"ax",%progbits
  90              		.align	1
  91              		.global	SYS_I2C_Init
  92              		.syntax unified
  93              		.thumb
  94              		.thumb_func
  95              		.fpu softvfp
  97              	SYS_I2C_Init:
  98              		@ args = 0, pretend = 0, frame = 0
  99              		@ frame_needed = 0, uses_anonymous_args = 0
 100 0000 1248     		ldr	r0, .L9
 101 0002 134B     		ldr	r3, .L9+4
 102 0004 10B5     		push	{r4, lr}
 103 0006 134A     		ldr	r2, .L9+8
 104 0008 1860     		str	r0, [r3]
 105 000a 134B     		ldr	r3, .L9+12
 106 000c 0124     		movs	r4, #1
 107 000e C0E90023 		strd	r2, r3, [r0]
 108 0012 0023     		movs	r3, #0
 109 0014 4FF48042 		mov	r2, #16384
 110 0018 C0E90233 		strd	r3, r3, [r0, #8]
 111 001c C0E90423 		strd	r2, r3, [r0, #16]
 112 0020 C0E90733 		strd	r3, r3, [r0, #28]
 113 0024 0D4B     		ldr	r3, .L9+16
ARM GAS  /tmp/ccgPul25.s 			page 3


 114 0026 8461     		str	r4, [r0, #24]
 115 0028 C367     		str	r3, [r0, #124]
 116 002a 0D4B     		ldr	r3, .L9+20
 117 002c C0F88030 		str	r3, [r0, #128]
 118 0030 FFF7FEFF 		bl	HAL_I2C_Init
 119 0034 38B1     		cbz	r0, .L8
 120 0036 BDE81040 		pop	{r4, lr}
 121 003a 1F21     		movs	r1, #31
 122 003c 0220     		movs	r0, #2
 123 003e 094B     		ldr	r3, .L9+24
 124 0040 094A     		ldr	r2, .L9+28
 125 0042 FFF7FEBF 		b	SYS_ThrowError
 126              	.L8:
 127 0046 094B     		ldr	r3, .L9+32
 128 0048 1C70     		strb	r4, [r3]
 129 004a 10BD     		pop	{r4, pc}
 130              	.L10:
 131              		.align	2
 132              	.L9:
 133 004c 00000000 		.word	.LANCHOR0
 134 0050 00000000 		.word	hw_i2c1_handle
 135 0054 00540040 		.word	1073763328
 136 0058 A0860100 		.word	100000
 137 005c 00000000 		.word	_SYS_I2C1_MspInitCallback
 138 0060 00000000 		.word	_SYS_I2C1_MspDeInitCallback
 139 0064 00000000 		.word	.LC0
 140 0068 0F000000 		.word	.LC1
 141 006c 00000000 		.word	.LANCHOR1
 143              		.global	hw_i2c1_init_status
 144              		.comm	hw_i2c1_handle,4,4
 145              		.section	.bss._hw_i2c1_handle,"aw",%nobits
 146              		.align	2
 147              		.set	.LANCHOR0,. + 0
 150              	_hw_i2c1_handle:
 151 0000 00000000 		.space	132
 151      00000000 
 151      00000000 
 151      00000000 
 151      00000000 
 152              		.section	.bss.hw_i2c1_init_status,"aw",%nobits
 153              		.set	.LANCHOR1,. + 0
 156              	hw_i2c1_init_status:
 157 0000 00       		.space	1
 158              		.ident	"GCC: (GNU Tools for Arm Embedded Processors 9-2019-q4-major) 9.2.1 20191025 (release) [ARM
ARM GAS  /tmp/ccgPul25.s 			page 4

