ARM GAS  /tmp/cccEV19N.s 			page 1


   1              		.cpu cortex-m3
   2              		.eabi_attribute 20, 1
   3              		.eabi_attribute 21, 1
   4              		.eabi_attribute 23, 3
   5              		.eabi_attribute 24, 1
   6              		.eabi_attribute 25, 1
   7              		.eabi_attribute 26, 1
   8              		.eabi_attribute 30, 4
   9              		.eabi_attribute 34, 1
  10              		.eabi_attribute 18, 4
  11              		.file	"sys_ws2812.c"
  12              		.section	.text._NP32_StartDMA_Call,"ax",%progbits
  13              		.align	1
  14              		.syntax unified
  15              		.thumb
  16              		.thumb_func
  17              		.fpu softvfp
  19              	_NP32_StartDMA_Call:
  20              		@ args = 0, pretend = 0, frame = 0
  21              		@ frame_needed = 0, uses_anonymous_args = 0
  22 0000 0246     		mov	r2, r0
  23 0002 0648     		ldr	r0, .L2
  24 0004 08B5     		push	{r3, lr}
  25 0006 0068     		ldr	r0, [r0]
  26 0008 0B46     		mov	r3, r1
  27 000a 0821     		movs	r1, #8
  28 000c FFF7FEFF 		bl	HAL_TIM_PWM_Start_DMA
  29 0010 0030     		adds	r0, r0, #0
  30 0012 18BF     		it	ne
  31 0014 0120     		movne	r0, #1
  32 0016 4042     		negs	r0, r0
  33 0018 08BD     		pop	{r3, pc}
  34              	.L3:
  35 001a 00BF     		.align	2
  36              	.L2:
  37 001c 00000000 		.word	hw_timer2_handle
  39              		.section	.text.SYS_WS2812_Init,"ax",%progbits
  40              		.align	1
  41              		.global	SYS_WS2812_Init
  42              		.syntax unified
  43              		.thumb
  44              		.thumb_func
  45              		.fpu softvfp
  47              	SYS_WS2812_Init:
  48              		@ args = 0, pretend = 0, frame = 0
  49              		@ frame_needed = 0, uses_anonymous_args = 0
  50 0000 08B5     		push	{r3, lr}
  51 0002 0B48     		ldr	r0, .L9
  52 0004 0B4B     		ldr	r3, .L9+4
  53 0006 1860     		str	r0, [r3]
  54 0008 0B23     		movs	r3, #11
  55 000a 0380     		strh	r3, [r0]	@ movhi
  56 000c 0023     		movs	r3, #0
  57 000e 0372     		strb	r3, [r0, #8]
  58 0010 094B     		ldr	r3, .L9+8
  59 0012 4361     		str	r3, [r0, #20]
  60 0014 FFF7FEFF 		bl	NP32_Init
ARM GAS  /tmp/cccEV19N.s 			page 2


  61 0018 28B1     		cbz	r0, .L5
  62 001a 084B     		ldr	r3, .L9+12
  63 001c 084A     		ldr	r2, .L9+16
  64 001e 1B21     		movs	r1, #27
  65 0020 0220     		movs	r0, #2
  66 0022 FFF7FEFF 		bl	SYS_ThrowError
  67              	.L5:
  68 0026 0122     		movs	r2, #1
  69 0028 064B     		ldr	r3, .L9+20
  70 002a 1A70     		strb	r2, [r3]
  71 002c 08BD     		pop	{r3, pc}
  72              	.L10:
  73 002e 00BF     		.align	2
  74              	.L9:
  75 0030 00000000 		.word	.LANCHOR0
  76 0034 00000000 		.word	hw_ws2812_handle
  77 0038 00000000 		.word	_NP32_StartDMA_Call
  78 003c 00000000 		.word	.LC0
  79 0040 0E000000 		.word	.LC1
  80 0044 00000000 		.word	.LANCHOR1
  82              		.global	hw_ws2812_init_status
  83              		.comm	hw_ws2812_handle,4,4
  84              		.section	.bss._hw_ws2812_handle,"aw",%nobits
  85              		.align	2
  86              		.set	.LANCHOR0,. + 0
  89              	_hw_ws2812_handle:
  90 0000 00000000 		.space	24
  90      00000000 
  90      00000000 
  90      00000000 
  90      00000000 
  91              		.section	.bss.hw_ws2812_init_status,"aw",%nobits
  92              		.set	.LANCHOR1,. + 0
  95              	hw_ws2812_init_status:
  96 0000 00       		.space	1
  97              		.section	.rodata.SYS_WS2812_Init.str1.1,"aMS",%progbits,1
  98              	.LC0:
  99 0000 4E503332 		.ascii	"NP32 INIT ERR\000"
  99      20494E49 
  99      54204552 
  99      5200
 100              	.LC1:
 101 000e 7372632F 		.ascii	"src/sys_ws2812.c\000"
 101      7379735F 
 101      77733238 
 101      31322E63 
 101      00
 102              		.ident	"GCC: (15:6.3.1+svn253039-1build1) 6.3.1 20170620"
ARM GAS  /tmp/cccEV19N.s 			page 3


DEFINED SYMBOLS
                            *ABS*:0000000000000000 sys_ws2812.c
     /tmp/cccEV19N.s:13     .text._NP32_StartDMA_Call:0000000000000000 $t
     /tmp/cccEV19N.s:19     .text._NP32_StartDMA_Call:0000000000000000 _NP32_StartDMA_Call
     /tmp/cccEV19N.s:37     .text._NP32_StartDMA_Call:000000000000001c $d
     /tmp/cccEV19N.s:40     .text.SYS_WS2812_Init:0000000000000000 $t
     /tmp/cccEV19N.s:47     .text.SYS_WS2812_Init:0000000000000000 SYS_WS2812_Init
     /tmp/cccEV19N.s:75     .text.SYS_WS2812_Init:0000000000000030 $d
                            *COM*:0000000000000004 hw_ws2812_handle
     /tmp/cccEV19N.s:95     .bss.hw_ws2812_init_status:0000000000000000 hw_ws2812_init_status
     /tmp/cccEV19N.s:85     .bss._hw_ws2812_handle:0000000000000000 $d
     /tmp/cccEV19N.s:89     .bss._hw_ws2812_handle:0000000000000000 _hw_ws2812_handle
     /tmp/cccEV19N.s:96     .bss.hw_ws2812_init_status:0000000000000000 $d

UNDEFINED SYMBOLS
HAL_TIM_PWM_Start_DMA
hw_timer2_handle
NP32_Init
SYS_ThrowError
