ARM GAS  /tmp/cc11Qs3T.s 			page 1


   1              		.cpu cortex-m3
   2              		.eabi_attribute 20, 1
   3              		.eabi_attribute 21, 1
   4              		.eabi_attribute 23, 3
   5              		.eabi_attribute 24, 1
   6              		.eabi_attribute 25, 1
   7              		.eabi_attribute 26, 1
   8              		.eabi_attribute 30, 4
   9              		.eabi_attribute 34, 1
  10              		.eabi_attribute 18, 4
  11              		.file	"usbd_desc.c"
  12              		.text
  13              		.section	.text.USBD_FS_DeviceDescriptor,"ax",%progbits
  14              		.align	1
  15              		.global	USBD_FS_DeviceDescriptor
  16              		.arch armv7-m
  17              		.syntax unified
  18              		.thumb
  19              		.thumb_func
  20              		.fpu softvfp
  22              	USBD_FS_DeviceDescriptor:
  23              		@ args = 0, pretend = 0, frame = 0
  24              		@ frame_needed = 0, uses_anonymous_args = 0
  25              		@ link register save eliminated.
  26 0000 1223     		movs	r3, #18
  27 0002 0148     		ldr	r0, .L2
  28 0004 0B80     		strh	r3, [r1]	@ movhi
  29 0006 7047     		bx	lr
  30              	.L3:
  31              		.align	2
  32              	.L2:
  33 0008 00000000 		.word	.LANCHOR0
  35              		.section	.text.USBD_FS_LangIDStrDescriptor,"ax",%progbits
  36              		.align	1
  37              		.global	USBD_FS_LangIDStrDescriptor
  38              		.syntax unified
  39              		.thumb
  40              		.thumb_func
  41              		.fpu softvfp
  43              	USBD_FS_LangIDStrDescriptor:
  44              		@ args = 0, pretend = 0, frame = 0
  45              		@ frame_needed = 0, uses_anonymous_args = 0
  46              		@ link register save eliminated.
  47 0000 0423     		movs	r3, #4
  48 0002 0148     		ldr	r0, .L5
  49 0004 0B80     		strh	r3, [r1]	@ movhi
  50 0006 7047     		bx	lr
  51              	.L6:
  52              		.align	2
  53              	.L5:
  54 0008 00000000 		.word	.LANCHOR1
  56              		.section	.text.IntToUnicode,"ax",%progbits
  57              		.align	1
  58              		.syntax unified
  59              		.thumb
  60              		.thumb_func
  61              		.fpu softvfp
ARM GAS  /tmp/cc11Qs3T.s 			page 2


  63              	IntToUnicode:
  64              		@ args = 0, pretend = 0, frame = 0
  65              		@ frame_needed = 0, uses_anonymous_args = 0
  66 0000 0023     		movs	r3, #0
  67 0002 70B5     		push	{r4, r5, r6, lr}
  68 0004 1E46     		mov	r6, r3
  69 0006 4D1C     		adds	r5, r1, #1
  70              	.L10:
  71 0008 040F     		lsrs	r4, r0, #28
  72 000a B0F1204F 		cmp	r0, #-1610612736
  73 000e 34BF     		ite	cc
  74 0010 3034     		addcc	r4, r4, #48
  75 0012 3734     		addcs	r4, r4, #55
  76 0014 01F81340 		strb	r4, [r1, r3, lsl #1]
  77 0018 05F81360 		strb	r6, [r5, r3, lsl #1]
  78 001c 0133     		adds	r3, r3, #1
  79 001e DCB2     		uxtb	r4, r3
  80 0020 A242     		cmp	r2, r4
  81 0022 4FEA0010 		lsl	r0, r0, #4
  82 0026 EFD8     		bhi	.L10
  83 0028 70BD     		pop	{r4, r5, r6, pc}
  85              		.section	.text.USBD_FS_SerialStrDescriptor,"ax",%progbits
  86              		.align	1
  87              		.global	USBD_FS_SerialStrDescriptor
  88              		.syntax unified
  89              		.thumb
  90              		.thumb_func
  91              		.fpu softvfp
  93              	USBD_FS_SerialStrDescriptor:
  94              		@ args = 0, pretend = 0, frame = 0
  95              		@ frame_needed = 0, uses_anonymous_args = 0
  96 0000 1A23     		movs	r3, #26
  97 0002 10B5     		push	{r4, lr}
  98 0004 0B80     		strh	r3, [r1]	@ movhi
  99 0006 094B     		ldr	r3, .L18
 100 0008 1868     		ldr	r0, [r3]
 101 000a 0833     		adds	r3, r3, #8
 102 000c 1B68     		ldr	r3, [r3]
 103 000e C018     		adds	r0, r0, r3
 104 0010 0AD0     		beq	.L14
 105 0012 074B     		ldr	r3, .L18+4
 106 0014 0822     		movs	r2, #8
 107 0016 1C68     		ldr	r4, [r3]
 108 0018 0649     		ldr	r1, .L18+8
 109 001a FFF7FEFF 		bl	IntToUnicode
 110 001e 0422     		movs	r2, #4
 111 0020 2046     		mov	r0, r4
 112 0022 0549     		ldr	r1, .L18+12
 113 0024 FFF7FEFF 		bl	IntToUnicode
 114              	.L14:
 115 0028 0448     		ldr	r0, .L18+16
 116 002a 10BD     		pop	{r4, pc}
 117              	.L19:
 118              		.align	2
 119              	.L18:
 120 002c E8F7FF1F 		.word	536868840
 121 0030 ECF7FF1F 		.word	536868844
ARM GAS  /tmp/cc11Qs3T.s 			page 3


 122 0034 02000000 		.word	.LANCHOR2+2
 123 0038 12000000 		.word	.LANCHOR2+18
 124 003c 00000000 		.word	.LANCHOR2
 126              		.section	.rodata.USBD_FS_ManufacturerStrDescriptor.str1.1,"aMS",%progbits,1
 127              	.LC0:
 128 0000 4A6F6861 		.ascii	"Johannes Berndorfer\000"
 128      6E6E6573 
 128      20426572 
 128      6E646F72 
 128      66657200 
 129              		.section	.text.USBD_FS_ManufacturerStrDescriptor,"ax",%progbits
 130              		.align	1
 131              		.global	USBD_FS_ManufacturerStrDescriptor
 132              		.syntax unified
 133              		.thumb
 134              		.thumb_func
 135              		.fpu softvfp
 137              	USBD_FS_ManufacturerStrDescriptor:
 138              		@ args = 0, pretend = 0, frame = 0
 139              		@ frame_needed = 0, uses_anonymous_args = 0
 140 0000 10B5     		push	{r4, lr}
 141 0002 044C     		ldr	r4, .L21
 142 0004 0A46     		mov	r2, r1
 143 0006 0448     		ldr	r0, .L21+4
 144 0008 2146     		mov	r1, r4
 145 000a FFF7FEFF 		bl	USBD_GetString
 146 000e 2046     		mov	r0, r4
 147 0010 10BD     		pop	{r4, pc}
 148              	.L22:
 149 0012 00BF     		.align	2
 150              	.L21:
 151 0014 00000000 		.word	USBD_StrDesc
 152 0018 00000000 		.word	.LC0
 154              		.section	.rodata.USBD_FS_ProductStrDescriptor.str1.1,"aMS",%progbits,1
 155              	.LC1:
 156 0000 4A4B5020 		.ascii	"JKP Programmer Keyboard\000"
 156      50726F67 
 156      72616D6D 
 156      6572204B 
 156      6579626F 
 157              		.section	.text.USBD_FS_ProductStrDescriptor,"ax",%progbits
 158              		.align	1
 159              		.global	USBD_FS_ProductStrDescriptor
 160              		.syntax unified
 161              		.thumb
 162              		.thumb_func
 163              		.fpu softvfp
 165              	USBD_FS_ProductStrDescriptor:
 166              		@ args = 0, pretend = 0, frame = 0
 167              		@ frame_needed = 0, uses_anonymous_args = 0
 168 0000 10B5     		push	{r4, lr}
 169 0002 044C     		ldr	r4, .L24
 170 0004 0A46     		mov	r2, r1
 171 0006 0448     		ldr	r0, .L24+4
 172 0008 2146     		mov	r1, r4
 173 000a FFF7FEFF 		bl	USBD_GetString
 174 000e 2046     		mov	r0, r4
ARM GAS  /tmp/cc11Qs3T.s 			page 4


 175 0010 10BD     		pop	{r4, pc}
 176              	.L25:
 177 0012 00BF     		.align	2
 178              	.L24:
 179 0014 00000000 		.word	USBD_StrDesc
 180 0018 00000000 		.word	.LC1
 182              		.section	.rodata.USBD_FS_ConfigStrDescriptor.str1.1,"aMS",%progbits,1
 183              	.LC2:
 184 0000 43757374 		.ascii	"Custom HID Config\000"
 184      6F6D2048 
 184      49442043 
 184      6F6E6669 
 184      6700
 185              		.section	.text.USBD_FS_ConfigStrDescriptor,"ax",%progbits
 186              		.align	1
 187              		.global	USBD_FS_ConfigStrDescriptor
 188              		.syntax unified
 189              		.thumb
 190              		.thumb_func
 191              		.fpu softvfp
 193              	USBD_FS_ConfigStrDescriptor:
 194              		@ args = 0, pretend = 0, frame = 0
 195              		@ frame_needed = 0, uses_anonymous_args = 0
 196 0000 10B5     		push	{r4, lr}
 197 0002 044C     		ldr	r4, .L27
 198 0004 0A46     		mov	r2, r1
 199 0006 0448     		ldr	r0, .L27+4
 200 0008 2146     		mov	r1, r4
 201 000a FFF7FEFF 		bl	USBD_GetString
 202 000e 2046     		mov	r0, r4
 203 0010 10BD     		pop	{r4, pc}
 204              	.L28:
 205 0012 00BF     		.align	2
 206              	.L27:
 207 0014 00000000 		.word	USBD_StrDesc
 208 0018 00000000 		.word	.LC2
 210              		.section	.rodata.USBD_FS_InterfaceStrDescriptor.str1.1,"aMS",%progbits,1
 211              	.LC3:
 212 0000 43757374 		.ascii	"Custom HID Interface\000"
 212      6F6D2048 
 212      49442049 
 212      6E746572 
 212      66616365 
 213              		.section	.text.USBD_FS_InterfaceStrDescriptor,"ax",%progbits
 214              		.align	1
 215              		.global	USBD_FS_InterfaceStrDescriptor
 216              		.syntax unified
 217              		.thumb
 218              		.thumb_func
 219              		.fpu softvfp
 221              	USBD_FS_InterfaceStrDescriptor:
 222              		@ args = 0, pretend = 0, frame = 0
 223              		@ frame_needed = 0, uses_anonymous_args = 0
 224 0000 10B5     		push	{r4, lr}
 225 0002 044C     		ldr	r4, .L30
 226 0004 0A46     		mov	r2, r1
 227 0006 0448     		ldr	r0, .L30+4
ARM GAS  /tmp/cc11Qs3T.s 			page 5


 228 0008 2146     		mov	r1, r4
 229 000a FFF7FEFF 		bl	USBD_GetString
 230 000e 2046     		mov	r0, r4
 231 0010 10BD     		pop	{r4, pc}
 232              	.L31:
 233 0012 00BF     		.align	2
 234              	.L30:
 235 0014 00000000 		.word	USBD_StrDesc
 236 0018 00000000 		.word	.LC3
 238              		.global	USBD_StringSerial
 239              		.comm	USBD_StrDesc,512,4
 240              		.global	USBD_LangIDDesc
 241              		.global	USBD_FS_DeviceDesc
 242              		.global	FS_Desc
 243              		.section	.data.FS_Desc,"aw"
 244              		.align	2
 247              	FS_Desc:
 248 0000 00000000 		.word	USBD_FS_DeviceDescriptor
 249 0004 00000000 		.word	USBD_FS_LangIDStrDescriptor
 250 0008 00000000 		.word	USBD_FS_ManufacturerStrDescriptor
 251 000c 00000000 		.word	USBD_FS_ProductStrDescriptor
 252 0010 00000000 		.word	USBD_FS_SerialStrDescriptor
 253 0014 00000000 		.word	USBD_FS_ConfigStrDescriptor
 254 0018 00000000 		.word	USBD_FS_InterfaceStrDescriptor
 255              		.section	.data.USBD_FS_DeviceDesc,"aw"
 256              		.align	2
 257              		.set	.LANCHOR0,. + 0
 260              	USBD_FS_DeviceDesc:
 261 0000 12010002 		.ascii	"\022\001\000\002\000\000\000@\203\004\000\004\000\002"
 261      00000040 
 261      83040004 
 261      0002
 262 000e 01020301 		.ascii	"\001\002\003\001"
 263              		.section	.data.USBD_LangIDDesc,"aw"
 264              		.align	2
 265              		.set	.LANCHOR1,. + 0
 268              	USBD_LangIDDesc:
 269 0000 04030904 		.ascii	"\004\003\011\004"
 270              		.section	.data.USBD_StringSerial,"aw"
 271              		.align	2
 272              		.set	.LANCHOR2,. + 0
 275              	USBD_StringSerial:
 276 0000 1A0300   		.ascii	"\032\003\000"
 277 0003 00000000 		.space	23
 277      00000000 
 277      00000000 
 277      00000000 
 277      00000000 
 278              		.ident	"GCC: (GNU Tools for Arm Embedded Processors 9-2019-q4-major) 9.2.1 20191025 (release) [ARM
ARM GAS  /tmp/cc11Qs3T.s 			page 6

