ARM GAS  /tmp/cclkHTet.s 			page 1


   1              		.cpu cortex-m3
   2              		.eabi_attribute 20, 1
   3              		.eabi_attribute 21, 1
   4              		.eabi_attribute 23, 3
   5              		.eabi_attribute 24, 1
   6              		.eabi_attribute 25, 1
   7              		.eabi_attribute 26, 1
   8              		.eabi_attribute 30, 4
   9              		.eabi_attribute 34, 1
  10              		.eabi_attribute 18, 4
  11              		.file	"usbd_core.c"
  12              		.section	.text.USBD_Init,"ax",%progbits
  13              		.align	1
  14              		.global	USBD_Init
  15              		.syntax unified
  16              		.thumb
  17              		.thumb_func
  18              		.fpu softvfp
  20              	USBD_Init:
  21              		@ args = 0, pretend = 0, frame = 0
  22              		@ frame_needed = 0, uses_anonymous_args = 0
  23 0000 70B5     		push	{r4, r5, r6, lr}
  24 0002 0D46     		mov	r5, r1
  25 0004 1646     		mov	r6, r2
  26 0006 0446     		mov	r4, r0
  27 0008 D0B1     		cbz	r0, .L5
  28 000a 0E48     		ldr	r0, .L12
  29 000c FFF7FEFF 		bl	CONSOLE_PrintLn
  30 0010 D4F81432 		ldr	r3, [r4, #532]
  31 0014 13B1     		cbz	r3, .L3
  32 0016 0023     		movs	r3, #0
  33 0018 C4F81432 		str	r3, [r4, #532]
  34              	.L3:
  35 001c 0DB1     		cbz	r5, .L4
  36 001e C4F81052 		str	r5, [r4, #528]
  37              	.L4:
  38 0022 0123     		movs	r3, #1
  39 0024 2670     		strb	r6, [r4]
  40 0026 84F8FC31 		strb	r3, [r4, #508]
  41 002a 0748     		ldr	r0, .L12+4
  42 002c FFF7FEFF 		bl	CONSOLE_PrintLn
  43 0030 2046     		mov	r0, r4
  44 0032 FFF7FEFF 		bl	USBD_LL_Init
  45 0036 0548     		ldr	r0, .L12+8
  46 0038 FFF7FEFF 		bl	CONSOLE_PrintLn
  47 003c 0020     		movs	r0, #0
  48 003e 70BD     		pop	{r4, r5, r6, pc}
  49              	.L5:
  50 0040 0220     		movs	r0, #2
  51 0042 70BD     		pop	{r4, r5, r6, pc}
  52              	.L13:
  53              		.align	2
  54              	.L12:
  55 0044 00000000 		.word	.LC0
  56 0048 08000000 		.word	.LC1
  57 004c 10000000 		.word	.LC2
  59              		.section	.text.USBD_DeInit,"ax",%progbits
ARM GAS  /tmp/cclkHTet.s 			page 2


  60              		.align	1
  61              		.global	USBD_DeInit
  62              		.syntax unified
  63              		.thumb
  64              		.thumb_func
  65              		.fpu softvfp
  67              	USBD_DeInit:
  68              		@ args = 0, pretend = 0, frame = 0
  69              		@ frame_needed = 0, uses_anonymous_args = 0
  70 0000 0123     		movs	r3, #1
  71 0002 10B5     		push	{r4, lr}
  72 0004 0446     		mov	r4, r0
  73 0006 80F8FC31 		strb	r3, [r0, #508]
  74 000a D0F81432 		ldr	r3, [r0, #532]
  75 000e 0179     		ldrb	r1, [r0, #4]	@ zero_extendqisi2
  76 0010 5B68     		ldr	r3, [r3, #4]
  77 0012 9847     		blx	r3
  78 0014 2046     		mov	r0, r4
  79 0016 FFF7FEFF 		bl	USBD_LL_Stop
  80 001a 2046     		mov	r0, r4
  81 001c FFF7FEFF 		bl	USBD_LL_DeInit
  82 0020 0020     		movs	r0, #0
  83 0022 10BD     		pop	{r4, pc}
  85              		.section	.text.USBD_RegisterClass,"ax",%progbits
  86              		.align	1
  87              		.global	USBD_RegisterClass
  88              		.syntax unified
  89              		.thumb
  90              		.thumb_func
  91              		.fpu softvfp
  93              	USBD_RegisterClass:
  94              		@ args = 0, pretend = 0, frame = 0
  95              		@ frame_needed = 0, uses_anonymous_args = 0
  96              		@ link register save eliminated.
  97 0000 19B1     		cbz	r1, .L17
  98 0002 C0F81412 		str	r1, [r0, #532]
  99 0006 0020     		movs	r0, #0
 100 0008 7047     		bx	lr
 101              	.L17:
 102 000a 0220     		movs	r0, #2
 103 000c 7047     		bx	lr
 105              		.section	.text.USBD_Start,"ax",%progbits
 106              		.align	1
 107              		.global	USBD_Start
 108              		.syntax unified
 109              		.thumb
 110              		.thumb_func
 111              		.fpu softvfp
 113              	USBD_Start:
 114              		@ args = 0, pretend = 0, frame = 0
 115              		@ frame_needed = 0, uses_anonymous_args = 0
 116 0000 08B5     		push	{r3, lr}
 117 0002 FFF7FEFF 		bl	USBD_LL_Start
 118 0006 0020     		movs	r0, #0
 119 0008 08BD     		pop	{r3, pc}
 121              		.section	.text.USBD_Stop,"ax",%progbits
 122              		.align	1
ARM GAS  /tmp/cclkHTet.s 			page 3


 123              		.global	USBD_Stop
 124              		.syntax unified
 125              		.thumb
 126              		.thumb_func
 127              		.fpu softvfp
 129              	USBD_Stop:
 130              		@ args = 0, pretend = 0, frame = 0
 131              		@ frame_needed = 0, uses_anonymous_args = 0
 132 0000 10B5     		push	{r4, lr}
 133 0002 0446     		mov	r4, r0
 134 0004 D0F81432 		ldr	r3, [r0, #532]
 135 0008 0179     		ldrb	r1, [r0, #4]	@ zero_extendqisi2
 136 000a 5B68     		ldr	r3, [r3, #4]
 137 000c 9847     		blx	r3
 138 000e 2046     		mov	r0, r4
 139 0010 FFF7FEFF 		bl	USBD_LL_Stop
 140 0014 0020     		movs	r0, #0
 141 0016 10BD     		pop	{r4, pc}
 143              		.section	.text.USBD_RunTestMode,"ax",%progbits
 144              		.align	1
 145              		.global	USBD_RunTestMode
 146              		.syntax unified
 147              		.thumb
 148              		.thumb_func
 149              		.fpu softvfp
 151              	USBD_RunTestMode:
 152              		@ args = 0, pretend = 0, frame = 0
 153              		@ frame_needed = 0, uses_anonymous_args = 0
 154              		@ link register save eliminated.
 155 0000 0020     		movs	r0, #0
 156 0002 7047     		bx	lr
 158              		.section	.text.USBD_SetClassConfig,"ax",%progbits
 159              		.align	1
 160              		.global	USBD_SetClassConfig
 161              		.syntax unified
 162              		.thumb
 163              		.thumb_func
 164              		.fpu softvfp
 166              	USBD_SetClassConfig:
 167              		@ args = 0, pretend = 0, frame = 0
 168              		@ frame_needed = 0, uses_anonymous_args = 0
 169 0000 08B5     		push	{r3, lr}
 170 0002 D0F81432 		ldr	r3, [r0, #532]
 171 0006 0BB9     		cbnz	r3, .L22
 172              	.L24:
 173 0008 0220     		movs	r0, #2
 174 000a 08BD     		pop	{r3, pc}
 175              	.L22:
 176 000c 1B68     		ldr	r3, [r3]
 177 000e 9847     		blx	r3
 178 0010 0028     		cmp	r0, #0
 179 0012 F9D1     		bne	.L24
 180 0014 08BD     		pop	{r3, pc}
 182              		.section	.text.USBD_ClrClassConfig,"ax",%progbits
 183              		.align	1
 184              		.global	USBD_ClrClassConfig
 185              		.syntax unified
ARM GAS  /tmp/cclkHTet.s 			page 4


 186              		.thumb
 187              		.thumb_func
 188              		.fpu softvfp
 190              	USBD_ClrClassConfig:
 191              		@ args = 0, pretend = 0, frame = 0
 192              		@ frame_needed = 0, uses_anonymous_args = 0
 193 0000 08B5     		push	{r3, lr}
 194 0002 D0F81432 		ldr	r3, [r0, #532]
 195 0006 5B68     		ldr	r3, [r3, #4]
 196 0008 9847     		blx	r3
 197 000a 0020     		movs	r0, #0
 198 000c 08BD     		pop	{r3, pc}
 200              		.section	.text.USBD_LL_SetupStage,"ax",%progbits
 201              		.align	1
 202              		.global	USBD_LL_SetupStage
 203              		.syntax unified
 204              		.thumb
 205              		.thumb_func
 206              		.fpu softvfp
 208              	USBD_LL_SetupStage:
 209              		@ args = 0, pretend = 0, frame = 0
 210              		@ frame_needed = 0, uses_anonymous_args = 0
 211 0000 38B5     		push	{r3, r4, r5, lr}
 212 0002 00F50275 		add	r5, r0, #520
 213 0006 0446     		mov	r4, r0
 214 0008 2846     		mov	r0, r5
 215 000a FFF7FEFF 		bl	USBD_ParseSetupRequest
 216 000e 0123     		movs	r3, #1
 217 0010 94F80812 		ldrb	r1, [r4, #520]	@ zero_extendqisi2
 218 0014 C4F8F431 		str	r3, [r4, #500]
 219 0018 B4F80E32 		ldrh	r3, [r4, #526]
 220 001c C4F8F831 		str	r3, [r4, #504]
 221 0020 01F01F03 		and	r3, r1, #31
 222 0024 012B     		cmp	r3, #1
 223 0026 0ED0     		beq	.L28
 224 0028 07D3     		bcc	.L29
 225 002a 022B     		cmp	r3, #2
 226 002c 10D0     		beq	.L30
 227 002e 01F08001 		and	r1, r1, #128
 228 0032 2046     		mov	r0, r4
 229 0034 FFF7FEFF 		bl	USBD_LL_StallEP
 230 0038 03E0     		b	.L31
 231              	.L29:
 232 003a 2946     		mov	r1, r5
 233 003c 2046     		mov	r0, r4
 234 003e FFF7FEFF 		bl	USBD_StdDevReq
 235              	.L31:
 236 0042 0020     		movs	r0, #0
 237 0044 38BD     		pop	{r3, r4, r5, pc}
 238              	.L28:
 239 0046 2946     		mov	r1, r5
 240 0048 2046     		mov	r0, r4
 241 004a FFF7FEFF 		bl	USBD_StdItfReq
 242 004e F8E7     		b	.L31
 243              	.L30:
 244 0050 2946     		mov	r1, r5
 245 0052 2046     		mov	r0, r4
ARM GAS  /tmp/cclkHTet.s 			page 5


 246 0054 FFF7FEFF 		bl	USBD_StdEPReq
 247 0058 F3E7     		b	.L31
 249              		.section	.text.USBD_LL_DataOutStage,"ax",%progbits
 250              		.align	1
 251              		.global	USBD_LL_DataOutStage
 252              		.syntax unified
 253              		.thumb
 254              		.thumb_func
 255              		.fpu softvfp
 257              	USBD_LL_DataOutStage:
 258              		@ args = 0, pretend = 0, frame = 0
 259              		@ frame_needed = 0, uses_anonymous_args = 0
 260 0000 38B5     		push	{r3, r4, r5, lr}
 261 0002 0446     		mov	r4, r0
 262 0004 1546     		mov	r5, r2
 263 0006 11BB     		cbnz	r1, .L34
 264 0008 D0F8F431 		ldr	r3, [r0, #500]
 265 000c 032B     		cmp	r3, #3
 266 000e 0FD1     		bne	.L35
 267 0010 D0F80C31 		ldr	r3, [r0, #268]
 268 0014 D0F81021 		ldr	r2, [r0, #272]
 269 0018 9342     		cmp	r3, r2
 270 001a 0BD9     		bls	.L36
 271 001c 9B1A     		subs	r3, r3, r2
 272 001e 9A42     		cmp	r2, r3
 273 0020 28BF     		it	cs
 274 0022 1A46     		movcs	r2, r3
 275 0024 C0F80C31 		str	r3, [r0, #268]
 276 0028 92B2     		uxth	r2, r2
 277 002a 2946     		mov	r1, r5
 278 002c FFF7FEFF 		bl	USBD_CtlContinueRx
 279              	.L35:
 280 0030 0020     		movs	r0, #0
 281 0032 38BD     		pop	{r3, r4, r5, pc}
 282              	.L36:
 283 0034 D0F81432 		ldr	r3, [r0, #532]
 284 0038 1B69     		ldr	r3, [r3, #16]
 285 003a 23B1     		cbz	r3, .L37
 286 003c 90F8FC21 		ldrb	r2, [r0, #508]	@ zero_extendqisi2
 287 0040 032A     		cmp	r2, #3
 288 0042 00D1     		bne	.L37
 289 0044 9847     		blx	r3
 290              	.L37:
 291 0046 2046     		mov	r0, r4
 292 0048 FFF7FEFF 		bl	USBD_CtlSendStatus
 293 004c F0E7     		b	.L35
 294              	.L34:
 295 004e D0F81432 		ldr	r3, [r0, #532]
 296 0052 9B69     		ldr	r3, [r3, #24]
 297 0054 002B     		cmp	r3, #0
 298 0056 EBD0     		beq	.L35
 299 0058 90F8FC21 		ldrb	r2, [r0, #508]	@ zero_extendqisi2
 300 005c 032A     		cmp	r2, #3
 301 005e E7D1     		bne	.L35
 302 0060 9847     		blx	r3
 303 0062 E5E7     		b	.L35
 305              		.section	.text.USBD_LL_DataInStage,"ax",%progbits
ARM GAS  /tmp/cclkHTet.s 			page 6


 306              		.align	1
 307              		.global	USBD_LL_DataInStage
 308              		.syntax unified
 309              		.thumb
 310              		.thumb_func
 311              		.fpu softvfp
 313              	USBD_LL_DataInStage:
 314              		@ args = 0, pretend = 0, frame = 0
 315              		@ frame_needed = 0, uses_anonymous_args = 0
 316 0000 70B5     		push	{r4, r5, r6, lr}
 317 0002 1346     		mov	r3, r2
 318 0004 0446     		mov	r4, r0
 319 0006 0E46     		mov	r6, r1
 320 0008 0029     		cmp	r1, #0
 321 000a 3DD1     		bne	.L45
 322 000c D0F8F421 		ldr	r2, [r0, #500]
 323 0010 022A     		cmp	r2, #2
 324 0012 0FD1     		bne	.L46
 325 0014 C569     		ldr	r5, [r0, #28]
 326 0016 026A     		ldr	r2, [r0, #32]
 327 0018 9542     		cmp	r5, r2
 328 001a 14D9     		bls	.L47
 329 001c AA1A     		subs	r2, r5, r2
 330 001e C261     		str	r2, [r0, #28]
 331 0020 1946     		mov	r1, r3
 332 0022 92B2     		uxth	r2, r2
 333 0024 FFF7FEFF 		bl	USBD_CtlContinueSendData
 334 0028 3346     		mov	r3, r6
 335              	.L59:
 336 002a 1A46     		mov	r2, r3
 337 002c 1946     		mov	r1, r3
 338 002e 2046     		mov	r0, r4
 339 0030 FFF7FEFF 		bl	USBD_LL_PrepareReceive
 340              	.L46:
 341 0034 94F80032 		ldrb	r3, [r4, #512]	@ zero_extendqisi2
 342 0038 012B     		cmp	r3, #1
 343 003a 02D1     		bne	.L51
 344 003c 0023     		movs	r3, #0
 345 003e 84F80032 		strb	r3, [r4, #512]
 346              	.L51:
 347 0042 0020     		movs	r0, #0
 348 0044 70BD     		pop	{r4, r5, r6, pc}
 349              	.L47:
 350 0046 8369     		ldr	r3, [r0, #24]
 351 0048 B3FBF2F5 		udiv	r5, r3, r2
 352 004c 02FB1535 		mls	r5, r2, r5, r3
 353 0050 65B9     		cbnz	r5, .L48
 354 0052 9A42     		cmp	r2, r3
 355 0054 0AD8     		bhi	.L48
 356 0056 D0F8F821 		ldr	r2, [r0, #504]
 357 005a 9342     		cmp	r3, r2
 358 005c 06D2     		bcs	.L48
 359 005e 2A46     		mov	r2, r5
 360 0060 FFF7FEFF 		bl	USBD_CtlContinueSendData
 361 0064 C4F8F851 		str	r5, [r4, #504]
 362 0068 2B46     		mov	r3, r5
 363 006a DEE7     		b	.L59
ARM GAS  /tmp/cclkHTet.s 			page 7


 364              	.L48:
 365 006c D4F81432 		ldr	r3, [r4, #532]
 366 0070 DB68     		ldr	r3, [r3, #12]
 367 0072 2BB1     		cbz	r3, .L49
 368 0074 94F8FC21 		ldrb	r2, [r4, #508]	@ zero_extendqisi2
 369 0078 032A     		cmp	r2, #3
 370 007a 01D1     		bne	.L49
 371 007c 2046     		mov	r0, r4
 372 007e 9847     		blx	r3
 373              	.L49:
 374 0080 2046     		mov	r0, r4
 375 0082 FFF7FEFF 		bl	USBD_CtlReceiveStatus
 376 0086 D5E7     		b	.L46
 377              	.L45:
 378 0088 D0F81432 		ldr	r3, [r0, #532]
 379 008c 5B69     		ldr	r3, [r3, #20]
 380 008e 002B     		cmp	r3, #0
 381 0090 D7D0     		beq	.L51
 382 0092 90F8FC21 		ldrb	r2, [r0, #508]	@ zero_extendqisi2
 383 0096 032A     		cmp	r2, #3
 384 0098 D3D1     		bne	.L51
 385 009a 9847     		blx	r3
 386 009c D1E7     		b	.L51
 388              		.section	.text.USBD_LL_Reset,"ax",%progbits
 389              		.align	1
 390              		.global	USBD_LL_Reset
 391              		.syntax unified
 392              		.thumb
 393              		.thumb_func
 394              		.fpu softvfp
 396              	USBD_LL_Reset:
 397              		@ args = 0, pretend = 0, frame = 0
 398              		@ frame_needed = 0, uses_anonymous_args = 0
 399 0000 0022     		movs	r2, #0
 400 0002 38B5     		push	{r3, r4, r5, lr}
 401 0004 0446     		mov	r4, r0
 402 0006 4025     		movs	r5, #64
 403 0008 1146     		mov	r1, r2
 404 000a 4023     		movs	r3, #64
 405 000c FFF7FEFF 		bl	USBD_LL_OpenEP
 406 0010 2B46     		mov	r3, r5
 407 0012 C4F81051 		str	r5, [r4, #272]
 408 0016 0022     		movs	r2, #0
 409 0018 8021     		movs	r1, #128
 410 001a 2046     		mov	r0, r4
 411 001c FFF7FEFF 		bl	USBD_LL_OpenEP
 412 0020 0123     		movs	r3, #1
 413 0022 84F8FC31 		strb	r3, [r4, #508]
 414 0026 D4F81832 		ldr	r3, [r4, #536]
 415 002a 2562     		str	r5, [r4, #32]
 416 002c 2BB1     		cbz	r3, .L61
 417 002e D4F81432 		ldr	r3, [r4, #532]
 418 0032 2179     		ldrb	r1, [r4, #4]	@ zero_extendqisi2
 419 0034 5B68     		ldr	r3, [r3, #4]
 420 0036 2046     		mov	r0, r4
 421 0038 9847     		blx	r3
 422              	.L61:
ARM GAS  /tmp/cclkHTet.s 			page 8


 423 003a 0020     		movs	r0, #0
 424 003c 38BD     		pop	{r3, r4, r5, pc}
 426              		.section	.text.USBD_LL_SetSpeed,"ax",%progbits
 427              		.align	1
 428              		.global	USBD_LL_SetSpeed
 429              		.syntax unified
 430              		.thumb
 431              		.thumb_func
 432              		.fpu softvfp
 434              	USBD_LL_SetSpeed:
 435              		@ args = 0, pretend = 0, frame = 0
 436              		@ frame_needed = 0, uses_anonymous_args = 0
 437              		@ link register save eliminated.
 438 0000 0174     		strb	r1, [r0, #16]
 439 0002 0020     		movs	r0, #0
 440 0004 7047     		bx	lr
 442              		.section	.text.USBD_LL_Suspend,"ax",%progbits
 443              		.align	1
 444              		.global	USBD_LL_Suspend
 445              		.syntax unified
 446              		.thumb
 447              		.thumb_func
 448              		.fpu softvfp
 450              	USBD_LL_Suspend:
 451              		@ args = 0, pretend = 0, frame = 0
 452              		@ frame_needed = 0, uses_anonymous_args = 0
 453              		@ link register save eliminated.
 454 0000 90F8FC31 		ldrb	r3, [r0, #508]	@ zero_extendqisi2
 455 0004 80F8FD31 		strb	r3, [r0, #509]
 456 0008 0423     		movs	r3, #4
 457 000a 80F8FC31 		strb	r3, [r0, #508]
 458 000e 0020     		movs	r0, #0
 459 0010 7047     		bx	lr
 461              		.section	.text.USBD_LL_Resume,"ax",%progbits
 462              		.align	1
 463              		.global	USBD_LL_Resume
 464              		.syntax unified
 465              		.thumb
 466              		.thumb_func
 467              		.fpu softvfp
 469              	USBD_LL_Resume:
 470              		@ args = 0, pretend = 0, frame = 0
 471              		@ frame_needed = 0, uses_anonymous_args = 0
 472              		@ link register save eliminated.
 473 0000 90F8FD31 		ldrb	r3, [r0, #509]	@ zero_extendqisi2
 474 0004 80F8FC31 		strb	r3, [r0, #508]
 475 0008 0020     		movs	r0, #0
 476 000a 7047     		bx	lr
 478              		.section	.text.USBD_LL_SOF,"ax",%progbits
 479              		.align	1
 480              		.global	USBD_LL_SOF
 481              		.syntax unified
 482              		.thumb
 483              		.thumb_func
 484              		.fpu softvfp
 486              	USBD_LL_SOF:
 487              		@ args = 0, pretend = 0, frame = 0
ARM GAS  /tmp/cclkHTet.s 			page 9


 488              		@ frame_needed = 0, uses_anonymous_args = 0
 489 0000 08B5     		push	{r3, lr}
 490 0002 90F8FC21 		ldrb	r2, [r0, #508]	@ zero_extendqisi2
 491 0006 032A     		cmp	r2, #3
 492 0008 04D1     		bne	.L69
 493 000a D0F81432 		ldr	r3, [r0, #532]
 494 000e DB69     		ldr	r3, [r3, #28]
 495 0010 03B1     		cbz	r3, .L69
 496 0012 9847     		blx	r3
 497              	.L69:
 498 0014 0020     		movs	r0, #0
 499 0016 08BD     		pop	{r3, pc}
 501              		.section	.text.USBD_LL_IsoINIncomplete,"ax",%progbits
 502              		.align	1
 503              		.global	USBD_LL_IsoINIncomplete
 504              		.syntax unified
 505              		.thumb
 506              		.thumb_func
 507              		.fpu softvfp
 509              	USBD_LL_IsoINIncomplete:
 510              		@ args = 0, pretend = 0, frame = 0
 511              		@ frame_needed = 0, uses_anonymous_args = 0
 512              		@ link register save eliminated.
 513 0000 0020     		movs	r0, #0
 514 0002 7047     		bx	lr
 516              		.section	.text.USBD_LL_IsoOUTIncomplete,"ax",%progbits
 517              		.align	1
 518              		.global	USBD_LL_IsoOUTIncomplete
 519              		.syntax unified
 520              		.thumb
 521              		.thumb_func
 522              		.fpu softvfp
 524              	USBD_LL_IsoOUTIncomplete:
 525              		@ args = 0, pretend = 0, frame = 0
 526              		@ frame_needed = 0, uses_anonymous_args = 0
 527              		@ link register save eliminated.
 528 0000 0020     		movs	r0, #0
 529 0002 7047     		bx	lr
 531              		.section	.text.USBD_LL_DevConnected,"ax",%progbits
 532              		.align	1
 533              		.global	USBD_LL_DevConnected
 534              		.syntax unified
 535              		.thumb
 536              		.thumb_func
 537              		.fpu softvfp
 539              	USBD_LL_DevConnected:
 540              		@ args = 0, pretend = 0, frame = 0
 541              		@ frame_needed = 0, uses_anonymous_args = 0
 542              		@ link register save eliminated.
 543 0000 0020     		movs	r0, #0
 544 0002 7047     		bx	lr
 546              		.section	.text.USBD_LL_DevDisconnected,"ax",%progbits
 547              		.align	1
 548              		.global	USBD_LL_DevDisconnected
 549              		.syntax unified
 550              		.thumb
 551              		.thumb_func
ARM GAS  /tmp/cclkHTet.s 			page 10


 552              		.fpu softvfp
 554              	USBD_LL_DevDisconnected:
 555              		@ args = 0, pretend = 0, frame = 0
 556              		@ frame_needed = 0, uses_anonymous_args = 0
 557 0000 0122     		movs	r2, #1
 558 0002 08B5     		push	{r3, lr}
 559 0004 80F8FC21 		strb	r2, [r0, #508]
 560 0008 D0F81422 		ldr	r2, [r0, #532]
 561 000c 0179     		ldrb	r1, [r0, #4]	@ zero_extendqisi2
 562 000e 5268     		ldr	r2, [r2, #4]
 563 0010 9047     		blx	r2
 564 0012 0020     		movs	r0, #0
 565 0014 08BD     		pop	{r3, pc}
 567              		.section	.rodata.USBD_Init.str1.1,"aMS",%progbits,1
 568              	.LC0:
 569 0000 54726163 		.ascii	"Trace 0\000"
 569      65203000 
 570              	.LC1:
 571 0008 54726163 		.ascii	"Trace 1\000"
 571      65203100 
 572              	.LC2:
 573 0010 54726163 		.ascii	"Trace 2\000"
 573      65203200 
 574              		.ident	"GCC: (15:6.3.1+svn253039-1build1) 6.3.1 20170620"
ARM GAS  /tmp/cclkHTet.s 			page 11


DEFINED SYMBOLS
                            *ABS*:0000000000000000 usbd_core.c
     /tmp/cclkHTet.s:13     .text.USBD_Init:0000000000000000 $t
     /tmp/cclkHTet.s:20     .text.USBD_Init:0000000000000000 USBD_Init
     /tmp/cclkHTet.s:55     .text.USBD_Init:0000000000000044 $d
     /tmp/cclkHTet.s:60     .text.USBD_DeInit:0000000000000000 $t
     /tmp/cclkHTet.s:67     .text.USBD_DeInit:0000000000000000 USBD_DeInit
     /tmp/cclkHTet.s:86     .text.USBD_RegisterClass:0000000000000000 $t
     /tmp/cclkHTet.s:93     .text.USBD_RegisterClass:0000000000000000 USBD_RegisterClass
     /tmp/cclkHTet.s:106    .text.USBD_Start:0000000000000000 $t
     /tmp/cclkHTet.s:113    .text.USBD_Start:0000000000000000 USBD_Start
     /tmp/cclkHTet.s:122    .text.USBD_Stop:0000000000000000 $t
     /tmp/cclkHTet.s:129    .text.USBD_Stop:0000000000000000 USBD_Stop
     /tmp/cclkHTet.s:144    .text.USBD_RunTestMode:0000000000000000 $t
     /tmp/cclkHTet.s:151    .text.USBD_RunTestMode:0000000000000000 USBD_RunTestMode
     /tmp/cclkHTet.s:159    .text.USBD_SetClassConfig:0000000000000000 $t
     /tmp/cclkHTet.s:166    .text.USBD_SetClassConfig:0000000000000000 USBD_SetClassConfig
     /tmp/cclkHTet.s:183    .text.USBD_ClrClassConfig:0000000000000000 $t
     /tmp/cclkHTet.s:190    .text.USBD_ClrClassConfig:0000000000000000 USBD_ClrClassConfig
     /tmp/cclkHTet.s:201    .text.USBD_LL_SetupStage:0000000000000000 $t
     /tmp/cclkHTet.s:208    .text.USBD_LL_SetupStage:0000000000000000 USBD_LL_SetupStage
     /tmp/cclkHTet.s:250    .text.USBD_LL_DataOutStage:0000000000000000 $t
     /tmp/cclkHTet.s:257    .text.USBD_LL_DataOutStage:0000000000000000 USBD_LL_DataOutStage
     /tmp/cclkHTet.s:306    .text.USBD_LL_DataInStage:0000000000000000 $t
     /tmp/cclkHTet.s:313    .text.USBD_LL_DataInStage:0000000000000000 USBD_LL_DataInStage
     /tmp/cclkHTet.s:389    .text.USBD_LL_Reset:0000000000000000 $t
     /tmp/cclkHTet.s:396    .text.USBD_LL_Reset:0000000000000000 USBD_LL_Reset
     /tmp/cclkHTet.s:427    .text.USBD_LL_SetSpeed:0000000000000000 $t
     /tmp/cclkHTet.s:434    .text.USBD_LL_SetSpeed:0000000000000000 USBD_LL_SetSpeed
     /tmp/cclkHTet.s:443    .text.USBD_LL_Suspend:0000000000000000 $t
     /tmp/cclkHTet.s:450    .text.USBD_LL_Suspend:0000000000000000 USBD_LL_Suspend
     /tmp/cclkHTet.s:462    .text.USBD_LL_Resume:0000000000000000 $t
     /tmp/cclkHTet.s:469    .text.USBD_LL_Resume:0000000000000000 USBD_LL_Resume
     /tmp/cclkHTet.s:479    .text.USBD_LL_SOF:0000000000000000 $t
     /tmp/cclkHTet.s:486    .text.USBD_LL_SOF:0000000000000000 USBD_LL_SOF
     /tmp/cclkHTet.s:502    .text.USBD_LL_IsoINIncomplete:0000000000000000 $t
     /tmp/cclkHTet.s:509    .text.USBD_LL_IsoINIncomplete:0000000000000000 USBD_LL_IsoINIncomplete
     /tmp/cclkHTet.s:517    .text.USBD_LL_IsoOUTIncomplete:0000000000000000 $t
     /tmp/cclkHTet.s:524    .text.USBD_LL_IsoOUTIncomplete:0000000000000000 USBD_LL_IsoOUTIncomplete
     /tmp/cclkHTet.s:532    .text.USBD_LL_DevConnected:0000000000000000 $t
     /tmp/cclkHTet.s:539    .text.USBD_LL_DevConnected:0000000000000000 USBD_LL_DevConnected
     /tmp/cclkHTet.s:547    .text.USBD_LL_DevDisconnected:0000000000000000 $t
     /tmp/cclkHTet.s:554    .text.USBD_LL_DevDisconnected:0000000000000000 USBD_LL_DevDisconnected

UNDEFINED SYMBOLS
CONSOLE_PrintLn
USBD_LL_Init
USBD_LL_Stop
USBD_LL_DeInit
USBD_LL_Start
USBD_ParseSetupRequest
USBD_LL_StallEP
USBD_StdDevReq
USBD_StdItfReq
USBD_StdEPReq
USBD_CtlContinueRx
USBD_CtlSendStatus
ARM GAS  /tmp/cclkHTet.s 			page 12


USBD_CtlContinueSendData
USBD_LL_PrepareReceive
USBD_CtlReceiveStatus
USBD_LL_OpenEP
