ARM GAS  /tmp/ccqjAAcg.s 			page 1


   1              		.cpu cortex-m3
   2              		.eabi_attribute 20, 1
   3              		.eabi_attribute 21, 1
   4              		.eabi_attribute 23, 3
   5              		.eabi_attribute 24, 1
   6              		.eabi_attribute 25, 1
   7              		.eabi_attribute 26, 1
   8              		.eabi_attribute 30, 4
   9              		.eabi_attribute 34, 1
  10              		.eabi_attribute 18, 4
  11              		.file	"pca9555.c"
  12              		.text
  13              		.section	.text._PCA9555_WriteRegister,"ax",%progbits
  14              		.align	1
  15              		.arch armv7-m
  16              		.syntax unified
  17              		.thumb
  18              		.thumb_func
  19              		.fpu softvfp
  21              	_PCA9555_WriteRegister:
  22              		@ args = 0, pretend = 0, frame = 8
  23              		@ frame_needed = 0, uses_anonymous_args = 0
  24 0000 13B5     		push	{r0, r1, r4, lr}
  25 0002 8DF80410 		strb	r1, [sp, #4]
  26 0006 4178     		ldrb	r1, [r0, #1]	@ zero_extendqisi2
  27 0008 064B     		ldr	r3, .L2
  28 000a 4900     		lsls	r1, r1, #1
  29 000c 1C68     		ldr	r4, [r3]
  30 000e 8DF80520 		strb	r2, [sp, #5]
  31 0012 0078     		ldrb	r0, [r0]	@ zero_extendqisi2
  32 0014 0222     		movs	r2, #2
  33 0016 01AB     		add	r3, sp, #4
  34 0018 01F0FE01 		and	r1, r1, #254
  35 001c A047     		blx	r4
  36 001e 02B0     		add	sp, sp, #8
  37              		@ sp needed
  38 0020 10BD     		pop	{r4, pc}
  39              	.L3:
  40 0022 00BF     		.align	2
  41              	.L2:
  42 0024 00000000 		.word	.LANCHOR0
  44              		.section	.text._PCA9555_ReadRegister,"ax",%progbits
  45              		.align	1
  46              		.syntax unified
  47              		.thumb
  48              		.thumb_func
  49              		.fpu softvfp
  51              	_PCA9555_ReadRegister:
  52              		@ args = 0, pretend = 0, frame = 8
  53              		@ frame_needed = 0, uses_anonymous_args = 0
  54 0000 73B5     		push	{r0, r1, r4, r5, r6, lr}
  55 0002 0446     		mov	r4, r0
  56 0004 8DF80710 		strb	r1, [sp, #7]
  57 0008 4178     		ldrb	r1, [r0, #1]	@ zero_extendqisi2
  58 000a 094D     		ldr	r5, .L5
  59 000c 4900     		lsls	r1, r1, #1
  60 000e 0131     		adds	r1, r1, #1
ARM GAS  /tmp/ccqjAAcg.s 			page 2


  61 0010 0DF10703 		add	r3, sp, #7
  62 0014 0122     		movs	r2, #1
  63 0016 2E68     		ldr	r6, [r5]
  64 0018 0078     		ldrb	r0, [r0]	@ zero_extendqisi2
  65 001a C9B2     		uxtb	r1, r1
  66 001c B047     		blx	r6
  67 001e 0122     		movs	r2, #1
  68 0020 6B68     		ldr	r3, [r5, #4]
  69 0022 6178     		ldrb	r1, [r4, #1]	@ zero_extendqisi2
  70 0024 2078     		ldrb	r0, [r4]	@ zero_extendqisi2
  71 0026 9847     		blx	r3
  72 0028 0078     		ldrb	r0, [r0]	@ zero_extendqisi2
  73 002a 02B0     		add	sp, sp, #8
  74              		@ sp needed
  75 002c 70BD     		pop	{r4, r5, r6, pc}
  76              	.L6:
  77 002e 00BF     		.align	2
  78              	.L5:
  79 0030 00000000 		.word	.LANCHOR0
  81              		.section	.text._PCA9555_UpdateCfgRegisterFromBuf,"ax",%progbits
  82              		.align	1
  83              		.syntax unified
  84              		.thumb
  85              		.thumb_func
  86              		.fpu softvfp
  88              	_PCA9555_UpdateCfgRegisterFromBuf:
  89              		@ args = 0, pretend = 0, frame = 0
  90              		@ frame_needed = 0, uses_anonymous_args = 0
  91              		@ link register save eliminated.
  92 0000 11B1     		cbz	r1, .L8
  93 0002 0129     		cmp	r1, #1
  94 0004 04D0     		beq	.L9
  95 0006 7047     		bx	lr
  96              	.L8:
  97 0008 0621     		movs	r1, #6
  98 000a 8278     		ldrb	r2, [r0, #2]	@ zero_extendqisi2
  99              	.L12:
 100 000c FFF7FEBF 		b	_PCA9555_WriteRegister
 101              	.L9:
 102 0010 0721     		movs	r1, #7
 103 0012 4279     		ldrb	r2, [r0, #5]	@ zero_extendqisi2
 104 0014 FAE7     		b	.L12
 106              		.section	.text._PCA9555_UpdateInvRegisterFromBuf,"ax",%progbits
 107              		.align	1
 108              		.syntax unified
 109              		.thumb
 110              		.thumb_func
 111              		.fpu softvfp
 113              	_PCA9555_UpdateInvRegisterFromBuf:
 114              		@ args = 0, pretend = 0, frame = 0
 115              		@ frame_needed = 0, uses_anonymous_args = 0
 116              		@ link register save eliminated.
 117 0000 11B1     		cbz	r1, .L14
 118 0002 0129     		cmp	r1, #1
 119 0004 04D0     		beq	.L15
 120 0006 7047     		bx	lr
 121              	.L14:
ARM GAS  /tmp/ccqjAAcg.s 			page 3


 122 0008 0421     		movs	r1, #4
 123 000a C278     		ldrb	r2, [r0, #3]	@ zero_extendqisi2
 124              	.L18:
 125 000c FFF7FEBF 		b	_PCA9555_WriteRegister
 126              	.L15:
 127 0010 0521     		movs	r1, #5
 128 0012 8279     		ldrb	r2, [r0, #6]	@ zero_extendqisi2
 129 0014 FAE7     		b	.L18
 131              		.section	.text._PCA9555_UpdateStateRegisterFromBuf,"ax",%progbits
 132              		.align	1
 133              		.syntax unified
 134              		.thumb
 135              		.thumb_func
 136              		.fpu softvfp
 138              	_PCA9555_UpdateStateRegisterFromBuf:
 139              		@ args = 0, pretend = 0, frame = 0
 140              		@ frame_needed = 0, uses_anonymous_args = 0
 141              		@ link register save eliminated.
 142 0000 11B1     		cbz	r1, .L20
 143 0002 0129     		cmp	r1, #1
 144 0004 04D0     		beq	.L21
 145 0006 7047     		bx	lr
 146              	.L20:
 147 0008 0221     		movs	r1, #2
 148 000a 0279     		ldrb	r2, [r0, #4]	@ zero_extendqisi2
 149              	.L24:
 150 000c FFF7FEBF 		b	_PCA9555_WriteRegister
 151              	.L21:
 152 0010 0321     		movs	r1, #3
 153 0012 C279     		ldrb	r2, [r0, #7]	@ zero_extendqisi2
 154 0014 FAE7     		b	.L24
 156              		.section	.text.PCA9555_LibInit,"ax",%progbits
 157              		.align	1
 158              		.global	PCA9555_LibInit
 159              		.syntax unified
 160              		.thumb
 161              		.thumb_func
 162              		.fpu softvfp
 164              	PCA9555_LibInit:
 165              		@ args = 0, pretend = 0, frame = 0
 166              		@ frame_needed = 0, uses_anonymous_args = 0
 167              		@ link register save eliminated.
 168 0000 024B     		ldr	r3, .L26
 169 0002 03C8     		ldm	r0, {r0, r1}
 170 0004 83E80300 		stm	r3, {r0, r1}
 171 0008 7047     		bx	lr
 172              	.L27:
 173 000a 00BF     		.align	2
 174              	.L26:
 175 000c 00000000 		.word	.LANCHOR0
 177              		.section	.text.PCA9555_WritePin,"ax",%progbits
 178              		.align	1
 179              		.global	PCA9555_WritePin
 180              		.syntax unified
 181              		.thumb
 182              		.thumb_func
 183              		.fpu softvfp
ARM GAS  /tmp/ccqjAAcg.s 			page 4


 185              	PCA9555_WritePin:
 186              		@ args = 0, pretend = 0, frame = 0
 187              		@ frame_needed = 0, uses_anonymous_args = 0
 188              		@ link register save eliminated.
 189 0000 0129     		cmp	r1, #1
 190 0002 24D8     		bhi	.L28
 191 0004 072A     		cmp	r2, #7
 192 0006 22D8     		bhi	.L28
 193 0008 0129     		cmp	r1, #1
 194 000a 10D0     		beq	.L30
 195 000c 13B1     		cbz	r3, .L31
 196 000e 012B     		cmp	r3, #1
 197 0010 08D0     		beq	.L32
 198 0012 7047     		bx	lr
 199              	.L31:
 200 0014 0123     		movs	r3, #1
 201 0016 9340     		lsls	r3, r3, r2
 202 0018 0279     		ldrb	r2, [r0, #4]	@ zero_extendqisi2
 203 001a 22EA0302 		bic	r2, r2, r3
 204              	.L36:
 205 001e 0271     		strb	r2, [r0, #4]
 206              	.L33:
 207 0020 FFF7FEBF 		b	_PCA9555_UpdateStateRegisterFromBuf
 208              	.L32:
 209 0024 03FA02F2 		lsl	r2, r3, r2
 210 0028 0379     		ldrb	r3, [r0, #4]	@ zero_extendqisi2
 211 002a 1A43     		orrs	r2, r2, r3
 212 002c F7E7     		b	.L36
 213              	.L30:
 214 002e 13B1     		cbz	r3, .L34
 215 0030 012B     		cmp	r3, #1
 216 0032 07D0     		beq	.L35
 217 0034 7047     		bx	lr
 218              	.L34:
 219 0036 C379     		ldrb	r3, [r0, #7]	@ zero_extendqisi2
 220 0038 01FA02F2 		lsl	r2, r1, r2
 221 003c 23EA0202 		bic	r2, r3, r2
 222              	.L37:
 223 0040 C271     		strb	r2, [r0, #7]
 224 0042 EDE7     		b	.L33
 225              	.L35:
 226 0044 C379     		ldrb	r3, [r0, #7]	@ zero_extendqisi2
 227 0046 01FA02F2 		lsl	r2, r1, r2
 228 004a 1A43     		orrs	r2, r2, r3
 229 004c F8E7     		b	.L37
 230              	.L28:
 231 004e 7047     		bx	lr
 233              		.section	.text.PCA9555_WritePort,"ax",%progbits
 234              		.align	1
 235              		.global	PCA9555_WritePort
 236              		.syntax unified
 237              		.thumb
 238              		.thumb_func
 239              		.fpu softvfp
 241              	PCA9555_WritePort:
 242              		@ args = 0, pretend = 0, frame = 0
 243              		@ frame_needed = 0, uses_anonymous_args = 0
ARM GAS  /tmp/ccqjAAcg.s 			page 5


 244              		@ link register save eliminated.
 245 0000 11B1     		cbz	r1, .L39
 246 0002 0129     		cmp	r1, #1
 247 0004 03D0     		beq	.L40
 248 0006 7047     		bx	lr
 249              	.L39:
 250 0008 0271     		strb	r2, [r0, #4]
 251              	.L42:
 252 000a FFF7FEBF 		b	_PCA9555_UpdateStateRegisterFromBuf
 253              	.L40:
 254 000e C271     		strb	r2, [r0, #7]
 255 0010 FBE7     		b	.L42
 257              		.section	.text.PCA9555_ReadPin,"ax",%progbits
 258              		.align	1
 259              		.global	PCA9555_ReadPin
 260              		.syntax unified
 261              		.thumb
 262              		.thumb_func
 263              		.fpu softvfp
 265              	PCA9555_ReadPin:
 266              		@ args = 0, pretend = 0, frame = 0
 267              		@ frame_needed = 0, uses_anonymous_args = 0
 268 0000 072A     		cmp	r2, #7
 269 0002 10B5     		push	{r4, lr}
 270 0004 1446     		mov	r4, r2
 271 0006 02D8     		bhi	.L49
 272 0008 19B1     		cbz	r1, .L47
 273 000a 0129     		cmp	r1, #1
 274 000c 01D0     		beq	.L47
 275              	.L49:
 276 000e 0020     		movs	r0, #0
 277 0010 04E0     		b	.L45
 278              	.L47:
 279 0012 FFF7FEFF 		bl	_PCA9555_ReadRegister
 280 0016 2041     		asrs	r0, r0, r4
 281 0018 00F00100 		and	r0, r0, #1
 282              	.L45:
 283 001c 10BD     		pop	{r4, pc}
 285              		.section	.text.PCA9555_ReadPort,"ax",%progbits
 286              		.align	1
 287              		.global	PCA9555_ReadPort
 288              		.syntax unified
 289              		.thumb
 290              		.thumb_func
 291              		.fpu softvfp
 293              	PCA9555_ReadPort:
 294              		@ args = 0, pretend = 0, frame = 0
 295              		@ frame_needed = 0, uses_anonymous_args = 0
 296              		@ link register save eliminated.
 297 0000 19B1     		cbz	r1, .L52
 298 0002 0129     		cmp	r1, #1
 299 0004 01D0     		beq	.L52
 300 0006 0020     		movs	r0, #0
 301 0008 7047     		bx	lr
 302              	.L52:
 303 000a FFF7FEBF 		b	_PCA9555_ReadRegister
 305              		.section	.text.PCA9555_ConfigPinMode,"ax",%progbits
ARM GAS  /tmp/ccqjAAcg.s 			page 6


 306              		.align	1
 307              		.global	PCA9555_ConfigPinMode
 308              		.syntax unified
 309              		.thumb
 310              		.thumb_func
 311              		.fpu softvfp
 313              	PCA9555_ConfigPinMode:
 314              		@ args = 0, pretend = 0, frame = 0
 315              		@ frame_needed = 0, uses_anonymous_args = 0
 316              		@ link register save eliminated.
 317 0000 0129     		cmp	r1, #1
 318 0002 24D8     		bhi	.L55
 319 0004 072A     		cmp	r2, #7
 320 0006 22D8     		bhi	.L55
 321 0008 0129     		cmp	r1, #1
 322 000a 10D0     		beq	.L57
 323 000c 13B1     		cbz	r3, .L58
 324 000e 012B     		cmp	r3, #1
 325 0010 08D0     		beq	.L59
 326 0012 7047     		bx	lr
 327              	.L58:
 328 0014 0123     		movs	r3, #1
 329 0016 9340     		lsls	r3, r3, r2
 330 0018 8278     		ldrb	r2, [r0, #2]	@ zero_extendqisi2
 331 001a 22EA0302 		bic	r2, r2, r3
 332              	.L63:
 333 001e 8270     		strb	r2, [r0, #2]
 334              	.L60:
 335 0020 FFF7FEBF 		b	_PCA9555_UpdateCfgRegisterFromBuf
 336              	.L59:
 337 0024 03FA02F2 		lsl	r2, r3, r2
 338 0028 8378     		ldrb	r3, [r0, #2]	@ zero_extendqisi2
 339 002a 1A43     		orrs	r2, r2, r3
 340 002c F7E7     		b	.L63
 341              	.L57:
 342 002e 13B1     		cbz	r3, .L61
 343 0030 012B     		cmp	r3, #1
 344 0032 07D0     		beq	.L62
 345 0034 7047     		bx	lr
 346              	.L61:
 347 0036 4379     		ldrb	r3, [r0, #5]	@ zero_extendqisi2
 348 0038 01FA02F2 		lsl	r2, r1, r2
 349 003c 23EA0202 		bic	r2, r3, r2
 350              	.L64:
 351 0040 4271     		strb	r2, [r0, #5]
 352 0042 EDE7     		b	.L60
 353              	.L62:
 354 0044 4379     		ldrb	r3, [r0, #5]	@ zero_extendqisi2
 355 0046 01FA02F2 		lsl	r2, r1, r2
 356 004a 1A43     		orrs	r2, r2, r3
 357 004c F8E7     		b	.L64
 358              	.L55:
 359 004e 7047     		bx	lr
 361              		.section	.text.PCA9555_ConfigPortPinMode,"ax",%progbits
 362              		.align	1
 363              		.global	PCA9555_ConfigPortPinMode
 364              		.syntax unified
ARM GAS  /tmp/ccqjAAcg.s 			page 7


 365              		.thumb
 366              		.thumb_func
 367              		.fpu softvfp
 369              	PCA9555_ConfigPortPinMode:
 370              		@ args = 0, pretend = 0, frame = 0
 371              		@ frame_needed = 0, uses_anonymous_args = 0
 372              		@ link register save eliminated.
 373 0000 11B1     		cbz	r1, .L66
 374 0002 0129     		cmp	r1, #1
 375 0004 03D0     		beq	.L67
 376 0006 7047     		bx	lr
 377              	.L66:
 378 0008 8270     		strb	r2, [r0, #2]
 379              	.L69:
 380 000a FFF7FEBF 		b	_PCA9555_UpdateCfgRegisterFromBuf
 381              	.L67:
 382 000e 4271     		strb	r2, [r0, #5]
 383 0010 FBE7     		b	.L69
 385              		.section	.text.PCA9555_ConfigPinInputInversion,"ax",%progbits
 386              		.align	1
 387              		.global	PCA9555_ConfigPinInputInversion
 388              		.syntax unified
 389              		.thumb
 390              		.thumb_func
 391              		.fpu softvfp
 393              	PCA9555_ConfigPinInputInversion:
 394              		@ args = 0, pretend = 0, frame = 0
 395              		@ frame_needed = 0, uses_anonymous_args = 0
 396              		@ link register save eliminated.
 397 0000 0129     		cmp	r1, #1
 398 0002 24D8     		bhi	.L71
 399 0004 072A     		cmp	r2, #7
 400 0006 22D8     		bhi	.L71
 401 0008 0129     		cmp	r1, #1
 402 000a 10D0     		beq	.L73
 403 000c 13B1     		cbz	r3, .L74
 404 000e 012B     		cmp	r3, #1
 405 0010 08D0     		beq	.L75
 406 0012 7047     		bx	lr
 407              	.L74:
 408 0014 0123     		movs	r3, #1
 409 0016 9340     		lsls	r3, r3, r2
 410 0018 C278     		ldrb	r2, [r0, #3]	@ zero_extendqisi2
 411 001a 22EA0302 		bic	r2, r2, r3
 412              	.L79:
 413 001e C270     		strb	r2, [r0, #3]
 414              	.L76:
 415 0020 FFF7FEBF 		b	_PCA9555_UpdateInvRegisterFromBuf
 416              	.L75:
 417 0024 03FA02F2 		lsl	r2, r3, r2
 418 0028 C378     		ldrb	r3, [r0, #3]	@ zero_extendqisi2
 419 002a 1A43     		orrs	r2, r2, r3
 420 002c F7E7     		b	.L79
 421              	.L73:
 422 002e 13B1     		cbz	r3, .L77
 423 0030 012B     		cmp	r3, #1
 424 0032 07D0     		beq	.L78
ARM GAS  /tmp/ccqjAAcg.s 			page 8


 425 0034 7047     		bx	lr
 426              	.L77:
 427 0036 8379     		ldrb	r3, [r0, #6]	@ zero_extendqisi2
 428 0038 01FA02F2 		lsl	r2, r1, r2
 429 003c 23EA0202 		bic	r2, r3, r2
 430              	.L80:
 431 0040 8271     		strb	r2, [r0, #6]
 432 0042 EDE7     		b	.L76
 433              	.L78:
 434 0044 8379     		ldrb	r3, [r0, #6]	@ zero_extendqisi2
 435 0046 01FA02F2 		lsl	r2, r1, r2
 436 004a 1A43     		orrs	r2, r2, r3
 437 004c F8E7     		b	.L80
 438              	.L71:
 439 004e 7047     		bx	lr
 441              		.section	.text.PCA9555_ConfigPortPinInputInversion,"ax",%progbits
 442              		.align	1
 443              		.global	PCA9555_ConfigPortPinInputInversion
 444              		.syntax unified
 445              		.thumb
 446              		.thumb_func
 447              		.fpu softvfp
 449              	PCA9555_ConfigPortPinInputInversion:
 450              		@ args = 0, pretend = 0, frame = 0
 451              		@ frame_needed = 0, uses_anonymous_args = 0
 452              		@ link register save eliminated.
 453 0000 11B1     		cbz	r1, .L82
 454 0002 0129     		cmp	r1, #1
 455 0004 03D0     		beq	.L83
 456 0006 7047     		bx	lr
 457              	.L82:
 458 0008 C270     		strb	r2, [r0, #3]
 459              	.L85:
 460 000a FFF7FEBF 		b	_PCA9555_UpdateInvRegisterFromBuf
 461              	.L83:
 462 000e 8271     		strb	r2, [r0, #6]
 463 0010 FBE7     		b	.L85
 465              		.section	.bss._lib_cfg,"aw",%nobits
 466              		.align	2
 467              		.set	.LANCHOR0,. + 0
 470              	_lib_cfg:
 471 0000 00000000 		.space	8
 471      00000000 
 472              		.ident	"GCC: (GNU Tools for Arm Embedded Processors 9-2019-q4-major) 9.2.1 20191025 (release) [ARM
ARM GAS  /tmp/ccqjAAcg.s 			page 9

